ARM GAS  C:\Users\KHJTON~1\AppData\Local\Temp\ccRDKTIQ.s 			page 1


   1              		.syntax unified
   2              		.cpu cortex-m3
   3              		.fpu softvfp
   4              		.eabi_attribute 20, 1
   5              		.eabi_attribute 21, 1
   6              		.eabi_attribute 23, 3
   7              		.eabi_attribute 24, 1
   8              		.eabi_attribute 25, 1
   9              		.eabi_attribute 26, 1
  10              		.eabi_attribute 30, 6
  11              		.eabi_attribute 34, 1
  12              		.eabi_attribute 18, 4
  13              		.thumb
  14              		.file	"Button_Status.c"
  15              		.text
  16              	.Ltext0:
  17              		.cfi_sections	.debug_frame
  18              		.section	.text.Button_Status_Read,"ax",%progbits
  19              		.align	2
  20              		.global	Button_Status_Read
  21              		.thumb
  22              		.thumb_func
  23              		.type	Button_Status_Read, %function
  24              	Button_Status_Read:
  25              	.LFB0:
  26              		.file 1 ".\\Generated_Source\\PSoC5\\Button_Status.c"
   1:.\Generated_Source\PSoC5/Button_Status.c **** /*******************************************************************************
   2:.\Generated_Source\PSoC5/Button_Status.c **** * File Name: Button_Status.c  
   3:.\Generated_Source\PSoC5/Button_Status.c **** * Version 1.80
   4:.\Generated_Source\PSoC5/Button_Status.c **** *
   5:.\Generated_Source\PSoC5/Button_Status.c **** * Description:
   6:.\Generated_Source\PSoC5/Button_Status.c **** *  This file contains API to enable firmware to read the value of a Status 
   7:.\Generated_Source\PSoC5/Button_Status.c **** *  Register.
   8:.\Generated_Source\PSoC5/Button_Status.c **** *
   9:.\Generated_Source\PSoC5/Button_Status.c **** * Note:
  10:.\Generated_Source\PSoC5/Button_Status.c **** *
  11:.\Generated_Source\PSoC5/Button_Status.c **** ********************************************************************************
  12:.\Generated_Source\PSoC5/Button_Status.c **** * Copyright 2008-2012, Cypress Semiconductor Corporation.  All rights reserved.
  13:.\Generated_Source\PSoC5/Button_Status.c **** * You may use this file only in accordance with the license, terms, conditions, 
  14:.\Generated_Source\PSoC5/Button_Status.c **** * disclaimers, and limitations in the end user license agreement accompanying 
  15:.\Generated_Source\PSoC5/Button_Status.c **** * the software package with which this file was provided.
  16:.\Generated_Source\PSoC5/Button_Status.c **** *******************************************************************************/
  17:.\Generated_Source\PSoC5/Button_Status.c **** 
  18:.\Generated_Source\PSoC5/Button_Status.c **** #include "Button_Status.h"
  19:.\Generated_Source\PSoC5/Button_Status.c **** 
  20:.\Generated_Source\PSoC5/Button_Status.c **** #if !defined(Button_Status_sts_sts_reg__REMOVED) /* Check for removal by optimization */
  21:.\Generated_Source\PSoC5/Button_Status.c **** 
  22:.\Generated_Source\PSoC5/Button_Status.c **** 
  23:.\Generated_Source\PSoC5/Button_Status.c **** /*******************************************************************************
  24:.\Generated_Source\PSoC5/Button_Status.c **** * Function Name: Button_Status_Read
  25:.\Generated_Source\PSoC5/Button_Status.c **** ********************************************************************************
  26:.\Generated_Source\PSoC5/Button_Status.c **** *
  27:.\Generated_Source\PSoC5/Button_Status.c **** * Summary:
  28:.\Generated_Source\PSoC5/Button_Status.c **** *  Reads the current value assigned to the Status Register.
  29:.\Generated_Source\PSoC5/Button_Status.c **** *
  30:.\Generated_Source\PSoC5/Button_Status.c **** * Parameters:
  31:.\Generated_Source\PSoC5/Button_Status.c **** *  None.
ARM GAS  C:\Users\KHJTON~1\AppData\Local\Temp\ccRDKTIQ.s 			page 2


  32:.\Generated_Source\PSoC5/Button_Status.c **** *
  33:.\Generated_Source\PSoC5/Button_Status.c **** * Return:
  34:.\Generated_Source\PSoC5/Button_Status.c **** *  The current value in the Status Register.
  35:.\Generated_Source\PSoC5/Button_Status.c **** *
  36:.\Generated_Source\PSoC5/Button_Status.c **** *******************************************************************************/
  37:.\Generated_Source\PSoC5/Button_Status.c **** uint8 Button_Status_Read(void) 
  38:.\Generated_Source\PSoC5/Button_Status.c **** { 
  27              		.loc 1 38 0
  28              		.cfi_startproc
  29              		@ args = 0, pretend = 0, frame = 0
  30              		@ frame_needed = 1, uses_anonymous_args = 0
  31              		@ link register save eliminated.
  32 0000 80B4     		push	{r7}
  33              		.cfi_def_cfa_offset 4
  34              		.cfi_offset 7, -4
  35 0002 00AF     		add	r7, sp, #0
  36              		.cfi_def_cfa_register 7
  39:.\Generated_Source\PSoC5/Button_Status.c ****     return Button_Status_Status;
  37              		.loc 1 39 0
  38 0004 034B     		ldr	r3, .L3
  39 0006 1B78     		ldrb	r3, [r3]
  40 0008 DBB2     		uxtb	r3, r3
  40:.\Generated_Source\PSoC5/Button_Status.c **** }
  41              		.loc 1 40 0
  42 000a 1846     		mov	r0, r3
  43 000c BD46     		mov	sp, r7
  44              		@ sp needed
  45 000e 5DF8047B 		ldr	r7, [sp], #4
  46 0012 7047     		bx	lr
  47              	.L4:
  48              		.align	2
  49              	.L3:
  50 0014 64650040 		.word	1073767780
  51              		.cfi_endproc
  52              	.LFE0:
  53              		.size	Button_Status_Read, .-Button_Status_Read
  54              		.section	.text.Button_Status_InterruptEnable,"ax",%progbits
  55              		.align	2
  56              		.global	Button_Status_InterruptEnable
  57              		.thumb
  58              		.thumb_func
  59              		.type	Button_Status_InterruptEnable, %function
  60              	Button_Status_InterruptEnable:
  61              	.LFB1:
  41:.\Generated_Source\PSoC5/Button_Status.c **** 
  42:.\Generated_Source\PSoC5/Button_Status.c **** 
  43:.\Generated_Source\PSoC5/Button_Status.c **** /*******************************************************************************
  44:.\Generated_Source\PSoC5/Button_Status.c **** * Function Name: Button_Status_InterruptEnable
  45:.\Generated_Source\PSoC5/Button_Status.c **** ********************************************************************************
  46:.\Generated_Source\PSoC5/Button_Status.c **** *
  47:.\Generated_Source\PSoC5/Button_Status.c **** * Summary:
  48:.\Generated_Source\PSoC5/Button_Status.c **** *  Enables the Status Register interrupt.
  49:.\Generated_Source\PSoC5/Button_Status.c **** *
  50:.\Generated_Source\PSoC5/Button_Status.c **** * Parameters:
  51:.\Generated_Source\PSoC5/Button_Status.c **** *  None.
  52:.\Generated_Source\PSoC5/Button_Status.c **** *
  53:.\Generated_Source\PSoC5/Button_Status.c **** * Return:
ARM GAS  C:\Users\KHJTON~1\AppData\Local\Temp\ccRDKTIQ.s 			page 3


  54:.\Generated_Source\PSoC5/Button_Status.c **** *  None.
  55:.\Generated_Source\PSoC5/Button_Status.c **** *
  56:.\Generated_Source\PSoC5/Button_Status.c **** *******************************************************************************/
  57:.\Generated_Source\PSoC5/Button_Status.c **** void Button_Status_InterruptEnable(void) 
  58:.\Generated_Source\PSoC5/Button_Status.c **** {
  62              		.loc 1 58 0
  63              		.cfi_startproc
  64              		@ args = 0, pretend = 0, frame = 8
  65              		@ frame_needed = 1, uses_anonymous_args = 0
  66 0000 80B5     		push	{r7, lr}
  67              		.cfi_def_cfa_offset 8
  68              		.cfi_offset 7, -8
  69              		.cfi_offset 14, -4
  70 0002 82B0     		sub	sp, sp, #8
  71              		.cfi_def_cfa_offset 16
  72 0004 00AF     		add	r7, sp, #0
  73              		.cfi_def_cfa_register 7
  59:.\Generated_Source\PSoC5/Button_Status.c ****     uint8 interruptState;
  60:.\Generated_Source\PSoC5/Button_Status.c ****     interruptState = CyEnterCriticalSection();
  74              		.loc 1 60 0
  75 0006 FFF7FEFF 		bl	CyEnterCriticalSection
  76 000a 0346     		mov	r3, r0
  77 000c FB71     		strb	r3, [r7, #7]
  61:.\Generated_Source\PSoC5/Button_Status.c ****     Button_Status_Status_Aux_Ctrl |= Button_Status_STATUS_INTR_ENBL;
  78              		.loc 1 61 0
  79 000e 074B     		ldr	r3, .L6
  80 0010 064A     		ldr	r2, .L6
  81 0012 1278     		ldrb	r2, [r2]
  82 0014 D2B2     		uxtb	r2, r2
  83 0016 42F01002 		orr	r2, r2, #16
  84 001a D2B2     		uxtb	r2, r2
  85 001c 1A70     		strb	r2, [r3]
  62:.\Generated_Source\PSoC5/Button_Status.c ****     CyExitCriticalSection(interruptState);
  86              		.loc 1 62 0
  87 001e FB79     		ldrb	r3, [r7, #7]	@ zero_extendqisi2
  88 0020 1846     		mov	r0, r3
  89 0022 FFF7FEFF 		bl	CyExitCriticalSection
  63:.\Generated_Source\PSoC5/Button_Status.c **** }
  90              		.loc 1 63 0
  91 0026 0837     		adds	r7, r7, #8
  92 0028 BD46     		mov	sp, r7
  93              		@ sp needed
  94 002a 80BD     		pop	{r7, pc}
  95              	.L7:
  96              		.align	2
  97              	.L6:
  98 002c 94650040 		.word	1073767828
  99              		.cfi_endproc
 100              	.LFE1:
 101              		.size	Button_Status_InterruptEnable, .-Button_Status_InterruptEnable
 102              		.section	.text.Button_Status_InterruptDisable,"ax",%progbits
 103              		.align	2
 104              		.global	Button_Status_InterruptDisable
 105              		.thumb
 106              		.thumb_func
 107              		.type	Button_Status_InterruptDisable, %function
 108              	Button_Status_InterruptDisable:
ARM GAS  C:\Users\KHJTON~1\AppData\Local\Temp\ccRDKTIQ.s 			page 4


 109              	.LFB2:
  64:.\Generated_Source\PSoC5/Button_Status.c **** 
  65:.\Generated_Source\PSoC5/Button_Status.c **** 
  66:.\Generated_Source\PSoC5/Button_Status.c **** /*******************************************************************************
  67:.\Generated_Source\PSoC5/Button_Status.c **** * Function Name: Button_Status_InterruptDisable
  68:.\Generated_Source\PSoC5/Button_Status.c **** ********************************************************************************
  69:.\Generated_Source\PSoC5/Button_Status.c **** *
  70:.\Generated_Source\PSoC5/Button_Status.c **** * Summary:
  71:.\Generated_Source\PSoC5/Button_Status.c **** *  Disables the Status Register interrupt.
  72:.\Generated_Source\PSoC5/Button_Status.c **** *
  73:.\Generated_Source\PSoC5/Button_Status.c **** * Parameters:
  74:.\Generated_Source\PSoC5/Button_Status.c **** *  None.
  75:.\Generated_Source\PSoC5/Button_Status.c **** *
  76:.\Generated_Source\PSoC5/Button_Status.c **** * Return:
  77:.\Generated_Source\PSoC5/Button_Status.c **** *  None.
  78:.\Generated_Source\PSoC5/Button_Status.c **** *
  79:.\Generated_Source\PSoC5/Button_Status.c **** *******************************************************************************/
  80:.\Generated_Source\PSoC5/Button_Status.c **** void Button_Status_InterruptDisable(void) 
  81:.\Generated_Source\PSoC5/Button_Status.c **** {
 110              		.loc 1 81 0
 111              		.cfi_startproc
 112              		@ args = 0, pretend = 0, frame = 8
 113              		@ frame_needed = 1, uses_anonymous_args = 0
 114 0000 80B5     		push	{r7, lr}
 115              		.cfi_def_cfa_offset 8
 116              		.cfi_offset 7, -8
 117              		.cfi_offset 14, -4
 118 0002 82B0     		sub	sp, sp, #8
 119              		.cfi_def_cfa_offset 16
 120 0004 00AF     		add	r7, sp, #0
 121              		.cfi_def_cfa_register 7
  82:.\Generated_Source\PSoC5/Button_Status.c ****     uint8 interruptState;
  83:.\Generated_Source\PSoC5/Button_Status.c ****     interruptState = CyEnterCriticalSection();
 122              		.loc 1 83 0
 123 0006 FFF7FEFF 		bl	CyEnterCriticalSection
 124 000a 0346     		mov	r3, r0
 125 000c FB71     		strb	r3, [r7, #7]
  84:.\Generated_Source\PSoC5/Button_Status.c ****     Button_Status_Status_Aux_Ctrl &= (uint8)(~Button_Status_STATUS_INTR_ENBL);
 126              		.loc 1 84 0
 127 000e 074B     		ldr	r3, .L9
 128 0010 064A     		ldr	r2, .L9
 129 0012 1278     		ldrb	r2, [r2]
 130 0014 D2B2     		uxtb	r2, r2
 131 0016 22F01002 		bic	r2, r2, #16
 132 001a D2B2     		uxtb	r2, r2
 133 001c 1A70     		strb	r2, [r3]
  85:.\Generated_Source\PSoC5/Button_Status.c ****     CyExitCriticalSection(interruptState);
 134              		.loc 1 85 0
 135 001e FB79     		ldrb	r3, [r7, #7]	@ zero_extendqisi2
 136 0020 1846     		mov	r0, r3
 137 0022 FFF7FEFF 		bl	CyExitCriticalSection
  86:.\Generated_Source\PSoC5/Button_Status.c **** }
 138              		.loc 1 86 0
 139 0026 0837     		adds	r7, r7, #8
 140 0028 BD46     		mov	sp, r7
 141              		@ sp needed
 142 002a 80BD     		pop	{r7, pc}
ARM GAS  C:\Users\KHJTON~1\AppData\Local\Temp\ccRDKTIQ.s 			page 5


 143              	.L10:
 144              		.align	2
 145              	.L9:
 146 002c 94650040 		.word	1073767828
 147              		.cfi_endproc
 148              	.LFE2:
 149              		.size	Button_Status_InterruptDisable, .-Button_Status_InterruptDisable
 150              		.section	.text.Button_Status_WriteMask,"ax",%progbits
 151              		.align	2
 152              		.global	Button_Status_WriteMask
 153              		.thumb
 154              		.thumb_func
 155              		.type	Button_Status_WriteMask, %function
 156              	Button_Status_WriteMask:
 157              	.LFB3:
  87:.\Generated_Source\PSoC5/Button_Status.c **** 
  88:.\Generated_Source\PSoC5/Button_Status.c **** 
  89:.\Generated_Source\PSoC5/Button_Status.c **** /*******************************************************************************
  90:.\Generated_Source\PSoC5/Button_Status.c **** * Function Name: Button_Status_WriteMask
  91:.\Generated_Source\PSoC5/Button_Status.c **** ********************************************************************************
  92:.\Generated_Source\PSoC5/Button_Status.c **** *
  93:.\Generated_Source\PSoC5/Button_Status.c **** * Summary:
  94:.\Generated_Source\PSoC5/Button_Status.c **** *  Writes the current mask value assigned to the Status Register.
  95:.\Generated_Source\PSoC5/Button_Status.c **** *
  96:.\Generated_Source\PSoC5/Button_Status.c **** * Parameters:
  97:.\Generated_Source\PSoC5/Button_Status.c **** *  mask:  Value to write into the mask register.
  98:.\Generated_Source\PSoC5/Button_Status.c **** *
  99:.\Generated_Source\PSoC5/Button_Status.c **** * Return:
 100:.\Generated_Source\PSoC5/Button_Status.c **** *  None.
 101:.\Generated_Source\PSoC5/Button_Status.c **** *
 102:.\Generated_Source\PSoC5/Button_Status.c **** *******************************************************************************/
 103:.\Generated_Source\PSoC5/Button_Status.c **** void Button_Status_WriteMask(uint8 mask) 
 104:.\Generated_Source\PSoC5/Button_Status.c **** {
 158              		.loc 1 104 0
 159              		.cfi_startproc
 160              		@ args = 0, pretend = 0, frame = 8
 161              		@ frame_needed = 1, uses_anonymous_args = 0
 162              		@ link register save eliminated.
 163 0000 80B4     		push	{r7}
 164              		.cfi_def_cfa_offset 4
 165              		.cfi_offset 7, -4
 166 0002 83B0     		sub	sp, sp, #12
 167              		.cfi_def_cfa_offset 16
 168 0004 00AF     		add	r7, sp, #0
 169              		.cfi_def_cfa_register 7
 170 0006 0346     		mov	r3, r0
 171 0008 FB71     		strb	r3, [r7, #7]
 105:.\Generated_Source\PSoC5/Button_Status.c ****     #if(Button_Status_INPUTS < 8u)
 106:.\Generated_Source\PSoC5/Button_Status.c ****     	mask &= (uint8)((((uint8)1u) << Button_Status_INPUTS) - 1u);
 172              		.loc 1 106 0
 173 000a FB79     		ldrb	r3, [r7, #7]
 174 000c 03F00303 		and	r3, r3, #3
 175 0010 FB71     		strb	r3, [r7, #7]
 107:.\Generated_Source\PSoC5/Button_Status.c **** 	#endif /* End Button_Status_INPUTS < 8u */
 108:.\Generated_Source\PSoC5/Button_Status.c ****     Button_Status_Status_Mask = mask;
 176              		.loc 1 108 0
 177 0012 044B     		ldr	r3, .L12
ARM GAS  C:\Users\KHJTON~1\AppData\Local\Temp\ccRDKTIQ.s 			page 6


 178 0014 FA79     		ldrb	r2, [r7, #7]
 179 0016 1A70     		strb	r2, [r3]
 109:.\Generated_Source\PSoC5/Button_Status.c **** }
 180              		.loc 1 109 0
 181 0018 0C37     		adds	r7, r7, #12
 182 001a BD46     		mov	sp, r7
 183              		@ sp needed
 184 001c 5DF8047B 		ldr	r7, [sp], #4
 185 0020 7047     		bx	lr
 186              	.L13:
 187 0022 00BF     		.align	2
 188              	.L12:
 189 0024 84650040 		.word	1073767812
 190              		.cfi_endproc
 191              	.LFE3:
 192              		.size	Button_Status_WriteMask, .-Button_Status_WriteMask
 193              		.section	.text.Button_Status_ReadMask,"ax",%progbits
 194              		.align	2
 195              		.global	Button_Status_ReadMask
 196              		.thumb
 197              		.thumb_func
 198              		.type	Button_Status_ReadMask, %function
 199              	Button_Status_ReadMask:
 200              	.LFB4:
 110:.\Generated_Source\PSoC5/Button_Status.c **** 
 111:.\Generated_Source\PSoC5/Button_Status.c **** 
 112:.\Generated_Source\PSoC5/Button_Status.c **** /*******************************************************************************
 113:.\Generated_Source\PSoC5/Button_Status.c **** * Function Name: Button_Status_ReadMask
 114:.\Generated_Source\PSoC5/Button_Status.c **** ********************************************************************************
 115:.\Generated_Source\PSoC5/Button_Status.c **** *
 116:.\Generated_Source\PSoC5/Button_Status.c **** * Summary:
 117:.\Generated_Source\PSoC5/Button_Status.c **** *  Reads the current interrupt mask assigned to the Status Register.
 118:.\Generated_Source\PSoC5/Button_Status.c **** *
 119:.\Generated_Source\PSoC5/Button_Status.c **** * Parameters:
 120:.\Generated_Source\PSoC5/Button_Status.c **** *  None.
 121:.\Generated_Source\PSoC5/Button_Status.c **** *
 122:.\Generated_Source\PSoC5/Button_Status.c **** * Return:
 123:.\Generated_Source\PSoC5/Button_Status.c **** *  The value of the interrupt mask of the Status Register.
 124:.\Generated_Source\PSoC5/Button_Status.c **** *
 125:.\Generated_Source\PSoC5/Button_Status.c **** *******************************************************************************/
 126:.\Generated_Source\PSoC5/Button_Status.c **** uint8 Button_Status_ReadMask(void) 
 127:.\Generated_Source\PSoC5/Button_Status.c **** {
 201              		.loc 1 127 0
 202              		.cfi_startproc
 203              		@ args = 0, pretend = 0, frame = 0
 204              		@ frame_needed = 1, uses_anonymous_args = 0
 205              		@ link register save eliminated.
 206 0000 80B4     		push	{r7}
 207              		.cfi_def_cfa_offset 4
 208              		.cfi_offset 7, -4
 209 0002 00AF     		add	r7, sp, #0
 210              		.cfi_def_cfa_register 7
 128:.\Generated_Source\PSoC5/Button_Status.c ****     return Button_Status_Status_Mask;
 211              		.loc 1 128 0
 212 0004 034B     		ldr	r3, .L16
 213 0006 1B78     		ldrb	r3, [r3]
 214 0008 DBB2     		uxtb	r3, r3
ARM GAS  C:\Users\KHJTON~1\AppData\Local\Temp\ccRDKTIQ.s 			page 7


 129:.\Generated_Source\PSoC5/Button_Status.c **** }
 215              		.loc 1 129 0
 216 000a 1846     		mov	r0, r3
 217 000c BD46     		mov	sp, r7
 218              		@ sp needed
 219 000e 5DF8047B 		ldr	r7, [sp], #4
 220 0012 7047     		bx	lr
 221              	.L17:
 222              		.align	2
 223              	.L16:
 224 0014 84650040 		.word	1073767812
 225              		.cfi_endproc
 226              	.LFE4:
 227              		.size	Button_Status_ReadMask, .-Button_Status_ReadMask
 228              		.text
 229              	.Letext0:
 230              		.file 2 ".\\Generated_Source\\PSoC5\\cytypes.h"