ARM GAS  C:\Users\khjtony\AppData\Local\Temp\ccVUmYyo.s 			page 1


   1              		.syntax unified
   2              		.cpu cortex-m3
   3              		.fpu softvfp
   4              		.eabi_attribute 20, 1
   5              		.eabi_attribute 21, 1
   6              		.eabi_attribute 23, 3
   7              		.eabi_attribute 24, 1
   8              		.eabi_attribute 25, 1
   9              		.eabi_attribute 26, 1
  10              		.eabi_attribute 30, 6
  11              		.eabi_attribute 34, 1
  12              		.eabi_attribute 18, 4
  13              		.thumb
  14              		.file	"CAN_1_PM.c"
  15              		.text
  16              	.Ltext0:
  17              		.cfi_sections	.debug_frame
  18              		.data
  19              		.align	2
  20              		.type	CAN_1_backup, %object
  21              		.size	CAN_1_backup, 20
  22              	CAN_1_backup:
  23 0000 00       		.byte	0
  24 0001 000000   		.space	3
  25 0004 00000000 		.word	0
  26 0008 01100000 		.word	4097
  27 000c 01000000 		.word	1
  28 0010 701A0200 		.word	137840
  29              		.section	.text.CAN_1_SaveConfig,"ax",%progbits
  30              		.align	2
  31              		.global	CAN_1_SaveConfig
  32              		.thumb
  33              		.thumb_func
  34              		.type	CAN_1_SaveConfig, %function
  35              	CAN_1_SaveConfig:
  36              	.LFB0:
  37              		.file 1 ".\\Generated_Source\\PSoC5\\CAN_1_PM.c"
   1:.\Generated_Source\PSoC5/CAN_1_PM.c **** /*******************************************************************************
   2:.\Generated_Source\PSoC5/CAN_1_PM.c **** * File Name: CAN_1_PM.c
   3:.\Generated_Source\PSoC5/CAN_1_PM.c **** * Version 2.30
   4:.\Generated_Source\PSoC5/CAN_1_PM.c **** *
   5:.\Generated_Source\PSoC5/CAN_1_PM.c **** * Description:
   6:.\Generated_Source\PSoC5/CAN_1_PM.c **** *  This file contains the setup, control and status commands to support 
   7:.\Generated_Source\PSoC5/CAN_1_PM.c **** *  component operations in low power mode.  
   8:.\Generated_Source\PSoC5/CAN_1_PM.c **** *
   9:.\Generated_Source\PSoC5/CAN_1_PM.c **** * Note:
  10:.\Generated_Source\PSoC5/CAN_1_PM.c **** *
  11:.\Generated_Source\PSoC5/CAN_1_PM.c **** ********************************************************************************
  12:.\Generated_Source\PSoC5/CAN_1_PM.c **** * Copyright 2008-2012, Cypress Semiconductor Corporation.  All rights reserved.
  13:.\Generated_Source\PSoC5/CAN_1_PM.c **** * You may use this file only in accordance with the license, terms, conditions,
  14:.\Generated_Source\PSoC5/CAN_1_PM.c **** * disclaimers, and limitations in the end user license agreement accompanying
  15:.\Generated_Source\PSoC5/CAN_1_PM.c **** * the software package with which this file was provided.
  16:.\Generated_Source\PSoC5/CAN_1_PM.c **** *******************************************************************************/
  17:.\Generated_Source\PSoC5/CAN_1_PM.c **** 
  18:.\Generated_Source\PSoC5/CAN_1_PM.c **** #include "CAN_1.h"
  19:.\Generated_Source\PSoC5/CAN_1_PM.c **** 
  20:.\Generated_Source\PSoC5/CAN_1_PM.c **** static CAN_1_BACKUP_STRUCT CAN_1_backup = 
ARM GAS  C:\Users\khjtony\AppData\Local\Temp\ccVUmYyo.s 			page 2


  21:.\Generated_Source\PSoC5/CAN_1_PM.c **** { 0u,
  22:.\Generated_Source\PSoC5/CAN_1_PM.c ****   0u,
  23:.\Generated_Source\PSoC5/CAN_1_PM.c ****   CAN_1_INIT_INTERRUPT_MASK,
  24:.\Generated_Source\PSoC5/CAN_1_PM.c ****   CAN_1_MODE_MASK,
  25:.\Generated_Source\PSoC5/CAN_1_PM.c ****   (((uint32) ((uint32) CAN_1_SYNC_EDGE     << CAN_1_EDGE_MODE_SHIFT))     | 
  26:.\Generated_Source\PSoC5/CAN_1_PM.c ****    ((uint32) ((uint32) CAN_1_SAMPLING_MODE << CAN_1_SAMPLE_MODE_SHIFT))   |
  27:.\Generated_Source\PSoC5/CAN_1_PM.c ****    ((uint32) ((uint32) CAN_1_CFG_REG_SJW   << CAN_1_CFG_REG_SJW_SHIFT))   | 
  28:.\Generated_Source\PSoC5/CAN_1_PM.c ****    ((uint32) ((uint32) CAN_1_RESET_TYPE    << CAN_1_RESET_SHIFT))         |
  29:.\Generated_Source\PSoC5/CAN_1_PM.c ****    ((uint32) ((uint32) CAN_1_CFG_REG_TSEG2 << CAN_1_CFG_REG_TSEG2_SHIFT)) |
  30:.\Generated_Source\PSoC5/CAN_1_PM.c ****    ((uint32) ((uint32) CAN_1_CFG_REG_TSEG1 << CAN_1_CFG_REG_TSEG1_SHIFT)) |
  31:.\Generated_Source\PSoC5/CAN_1_PM.c ****    ((uint32) ((uint32) CAN_1_ARBITER       << CAN_1_ARBITER_SHIFT))       |
  32:.\Generated_Source\PSoC5/CAN_1_PM.c ****    ((uint32) ((uint32) CAN_1_BITRATE       << CAN_1_BITRATE_SHIFT))) };
  33:.\Generated_Source\PSoC5/CAN_1_PM.c **** 
  34:.\Generated_Source\PSoC5/CAN_1_PM.c **** 
  35:.\Generated_Source\PSoC5/CAN_1_PM.c **** /*******************************************************************************
  36:.\Generated_Source\PSoC5/CAN_1_PM.c **** * Function Name: CAN_1_SaveConfig
  37:.\Generated_Source\PSoC5/CAN_1_PM.c **** ********************************************************************************
  38:.\Generated_Source\PSoC5/CAN_1_PM.c **** *
  39:.\Generated_Source\PSoC5/CAN_1_PM.c **** * Summary:
  40:.\Generated_Source\PSoC5/CAN_1_PM.c **** *  Save CAN configuration.
  41:.\Generated_Source\PSoC5/CAN_1_PM.c **** *
  42:.\Generated_Source\PSoC5/CAN_1_PM.c **** * Parameters:
  43:.\Generated_Source\PSoC5/CAN_1_PM.c **** *  None.
  44:.\Generated_Source\PSoC5/CAN_1_PM.c **** *
  45:.\Generated_Source\PSoC5/CAN_1_PM.c **** * Return:
  46:.\Generated_Source\PSoC5/CAN_1_PM.c **** *  None.
  47:.\Generated_Source\PSoC5/CAN_1_PM.c **** * 
  48:.\Generated_Source\PSoC5/CAN_1_PM.c **** * Global Variables:
  49:.\Generated_Source\PSoC5/CAN_1_PM.c **** *  CAN_1_backup - modified when non-retention registers are saved.
  50:.\Generated_Source\PSoC5/CAN_1_PM.c **** *
  51:.\Generated_Source\PSoC5/CAN_1_PM.c **** * Reentrant:
  52:.\Generated_Source\PSoC5/CAN_1_PM.c **** *  No.
  53:.\Generated_Source\PSoC5/CAN_1_PM.c **** *
  54:.\Generated_Source\PSoC5/CAN_1_PM.c **** *******************************************************************************/
  55:.\Generated_Source\PSoC5/CAN_1_PM.c **** void CAN_1_SaveConfig(void) 
  56:.\Generated_Source\PSoC5/CAN_1_PM.c **** {
  38              		.loc 1 56 0
  39              		.cfi_startproc
  40              		@ args = 0, pretend = 0, frame = 0
  41              		@ frame_needed = 1, uses_anonymous_args = 0
  42              		@ link register save eliminated.
  43 0000 80B4     		push	{r7}
  44              		.cfi_def_cfa_offset 4
  45              		.cfi_offset 7, -4
  46 0002 00AF     		add	r7, sp, #0
  47              		.cfi_def_cfa_register 7
  57:.\Generated_Source\PSoC5/CAN_1_PM.c ****     CAN_1_backup.intSr = (CY_GET_REG32(CAN_1_INT_SR_PTR));
  48              		.loc 1 57 0
  49 0004 094B     		ldr	r3, .L2
  50 0006 1A68     		ldr	r2, [r3]
  51 0008 094B     		ldr	r3, .L2+4
  52 000a 5A60     		str	r2, [r3, #4]
  58:.\Generated_Source\PSoC5/CAN_1_PM.c ****     CAN_1_backup.intEn = (CY_GET_REG32(CAN_1_INT_EN_PTR));
  53              		.loc 1 58 0
  54 000c 094B     		ldr	r3, .L2+8
  55 000e 1A68     		ldr	r2, [r3]
  56 0010 074B     		ldr	r3, .L2+4
ARM GAS  C:\Users\khjtony\AppData\Local\Temp\ccVUmYyo.s 			page 3


  57 0012 9A60     		str	r2, [r3, #8]
  59:.\Generated_Source\PSoC5/CAN_1_PM.c ****     CAN_1_backup.cmd = (CY_GET_REG32(CAN_1_CMD_PTR));
  58              		.loc 1 59 0
  59 0014 084B     		ldr	r3, .L2+12
  60 0016 1A68     		ldr	r2, [r3]
  61 0018 054B     		ldr	r3, .L2+4
  62 001a DA60     		str	r2, [r3, #12]
  60:.\Generated_Source\PSoC5/CAN_1_PM.c ****     CAN_1_backup.cfg = (CY_GET_REG32(CAN_1_CFG_PTR));
  63              		.loc 1 60 0
  64 001c 074B     		ldr	r3, .L2+16
  65 001e 1A68     		ldr	r2, [r3]
  66 0020 034B     		ldr	r3, .L2+4
  67 0022 1A61     		str	r2, [r3, #16]
  61:.\Generated_Source\PSoC5/CAN_1_PM.c **** }
  68              		.loc 1 61 0
  69 0024 BD46     		mov	sp, r7
  70              		@ sp needed
  71 0026 5DF8047B 		ldr	r7, [sp], #4
  72 002a 7047     		bx	lr
  73              	.L3:
  74              		.align	2
  75              	.L2:
  76 002c 00A00040 		.word	1073782784
  77 0030 00000000 		.word	CAN_1_backup
  78 0034 04A00040 		.word	1073782788
  79 0038 10A00040 		.word	1073782800
  80 003c 14A00040 		.word	1073782804
  81              		.cfi_endproc
  82              	.LFE0:
  83              		.size	CAN_1_SaveConfig, .-CAN_1_SaveConfig
  84              		.section	.text.CAN_1_RestoreConfig,"ax",%progbits
  85              		.align	2
  86              		.global	CAN_1_RestoreConfig
  87              		.thumb
  88              		.thumb_func
  89              		.type	CAN_1_RestoreConfig, %function
  90              	CAN_1_RestoreConfig:
  91              	.LFB1:
  62:.\Generated_Source\PSoC5/CAN_1_PM.c **** 
  63:.\Generated_Source\PSoC5/CAN_1_PM.c **** 
  64:.\Generated_Source\PSoC5/CAN_1_PM.c **** /*******************************************************************************
  65:.\Generated_Source\PSoC5/CAN_1_PM.c **** * Function Name: CAN_1_RestoreConfig
  66:.\Generated_Source\PSoC5/CAN_1_PM.c **** ********************************************************************************
  67:.\Generated_Source\PSoC5/CAN_1_PM.c **** *
  68:.\Generated_Source\PSoC5/CAN_1_PM.c **** * Summary:
  69:.\Generated_Source\PSoC5/CAN_1_PM.c **** *  Restore CAN configuration.
  70:.\Generated_Source\PSoC5/CAN_1_PM.c **** *
  71:.\Generated_Source\PSoC5/CAN_1_PM.c **** * Parameters:
  72:.\Generated_Source\PSoC5/CAN_1_PM.c **** *  None.
  73:.\Generated_Source\PSoC5/CAN_1_PM.c **** *
  74:.\Generated_Source\PSoC5/CAN_1_PM.c **** * Return:
  75:.\Generated_Source\PSoC5/CAN_1_PM.c **** *  None.
  76:.\Generated_Source\PSoC5/CAN_1_PM.c **** *
  77:.\Generated_Source\PSoC5/CAN_1_PM.c **** * Global Variables:
  78:.\Generated_Source\PSoC5/CAN_1_PM.c **** *  CAN_1_backup - used when non-retention registers are restored.
  79:.\Generated_Source\PSoC5/CAN_1_PM.c **** *
  80:.\Generated_Source\PSoC5/CAN_1_PM.c **** * Side Effects:
ARM GAS  C:\Users\khjtony\AppData\Local\Temp\ccVUmYyo.s 			page 4


  81:.\Generated_Source\PSoC5/CAN_1_PM.c **** *  If this API is called without first calling SaveConfig then in the following
  82:.\Generated_Source\PSoC5/CAN_1_PM.c **** *  registers will be default values from Customizer: CAN_1_INT_SR, 
  83:.\Generated_Source\PSoC5/CAN_1_PM.c **** *  CAN_1_INT_EN, CAN_1_CMD, CAN_1_CFG.
  84:.\Generated_Source\PSoC5/CAN_1_PM.c **** *
  85:.\Generated_Source\PSoC5/CAN_1_PM.c **** *******************************************************************************/
  86:.\Generated_Source\PSoC5/CAN_1_PM.c **** void CAN_1_RestoreConfig(void) 
  87:.\Generated_Source\PSoC5/CAN_1_PM.c **** {
  92              		.loc 1 87 0
  93              		.cfi_startproc
  94              		@ args = 0, pretend = 0, frame = 0
  95              		@ frame_needed = 1, uses_anonymous_args = 0
  96              		@ link register save eliminated.
  97 0000 80B4     		push	{r7}
  98              		.cfi_def_cfa_offset 4
  99              		.cfi_offset 7, -4
 100 0002 00AF     		add	r7, sp, #0
 101              		.cfi_def_cfa_register 7
  88:.\Generated_Source\PSoC5/CAN_1_PM.c ****     CY_SET_REG32(CAN_1_INT_SR_PTR, CAN_1_backup.intSr);
 102              		.loc 1 88 0
 103 0004 094B     		ldr	r3, .L5
 104 0006 0A4A     		ldr	r2, .L5+4
 105 0008 5268     		ldr	r2, [r2, #4]
 106 000a 1A60     		str	r2, [r3]
  89:.\Generated_Source\PSoC5/CAN_1_PM.c ****     CY_SET_REG32(CAN_1_INT_EN_PTR, CAN_1_backup.intEn);
 107              		.loc 1 89 0
 108 000c 094B     		ldr	r3, .L5+8
 109 000e 084A     		ldr	r2, .L5+4
 110 0010 9268     		ldr	r2, [r2, #8]
 111 0012 1A60     		str	r2, [r3]
  90:.\Generated_Source\PSoC5/CAN_1_PM.c ****     CY_SET_REG32(CAN_1_CMD_PTR, CAN_1_backup.cmd);
 112              		.loc 1 90 0
 113 0014 084B     		ldr	r3, .L5+12
 114 0016 064A     		ldr	r2, .L5+4
 115 0018 D268     		ldr	r2, [r2, #12]
 116 001a 1A60     		str	r2, [r3]
  91:.\Generated_Source\PSoC5/CAN_1_PM.c ****     CY_SET_REG32(CAN_1_CFG_PTR, CAN_1_backup.cfg);
 117              		.loc 1 91 0
 118 001c 074B     		ldr	r3, .L5+16
 119 001e 044A     		ldr	r2, .L5+4
 120 0020 1269     		ldr	r2, [r2, #16]
 121 0022 1A60     		str	r2, [r3]
  92:.\Generated_Source\PSoC5/CAN_1_PM.c **** }
 122              		.loc 1 92 0
 123 0024 BD46     		mov	sp, r7
 124              		@ sp needed
 125 0026 5DF8047B 		ldr	r7, [sp], #4
 126 002a 7047     		bx	lr
 127              	.L6:
 128              		.align	2
 129              	.L5:
 130 002c 00A00040 		.word	1073782784
 131 0030 00000000 		.word	CAN_1_backup
 132 0034 04A00040 		.word	1073782788
 133 0038 10A00040 		.word	1073782800
 134 003c 14A00040 		.word	1073782804
 135              		.cfi_endproc
 136              	.LFE1:
ARM GAS  C:\Users\khjtony\AppData\Local\Temp\ccVUmYyo.s 			page 5


 137              		.size	CAN_1_RestoreConfig, .-CAN_1_RestoreConfig
 138              		.section	.text.CAN_1_Sleep,"ax",%progbits
 139              		.align	2
 140              		.global	CAN_1_Sleep
 141              		.thumb
 142              		.thumb_func
 143              		.type	CAN_1_Sleep, %function
 144              	CAN_1_Sleep:
 145              	.LFB2:
  93:.\Generated_Source\PSoC5/CAN_1_PM.c **** 
  94:.\Generated_Source\PSoC5/CAN_1_PM.c **** 
  95:.\Generated_Source\PSoC5/CAN_1_PM.c **** /*******************************************************************************
  96:.\Generated_Source\PSoC5/CAN_1_PM.c **** * Function Name: CAN_1_Sleep
  97:.\Generated_Source\PSoC5/CAN_1_PM.c **** ********************************************************************************
  98:.\Generated_Source\PSoC5/CAN_1_PM.c **** * 
  99:.\Generated_Source\PSoC5/CAN_1_PM.c **** * Summary:
 100:.\Generated_Source\PSoC5/CAN_1_PM.c **** *  Prepare CAN Component goes to sleep.
 101:.\Generated_Source\PSoC5/CAN_1_PM.c **** *
 102:.\Generated_Source\PSoC5/CAN_1_PM.c **** * Parameters:  
 103:.\Generated_Source\PSoC5/CAN_1_PM.c **** *  None.
 104:.\Generated_Source\PSoC5/CAN_1_PM.c **** *
 105:.\Generated_Source\PSoC5/CAN_1_PM.c **** * Return: 
 106:.\Generated_Source\PSoC5/CAN_1_PM.c **** *  None.
 107:.\Generated_Source\PSoC5/CAN_1_PM.c **** *
 108:.\Generated_Source\PSoC5/CAN_1_PM.c **** * Global Variables:
 109:.\Generated_Source\PSoC5/CAN_1_PM.c **** *  CAN_1_backup - modified when non-retention registers are saved.
 110:.\Generated_Source\PSoC5/CAN_1_PM.c **** *
 111:.\Generated_Source\PSoC5/CAN_1_PM.c **** * Reentrant:
 112:.\Generated_Source\PSoC5/CAN_1_PM.c **** *  No.
 113:.\Generated_Source\PSoC5/CAN_1_PM.c **** *
 114:.\Generated_Source\PSoC5/CAN_1_PM.c **** *******************************************************************************/
 115:.\Generated_Source\PSoC5/CAN_1_PM.c **** void CAN_1_Sleep(void) 
 116:.\Generated_Source\PSoC5/CAN_1_PM.c **** {   
 146              		.loc 1 116 0
 147              		.cfi_startproc
 148              		@ args = 0, pretend = 0, frame = 0
 149              		@ frame_needed = 1, uses_anonymous_args = 0
 150 0000 80B5     		push	{r7, lr}
 151              		.cfi_def_cfa_offset 8
 152              		.cfi_offset 7, -8
 153              		.cfi_offset 14, -4
 154 0002 00AF     		add	r7, sp, #0
 155              		.cfi_def_cfa_register 7
 117:.\Generated_Source\PSoC5/CAN_1_PM.c ****     if (0u != (CY_GET_REG32(CAN_1_CMD_PTR) & CAN_1_MODE_MASK))
 156              		.loc 1 117 0
 157 0004 084B     		ldr	r3, .L10
 158 0006 1B68     		ldr	r3, [r3]
 159 0008 03F00103 		and	r3, r3, #1
 160 000c 002B     		cmp	r3, #0
 161 000e 03D0     		beq	.L8
 118:.\Generated_Source\PSoC5/CAN_1_PM.c ****     {
 119:.\Generated_Source\PSoC5/CAN_1_PM.c ****         CAN_1_backup.enableState = 1u;
 162              		.loc 1 119 0
 163 0010 064B     		ldr	r3, .L10+4
 164 0012 0122     		movs	r2, #1
 165 0014 1A70     		strb	r2, [r3]
 166 0016 02E0     		b	.L9
ARM GAS  C:\Users\khjtony\AppData\Local\Temp\ccVUmYyo.s 			page 6


 167              	.L8:
 120:.\Generated_Source\PSoC5/CAN_1_PM.c ****     }
 121:.\Generated_Source\PSoC5/CAN_1_PM.c ****     else /* The CAN block is disabled */
 122:.\Generated_Source\PSoC5/CAN_1_PM.c ****     {
 123:.\Generated_Source\PSoC5/CAN_1_PM.c ****         CAN_1_backup.enableState = 0u;
 168              		.loc 1 123 0
 169 0018 044B     		ldr	r3, .L10+4
 170 001a 0022     		movs	r2, #0
 171 001c 1A70     		strb	r2, [r3]
 172              	.L9:
 124:.\Generated_Source\PSoC5/CAN_1_PM.c ****     }
 125:.\Generated_Source\PSoC5/CAN_1_PM.c ****     
 126:.\Generated_Source\PSoC5/CAN_1_PM.c ****     CAN_1_SaveConfig();
 173              		.loc 1 126 0
 174 001e FFF7FEFF 		bl	CAN_1_SaveConfig
 127:.\Generated_Source\PSoC5/CAN_1_PM.c ****     (void) CAN_1_Stop();
 175              		.loc 1 127 0
 176 0022 FFF7FEFF 		bl	CAN_1_Stop
 128:.\Generated_Source\PSoC5/CAN_1_PM.c **** }
 177              		.loc 1 128 0
 178 0026 80BD     		pop	{r7, pc}
 179              	.L11:
 180              		.align	2
 181              	.L10:
 182 0028 10A00040 		.word	1073782800
 183 002c 00000000 		.word	CAN_1_backup
 184              		.cfi_endproc
 185              	.LFE2:
 186              		.size	CAN_1_Sleep, .-CAN_1_Sleep
 187              		.section	.text.CAN_1_Wakeup,"ax",%progbits
 188              		.align	2
 189              		.global	CAN_1_Wakeup
 190              		.thumb
 191              		.thumb_func
 192              		.type	CAN_1_Wakeup, %function
 193              	CAN_1_Wakeup:
 194              	.LFB3:
 129:.\Generated_Source\PSoC5/CAN_1_PM.c **** 
 130:.\Generated_Source\PSoC5/CAN_1_PM.c **** 
 131:.\Generated_Source\PSoC5/CAN_1_PM.c **** /*******************************************************************************
 132:.\Generated_Source\PSoC5/CAN_1_PM.c **** * Function Name: CAN_1_Wakeup
 133:.\Generated_Source\PSoC5/CAN_1_PM.c **** ********************************************************************************
 134:.\Generated_Source\PSoC5/CAN_1_PM.c **** * 
 135:.\Generated_Source\PSoC5/CAN_1_PM.c **** * Summary:
 136:.\Generated_Source\PSoC5/CAN_1_PM.c **** *  Prepare CAN Component to wake up.
 137:.\Generated_Source\PSoC5/CAN_1_PM.c **** *
 138:.\Generated_Source\PSoC5/CAN_1_PM.c **** * Parameters:  
 139:.\Generated_Source\PSoC5/CAN_1_PM.c **** *  None.
 140:.\Generated_Source\PSoC5/CAN_1_PM.c **** *
 141:.\Generated_Source\PSoC5/CAN_1_PM.c **** * Return: 
 142:.\Generated_Source\PSoC5/CAN_1_PM.c **** *  None.
 143:.\Generated_Source\PSoC5/CAN_1_PM.c **** *
 144:.\Generated_Source\PSoC5/CAN_1_PM.c **** * Global Variables:
 145:.\Generated_Source\PSoC5/CAN_1_PM.c **** *  CAN_1_backup - used when non-retention registers are restored.
 146:.\Generated_Source\PSoC5/CAN_1_PM.c **** *
 147:.\Generated_Source\PSoC5/CAN_1_PM.c **** * Reentrant:
 148:.\Generated_Source\PSoC5/CAN_1_PM.c **** *  No.
ARM GAS  C:\Users\khjtony\AppData\Local\Temp\ccVUmYyo.s 			page 7


 149:.\Generated_Source\PSoC5/CAN_1_PM.c **** *
 150:.\Generated_Source\PSoC5/CAN_1_PM.c **** *******************************************************************************/
 151:.\Generated_Source\PSoC5/CAN_1_PM.c **** void CAN_1_Wakeup(void) 
 152:.\Generated_Source\PSoC5/CAN_1_PM.c **** {           
 195              		.loc 1 152 0
 196              		.cfi_startproc
 197              		@ args = 0, pretend = 0, frame = 0
 198              		@ frame_needed = 1, uses_anonymous_args = 0
 199 0000 80B5     		push	{r7, lr}
 200              		.cfi_def_cfa_offset 8
 201              		.cfi_offset 7, -8
 202              		.cfi_offset 14, -4
 203 0002 00AF     		add	r7, sp, #0
 204              		.cfi_def_cfa_register 7
 153:.\Generated_Source\PSoC5/CAN_1_PM.c ****     /* Enable power to CAN */
 154:.\Generated_Source\PSoC5/CAN_1_PM.c ****     CAN_1_PM_ACT_CFG_REG |= CAN_1_ACT_PWR_EN;
 205              		.loc 1 154 0
 206 0004 084B     		ldr	r3, .L14
 207 0006 084A     		ldr	r2, .L14
 208 0008 1278     		ldrb	r2, [r2]
 209 000a D2B2     		uxtb	r2, r2
 210 000c 42F00102 		orr	r2, r2, #1
 211 0010 D2B2     		uxtb	r2, r2
 212 0012 1A70     		strb	r2, [r3]
 155:.\Generated_Source\PSoC5/CAN_1_PM.c ****     
 156:.\Generated_Source\PSoC5/CAN_1_PM.c ****     CAN_1_RestoreConfig();
 213              		.loc 1 156 0
 214 0014 FFF7FEFF 		bl	CAN_1_RestoreConfig
 157:.\Generated_Source\PSoC5/CAN_1_PM.c ****     
 158:.\Generated_Source\PSoC5/CAN_1_PM.c ****     if (CAN_1_backup.enableState != 0u)
 215              		.loc 1 158 0
 216 0018 044B     		ldr	r3, .L14+4
 217 001a 1B78     		ldrb	r3, [r3]	@ zero_extendqisi2
 218 001c 002B     		cmp	r3, #0
 219 001e 01D0     		beq	.L12
 159:.\Generated_Source\PSoC5/CAN_1_PM.c ****     {
 160:.\Generated_Source\PSoC5/CAN_1_PM.c ****         /* Enable component's operation */
 161:.\Generated_Source\PSoC5/CAN_1_PM.c ****         (void) CAN_1_Enable();
 220              		.loc 1 161 0
 221 0020 FFF7FEFF 		bl	CAN_1_Enable
 222              	.L12:
 162:.\Generated_Source\PSoC5/CAN_1_PM.c ****     } /* Do nothing if component's block was disabled before */
 163:.\Generated_Source\PSoC5/CAN_1_PM.c **** }
 223              		.loc 1 163 0
 224 0024 80BD     		pop	{r7, pc}
 225              	.L15:
 226 0026 00BF     		.align	2
 227              	.L14:
 228 0028 A6430040 		.word	1073759142
 229 002c 00000000 		.word	CAN_1_backup
 230              		.cfi_endproc
 231              	.LFE3:
 232              		.size	CAN_1_Wakeup, .-CAN_1_Wakeup
 233              		.text
 234              	.Letext0:
 235              		.file 2 ".\\Generated_Source\\PSoC5\\cytypes.h"
 236              		.file 3 ".\\Generated_Source\\PSoC5\\CAN_1.h"
ARM GAS  C:\Users\khjtony\AppData\Local\Temp\ccVUmYyo.s 			page 8

