ARM GAS  C:\Users\khjtony\AppData\Local\Temp\ccDWw2Fb.s 			page 1


   1              		.syntax unified
   2              		.cpu cortex-m3
   3              		.fpu softvfp
   4              		.eabi_attribute 20, 1
   5              		.eabi_attribute 21, 1
   6              		.eabi_attribute 23, 3
   7              		.eabi_attribute 24, 1
   8              		.eabi_attribute 25, 1
   9              		.eabi_attribute 26, 1
  10              		.eabi_attribute 30, 6
  11              		.eabi_attribute 34, 1
  12              		.eabi_attribute 18, 4
  13              		.thumb
  14              		.file	"CAN_1.c"
  15              		.text
  16              	.Ltext0:
  17              		.cfi_sections	.debug_frame
  18              		.global	CAN_1_initVar
  19              		.bss
  20              		.type	CAN_1_initVar, %object
  21              		.size	CAN_1_initVar, 1
  22              	CAN_1_initVar:
  23 0000 00       		.space	1
  24              		.section	.text.CAN_1_Init,"ax",%progbits
  25              		.align	2
  26              		.global	CAN_1_Init
  27              		.thumb
  28              		.thumb_func
  29              		.type	CAN_1_Init, %function
  30              	CAN_1_Init:
  31              	.LFB0:
  32              		.file 1 ".\\Generated_Source\\PSoC5\\CAN_1.c"
   1:.\Generated_Source\PSoC5/CAN_1.c **** /*******************************************************************************
   2:.\Generated_Source\PSoC5/CAN_1.c **** * File Name: CAN_1.c
   3:.\Generated_Source\PSoC5/CAN_1.c **** * Version 2.30
   4:.\Generated_Source\PSoC5/CAN_1.c **** *
   5:.\Generated_Source\PSoC5/CAN_1.c **** * Description:
   6:.\Generated_Source\PSoC5/CAN_1.c **** *  The CAN Component provide functionality of Control Area Network.
   7:.\Generated_Source\PSoC5/CAN_1.c **** *  Two types of mailbox configurations available "Full" and "Basic".
   8:.\Generated_Source\PSoC5/CAN_1.c **** *
   9:.\Generated_Source\PSoC5/CAN_1.c **** * Note:
  10:.\Generated_Source\PSoC5/CAN_1.c **** *  CAN configuration puts as constant to ROM and could change only directly
  11:.\Generated_Source\PSoC5/CAN_1.c **** *  registers write by user.
  12:.\Generated_Source\PSoC5/CAN_1.c **** *
  13:.\Generated_Source\PSoC5/CAN_1.c **** ********************************************************************************
  14:.\Generated_Source\PSoC5/CAN_1.c **** * Copyright 2008-2012, Cypress Semiconductor Corporation.  All rights reserved.
  15:.\Generated_Source\PSoC5/CAN_1.c **** * You may use this file only in accordance with the license, terms, conditions,
  16:.\Generated_Source\PSoC5/CAN_1.c **** * disclaimers, and limitations in the end user license agreement accompanying
  17:.\Generated_Source\PSoC5/CAN_1.c **** * the software package with which this file was provided.
  18:.\Generated_Source\PSoC5/CAN_1.c **** *******************************************************************************/
  19:.\Generated_Source\PSoC5/CAN_1.c **** 
  20:.\Generated_Source\PSoC5/CAN_1.c **** #include "CAN_1.h"
  21:.\Generated_Source\PSoC5/CAN_1.c **** 
  22:.\Generated_Source\PSoC5/CAN_1.c **** uint8 CAN_1_initVar = 0u;
  23:.\Generated_Source\PSoC5/CAN_1.c **** 
  24:.\Generated_Source\PSoC5/CAN_1.c **** 
  25:.\Generated_Source\PSoC5/CAN_1.c **** /*******************************************************************************
ARM GAS  C:\Users\khjtony\AppData\Local\Temp\ccDWw2Fb.s 			page 2


  26:.\Generated_Source\PSoC5/CAN_1.c **** * FUNCTION NAME:   CAN_1_Init
  27:.\Generated_Source\PSoC5/CAN_1.c **** ********************************************************************************
  28:.\Generated_Source\PSoC5/CAN_1.c **** *
  29:.\Generated_Source\PSoC5/CAN_1.c **** * Summary:
  30:.\Generated_Source\PSoC5/CAN_1.c **** *  Inits/Restores default CAN configuration provided with customizer.
  31:.\Generated_Source\PSoC5/CAN_1.c **** *
  32:.\Generated_Source\PSoC5/CAN_1.c **** * Parameters:
  33:.\Generated_Source\PSoC5/CAN_1.c **** *  None.
  34:.\Generated_Source\PSoC5/CAN_1.c **** *
  35:.\Generated_Source\PSoC5/CAN_1.c **** * Return:
  36:.\Generated_Source\PSoC5/CAN_1.c **** *  Indication whether the configuration has been accepted or rejected.
  37:.\Generated_Source\PSoC5/CAN_1.c **** *   Define                             Description
  38:.\Generated_Source\PSoC5/CAN_1.c **** *    CYRET_SUCCESS                      Function passed successfully
  39:.\Generated_Source\PSoC5/CAN_1.c **** *    CAN_1_FAIL              Function failed
  40:.\Generated_Source\PSoC5/CAN_1.c **** *
  41:.\Generated_Source\PSoC5/CAN_1.c **** * Side Effects:
  42:.\Generated_Source\PSoC5/CAN_1.c **** *  All registers will be reset to their initial values. This will re-initialize 
  43:.\Generated_Source\PSoC5/CAN_1.c **** *  the component with the following exceptions - it will not clear data from 
  44:.\Generated_Source\PSoC5/CAN_1.c **** *  the mailboxes.
  45:.\Generated_Source\PSoC5/CAN_1.c **** *  Enable power to the CAN Core.
  46:.\Generated_Source\PSoC5/CAN_1.c **** *
  47:.\Generated_Source\PSoC5/CAN_1.c **** *******************************************************************************/
  48:.\Generated_Source\PSoC5/CAN_1.c **** uint8 CAN_1_Init(void) 
  49:.\Generated_Source\PSoC5/CAN_1.c **** {
  33              		.loc 1 49 0
  34              		.cfi_startproc
  35              		@ args = 0, pretend = 0, frame = 8
  36              		@ frame_needed = 1, uses_anonymous_args = 0
  37 0000 80B5     		push	{r7, lr}
  38              		.cfi_def_cfa_offset 8
  39              		.cfi_offset 7, -8
  40              		.cfi_offset 14, -4
  41 0002 82B0     		sub	sp, sp, #8
  42              		.cfi_def_cfa_offset 16
  43 0004 00AF     		add	r7, sp, #0
  44              		.cfi_def_cfa_register 7
  50:.\Generated_Source\PSoC5/CAN_1.c ****     /* Iniital values of CAN RX and TX registers */
  51:.\Generated_Source\PSoC5/CAN_1.c ****     static const CAN_1_RX_CFG CYCODE CAN_1_RXConfigStruct[] =
  52:.\Generated_Source\PSoC5/CAN_1.c ****     {
  53:.\Generated_Source\PSoC5/CAN_1.c ****         { 0u, 0x28u, 0x1FFFF9u, 0x91000000u },
  54:.\Generated_Source\PSoC5/CAN_1.c ****         { 1u, 0x28u, 0x1FFFF9u, 0x71000000u },
  55:.\Generated_Source\PSoC5/CAN_1.c ****         { 2u, 0x28u, 0x1FFFF9u, 0x31000000u },
  56:.\Generated_Source\PSoC5/CAN_1.c ****         { 3u, 0x28u, 0x1FFFF9u, 0x600000u },
  57:.\Generated_Source\PSoC5/CAN_1.c ****         { 4u, 0x28u, 0x1FFFF9u, 0x40A00000u },
  58:.\Generated_Source\PSoC5/CAN_1.c ****         { 5u, 0x28u, 0x1FFFF9u, 0x200000u },
  59:.\Generated_Source\PSoC5/CAN_1.c ****         { 6u, 0x0u, 0x0u, 0x0u },
  60:.\Generated_Source\PSoC5/CAN_1.c ****         { 7u, 0x0u, 0x0u, 0x0u },
  61:.\Generated_Source\PSoC5/CAN_1.c ****         { 8u, 0x0u, 0x0u, 0x0u },
  62:.\Generated_Source\PSoC5/CAN_1.c ****         { 9u, 0x8000A8u, 0xFFFFFFFFu, 0x0u },
  63:.\Generated_Source\PSoC5/CAN_1.c ****         { 10u, 0x8000A8u, 0xFFFFFFFFu, 0x0u },
  64:.\Generated_Source\PSoC5/CAN_1.c ****         { 11u, 0x8000A8u, 0xFFFFFFFFu, 0x0u },
  65:.\Generated_Source\PSoC5/CAN_1.c ****         { 12u, 0x8000A8u, 0xFFFFFFFFu, 0x0u },
  66:.\Generated_Source\PSoC5/CAN_1.c ****         { 13u, 0x8000A8u, 0xFFFFFFFFu, 0x0u },
  67:.\Generated_Source\PSoC5/CAN_1.c ****         { 14u, 0x8000A8u, 0xFFFFFFFFu, 0x0u },
  68:.\Generated_Source\PSoC5/CAN_1.c ****         { 15u, 0x8000A8u, 0xFFFFFFFFu, 0x0u }
  69:.\Generated_Source\PSoC5/CAN_1.c ****     };
  70:.\Generated_Source\PSoC5/CAN_1.c **** 
ARM GAS  C:\Users\khjtony\AppData\Local\Temp\ccDWw2Fb.s 			page 3


  71:.\Generated_Source\PSoC5/CAN_1.c ****     static const CAN_1_TX_CFG CYCODE CAN_1_TXConfigStruct[] =
  72:.\Generated_Source\PSoC5/CAN_1.c ****     {
  73:.\Generated_Source\PSoC5/CAN_1.c ****         { 0u, 0x80004u, 0x200000u },
  74:.\Generated_Source\PSoC5/CAN_1.c ****         { 1u, 0x880008u, 0x0u },
  75:.\Generated_Source\PSoC5/CAN_1.c ****         { 2u, 0x880008u, 0x0u },
  76:.\Generated_Source\PSoC5/CAN_1.c ****         { 3u, 0x880008u, 0x0u },
  77:.\Generated_Source\PSoC5/CAN_1.c ****         { 4u, 0x880008u, 0x0u },
  78:.\Generated_Source\PSoC5/CAN_1.c ****         { 5u, 0x880008u, 0x0u },
  79:.\Generated_Source\PSoC5/CAN_1.c ****         { 6u, 0x880008u, 0x0u },
  80:.\Generated_Source\PSoC5/CAN_1.c ****         { 7u, 0x880008u, 0x0u }
  81:.\Generated_Source\PSoC5/CAN_1.c ****     };
  82:.\Generated_Source\PSoC5/CAN_1.c ****     
  83:.\Generated_Source\PSoC5/CAN_1.c ****     uint8 i;
  84:.\Generated_Source\PSoC5/CAN_1.c ****     uint8 result = CAN_1_FAIL;
  45              		.loc 1 84 0
  46 0006 0123     		movs	r3, #1
  47 0008 BB71     		strb	r3, [r7, #6]
  85:.\Generated_Source\PSoC5/CAN_1.c ****     uint8 localResult = CAN_1_FAIL;
  48              		.loc 1 85 0
  49 000a 0123     		movs	r3, #1
  50 000c 7B71     		strb	r3, [r7, #5]
  86:.\Generated_Source\PSoC5/CAN_1.c ****     uint8 enableInterrupts;
  87:.\Generated_Source\PSoC5/CAN_1.c ****     
  88:.\Generated_Source\PSoC5/CAN_1.c ****     enableInterrupts = CyEnterCriticalSection();
  51              		.loc 1 88 0
  52 000e FFF7FEFF 		bl	CyEnterCriticalSection
  53 0012 0346     		mov	r3, r0
  54 0014 3B71     		strb	r3, [r7, #4]
  89:.\Generated_Source\PSoC5/CAN_1.c ****     
  90:.\Generated_Source\PSoC5/CAN_1.c ****     /* Enable CAN block in Active mode */
  91:.\Generated_Source\PSoC5/CAN_1.c ****     CAN_1_PM_ACT_CFG_REG |= CAN_1_ACT_PWR_EN;
  55              		.loc 1 91 0
  56 0016 4F4B     		ldr	r3, .L13
  57 0018 4E4A     		ldr	r2, .L13
  58 001a 1278     		ldrb	r2, [r2]
  59 001c D2B2     		uxtb	r2, r2
  60 001e 42F00102 		orr	r2, r2, #1
  61 0022 D2B2     		uxtb	r2, r2
  62 0024 1A70     		strb	r2, [r3]
  92:.\Generated_Source\PSoC5/CAN_1.c ****         
  93:.\Generated_Source\PSoC5/CAN_1.c ****     /* Enable CAN block in Alternate Active (Standby) mode */
  94:.\Generated_Source\PSoC5/CAN_1.c ****     CAN_1_PM_STBY_CFG_REG |= CAN_1_STBY_PWR_EN; 
  63              		.loc 1 94 0
  64 0026 4C4B     		ldr	r3, .L13+4
  65 0028 4B4A     		ldr	r2, .L13+4
  66 002a 1278     		ldrb	r2, [r2]
  67 002c D2B2     		uxtb	r2, r2
  68 002e 42F00102 		orr	r2, r2, #1
  69 0032 D2B2     		uxtb	r2, r2
  70 0034 1A70     		strb	r2, [r3]
  95:.\Generated_Source\PSoC5/CAN_1.c ****     
  96:.\Generated_Source\PSoC5/CAN_1.c ****     CyExitCriticalSection(enableInterrupts);
  71              		.loc 1 96 0
  72 0036 3B79     		ldrb	r3, [r7, #4]	@ zero_extendqisi2
  73 0038 1846     		mov	r0, r3
  74 003a FFF7FEFF 		bl	CyExitCriticalSection
  97:.\Generated_Source\PSoC5/CAN_1.c ****     
ARM GAS  C:\Users\khjtony\AppData\Local\Temp\ccDWw2Fb.s 			page 4


  98:.\Generated_Source\PSoC5/CAN_1.c ****     /* Sets the CAN controller to stop mode */
  99:.\Generated_Source\PSoC5/CAN_1.c ****     CAN_1_CMD_REG.byte[0u] &= (uint8) (~CAN_1_MODE_MASK);
  75              		.loc 1 99 0
  76 003e 474B     		ldr	r3, .L13+8
  77 0040 464A     		ldr	r2, .L13+8
  78 0042 1278     		ldrb	r2, [r2]
  79 0044 D2B2     		uxtb	r2, r2
  80 0046 22F00102 		bic	r2, r2, #1
  81 004a D2B2     		uxtb	r2, r2
  82 004c 1A70     		strb	r2, [r3]
 100:.\Generated_Source\PSoC5/CAN_1.c **** 
 101:.\Generated_Source\PSoC5/CAN_1.c ****     /* Verify that bit is cleared */
 102:.\Generated_Source\PSoC5/CAN_1.c ****     if ((CAN_1_CMD_REG.byte[0u] & CAN_1_MODE_MASK) == 0u)
  83              		.loc 1 102 0
  84 004e 434B     		ldr	r3, .L13+8
  85 0050 1B78     		ldrb	r3, [r3]
  86 0052 DBB2     		uxtb	r3, r3
  87 0054 03F00103 		and	r3, r3, #1
  88 0058 002B     		cmp	r3, #0
  89 005a 75D1     		bne	.L2
 103:.\Generated_Source\PSoC5/CAN_1.c ****     {                
 104:.\Generated_Source\PSoC5/CAN_1.c ****         /* Disable Interrupt. */
 105:.\Generated_Source\PSoC5/CAN_1.c ****         CyIntDisable(CAN_1_ISR_NUMBER);
  90              		.loc 1 105 0
  91 005c 404B     		ldr	r3, .L13+12
  92 005e 4FF48032 		mov	r2, #65536
  93 0062 1A60     		str	r2, [r3]
 106:.\Generated_Source\PSoC5/CAN_1.c ****         
 107:.\Generated_Source\PSoC5/CAN_1.c ****         /* Set the ISR to point to the CAN_1_ISR Interrupt. */
 108:.\Generated_Source\PSoC5/CAN_1.c ****         (void) CyIntSetVector(CAN_1_ISR_NUMBER, & CAN_1_ISR);
  94              		.loc 1 108 0
  95 0064 1020     		movs	r0, #16
  96 0066 3F49     		ldr	r1, .L13+16
  97 0068 FFF7FEFF 		bl	CyIntSetVector
 109:.\Generated_Source\PSoC5/CAN_1.c ****         
 110:.\Generated_Source\PSoC5/CAN_1.c ****         /* Set the priority. */
 111:.\Generated_Source\PSoC5/CAN_1.c ****         CyIntSetPriority(CAN_1_ISR_NUMBER, CAN_1_ISR_PRIORITY);
  98              		.loc 1 111 0
  99 006c 1020     		movs	r0, #16
 100 006e 0721     		movs	r1, #7
 101 0070 FFF7FEFF 		bl	CyIntSetPriority
 112:.\Generated_Source\PSoC5/CAN_1.c **** 
 113:.\Generated_Source\PSoC5/CAN_1.c ****         if (CAN_1_SetPreScaler(CAN_1_BITRATE) == CYRET_SUCCESS)
 102              		.loc 1 113 0
 103 0074 0220     		movs	r0, #2
 104 0076 FFF7FEFF 		bl	CAN_1_SetPreScaler
 105 007a 0346     		mov	r3, r0
 106 007c 002B     		cmp	r3, #0
 107 007e 1CD1     		bne	.L3
 114:.\Generated_Source\PSoC5/CAN_1.c ****         {
 115:.\Generated_Source\PSoC5/CAN_1.c ****             if (CAN_1_SetArbiter(CAN_1_ARBITER) == CYRET_SUCCESS)
 108              		.loc 1 115 0
 109 0080 0120     		movs	r0, #1
 110 0082 FFF7FEFF 		bl	CAN_1_SetArbiter
 111 0086 0346     		mov	r3, r0
 112 0088 002B     		cmp	r3, #0
 113 008a 16D1     		bne	.L3
ARM GAS  C:\Users\khjtony\AppData\Local\Temp\ccDWw2Fb.s 			page 5


 116:.\Generated_Source\PSoC5/CAN_1.c ****             {
 117:.\Generated_Source\PSoC5/CAN_1.c ****                 if (CAN_1_SetTsegSample(CAN_1_CFG_REG_TSEG1, CAN_1_CFG_REG_TSEG2,
 114              		.loc 1 117 0
 115 008c 0A20     		movs	r0, #10
 116 008e 0321     		movs	r1, #3
 117 0090 0022     		movs	r2, #0
 118 0092 0023     		movs	r3, #0
 119 0094 FFF7FEFF 		bl	CAN_1_SetTsegSample
 120 0098 0346     		mov	r3, r0
 121 009a 002B     		cmp	r3, #0
 122 009c 0DD1     		bne	.L3
 118:.\Generated_Source\PSoC5/CAN_1.c ****                     CAN_1_CFG_REG_SJW, CAN_1_SAMPLING_MODE) == CYRET_SUCCESS)
 119:.\Generated_Source\PSoC5/CAN_1.c ****                 {
 120:.\Generated_Source\PSoC5/CAN_1.c ****                     if (CAN_1_SetRestartType(CAN_1_RESET_TYPE) == CYRET_SUCCESS)
 123              		.loc 1 120 0
 124 009e 0120     		movs	r0, #1
 125 00a0 FFF7FEFF 		bl	CAN_1_SetRestartType
 126 00a4 0346     		mov	r3, r0
 127 00a6 002B     		cmp	r3, #0
 128 00a8 07D1     		bne	.L3
 121:.\Generated_Source\PSoC5/CAN_1.c ****                     {
 122:.\Generated_Source\PSoC5/CAN_1.c ****                         if (CAN_1_SetEdgeMode(CAN_1_SYNC_EDGE) == CYRET_SUCCESS)
 129              		.loc 1 122 0
 130 00aa 0020     		movs	r0, #0
 131 00ac FFF7FEFF 		bl	CAN_1_SetEdgeMode
 132 00b0 0346     		mov	r3, r0
 133 00b2 002B     		cmp	r3, #0
 134 00b4 01D1     		bne	.L3
 123:.\Generated_Source\PSoC5/CAN_1.c ****                         {
 124:.\Generated_Source\PSoC5/CAN_1.c ****                             localResult = CYRET_SUCCESS;
 135              		.loc 1 124 0
 136 00b6 0023     		movs	r3, #0
 137 00b8 7B71     		strb	r3, [r7, #5]
 138              	.L3:
 125:.\Generated_Source\PSoC5/CAN_1.c ****                         }
 126:.\Generated_Source\PSoC5/CAN_1.c ****                     }
 127:.\Generated_Source\PSoC5/CAN_1.c ****                 }
 128:.\Generated_Source\PSoC5/CAN_1.c ****             }
 129:.\Generated_Source\PSoC5/CAN_1.c ****         }
 130:.\Generated_Source\PSoC5/CAN_1.c ****         
 131:.\Generated_Source\PSoC5/CAN_1.c ****         if (localResult == CYRET_SUCCESS)
 139              		.loc 1 131 0
 140 00ba 7B79     		ldrb	r3, [r7, #5]	@ zero_extendqisi2
 141 00bc 002B     		cmp	r3, #0
 142 00be 43D1     		bne	.L2
 132:.\Generated_Source\PSoC5/CAN_1.c ****         {
 133:.\Generated_Source\PSoC5/CAN_1.c ****             /* Initialize TX maiboxes */
 134:.\Generated_Source\PSoC5/CAN_1.c ****             for (i = 0u; i < CAN_1_NUMBER_OF_TX_MAILBOXES; i++)
 143              		.loc 1 134 0
 144 00c0 0023     		movs	r3, #0
 145 00c2 FB71     		strb	r3, [r7, #7]
 146 00c4 12E0     		b	.L4
 147              	.L7:
 135:.\Generated_Source\PSoC5/CAN_1.c ****             {
 136:.\Generated_Source\PSoC5/CAN_1.c ****                 if (CAN_1_TxBufConfig((const CAN_1_TX_CFG *)
 137:.\Generated_Source\PSoC5/CAN_1.c ****                     (&CAN_1_TXConfigStruct[i])) != CYRET_SUCCESS)
 148              		.loc 1 137 0
ARM GAS  C:\Users\khjtony\AppData\Local\Temp\ccDWw2Fb.s 			page 6


 149 00c6 FA79     		ldrb	r2, [r7, #7]	@ zero_extendqisi2
 136:.\Generated_Source\PSoC5/CAN_1.c ****                 if (CAN_1_TxBufConfig((const CAN_1_TX_CFG *)
 150              		.loc 1 136 0
 151 00c8 1346     		mov	r3, r2
 152 00ca 5B00     		lsls	r3, r3, #1
 153 00cc 1344     		add	r3, r3, r2
 154 00ce 9B00     		lsls	r3, r3, #2
 155 00d0 254A     		ldr	r2, .L13+20
 156 00d2 1344     		add	r3, r3, r2
 157 00d4 1846     		mov	r0, r3
 158 00d6 FFF7FEFF 		bl	CAN_1_TxBufConfig
 159 00da 0346     		mov	r3, r0
 160 00dc 002B     		cmp	r3, #0
 161 00de 02D0     		beq	.L5
 138:.\Generated_Source\PSoC5/CAN_1.c ****                 {
 139:.\Generated_Source\PSoC5/CAN_1.c ****                     localResult = CAN_1_FAIL;
 162              		.loc 1 139 0
 163 00e0 0123     		movs	r3, #1
 164 00e2 7B71     		strb	r3, [r7, #5]
 140:.\Generated_Source\PSoC5/CAN_1.c ****                     break;
 165              		.loc 1 140 0
 166 00e4 05E0     		b	.L6
 167              	.L5:
 134:.\Generated_Source\PSoC5/CAN_1.c ****             for (i = 0u; i < CAN_1_NUMBER_OF_TX_MAILBOXES; i++)
 168              		.loc 1 134 0
 169 00e6 FB79     		ldrb	r3, [r7, #7]	@ zero_extendqisi2
 170 00e8 0133     		adds	r3, r3, #1
 171 00ea FB71     		strb	r3, [r7, #7]
 172              	.L4:
 134:.\Generated_Source\PSoC5/CAN_1.c ****             for (i = 0u; i < CAN_1_NUMBER_OF_TX_MAILBOXES; i++)
 173              		.loc 1 134 0 is_stmt 0 discriminator 1
 174 00ec FB79     		ldrb	r3, [r7, #7]	@ zero_extendqisi2
 175 00ee 072B     		cmp	r3, #7
 176 00f0 E9D9     		bls	.L7
 177              	.L6:
 141:.\Generated_Source\PSoC5/CAN_1.c ****                 }
 142:.\Generated_Source\PSoC5/CAN_1.c ****             }
 143:.\Generated_Source\PSoC5/CAN_1.c **** 
 144:.\Generated_Source\PSoC5/CAN_1.c ****             if (localResult == CYRET_SUCCESS)
 178              		.loc 1 144 0 is_stmt 1
 179 00f2 7B79     		ldrb	r3, [r7, #5]	@ zero_extendqisi2
 180 00f4 002B     		cmp	r3, #0
 181 00f6 27D1     		bne	.L2
 145:.\Generated_Source\PSoC5/CAN_1.c ****             {
 146:.\Generated_Source\PSoC5/CAN_1.c ****                 /* Initialize RX mailboxes */
 147:.\Generated_Source\PSoC5/CAN_1.c ****                 for (i = 0u; i < CAN_1_NUMBER_OF_RX_MAILBOXES; i++)
 182              		.loc 1 147 0
 183 00f8 0023     		movs	r3, #0
 184 00fa FB71     		strb	r3, [r7, #7]
 185 00fc 0FE0     		b	.L8
 186              	.L11:
 148:.\Generated_Source\PSoC5/CAN_1.c ****                 {
 149:.\Generated_Source\PSoC5/CAN_1.c ****                     if (CAN_1_RxBufConfig((const CAN_1_RX_CFG *)
 150:.\Generated_Source\PSoC5/CAN_1.c ****                         (&CAN_1_RXConfigStruct[i])) != CYRET_SUCCESS)
 187              		.loc 1 150 0
 188 00fe FB79     		ldrb	r3, [r7, #7]	@ zero_extendqisi2
 149:.\Generated_Source\PSoC5/CAN_1.c ****                     if (CAN_1_RxBufConfig((const CAN_1_RX_CFG *)
ARM GAS  C:\Users\khjtony\AppData\Local\Temp\ccDWw2Fb.s 			page 7


 189              		.loc 1 149 0
 190 0100 1A01     		lsls	r2, r3, #4
 191 0102 1A4B     		ldr	r3, .L13+24
 192 0104 1344     		add	r3, r3, r2
 193 0106 1846     		mov	r0, r3
 194 0108 FFF7FEFF 		bl	CAN_1_RxBufConfig
 195 010c 0346     		mov	r3, r0
 196 010e 002B     		cmp	r3, #0
 197 0110 02D0     		beq	.L9
 151:.\Generated_Source\PSoC5/CAN_1.c ****                     {
 152:.\Generated_Source\PSoC5/CAN_1.c ****                         localResult = CAN_1_FAIL;
 198              		.loc 1 152 0
 199 0112 0123     		movs	r3, #1
 200 0114 7B71     		strb	r3, [r7, #5]
 153:.\Generated_Source\PSoC5/CAN_1.c ****                         break;
 201              		.loc 1 153 0
 202 0116 05E0     		b	.L10
 203              	.L9:
 147:.\Generated_Source\PSoC5/CAN_1.c ****                 for (i = 0u; i < CAN_1_NUMBER_OF_RX_MAILBOXES; i++)
 204              		.loc 1 147 0
 205 0118 FB79     		ldrb	r3, [r7, #7]	@ zero_extendqisi2
 206 011a 0133     		adds	r3, r3, #1
 207 011c FB71     		strb	r3, [r7, #7]
 208              	.L8:
 147:.\Generated_Source\PSoC5/CAN_1.c ****                 for (i = 0u; i < CAN_1_NUMBER_OF_RX_MAILBOXES; i++)
 209              		.loc 1 147 0 is_stmt 0 discriminator 1
 210 011e FB79     		ldrb	r3, [r7, #7]	@ zero_extendqisi2
 211 0120 0F2B     		cmp	r3, #15
 212 0122 ECD9     		bls	.L11
 213              	.L10:
 154:.\Generated_Source\PSoC5/CAN_1.c ****                     }
 155:.\Generated_Source\PSoC5/CAN_1.c ****                 }
 156:.\Generated_Source\PSoC5/CAN_1.c **** 
 157:.\Generated_Source\PSoC5/CAN_1.c ****                 if (localResult == CYRET_SUCCESS)
 214              		.loc 1 157 0 is_stmt 1
 215 0124 7B79     		ldrb	r3, [r7, #5]	@ zero_extendqisi2
 216 0126 002B     		cmp	r3, #0
 217 0128 0ED1     		bne	.L2
 158:.\Generated_Source\PSoC5/CAN_1.c ****                 {
 159:.\Generated_Source\PSoC5/CAN_1.c ****                     /* Write IRQ Mask */
 160:.\Generated_Source\PSoC5/CAN_1.c ****                     if (CAN_1_SetIrqMask(CAN_1_INIT_INTERRUPT_MASK) ==
 218              		.loc 1 160 0
 219 012a 41F20100 		movw	r0, #4097
 220 012e FFF7FEFF 		bl	CAN_1_SetIrqMask
 221 0132 0346     		mov	r3, r0
 222 0134 002B     		cmp	r3, #0
 223 0136 07D1     		bne	.L2
 161:.\Generated_Source\PSoC5/CAN_1.c ****                         CYRET_SUCCESS)
 162:.\Generated_Source\PSoC5/CAN_1.c ****                     {
 163:.\Generated_Source\PSoC5/CAN_1.c ****                         /* Active mode always */
 164:.\Generated_Source\PSoC5/CAN_1.c ****                         if (CAN_1_SetOpMode(CAN_1_ACTIVE_MODE) == CYRET_SUCCESS)
 224              		.loc 1 164 0
 225 0138 0020     		movs	r0, #0
 226 013a FFF7FEFF 		bl	CAN_1_SetOpMode
 227 013e 0346     		mov	r3, r0
 228 0140 002B     		cmp	r3, #0
 229 0142 01D1     		bne	.L2
ARM GAS  C:\Users\khjtony\AppData\Local\Temp\ccDWw2Fb.s 			page 8


 165:.\Generated_Source\PSoC5/CAN_1.c ****                         {
 166:.\Generated_Source\PSoC5/CAN_1.c ****                             result = CYRET_SUCCESS;
 230              		.loc 1 166 0
 231 0144 0023     		movs	r3, #0
 232 0146 BB71     		strb	r3, [r7, #6]
 233              	.L2:
 167:.\Generated_Source\PSoC5/CAN_1.c ****                         }
 168:.\Generated_Source\PSoC5/CAN_1.c ****                     }
 169:.\Generated_Source\PSoC5/CAN_1.c ****                 }
 170:.\Generated_Source\PSoC5/CAN_1.c ****             }
 171:.\Generated_Source\PSoC5/CAN_1.c ****         }
 172:.\Generated_Source\PSoC5/CAN_1.c ****                             
 173:.\Generated_Source\PSoC5/CAN_1.c ****     }
 174:.\Generated_Source\PSoC5/CAN_1.c **** 
 175:.\Generated_Source\PSoC5/CAN_1.c ****     return (result);
 234              		.loc 1 175 0
 235 0148 BB79     		ldrb	r3, [r7, #6]	@ zero_extendqisi2
 176:.\Generated_Source\PSoC5/CAN_1.c **** }
 236              		.loc 1 176 0
 237 014a 1846     		mov	r0, r3
 238 014c 0837     		adds	r7, r7, #8
 239 014e BD46     		mov	sp, r7
 240              		@ sp needed
 241 0150 80BD     		pop	{r7, pc}
 242              	.L14:
 243 0152 00BF     		.align	2
 244              	.L13:
 245 0154 A6430040 		.word	1073759142
 246 0158 B6430040 		.word	1073759158
 247 015c 10A00040 		.word	1073782800
 248 0160 80E100E0 		.word	-536813184
 249 0164 00000000 		.word	CAN_1_ISR
 250 0168 00000000 		.word	CAN_1_TXConfigStruct.4933
 251 016c 60000000 		.word	CAN_1_RXConfigStruct.4932
 252              		.cfi_endproc
 253              	.LFE0:
 254              		.size	CAN_1_Init, .-CAN_1_Init
 255              		.section	.text.CAN_1_Enable,"ax",%progbits
 256              		.align	2
 257              		.global	CAN_1_Enable
 258              		.thumb
 259              		.thumb_func
 260              		.type	CAN_1_Enable, %function
 261              	CAN_1_Enable:
 262              	.LFB1:
 177:.\Generated_Source\PSoC5/CAN_1.c **** 
 178:.\Generated_Source\PSoC5/CAN_1.c **** 
 179:.\Generated_Source\PSoC5/CAN_1.c **** /*******************************************************************************
 180:.\Generated_Source\PSoC5/CAN_1.c **** * Function Name: CAN_1_Enable
 181:.\Generated_Source\PSoC5/CAN_1.c **** ********************************************************************************
 182:.\Generated_Source\PSoC5/CAN_1.c **** *
 183:.\Generated_Source\PSoC5/CAN_1.c **** * Summary:   
 184:.\Generated_Source\PSoC5/CAN_1.c **** *  This function enable CAN Component and ISR of CAN Component. 
 185:.\Generated_Source\PSoC5/CAN_1.c **** *
 186:.\Generated_Source\PSoC5/CAN_1.c **** * Parameters:  
 187:.\Generated_Source\PSoC5/CAN_1.c **** *  None.
 188:.\Generated_Source\PSoC5/CAN_1.c **** *
ARM GAS  C:\Users\khjtony\AppData\Local\Temp\ccDWw2Fb.s 			page 9


 189:.\Generated_Source\PSoC5/CAN_1.c **** * Return: 
 190:.\Generated_Source\PSoC5/CAN_1.c **** *  Indication whether register is written and verified.
 191:.\Generated_Source\PSoC5/CAN_1.c **** *   Define                             Description
 192:.\Generated_Source\PSoC5/CAN_1.c **** *    CYRET_SUCCESS                      Function passed successfully
 193:.\Generated_Source\PSoC5/CAN_1.c **** *    CAN_1_FAIL              Function failed
 194:.\Generated_Source\PSoC5/CAN_1.c **** *
 195:.\Generated_Source\PSoC5/CAN_1.c **** *******************************************************************************/
 196:.\Generated_Source\PSoC5/CAN_1.c **** uint8 CAN_1_Enable(void) 
 197:.\Generated_Source\PSoC5/CAN_1.c **** {
 263              		.loc 1 197 0
 264              		.cfi_startproc
 265              		@ args = 0, pretend = 0, frame = 8
 266              		@ frame_needed = 1, uses_anonymous_args = 0
 267 0000 80B5     		push	{r7, lr}
 268              		.cfi_def_cfa_offset 8
 269              		.cfi_offset 7, -8
 270              		.cfi_offset 14, -4
 271 0002 82B0     		sub	sp, sp, #8
 272              		.cfi_def_cfa_offset 16
 273 0004 00AF     		add	r7, sp, #0
 274              		.cfi_def_cfa_register 7
 198:.\Generated_Source\PSoC5/CAN_1.c ****     uint8 result = CAN_1_FAIL;
 275              		.loc 1 198 0
 276 0006 0123     		movs	r3, #1
 277 0008 FB71     		strb	r3, [r7, #7]
 199:.\Generated_Source\PSoC5/CAN_1.c ****     uint8 enableInterrupts;
 200:.\Generated_Source\PSoC5/CAN_1.c ****     
 201:.\Generated_Source\PSoC5/CAN_1.c ****     enableInterrupts = CyEnterCriticalSection();
 278              		.loc 1 201 0
 279 000a FFF7FEFF 		bl	CyEnterCriticalSection
 280 000e 0346     		mov	r3, r0
 281 0010 BB71     		strb	r3, [r7, #6]
 202:.\Generated_Source\PSoC5/CAN_1.c ****     
 203:.\Generated_Source\PSoC5/CAN_1.c ****     /* Enable CAN block in Active mode */
 204:.\Generated_Source\PSoC5/CAN_1.c ****     CAN_1_PM_ACT_CFG_REG |= CAN_1_ACT_PWR_EN;
 282              		.loc 1 204 0
 283 0012 154B     		ldr	r3, .L18
 284 0014 144A     		ldr	r2, .L18
 285 0016 1278     		ldrb	r2, [r2]
 286 0018 D2B2     		uxtb	r2, r2
 287 001a 42F00102 		orr	r2, r2, #1
 288 001e D2B2     		uxtb	r2, r2
 289 0020 1A70     		strb	r2, [r3]
 205:.\Generated_Source\PSoC5/CAN_1.c **** 
 206:.\Generated_Source\PSoC5/CAN_1.c ****     /* Enable CAN block in Alternate Active (Standby) mode */
 207:.\Generated_Source\PSoC5/CAN_1.c ****     CAN_1_PM_STBY_CFG_REG |= CAN_1_STBY_PWR_EN;
 290              		.loc 1 207 0
 291 0022 124B     		ldr	r3, .L18+4
 292 0024 114A     		ldr	r2, .L18+4
 293 0026 1278     		ldrb	r2, [r2]
 294 0028 D2B2     		uxtb	r2, r2
 295 002a 42F00102 		orr	r2, r2, #1
 296 002e D2B2     		uxtb	r2, r2
 297 0030 1A70     		strb	r2, [r3]
 208:.\Generated_Source\PSoC5/CAN_1.c ****     
 209:.\Generated_Source\PSoC5/CAN_1.c ****     CyExitCriticalSection(enableInterrupts);
 298              		.loc 1 209 0
ARM GAS  C:\Users\khjtony\AppData\Local\Temp\ccDWw2Fb.s 			page 10


 299 0032 BB79     		ldrb	r3, [r7, #6]	@ zero_extendqisi2
 300 0034 1846     		mov	r0, r3
 301 0036 FFF7FEFF 		bl	CyExitCriticalSection
 210:.\Generated_Source\PSoC5/CAN_1.c ****     
 211:.\Generated_Source\PSoC5/CAN_1.c ****     /* Enable isr */
 212:.\Generated_Source\PSoC5/CAN_1.c ****     CyIntEnable(CAN_1_ISR_NUMBER);
 302              		.loc 1 212 0
 303 003a 0D4B     		ldr	r3, .L18+8
 304 003c 4FF48032 		mov	r2, #65536
 305 0040 1A60     		str	r2, [r3]
 213:.\Generated_Source\PSoC5/CAN_1.c **** 
 214:.\Generated_Source\PSoC5/CAN_1.c **** 
 215:.\Generated_Source\PSoC5/CAN_1.c ****     /* Sets the CAN controller to run mode */
 216:.\Generated_Source\PSoC5/CAN_1.c ****     CY_SET_REG32(CAN_1_CMD_PTR, (CY_GET_REG32(CAN_1_CMD_PTR) | CAN_1_MODE_MASK));
 306              		.loc 1 216 0
 307 0042 0C4B     		ldr	r3, .L18+12
 308 0044 0B4A     		ldr	r2, .L18+12
 309 0046 1268     		ldr	r2, [r2]
 310 0048 42F00102 		orr	r2, r2, #1
 311 004c 1A60     		str	r2, [r3]
 217:.\Generated_Source\PSoC5/CAN_1.c ****     
 218:.\Generated_Source\PSoC5/CAN_1.c ****     /* Verify that bit is set */
 219:.\Generated_Source\PSoC5/CAN_1.c ****     if (0u != (CY_GET_REG32(CAN_1_CMD_PTR) & CAN_1_MODE_MASK))
 312              		.loc 1 219 0
 313 004e 094B     		ldr	r3, .L18+12
 314 0050 1B68     		ldr	r3, [r3]
 315 0052 03F00103 		and	r3, r3, #1
 316 0056 002B     		cmp	r3, #0
 317 0058 01D0     		beq	.L16
 220:.\Generated_Source\PSoC5/CAN_1.c ****     {
 221:.\Generated_Source\PSoC5/CAN_1.c ****         result = CYRET_SUCCESS;
 318              		.loc 1 221 0
 319 005a 0023     		movs	r3, #0
 320 005c FB71     		strb	r3, [r7, #7]
 321              	.L16:
 222:.\Generated_Source\PSoC5/CAN_1.c ****     }
 223:.\Generated_Source\PSoC5/CAN_1.c ****     
 224:.\Generated_Source\PSoC5/CAN_1.c ****     return (result);
 322              		.loc 1 224 0
 323 005e FB79     		ldrb	r3, [r7, #7]	@ zero_extendqisi2
 225:.\Generated_Source\PSoC5/CAN_1.c **** }
 324              		.loc 1 225 0
 325 0060 1846     		mov	r0, r3
 326 0062 0837     		adds	r7, r7, #8
 327 0064 BD46     		mov	sp, r7
 328              		@ sp needed
 329 0066 80BD     		pop	{r7, pc}
 330              	.L19:
 331              		.align	2
 332              	.L18:
 333 0068 A6430040 		.word	1073759142
 334 006c B6430040 		.word	1073759158
 335 0070 00E100E0 		.word	-536813312
 336 0074 10A00040 		.word	1073782800
 337              		.cfi_endproc
 338              	.LFE1:
 339              		.size	CAN_1_Enable, .-CAN_1_Enable
ARM GAS  C:\Users\khjtony\AppData\Local\Temp\ccDWw2Fb.s 			page 11


 340              		.section	.text.CAN_1_Start,"ax",%progbits
 341              		.align	2
 342              		.global	CAN_1_Start
 343              		.thumb
 344              		.thumb_func
 345              		.type	CAN_1_Start, %function
 346              	CAN_1_Start:
 347              	.LFB2:
 226:.\Generated_Source\PSoC5/CAN_1.c **** 
 227:.\Generated_Source\PSoC5/CAN_1.c **** 
 228:.\Generated_Source\PSoC5/CAN_1.c **** /*******************************************************************************
 229:.\Generated_Source\PSoC5/CAN_1.c **** * FUNCTION NAME:   CAN_1_Start
 230:.\Generated_Source\PSoC5/CAN_1.c **** ********************************************************************************
 231:.\Generated_Source\PSoC5/CAN_1.c **** *
 232:.\Generated_Source\PSoC5/CAN_1.c **** * Summary:
 233:.\Generated_Source\PSoC5/CAN_1.c **** *  This function sets CAN Component into Run mode. Starts the Rate Counter if
 234:.\Generated_Source\PSoC5/CAN_1.c **** *  polling mailboxes available.
 235:.\Generated_Source\PSoC5/CAN_1.c **** *
 236:.\Generated_Source\PSoC5/CAN_1.c **** * Parameters:
 237:.\Generated_Source\PSoC5/CAN_1.c **** *  None. 
 238:.\Generated_Source\PSoC5/CAN_1.c **** *
 239:.\Generated_Source\PSoC5/CAN_1.c **** * Return:
 240:.\Generated_Source\PSoC5/CAN_1.c **** *  Indication whether register is written and verified.
 241:.\Generated_Source\PSoC5/CAN_1.c **** *   Define                             Description
 242:.\Generated_Source\PSoC5/CAN_1.c **** *    CYRET_SUCCESS                      Function passed successfully
 243:.\Generated_Source\PSoC5/CAN_1.c **** *    CAN_1_FAIL              Function failed
 244:.\Generated_Source\PSoC5/CAN_1.c **** *
 245:.\Generated_Source\PSoC5/CAN_1.c **** * Global variables:
 246:.\Generated_Source\PSoC5/CAN_1.c **** *  CAN_1_initVar - used to check initial configuration, modified on
 247:.\Generated_Source\PSoC5/CAN_1.c **** *  first function call.
 248:.\Generated_Source\PSoC5/CAN_1.c **** *
 249:.\Generated_Source\PSoC5/CAN_1.c **** * Reentrant:
 250:.\Generated_Source\PSoC5/CAN_1.c **** *  No.
 251:.\Generated_Source\PSoC5/CAN_1.c **** *
 252:.\Generated_Source\PSoC5/CAN_1.c **** *******************************************************************************/
 253:.\Generated_Source\PSoC5/CAN_1.c **** uint8 CAN_1_Start(void) 
 254:.\Generated_Source\PSoC5/CAN_1.c **** {
 348              		.loc 1 254 0
 349              		.cfi_startproc
 350              		@ args = 0, pretend = 0, frame = 8
 351              		@ frame_needed = 1, uses_anonymous_args = 0
 352 0000 80B5     		push	{r7, lr}
 353              		.cfi_def_cfa_offset 8
 354              		.cfi_offset 7, -8
 355              		.cfi_offset 14, -4
 356 0002 82B0     		sub	sp, sp, #8
 357              		.cfi_def_cfa_offset 16
 358 0004 00AF     		add	r7, sp, #0
 359              		.cfi_def_cfa_register 7
 255:.\Generated_Source\PSoC5/CAN_1.c ****     uint8 result = CYRET_SUCCESS;
 360              		.loc 1 255 0
 361 0006 0023     		movs	r3, #0
 362 0008 FB71     		strb	r3, [r7, #7]
 256:.\Generated_Source\PSoC5/CAN_1.c ****     
 257:.\Generated_Source\PSoC5/CAN_1.c ****     if (CAN_1_initVar == 0u)
 363              		.loc 1 257 0
 364 000a 0B4B     		ldr	r3, .L24
ARM GAS  C:\Users\khjtony\AppData\Local\Temp\ccDWw2Fb.s 			page 12


 365 000c 1B78     		ldrb	r3, [r3]	@ zero_extendqisi2
 366 000e 002B     		cmp	r3, #0
 367 0010 06D1     		bne	.L21
 258:.\Generated_Source\PSoC5/CAN_1.c ****     {
 259:.\Generated_Source\PSoC5/CAN_1.c ****         result = CAN_1_Init();
 368              		.loc 1 259 0
 369 0012 FFF7FEFF 		bl	CAN_1_Init
 370 0016 0346     		mov	r3, r0
 371 0018 FB71     		strb	r3, [r7, #7]
 260:.\Generated_Source\PSoC5/CAN_1.c ****         CAN_1_initVar = 1u;        
 372              		.loc 1 260 0
 373 001a 074B     		ldr	r3, .L24
 374 001c 0122     		movs	r2, #1
 375 001e 1A70     		strb	r2, [r3]
 376              	.L21:
 261:.\Generated_Source\PSoC5/CAN_1.c ****     }
 262:.\Generated_Source\PSoC5/CAN_1.c ****     
 263:.\Generated_Source\PSoC5/CAN_1.c ****     if (result == CYRET_SUCCESS)
 377              		.loc 1 263 0
 378 0020 FB79     		ldrb	r3, [r7, #7]	@ zero_extendqisi2
 379 0022 002B     		cmp	r3, #0
 380 0024 03D1     		bne	.L22
 264:.\Generated_Source\PSoC5/CAN_1.c ****     {
 265:.\Generated_Source\PSoC5/CAN_1.c ****         result = CAN_1_Enable();
 381              		.loc 1 265 0
 382 0026 FFF7FEFF 		bl	CAN_1_Enable
 383 002a 0346     		mov	r3, r0
 384 002c FB71     		strb	r3, [r7, #7]
 385              	.L22:
 266:.\Generated_Source\PSoC5/CAN_1.c ****     }
 267:.\Generated_Source\PSoC5/CAN_1.c **** 
 268:.\Generated_Source\PSoC5/CAN_1.c ****     return (result);
 386              		.loc 1 268 0
 387 002e FB79     		ldrb	r3, [r7, #7]	@ zero_extendqisi2
 269:.\Generated_Source\PSoC5/CAN_1.c **** }
 388              		.loc 1 269 0
 389 0030 1846     		mov	r0, r3
 390 0032 0837     		adds	r7, r7, #8
 391 0034 BD46     		mov	sp, r7
 392              		@ sp needed
 393 0036 80BD     		pop	{r7, pc}
 394              	.L25:
 395              		.align	2
 396              	.L24:
 397 0038 00000000 		.word	CAN_1_initVar
 398              		.cfi_endproc
 399              	.LFE2:
 400              		.size	CAN_1_Start, .-CAN_1_Start
 401              		.section	.text.CAN_1_Stop,"ax",%progbits
 402              		.align	2
 403              		.global	CAN_1_Stop
 404              		.thumb
 405              		.thumb_func
 406              		.type	CAN_1_Stop, %function
 407              	CAN_1_Stop:
 408              	.LFB3:
 270:.\Generated_Source\PSoC5/CAN_1.c **** 
ARM GAS  C:\Users\khjtony\AppData\Local\Temp\ccDWw2Fb.s 			page 13


 271:.\Generated_Source\PSoC5/CAN_1.c **** 
 272:.\Generated_Source\PSoC5/CAN_1.c **** /*******************************************************************************
 273:.\Generated_Source\PSoC5/CAN_1.c **** * FUNCTION NAME:   CAN_1_Stop
 274:.\Generated_Source\PSoC5/CAN_1.c **** ********************************************************************************
 275:.\Generated_Source\PSoC5/CAN_1.c **** *
 276:.\Generated_Source\PSoC5/CAN_1.c **** * Summary:
 277:.\Generated_Source\PSoC5/CAN_1.c **** *  This function sets CAN Component into Stop mode.
 278:.\Generated_Source\PSoC5/CAN_1.c **** *
 279:.\Generated_Source\PSoC5/CAN_1.c **** * Parameters:
 280:.\Generated_Source\PSoC5/CAN_1.c **** *  None.
 281:.\Generated_Source\PSoC5/CAN_1.c **** *
 282:.\Generated_Source\PSoC5/CAN_1.c **** * Return:
 283:.\Generated_Source\PSoC5/CAN_1.c **** *  Indication whether register is written and verified.
 284:.\Generated_Source\PSoC5/CAN_1.c **** *   Define                             Description
 285:.\Generated_Source\PSoC5/CAN_1.c **** *    CYRET_SUCCESS                      Function passed successfully
 286:.\Generated_Source\PSoC5/CAN_1.c **** *    CAN_1_FAIL              Function failed
 287:.\Generated_Source\PSoC5/CAN_1.c **** *
 288:.\Generated_Source\PSoC5/CAN_1.c **** * Side Effects:
 289:.\Generated_Source\PSoC5/CAN_1.c **** *  Disable power to the CAN Core.
 290:.\Generated_Source\PSoC5/CAN_1.c **** *
 291:.\Generated_Source\PSoC5/CAN_1.c **** *******************************************************************************/
 292:.\Generated_Source\PSoC5/CAN_1.c **** uint8 CAN_1_Stop(void) 
 293:.\Generated_Source\PSoC5/CAN_1.c **** {
 409              		.loc 1 293 0
 410              		.cfi_startproc
 411              		@ args = 0, pretend = 0, frame = 8
 412              		@ frame_needed = 1, uses_anonymous_args = 0
 413 0000 80B5     		push	{r7, lr}
 414              		.cfi_def_cfa_offset 8
 415              		.cfi_offset 7, -8
 416              		.cfi_offset 14, -4
 417 0002 82B0     		sub	sp, sp, #8
 418              		.cfi_def_cfa_offset 16
 419 0004 00AF     		add	r7, sp, #0
 420              		.cfi_def_cfa_register 7
 294:.\Generated_Source\PSoC5/CAN_1.c ****     uint8 result = CAN_1_FAIL;
 421              		.loc 1 294 0
 422 0006 0123     		movs	r3, #1
 423 0008 FB71     		strb	r3, [r7, #7]
 295:.\Generated_Source\PSoC5/CAN_1.c ****     uint8 enableInterrupts;        
 296:.\Generated_Source\PSoC5/CAN_1.c ****     
 297:.\Generated_Source\PSoC5/CAN_1.c ****     /* Sets the CAN controller to stop mode */
 298:.\Generated_Source\PSoC5/CAN_1.c ****     CY_SET_REG32(CAN_1_CMD_PTR, (CY_GET_REG32(CAN_1_CMD_PTR) & 
 424              		.loc 1 298 0
 425 000a 174B     		ldr	r3, .L29
 426 000c 164A     		ldr	r2, .L29
 427 000e 1268     		ldr	r2, [r2]
 428 0010 02F0FE02 		and	r2, r2, #254
 429 0014 1A60     		str	r2, [r3]
 299:.\Generated_Source\PSoC5/CAN_1.c ****                                             ((uint8) (~CAN_1_MODE_MASK))));
 300:.\Generated_Source\PSoC5/CAN_1.c **** 
 301:.\Generated_Source\PSoC5/CAN_1.c ****     /* Verify that bit is cleared */
 302:.\Generated_Source\PSoC5/CAN_1.c ****     if (0u == (CY_GET_REG32(CAN_1_CMD_PTR) & CAN_1_MODE_MASK))
 430              		.loc 1 302 0
 431 0016 144B     		ldr	r3, .L29
 432 0018 1B68     		ldr	r3, [r3]
 433 001a 03F00103 		and	r3, r3, #1
ARM GAS  C:\Users\khjtony\AppData\Local\Temp\ccDWw2Fb.s 			page 14


 434 001e 002B     		cmp	r3, #0
 435 0020 01D1     		bne	.L27
 303:.\Generated_Source\PSoC5/CAN_1.c ****     {
 304:.\Generated_Source\PSoC5/CAN_1.c ****         result = CYRET_SUCCESS;
 436              		.loc 1 304 0
 437 0022 0023     		movs	r3, #0
 438 0024 FB71     		strb	r3, [r7, #7]
 439              	.L27:
 305:.\Generated_Source\PSoC5/CAN_1.c ****     }
 306:.\Generated_Source\PSoC5/CAN_1.c ****     
 307:.\Generated_Source\PSoC5/CAN_1.c ****     /* Disable isr */
 308:.\Generated_Source\PSoC5/CAN_1.c ****     CyIntDisable(CAN_1_ISR_NUMBER);
 440              		.loc 1 308 0
 441 0026 114B     		ldr	r3, .L29+4
 442 0028 4FF48032 		mov	r2, #65536
 443 002c 1A60     		str	r2, [r3]
 309:.\Generated_Source\PSoC5/CAN_1.c **** 
 310:.\Generated_Source\PSoC5/CAN_1.c ****     enableInterrupts = CyEnterCriticalSection(); 
 444              		.loc 1 310 0
 445 002e FFF7FEFF 		bl	CyEnterCriticalSection
 446 0032 0346     		mov	r3, r0
 447 0034 BB71     		strb	r3, [r7, #6]
 311:.\Generated_Source\PSoC5/CAN_1.c **** 
 312:.\Generated_Source\PSoC5/CAN_1.c ****     /* Disable CAN block in Active mode */
 313:.\Generated_Source\PSoC5/CAN_1.c ****     CAN_1_PM_ACT_CFG_REG &= (uint8) (~CAN_1_ACT_PWR_EN);
 448              		.loc 1 313 0
 449 0036 0E4B     		ldr	r3, .L29+8
 450 0038 0D4A     		ldr	r2, .L29+8
 451 003a 1278     		ldrb	r2, [r2]
 452 003c D2B2     		uxtb	r2, r2
 453 003e 22F00102 		bic	r2, r2, #1
 454 0042 D2B2     		uxtb	r2, r2
 455 0044 1A70     		strb	r2, [r3]
 314:.\Generated_Source\PSoC5/CAN_1.c **** 
 315:.\Generated_Source\PSoC5/CAN_1.c ****     /* Disable CAN block in Alternate Active (Standby) mode template */
 316:.\Generated_Source\PSoC5/CAN_1.c ****     CAN_1_PM_STBY_CFG_REG &= (uint8) (~CAN_1_STBY_PWR_EN);
 456              		.loc 1 316 0
 457 0046 0B4B     		ldr	r3, .L29+12
 458 0048 0A4A     		ldr	r2, .L29+12
 459 004a 1278     		ldrb	r2, [r2]
 460 004c D2B2     		uxtb	r2, r2
 461 004e 22F00102 		bic	r2, r2, #1
 462 0052 D2B2     		uxtb	r2, r2
 463 0054 1A70     		strb	r2, [r3]
 317:.\Generated_Source\PSoC5/CAN_1.c ****     
 318:.\Generated_Source\PSoC5/CAN_1.c ****     CyExitCriticalSection(enableInterrupts);
 464              		.loc 1 318 0
 465 0056 BB79     		ldrb	r3, [r7, #6]	@ zero_extendqisi2
 466 0058 1846     		mov	r0, r3
 467 005a FFF7FEFF 		bl	CyExitCriticalSection
 319:.\Generated_Source\PSoC5/CAN_1.c **** 
 320:.\Generated_Source\PSoC5/CAN_1.c ****     return (result);
 468              		.loc 1 320 0
 469 005e FB79     		ldrb	r3, [r7, #7]	@ zero_extendqisi2
 321:.\Generated_Source\PSoC5/CAN_1.c **** }
 470              		.loc 1 321 0
 471 0060 1846     		mov	r0, r3
ARM GAS  C:\Users\khjtony\AppData\Local\Temp\ccDWw2Fb.s 			page 15


 472 0062 0837     		adds	r7, r7, #8
 473 0064 BD46     		mov	sp, r7
 474              		@ sp needed
 475 0066 80BD     		pop	{r7, pc}
 476              	.L30:
 477              		.align	2
 478              	.L29:
 479 0068 10A00040 		.word	1073782800
 480 006c 80E100E0 		.word	-536813184
 481 0070 A6430040 		.word	1073759142
 482 0074 B6430040 		.word	1073759158
 483              		.cfi_endproc
 484              	.LFE3:
 485              		.size	CAN_1_Stop, .-CAN_1_Stop
 486              		.section	.text.CAN_1_GlobalIntEnable,"ax",%progbits
 487              		.align	2
 488              		.global	CAN_1_GlobalIntEnable
 489              		.thumb
 490              		.thumb_func
 491              		.type	CAN_1_GlobalIntEnable, %function
 492              	CAN_1_GlobalIntEnable:
 493              	.LFB4:
 322:.\Generated_Source\PSoC5/CAN_1.c **** 
 323:.\Generated_Source\PSoC5/CAN_1.c **** 
 324:.\Generated_Source\PSoC5/CAN_1.c **** /*******************************************************************************
 325:.\Generated_Source\PSoC5/CAN_1.c **** * FUNCTION NAME:   CAN_1_GlobalIntEnable
 326:.\Generated_Source\PSoC5/CAN_1.c **** ********************************************************************************
 327:.\Generated_Source\PSoC5/CAN_1.c **** *
 328:.\Generated_Source\PSoC5/CAN_1.c **** * Summary:
 329:.\Generated_Source\PSoC5/CAN_1.c **** *  This function enables Global Interrupts from CAN Core.
 330:.\Generated_Source\PSoC5/CAN_1.c **** *
 331:.\Generated_Source\PSoC5/CAN_1.c **** * Parameters:
 332:.\Generated_Source\PSoC5/CAN_1.c **** *  None.
 333:.\Generated_Source\PSoC5/CAN_1.c **** *
 334:.\Generated_Source\PSoC5/CAN_1.c **** * Return:
 335:.\Generated_Source\PSoC5/CAN_1.c **** *  Indication whether register is written and verified.
 336:.\Generated_Source\PSoC5/CAN_1.c **** *   Define                             Description
 337:.\Generated_Source\PSoC5/CAN_1.c **** *    CYRET_SUCCESS                      Function passed successfully
 338:.\Generated_Source\PSoC5/CAN_1.c **** *    CAN_1_FAIL              Function failed
 339:.\Generated_Source\PSoC5/CAN_1.c **** *
 340:.\Generated_Source\PSoC5/CAN_1.c **** *******************************************************************************/
 341:.\Generated_Source\PSoC5/CAN_1.c **** uint8 CAN_1_GlobalIntEnable(void) 
 342:.\Generated_Source\PSoC5/CAN_1.c **** {
 494              		.loc 1 342 0
 495              		.cfi_startproc
 496              		@ args = 0, pretend = 0, frame = 8
 497              		@ frame_needed = 1, uses_anonymous_args = 0
 498              		@ link register save eliminated.
 499 0000 80B4     		push	{r7}
 500              		.cfi_def_cfa_offset 4
 501              		.cfi_offset 7, -4
 502 0002 83B0     		sub	sp, sp, #12
 503              		.cfi_def_cfa_offset 16
 504 0004 00AF     		add	r7, sp, #0
 505              		.cfi_def_cfa_register 7
 343:.\Generated_Source\PSoC5/CAN_1.c ****     uint8 result = CAN_1_FAIL;
 506              		.loc 1 343 0
ARM GAS  C:\Users\khjtony\AppData\Local\Temp\ccDWw2Fb.s 			page 16


 507 0006 0123     		movs	r3, #1
 508 0008 FB71     		strb	r3, [r7, #7]
 344:.\Generated_Source\PSoC5/CAN_1.c **** 
 345:.\Generated_Source\PSoC5/CAN_1.c ****     CAN_1_INT_EN_REG.byte[0u] |= CAN_1_GLOBAL_INT_MASK;
 509              		.loc 1 345 0
 510 000a 0C4B     		ldr	r3, .L34
 511 000c 0B4A     		ldr	r2, .L34
 512 000e 1278     		ldrb	r2, [r2]
 513 0010 D2B2     		uxtb	r2, r2
 514 0012 42F00102 		orr	r2, r2, #1
 515 0016 D2B2     		uxtb	r2, r2
 516 0018 1A70     		strb	r2, [r3]
 346:.\Generated_Source\PSoC5/CAN_1.c **** 
 347:.\Generated_Source\PSoC5/CAN_1.c ****     /* Verify that bit is set */
 348:.\Generated_Source\PSoC5/CAN_1.c ****     if ((CAN_1_INT_EN_REG.byte[0u] & CAN_1_GLOBAL_INT_MASK) == CAN_1_GLOBAL_INT_MASK)
 517              		.loc 1 348 0
 518 001a 084B     		ldr	r3, .L34
 519 001c 1B78     		ldrb	r3, [r3]
 520 001e DBB2     		uxtb	r3, r3
 521 0020 03F00103 		and	r3, r3, #1
 522 0024 002B     		cmp	r3, #0
 523 0026 01D0     		beq	.L32
 349:.\Generated_Source\PSoC5/CAN_1.c ****     {
 350:.\Generated_Source\PSoC5/CAN_1.c ****         result = CYRET_SUCCESS;
 524              		.loc 1 350 0
 525 0028 0023     		movs	r3, #0
 526 002a FB71     		strb	r3, [r7, #7]
 527              	.L32:
 351:.\Generated_Source\PSoC5/CAN_1.c ****     }
 352:.\Generated_Source\PSoC5/CAN_1.c **** 
 353:.\Generated_Source\PSoC5/CAN_1.c ****     return (result);
 528              		.loc 1 353 0
 529 002c FB79     		ldrb	r3, [r7, #7]	@ zero_extendqisi2
 354:.\Generated_Source\PSoC5/CAN_1.c **** }
 530              		.loc 1 354 0
 531 002e 1846     		mov	r0, r3
 532 0030 0C37     		adds	r7, r7, #12
 533 0032 BD46     		mov	sp, r7
 534              		@ sp needed
 535 0034 5DF8047B 		ldr	r7, [sp], #4
 536 0038 7047     		bx	lr
 537              	.L35:
 538 003a 00BF     		.align	2
 539              	.L34:
 540 003c 04A00040 		.word	1073782788
 541              		.cfi_endproc
 542              	.LFE4:
 543              		.size	CAN_1_GlobalIntEnable, .-CAN_1_GlobalIntEnable
 544              		.section	.text.CAN_1_GlobalIntDisable,"ax",%progbits
 545              		.align	2
 546              		.global	CAN_1_GlobalIntDisable
 547              		.thumb
 548              		.thumb_func
 549              		.type	CAN_1_GlobalIntDisable, %function
 550              	CAN_1_GlobalIntDisable:
 551              	.LFB5:
 355:.\Generated_Source\PSoC5/CAN_1.c **** 
ARM GAS  C:\Users\khjtony\AppData\Local\Temp\ccDWw2Fb.s 			page 17


 356:.\Generated_Source\PSoC5/CAN_1.c **** 
 357:.\Generated_Source\PSoC5/CAN_1.c **** /*******************************************************************************
 358:.\Generated_Source\PSoC5/CAN_1.c **** * FUNCTION NAME:   CAN_1_GlobalIntDisable
 359:.\Generated_Source\PSoC5/CAN_1.c **** ********************************************************************************
 360:.\Generated_Source\PSoC5/CAN_1.c **** *
 361:.\Generated_Source\PSoC5/CAN_1.c **** * Summary:
 362:.\Generated_Source\PSoC5/CAN_1.c **** *  This function disables Global Interrupts from CAN Core.
 363:.\Generated_Source\PSoC5/CAN_1.c **** *
 364:.\Generated_Source\PSoC5/CAN_1.c **** * Parameters:
 365:.\Generated_Source\PSoC5/CAN_1.c **** *  None.
 366:.\Generated_Source\PSoC5/CAN_1.c **** *
 367:.\Generated_Source\PSoC5/CAN_1.c **** * Return:
 368:.\Generated_Source\PSoC5/CAN_1.c **** *  Indication whether register is written and verified.
 369:.\Generated_Source\PSoC5/CAN_1.c **** *   Define                             Description
 370:.\Generated_Source\PSoC5/CAN_1.c **** *    CYRET_SUCCESS                      Function passed successfully
 371:.\Generated_Source\PSoC5/CAN_1.c **** *    CAN_1_FAIL              Function failed
 372:.\Generated_Source\PSoC5/CAN_1.c **** *
 373:.\Generated_Source\PSoC5/CAN_1.c **** *******************************************************************************/
 374:.\Generated_Source\PSoC5/CAN_1.c **** uint8 CAN_1_GlobalIntDisable(void) 
 375:.\Generated_Source\PSoC5/CAN_1.c **** {
 552              		.loc 1 375 0
 553              		.cfi_startproc
 554              		@ args = 0, pretend = 0, frame = 8
 555              		@ frame_needed = 1, uses_anonymous_args = 0
 556              		@ link register save eliminated.
 557 0000 80B4     		push	{r7}
 558              		.cfi_def_cfa_offset 4
 559              		.cfi_offset 7, -4
 560 0002 83B0     		sub	sp, sp, #12
 561              		.cfi_def_cfa_offset 16
 562 0004 00AF     		add	r7, sp, #0
 563              		.cfi_def_cfa_register 7
 376:.\Generated_Source\PSoC5/CAN_1.c ****     uint8 result = CAN_1_FAIL;
 564              		.loc 1 376 0
 565 0006 0123     		movs	r3, #1
 566 0008 FB71     		strb	r3, [r7, #7]
 377:.\Generated_Source\PSoC5/CAN_1.c **** 
 378:.\Generated_Source\PSoC5/CAN_1.c ****     CAN_1_INT_EN_REG.byte[0u] &= (uint8) (~CAN_1_GLOBAL_INT_MASK);
 567              		.loc 1 378 0
 568 000a 0C4B     		ldr	r3, .L39
 569 000c 0B4A     		ldr	r2, .L39
 570 000e 1278     		ldrb	r2, [r2]
 571 0010 D2B2     		uxtb	r2, r2
 572 0012 22F00102 		bic	r2, r2, #1
 573 0016 D2B2     		uxtb	r2, r2
 574 0018 1A70     		strb	r2, [r3]
 379:.\Generated_Source\PSoC5/CAN_1.c **** 
 380:.\Generated_Source\PSoC5/CAN_1.c ****     /* Verify that bit is cleared */
 381:.\Generated_Source\PSoC5/CAN_1.c ****     if ((CAN_1_INT_EN_REG.byte[0u] & CAN_1_GLOBAL_INT_MASK) == 0u)
 575              		.loc 1 381 0
 576 001a 084B     		ldr	r3, .L39
 577 001c 1B78     		ldrb	r3, [r3]
 578 001e DBB2     		uxtb	r3, r3
 579 0020 03F00103 		and	r3, r3, #1
 580 0024 002B     		cmp	r3, #0
 581 0026 01D1     		bne	.L37
 382:.\Generated_Source\PSoC5/CAN_1.c ****     {
ARM GAS  C:\Users\khjtony\AppData\Local\Temp\ccDWw2Fb.s 			page 18


 383:.\Generated_Source\PSoC5/CAN_1.c ****         result = CYRET_SUCCESS;
 582              		.loc 1 383 0
 583 0028 0023     		movs	r3, #0
 584 002a FB71     		strb	r3, [r7, #7]
 585              	.L37:
 384:.\Generated_Source\PSoC5/CAN_1.c ****     }
 385:.\Generated_Source\PSoC5/CAN_1.c **** 
 386:.\Generated_Source\PSoC5/CAN_1.c ****     return (result);
 586              		.loc 1 386 0
 587 002c FB79     		ldrb	r3, [r7, #7]	@ zero_extendqisi2
 387:.\Generated_Source\PSoC5/CAN_1.c **** }
 588              		.loc 1 387 0
 589 002e 1846     		mov	r0, r3
 590 0030 0C37     		adds	r7, r7, #12
 591 0032 BD46     		mov	sp, r7
 592              		@ sp needed
 593 0034 5DF8047B 		ldr	r7, [sp], #4
 594 0038 7047     		bx	lr
 595              	.L40:
 596 003a 00BF     		.align	2
 597              	.L39:
 598 003c 04A00040 		.word	1073782788
 599              		.cfi_endproc
 600              	.LFE5:
 601              		.size	CAN_1_GlobalIntDisable, .-CAN_1_GlobalIntDisable
 602              		.section	.text.CAN_1_SetPreScaler,"ax",%progbits
 603              		.align	2
 604              		.global	CAN_1_SetPreScaler
 605              		.thumb
 606              		.thumb_func
 607              		.type	CAN_1_SetPreScaler, %function
 608              	CAN_1_SetPreScaler:
 609              	.LFB6:
 388:.\Generated_Source\PSoC5/CAN_1.c **** 
 389:.\Generated_Source\PSoC5/CAN_1.c **** 
 390:.\Generated_Source\PSoC5/CAN_1.c **** /*******************************************************************************
 391:.\Generated_Source\PSoC5/CAN_1.c **** * FUNCTION NAME:   CAN_1_SetPreScaler
 392:.\Generated_Source\PSoC5/CAN_1.c **** ********************************************************************************
 393:.\Generated_Source\PSoC5/CAN_1.c **** *
 394:.\Generated_Source\PSoC5/CAN_1.c **** * Summary:
 395:.\Generated_Source\PSoC5/CAN_1.c **** *  This function sets PreScaler for generation the time quantum which defines
 396:.\Generated_Source\PSoC5/CAN_1.c **** *  the time quanta. Value between 0x0 and 0x7FFF are valid.
 397:.\Generated_Source\PSoC5/CAN_1.c **** *
 398:.\Generated_Source\PSoC5/CAN_1.c **** * Parameters:
 399:.\Generated_Source\PSoC5/CAN_1.c **** *  bitrate: PreScaler value.
 400:.\Generated_Source\PSoC5/CAN_1.c **** *   Value           Description
 401:.\Generated_Source\PSoC5/CAN_1.c **** *    0               One time quantum equals 1 clock cycle
 402:.\Generated_Source\PSoC5/CAN_1.c **** *    1               One time quantum equals 2 clock cycles
 403:.\Generated_Source\PSoC5/CAN_1.c **** *    ...             ...
 404:.\Generated_Source\PSoC5/CAN_1.c **** *    32767           One time quantum equals 32768 clock cycles
 405:.\Generated_Source\PSoC5/CAN_1.c **** *
 406:.\Generated_Source\PSoC5/CAN_1.c **** * Return:
 407:.\Generated_Source\PSoC5/CAN_1.c **** *  Indication whether register is written and verified.
 408:.\Generated_Source\PSoC5/CAN_1.c **** *   Define                             Description
 409:.\Generated_Source\PSoC5/CAN_1.c **** *    CYRET_SUCCESS                      Function passed successfully
 410:.\Generated_Source\PSoC5/CAN_1.c **** *    CAN_1_FAIL              Function failed
 411:.\Generated_Source\PSoC5/CAN_1.c **** *    CAN_1_OUT_OF_RANGE      Function parameter is out of range
ARM GAS  C:\Users\khjtony\AppData\Local\Temp\ccDWw2Fb.s 			page 19


 412:.\Generated_Source\PSoC5/CAN_1.c **** *
 413:.\Generated_Source\PSoC5/CAN_1.c **** *******************************************************************************/
 414:.\Generated_Source\PSoC5/CAN_1.c **** uint8 CAN_1_SetPreScaler(uint16 bitrate) 
 415:.\Generated_Source\PSoC5/CAN_1.c **** {
 610              		.loc 1 415 0
 611              		.cfi_startproc
 612              		@ args = 0, pretend = 0, frame = 16
 613              		@ frame_needed = 1, uses_anonymous_args = 0
 614              		@ link register save eliminated.
 615 0000 80B4     		push	{r7}
 616              		.cfi_def_cfa_offset 4
 617              		.cfi_offset 7, -4
 618 0002 85B0     		sub	sp, sp, #20
 619              		.cfi_def_cfa_offset 24
 620 0004 00AF     		add	r7, sp, #0
 621              		.cfi_def_cfa_register 7
 622 0006 0346     		mov	r3, r0
 623 0008 FB80     		strh	r3, [r7, #6]	@ movhi
 416:.\Generated_Source\PSoC5/CAN_1.c ****     uint8 result = CAN_1_OUT_OF_RANGE;
 624              		.loc 1 416 0
 625 000a 0223     		movs	r3, #2
 626 000c FB73     		strb	r3, [r7, #15]
 417:.\Generated_Source\PSoC5/CAN_1.c **** 
 418:.\Generated_Source\PSoC5/CAN_1.c ****     if (bitrate <= CAN_1_BITRATE_MASK)
 627              		.loc 1 418 0
 628 000e FB88     		ldrh	r3, [r7, #6]
 629 0010 1BB2     		sxth	r3, r3
 630 0012 002B     		cmp	r3, #0
 631 0014 0CDB     		blt	.L42
 419:.\Generated_Source\PSoC5/CAN_1.c ****     {
 420:.\Generated_Source\PSoC5/CAN_1.c ****         result = CAN_1_FAIL;
 632              		.loc 1 420 0
 633 0016 0123     		movs	r3, #1
 634 0018 FB73     		strb	r3, [r7, #15]
 421:.\Generated_Source\PSoC5/CAN_1.c **** 
 422:.\Generated_Source\PSoC5/CAN_1.c ****         /* Set prescaler */
 423:.\Generated_Source\PSoC5/CAN_1.c ****         CY_SET_REG16((reg16 *) &CAN_1_CFG_REG.byte[2u], bitrate);
 635              		.loc 1 423 0
 636 001a 094B     		ldr	r3, .L44
 637 001c FA88     		ldrh	r2, [r7, #6]	@ movhi
 638 001e 1A80     		strh	r2, [r3]	@ movhi
 424:.\Generated_Source\PSoC5/CAN_1.c **** 
 425:.\Generated_Source\PSoC5/CAN_1.c ****         /* Verify that prescaler is set */
 426:.\Generated_Source\PSoC5/CAN_1.c ****         if (CY_GET_REG16((reg16 *) &CAN_1_CFG_REG.byte[2u]) == bitrate)
 639              		.loc 1 426 0
 640 0020 074B     		ldr	r3, .L44
 641 0022 1B88     		ldrh	r3, [r3]	@ movhi
 642 0024 9BB2     		uxth	r3, r3
 643 0026 FA88     		ldrh	r2, [r7, #6]
 644 0028 9A42     		cmp	r2, r3
 645 002a 01D1     		bne	.L42
 427:.\Generated_Source\PSoC5/CAN_1.c ****         {
 428:.\Generated_Source\PSoC5/CAN_1.c ****             result = CYRET_SUCCESS;
 646              		.loc 1 428 0
 647 002c 0023     		movs	r3, #0
 648 002e FB73     		strb	r3, [r7, #15]
 649              	.L42:
ARM GAS  C:\Users\khjtony\AppData\Local\Temp\ccDWw2Fb.s 			page 20


 429:.\Generated_Source\PSoC5/CAN_1.c ****         }
 430:.\Generated_Source\PSoC5/CAN_1.c ****     }
 431:.\Generated_Source\PSoC5/CAN_1.c **** 
 432:.\Generated_Source\PSoC5/CAN_1.c ****     return (result);
 650              		.loc 1 432 0
 651 0030 FB7B     		ldrb	r3, [r7, #15]	@ zero_extendqisi2
 433:.\Generated_Source\PSoC5/CAN_1.c **** }
 652              		.loc 1 433 0
 653 0032 1846     		mov	r0, r3
 654 0034 1437     		adds	r7, r7, #20
 655 0036 BD46     		mov	sp, r7
 656              		@ sp needed
 657 0038 5DF8047B 		ldr	r7, [sp], #4
 658 003c 7047     		bx	lr
 659              	.L45:
 660 003e 00BF     		.align	2
 661              	.L44:
 662 0040 16A00040 		.word	1073782806
 663              		.cfi_endproc
 664              	.LFE6:
 665              		.size	CAN_1_SetPreScaler, .-CAN_1_SetPreScaler
 666              		.section	.text.CAN_1_SetArbiter,"ax",%progbits
 667              		.align	2
 668              		.global	CAN_1_SetArbiter
 669              		.thumb
 670              		.thumb_func
 671              		.type	CAN_1_SetArbiter, %function
 672              	CAN_1_SetArbiter:
 673              	.LFB7:
 434:.\Generated_Source\PSoC5/CAN_1.c **** 
 435:.\Generated_Source\PSoC5/CAN_1.c **** 
 436:.\Generated_Source\PSoC5/CAN_1.c **** /*******************************************************************************
 437:.\Generated_Source\PSoC5/CAN_1.c **** * FUNCTION NAME:   CAN_1_SetArbiter
 438:.\Generated_Source\PSoC5/CAN_1.c **** ********************************************************************************
 439:.\Generated_Source\PSoC5/CAN_1.c **** *
 440:.\Generated_Source\PSoC5/CAN_1.c **** * Summary:
 441:.\Generated_Source\PSoC5/CAN_1.c **** *  This function sets arbitration type for transmit mailboxes. Types of
 442:.\Generated_Source\PSoC5/CAN_1.c **** *  arbiters are Round Robin and Fixed priority. Value 0 and 1 are valid.
 443:.\Generated_Source\PSoC5/CAN_1.c **** *
 444:.\Generated_Source\PSoC5/CAN_1.c **** * Parameters:
 445:.\Generated_Source\PSoC5/CAN_1.c **** *  arbiter: Arbitaration type for transmit mailboxes.
 446:.\Generated_Source\PSoC5/CAN_1.c **** *   Value                              Description
 447:.\Generated_Source\PSoC5/CAN_1.c **** *    CAN_1_ROUND_ROBIN       Round robin arbitration
 448:.\Generated_Source\PSoC5/CAN_1.c **** *    CAN_1_FIXED_PRIORITY    Fixed priority arbitration.
 449:.\Generated_Source\PSoC5/CAN_1.c **** *
 450:.\Generated_Source\PSoC5/CAN_1.c **** * Return:
 451:.\Generated_Source\PSoC5/CAN_1.c **** *  Indication whether register is written and verified.
 452:.\Generated_Source\PSoC5/CAN_1.c **** *   Define                             Description
 453:.\Generated_Source\PSoC5/CAN_1.c **** *    CYRET_SUCCESS                      Function passed successfully
 454:.\Generated_Source\PSoC5/CAN_1.c **** *    CAN_1_FAIL              Function failed
 455:.\Generated_Source\PSoC5/CAN_1.c **** *
 456:.\Generated_Source\PSoC5/CAN_1.c **** *******************************************************************************/
 457:.\Generated_Source\PSoC5/CAN_1.c **** uint8 CAN_1_SetArbiter(uint8 arbiter) 
 458:.\Generated_Source\PSoC5/CAN_1.c **** {
 674              		.loc 1 458 0
 675              		.cfi_startproc
 676              		@ args = 0, pretend = 0, frame = 16
ARM GAS  C:\Users\khjtony\AppData\Local\Temp\ccDWw2Fb.s 			page 21


 677              		@ frame_needed = 1, uses_anonymous_args = 0
 678              		@ link register save eliminated.
 679 0000 80B4     		push	{r7}
 680              		.cfi_def_cfa_offset 4
 681              		.cfi_offset 7, -4
 682 0002 85B0     		sub	sp, sp, #20
 683              		.cfi_def_cfa_offset 24
 684 0004 00AF     		add	r7, sp, #0
 685              		.cfi_def_cfa_register 7
 686 0006 0346     		mov	r3, r0
 687 0008 FB71     		strb	r3, [r7, #7]
 459:.\Generated_Source\PSoC5/CAN_1.c ****     uint8 result = CAN_1_FAIL;
 688              		.loc 1 459 0
 689 000a 0123     		movs	r3, #1
 690 000c FB73     		strb	r3, [r7, #15]
 460:.\Generated_Source\PSoC5/CAN_1.c **** 
 461:.\Generated_Source\PSoC5/CAN_1.c ****     if (arbiter == CAN_1_ROUND_ROBIN)
 691              		.loc 1 461 0
 692 000e FB79     		ldrb	r3, [r7, #7]	@ zero_extendqisi2
 693 0010 002B     		cmp	r3, #0
 694 0012 11D1     		bne	.L47
 462:.\Generated_Source\PSoC5/CAN_1.c ****     {
 463:.\Generated_Source\PSoC5/CAN_1.c ****         CAN_1_CFG_REG.byte[1u] &= (uint8) (~CAN_1_ARBITRATION_MASK);    /* Round Robin */
 695              		.loc 1 463 0
 696 0014 144B     		ldr	r3, .L51
 697 0016 144A     		ldr	r2, .L51
 698 0018 5278     		ldrb	r2, [r2, #1]
 699 001a D2B2     		uxtb	r2, r2
 700 001c 22F01002 		bic	r2, r2, #16
 701 0020 D2B2     		uxtb	r2, r2
 702 0022 5A70     		strb	r2, [r3, #1]
 464:.\Generated_Source\PSoC5/CAN_1.c **** 
 465:.\Generated_Source\PSoC5/CAN_1.c ****         /* Verify that bit is cleared */
 466:.\Generated_Source\PSoC5/CAN_1.c ****         if ((CAN_1_CFG_REG.byte[1u] & CAN_1_ARBITRATION_MASK) == 0u)
 703              		.loc 1 466 0
 704 0024 104B     		ldr	r3, .L51
 705 0026 5B78     		ldrb	r3, [r3, #1]
 706 0028 DBB2     		uxtb	r3, r3
 707 002a 03F01003 		and	r3, r3, #16
 708 002e 002B     		cmp	r3, #0
 709 0030 13D1     		bne	.L49
 467:.\Generated_Source\PSoC5/CAN_1.c ****         {
 468:.\Generated_Source\PSoC5/CAN_1.c ****             result = CYRET_SUCCESS;
 710              		.loc 1 468 0
 711 0032 0023     		movs	r3, #0
 712 0034 FB73     		strb	r3, [r7, #15]
 713 0036 10E0     		b	.L49
 714              	.L47:
 469:.\Generated_Source\PSoC5/CAN_1.c ****         }        
 470:.\Generated_Source\PSoC5/CAN_1.c ****     }
 471:.\Generated_Source\PSoC5/CAN_1.c ****     else
 472:.\Generated_Source\PSoC5/CAN_1.c ****     {
 473:.\Generated_Source\PSoC5/CAN_1.c ****         CAN_1_CFG_REG.byte[1u] |= CAN_1_ARBITRATION_MASK;    /* Fixed priority */
 715              		.loc 1 473 0
 716 0038 0B4B     		ldr	r3, .L51
 717 003a 0B4A     		ldr	r2, .L51
 718 003c 5278     		ldrb	r2, [r2, #1]
ARM GAS  C:\Users\khjtony\AppData\Local\Temp\ccDWw2Fb.s 			page 22


 719 003e D2B2     		uxtb	r2, r2
 720 0040 42F01002 		orr	r2, r2, #16
 721 0044 D2B2     		uxtb	r2, r2
 722 0046 5A70     		strb	r2, [r3, #1]
 474:.\Generated_Source\PSoC5/CAN_1.c **** 
 475:.\Generated_Source\PSoC5/CAN_1.c ****         /* Verify that bit is set */
 476:.\Generated_Source\PSoC5/CAN_1.c ****         if ((CAN_1_CFG_REG.byte[1u] & CAN_1_ARBITRATION_MASK) ==
 723              		.loc 1 476 0
 724 0048 074B     		ldr	r3, .L51
 725 004a 5B78     		ldrb	r3, [r3, #1]
 726 004c DBB2     		uxtb	r3, r3
 727 004e 03F01003 		and	r3, r3, #16
 728 0052 002B     		cmp	r3, #0
 729 0054 01D0     		beq	.L49
 477:.\Generated_Source\PSoC5/CAN_1.c ****             CAN_1_ARBITRATION_MASK)
 478:.\Generated_Source\PSoC5/CAN_1.c ****         {
 479:.\Generated_Source\PSoC5/CAN_1.c ****             result = CYRET_SUCCESS;
 730              		.loc 1 479 0
 731 0056 0023     		movs	r3, #0
 732 0058 FB73     		strb	r3, [r7, #15]
 733              	.L49:
 480:.\Generated_Source\PSoC5/CAN_1.c ****         }
 481:.\Generated_Source\PSoC5/CAN_1.c ****     }
 482:.\Generated_Source\PSoC5/CAN_1.c **** 
 483:.\Generated_Source\PSoC5/CAN_1.c ****     return (result);
 734              		.loc 1 483 0
 735 005a FB7B     		ldrb	r3, [r7, #15]	@ zero_extendqisi2
 484:.\Generated_Source\PSoC5/CAN_1.c **** }
 736              		.loc 1 484 0
 737 005c 1846     		mov	r0, r3
 738 005e 1437     		adds	r7, r7, #20
 739 0060 BD46     		mov	sp, r7
 740              		@ sp needed
 741 0062 5DF8047B 		ldr	r7, [sp], #4
 742 0066 7047     		bx	lr
 743              	.L52:
 744              		.align	2
 745              	.L51:
 746 0068 14A00040 		.word	1073782804
 747              		.cfi_endproc
 748              	.LFE7:
 749              		.size	CAN_1_SetArbiter, .-CAN_1_SetArbiter
 750              		.section	.text.CAN_1_SetTsegSample,"ax",%progbits
 751              		.align	2
 752              		.global	CAN_1_SetTsegSample
 753              		.thumb
 754              		.thumb_func
 755              		.type	CAN_1_SetTsegSample, %function
 756              	CAN_1_SetTsegSample:
 757              	.LFB8:
 485:.\Generated_Source\PSoC5/CAN_1.c **** 
 486:.\Generated_Source\PSoC5/CAN_1.c **** 
 487:.\Generated_Source\PSoC5/CAN_1.c **** /*******************************************************************************
 488:.\Generated_Source\PSoC5/CAN_1.c **** * FUNCTION NAME: CAN_1_SetTsegSample
 489:.\Generated_Source\PSoC5/CAN_1.c **** ********************************************************************************
 490:.\Generated_Source\PSoC5/CAN_1.c **** *
 491:.\Generated_Source\PSoC5/CAN_1.c **** * Summary:
ARM GAS  C:\Users\khjtony\AppData\Local\Temp\ccDWw2Fb.s 			page 23


 492:.\Generated_Source\PSoC5/CAN_1.c **** *  This function configures: Time segment 1, Time segment 2, Sampling Mode
 493:.\Generated_Source\PSoC5/CAN_1.c **** *  and Synchronization Jump Width.
 494:.\Generated_Source\PSoC5/CAN_1.c **** *
 495:.\Generated_Source\PSoC5/CAN_1.c **** * Parameters:
 496:.\Generated_Source\PSoC5/CAN_1.c **** *  cfgTseg1: Length of time segment 1, value between 0x2 and 0xF are valid;
 497:.\Generated_Source\PSoC5/CAN_1.c **** *  cfgTseg2: Length of time segment 2, value between 0x1 and 0x7 are valid;
 498:.\Generated_Source\PSoC5/CAN_1.c **** *  sjw: Synchronization Jump Width, value between 0x0 and 0x3 are valid;
 499:.\Generated_Source\PSoC5/CAN_1.c **** *  sm: Sampling Mode.
 500:.\Generated_Source\PSoC5/CAN_1.c **** *   Define                               Description
 501:.\Generated_Source\PSoC5/CAN_1.c **** *   CAN_1_ONE_SAMPLE_POINT     one sampling points is used
 502:.\Generated_Source\PSoC5/CAN_1.c **** *   CAN_1_THREE_SAMPLE_POINTS  three sampling points are used
 503:.\Generated_Source\PSoC5/CAN_1.c **** *
 504:.\Generated_Source\PSoC5/CAN_1.c **** * Return:
 505:.\Generated_Source\PSoC5/CAN_1.c **** *  Indication whether register is written and verified.
 506:.\Generated_Source\PSoC5/CAN_1.c **** *   Define                             Description
 507:.\Generated_Source\PSoC5/CAN_1.c **** *    CYRET_SUCCESS                      Function passed successfully
 508:.\Generated_Source\PSoC5/CAN_1.c **** *    CAN_1_FAIL              Function failed
 509:.\Generated_Source\PSoC5/CAN_1.c **** *    CAN_1_OUT_OF_RANGE      Function parameter is out of range
 510:.\Generated_Source\PSoC5/CAN_1.c **** *
 511:.\Generated_Source\PSoC5/CAN_1.c **** *******************************************************************************/
 512:.\Generated_Source\PSoC5/CAN_1.c **** uint8 CAN_1_SetTsegSample(uint8 cfgTseg1, uint8 cfgTseg2, uint8 sjw, uint8 sm)
 513:.\Generated_Source\PSoC5/CAN_1.c ****                                      
 514:.\Generated_Source\PSoC5/CAN_1.c **** {
 758              		.loc 1 514 0
 759              		.cfi_startproc
 760              		@ args = 0, pretend = 0, frame = 16
 761              		@ frame_needed = 1, uses_anonymous_args = 0
 762              		@ link register save eliminated.
 763 0000 80B4     		push	{r7}
 764              		.cfi_def_cfa_offset 4
 765              		.cfi_offset 7, -4
 766 0002 85B0     		sub	sp, sp, #20
 767              		.cfi_def_cfa_offset 24
 768 0004 00AF     		add	r7, sp, #0
 769              		.cfi_def_cfa_register 7
 770 0006 F871     		strb	r0, [r7, #7]
 771 0008 B971     		strb	r1, [r7, #6]
 772 000a 7A71     		strb	r2, [r7, #5]
 773 000c 3B71     		strb	r3, [r7, #4]
 515:.\Generated_Source\PSoC5/CAN_1.c ****     uint8 result = CAN_1_OUT_OF_RANGE;
 774              		.loc 1 515 0
 775 000e 0223     		movs	r3, #2
 776 0010 FB73     		strb	r3, [r7, #15]
 516:.\Generated_Source\PSoC5/CAN_1.c ****     uint8 cfgTemp;
 517:.\Generated_Source\PSoC5/CAN_1.c **** 
 518:.\Generated_Source\PSoC5/CAN_1.c ****     if ((cfgTseg1 >= CAN_1_CFG_REG_TSEG1_LOWER_LIMIT) && (cfgTseg1 <=
 777              		.loc 1 518 0
 778 0012 FB79     		ldrb	r3, [r7, #7]	@ zero_extendqisi2
 779 0014 012B     		cmp	r3, #1
 780 0016 4CD9     		bls	.L54
 781              		.loc 1 518 0 is_stmt 0 discriminator 1
 782 0018 FB79     		ldrb	r3, [r7, #7]	@ zero_extendqisi2
 783 001a 0F2B     		cmp	r3, #15
 784 001c 49D8     		bhi	.L54
 519:.\Generated_Source\PSoC5/CAN_1.c ****          CAN_1_CFG_REG_TSEG1_UPPER_LIMIT))
 520:.\Generated_Source\PSoC5/CAN_1.c ****     {
 521:.\Generated_Source\PSoC5/CAN_1.c ****         if (((cfgTseg2 >= CAN_1_CFG_REG_TSEG2_LOWER_LIMIT) &&
ARM GAS  C:\Users\khjtony\AppData\Local\Temp\ccDWw2Fb.s 			page 24


 785              		.loc 1 521 0 is_stmt 1
 786 001e BB79     		ldrb	r3, [r7, #6]	@ zero_extendqisi2
 787 0020 012B     		cmp	r3, #1
 788 0022 02D9     		bls	.L55
 789              		.loc 1 521 0 is_stmt 0 discriminator 1
 790 0024 BB79     		ldrb	r3, [r7, #6]	@ zero_extendqisi2
 791 0026 072B     		cmp	r3, #7
 792 0028 05D9     		bls	.L56
 793              	.L55:
 522:.\Generated_Source\PSoC5/CAN_1.c ****              (cfgTseg2 <= CAN_1_CFG_REG_TSEG2_UPPER_LIMIT)) || ((sm == CAN_1_ONE_SAMPLE_POINT) &&
 794              		.loc 1 522 0 is_stmt 1
 795 002a 3B79     		ldrb	r3, [r7, #4]	@ zero_extendqisi2
 796 002c 002B     		cmp	r3, #0
 797 002e 40D1     		bne	.L54
 798              		.loc 1 522 0 is_stmt 0 discriminator 1
 799 0030 BB79     		ldrb	r3, [r7, #6]	@ zero_extendqisi2
 800 0032 012B     		cmp	r3, #1
 801 0034 3DD1     		bne	.L54
 802              	.L56:
 523:.\Generated_Source\PSoC5/CAN_1.c ****              (cfgTseg2 == CAN_1_CFG_REG_TSEG2_EXCEPTION)))
 524:.\Generated_Source\PSoC5/CAN_1.c ****         {
 525:.\Generated_Source\PSoC5/CAN_1.c ****             if ((sjw <= CAN_1_CFG_REG_SJW_LOWER_LIMIT) && (sjw <= cfgTseg1) && (sjw <= cfgTseg2))
 803              		.loc 1 525 0 is_stmt 1
 804 0036 7B79     		ldrb	r3, [r7, #5]	@ zero_extendqisi2
 805 0038 032B     		cmp	r3, #3
 806 003a 3AD8     		bhi	.L54
 807              		.loc 1 525 0 is_stmt 0 discriminator 1
 808 003c 7A79     		ldrb	r2, [r7, #5]	@ zero_extendqisi2
 809 003e FB79     		ldrb	r3, [r7, #7]	@ zero_extendqisi2
 810 0040 9A42     		cmp	r2, r3
 811 0042 36D8     		bhi	.L54
 812 0044 7A79     		ldrb	r2, [r7, #5]	@ zero_extendqisi2
 813 0046 BB79     		ldrb	r3, [r7, #6]	@ zero_extendqisi2
 814 0048 9A42     		cmp	r2, r3
 815 004a 32D8     		bhi	.L54
 526:.\Generated_Source\PSoC5/CAN_1.c ****             {
 527:.\Generated_Source\PSoC5/CAN_1.c ****                 result = CAN_1_FAIL;
 816              		.loc 1 527 0 is_stmt 1
 817 004c 0123     		movs	r3, #1
 818 004e FB73     		strb	r3, [r7, #15]
 528:.\Generated_Source\PSoC5/CAN_1.c **** 
 529:.\Generated_Source\PSoC5/CAN_1.c ****                 cfgTemp = CAN_1_CFG_REG.byte[1];
 819              		.loc 1 529 0
 820 0050 1B4B     		ldr	r3, .L59
 821 0052 5B78     		ldrb	r3, [r3, #1]
 822 0054 BB73     		strb	r3, [r7, #14]
 530:.\Generated_Source\PSoC5/CAN_1.c ****                 cfgTemp &= (uint8) (~CAN_1_CFG_REG_TSEG1_MASK);
 823              		.loc 1 530 0
 824 0056 BB7B     		ldrb	r3, [r7, #14]
 825 0058 23F00F03 		bic	r3, r3, #15
 826 005c BB73     		strb	r3, [r7, #14]
 531:.\Generated_Source\PSoC5/CAN_1.c ****                 cfgTemp |= cfgTseg1;
 827              		.loc 1 531 0
 828 005e BA7B     		ldrb	r2, [r7, #14]
 829 0060 FB79     		ldrb	r3, [r7, #7]
 830 0062 1343     		orrs	r3, r3, r2
 831 0064 BB73     		strb	r3, [r7, #14]
ARM GAS  C:\Users\khjtony\AppData\Local\Temp\ccDWw2Fb.s 			page 25


 532:.\Generated_Source\PSoC5/CAN_1.c **** 
 533:.\Generated_Source\PSoC5/CAN_1.c ****                 /* write register byte 1 */
 534:.\Generated_Source\PSoC5/CAN_1.c ****                 CAN_1_CFG_REG.byte[1u] = cfgTemp;
 832              		.loc 1 534 0
 833 0066 164B     		ldr	r3, .L59
 834 0068 BA7B     		ldrb	r2, [r7, #14]
 835 006a 5A70     		strb	r2, [r3, #1]
 535:.\Generated_Source\PSoC5/CAN_1.c **** 
 536:.\Generated_Source\PSoC5/CAN_1.c ****                 /* Verify 2nd byte of CAN_1_CFG_REG register */
 537:.\Generated_Source\PSoC5/CAN_1.c ****                 if (CAN_1_CFG_REG.byte[1u] == cfgTemp)
 836              		.loc 1 537 0
 837 006c 144B     		ldr	r3, .L59
 838 006e 5B78     		ldrb	r3, [r3, #1]
 839 0070 DBB2     		uxtb	r3, r3
 840 0072 BA7B     		ldrb	r2, [r7, #14]	@ zero_extendqisi2
 841 0074 9A42     		cmp	r2, r3
 842 0076 1CD1     		bne	.L54
 538:.\Generated_Source\PSoC5/CAN_1.c ****                 {
 539:.\Generated_Source\PSoC5/CAN_1.c ****                     cfgTemp = 0u;
 843              		.loc 1 539 0
 844 0078 0023     		movs	r3, #0
 845 007a BB73     		strb	r3, [r7, #14]
 540:.\Generated_Source\PSoC5/CAN_1.c ****                     /* Set appropriate bits */
 541:.\Generated_Source\PSoC5/CAN_1.c ****                     if (sm != CAN_1_ONE_SAMPLE_POINT)
 846              		.loc 1 541 0
 847 007c 3B79     		ldrb	r3, [r7, #4]	@ zero_extendqisi2
 848 007e 002B     		cmp	r3, #0
 849 0080 01D0     		beq	.L57
 542:.\Generated_Source\PSoC5/CAN_1.c ****                     {
 543:.\Generated_Source\PSoC5/CAN_1.c ****                         cfgTemp = CAN_1_SAMPLE_MODE_MASK;
 850              		.loc 1 543 0
 851 0082 0223     		movs	r3, #2
 852 0084 BB73     		strb	r3, [r7, #14]
 853              	.L57:
 544:.\Generated_Source\PSoC5/CAN_1.c ****                     }
 545:.\Generated_Source\PSoC5/CAN_1.c ****                     cfgTemp |= ((uint8) (cfgTseg2 << CAN_1_CFG_REG_TSEG2_SHIFT)) |
 854              		.loc 1 545 0
 855 0086 BB79     		ldrb	r3, [r7, #6]
 856 0088 5B01     		lsls	r3, r3, #5
 857 008a DAB2     		uxtb	r2, r3
 546:.\Generated_Source\PSoC5/CAN_1.c ****                                ((uint8) (sjw << CAN_1_CFG_REG_SJW_SHIFT));
 858              		.loc 1 546 0
 859 008c 7B79     		ldrb	r3, [r7, #5]
 860 008e 9B00     		lsls	r3, r3, #2
 861 0090 DBB2     		uxtb	r3, r3
 545:.\Generated_Source\PSoC5/CAN_1.c ****                     cfgTemp |= ((uint8) (cfgTseg2 << CAN_1_CFG_REG_TSEG2_SHIFT)) |
 862              		.loc 1 545 0
 863 0092 1343     		orrs	r3, r3, r2
 864 0094 DAB2     		uxtb	r2, r3
 865 0096 BB7B     		ldrb	r3, [r7, #14]
 866 0098 1343     		orrs	r3, r3, r2
 867 009a BB73     		strb	r3, [r7, #14]
 547:.\Generated_Source\PSoC5/CAN_1.c **** 
 548:.\Generated_Source\PSoC5/CAN_1.c ****                     /* write register byte 0 */
 549:.\Generated_Source\PSoC5/CAN_1.c ****                     CAN_1_CFG_REG.byte[0u] = cfgTemp;
 868              		.loc 1 549 0
 869 009c 084B     		ldr	r3, .L59
ARM GAS  C:\Users\khjtony\AppData\Local\Temp\ccDWw2Fb.s 			page 26


 870 009e BA7B     		ldrb	r2, [r7, #14]
 871 00a0 1A70     		strb	r2, [r3]
 550:.\Generated_Source\PSoC5/CAN_1.c **** 
 551:.\Generated_Source\PSoC5/CAN_1.c ****                     /* Verify 1st byte of CAN_1_CFG_REG register */
 552:.\Generated_Source\PSoC5/CAN_1.c ****                     if (CAN_1_CFG_REG.byte[0u] == cfgTemp)
 872              		.loc 1 552 0
 873 00a2 074B     		ldr	r3, .L59
 874 00a4 1B78     		ldrb	r3, [r3]
 875 00a6 DBB2     		uxtb	r3, r3
 876 00a8 BA7B     		ldrb	r2, [r7, #14]	@ zero_extendqisi2
 877 00aa 9A42     		cmp	r2, r3
 878 00ac 01D1     		bne	.L54
 553:.\Generated_Source\PSoC5/CAN_1.c ****                     {
 554:.\Generated_Source\PSoC5/CAN_1.c ****                         result = CYRET_SUCCESS;
 879              		.loc 1 554 0
 880 00ae 0023     		movs	r3, #0
 881 00b0 FB73     		strb	r3, [r7, #15]
 882              	.L54:
 555:.\Generated_Source\PSoC5/CAN_1.c ****                     }
 556:.\Generated_Source\PSoC5/CAN_1.c ****                 }
 557:.\Generated_Source\PSoC5/CAN_1.c ****             }
 558:.\Generated_Source\PSoC5/CAN_1.c ****         }
 559:.\Generated_Source\PSoC5/CAN_1.c ****     }
 560:.\Generated_Source\PSoC5/CAN_1.c **** 
 561:.\Generated_Source\PSoC5/CAN_1.c ****     return (result);
 883              		.loc 1 561 0
 884 00b2 FB7B     		ldrb	r3, [r7, #15]	@ zero_extendqisi2
 562:.\Generated_Source\PSoC5/CAN_1.c **** }
 885              		.loc 1 562 0
 886 00b4 1846     		mov	r0, r3
 887 00b6 1437     		adds	r7, r7, #20
 888 00b8 BD46     		mov	sp, r7
 889              		@ sp needed
 890 00ba 5DF8047B 		ldr	r7, [sp], #4
 891 00be 7047     		bx	lr
 892              	.L60:
 893              		.align	2
 894              	.L59:
 895 00c0 14A00040 		.word	1073782804
 896              		.cfi_endproc
 897              	.LFE8:
 898              		.size	CAN_1_SetTsegSample, .-CAN_1_SetTsegSample
 899              		.section	.text.CAN_1_SetRestartType,"ax",%progbits
 900              		.align	2
 901              		.global	CAN_1_SetRestartType
 902              		.thumb
 903              		.thumb_func
 904              		.type	CAN_1_SetRestartType, %function
 905              	CAN_1_SetRestartType:
 906              	.LFB9:
 563:.\Generated_Source\PSoC5/CAN_1.c **** 
 564:.\Generated_Source\PSoC5/CAN_1.c **** 
 565:.\Generated_Source\PSoC5/CAN_1.c **** /*******************************************************************************
 566:.\Generated_Source\PSoC5/CAN_1.c **** * FUNCTION NAME:   CAN_1_SetRestartType
 567:.\Generated_Source\PSoC5/CAN_1.c **** ********************************************************************************
 568:.\Generated_Source\PSoC5/CAN_1.c **** *
 569:.\Generated_Source\PSoC5/CAN_1.c **** * Summary:
ARM GAS  C:\Users\khjtony\AppData\Local\Temp\ccDWw2Fb.s 			page 27


 570:.\Generated_Source\PSoC5/CAN_1.c **** *  This function sets Reset type. Types of Reset are Automatic and Manual.
 571:.\Generated_Source\PSoC5/CAN_1.c **** *  Manual Reset is recommended setting.
 572:.\Generated_Source\PSoC5/CAN_1.c **** *
 573:.\Generated_Source\PSoC5/CAN_1.c **** * Parameters:
 574:.\Generated_Source\PSoC5/CAN_1.c **** *  reset: Reset Type.
 575:.\Generated_Source\PSoC5/CAN_1.c **** *   Define                             Description
 576:.\Generated_Source\PSoC5/CAN_1.c **** *    CAN_1_MANUAL_RESTART    After bus-off, the CAN must be restarted
 577:.\Generated_Source\PSoC5/CAN_1.c **** *                                       by hand. This is the recommended 
 578:.\Generated_Source\PSoC5/CAN_1.c **** *                                       setting.
 579:.\Generated_Source\PSoC5/CAN_1.c **** *    CAN_1_AUTO_RESTART      After bus-off, the CAN is restarting 
 580:.\Generated_Source\PSoC5/CAN_1.c **** *                                       automatically after 128 groups of 11 
 581:.\Generated_Source\PSoC5/CAN_1.c **** *                                       recessive bits.
 582:.\Generated_Source\PSoC5/CAN_1.c **** *
 583:.\Generated_Source\PSoC5/CAN_1.c **** * Return:
 584:.\Generated_Source\PSoC5/CAN_1.c **** *  Indication whether register is written and verified.
 585:.\Generated_Source\PSoC5/CAN_1.c **** *   Define                             Description
 586:.\Generated_Source\PSoC5/CAN_1.c **** *    CYRET_SUCCESS                      Function passed successfully
 587:.\Generated_Source\PSoC5/CAN_1.c **** *    CAN_1_FAIL              Function failed
 588:.\Generated_Source\PSoC5/CAN_1.c **** *
 589:.\Generated_Source\PSoC5/CAN_1.c **** *******************************************************************************/
 590:.\Generated_Source\PSoC5/CAN_1.c **** uint8 CAN_1_SetRestartType(uint8 reset) 
 591:.\Generated_Source\PSoC5/CAN_1.c **** {
 907              		.loc 1 591 0
 908              		.cfi_startproc
 909              		@ args = 0, pretend = 0, frame = 16
 910              		@ frame_needed = 1, uses_anonymous_args = 0
 911              		@ link register save eliminated.
 912 0000 80B4     		push	{r7}
 913              		.cfi_def_cfa_offset 4
 914              		.cfi_offset 7, -4
 915 0002 85B0     		sub	sp, sp, #20
 916              		.cfi_def_cfa_offset 24
 917 0004 00AF     		add	r7, sp, #0
 918              		.cfi_def_cfa_register 7
 919 0006 0346     		mov	r3, r0
 920 0008 FB71     		strb	r3, [r7, #7]
 592:.\Generated_Source\PSoC5/CAN_1.c ****     uint8 result = CAN_1_FAIL;
 921              		.loc 1 592 0
 922 000a 0123     		movs	r3, #1
 923 000c FB73     		strb	r3, [r7, #15]
 593:.\Generated_Source\PSoC5/CAN_1.c **** 
 594:.\Generated_Source\PSoC5/CAN_1.c ****     if (reset == CAN_1_RESTART_BY_HAND)
 924              		.loc 1 594 0
 925 000e FB79     		ldrb	r3, [r7, #7]	@ zero_extendqisi2
 926 0010 002B     		cmp	r3, #0
 927 0012 11D1     		bne	.L62
 595:.\Generated_Source\PSoC5/CAN_1.c ****     {
 596:.\Generated_Source\PSoC5/CAN_1.c ****         CAN_1_CFG_REG.byte[0u] &= (uint8) (~CAN_1_RESET_MASK);   /* Manual reset */
 928              		.loc 1 596 0
 929 0014 144B     		ldr	r3, .L66
 930 0016 144A     		ldr	r2, .L66
 931 0018 1278     		ldrb	r2, [r2]
 932 001a D2B2     		uxtb	r2, r2
 933 001c 22F01002 		bic	r2, r2, #16
 934 0020 D2B2     		uxtb	r2, r2
 935 0022 1A70     		strb	r2, [r3]
 597:.\Generated_Source\PSoC5/CAN_1.c **** 
ARM GAS  C:\Users\khjtony\AppData\Local\Temp\ccDWw2Fb.s 			page 28


 598:.\Generated_Source\PSoC5/CAN_1.c ****         /* Verify that bit is cleared */
 599:.\Generated_Source\PSoC5/CAN_1.c ****         if ((CAN_1_CFG_REG.byte[0u] & CAN_1_RESET_MASK) == 0u)
 936              		.loc 1 599 0
 937 0024 104B     		ldr	r3, .L66
 938 0026 1B78     		ldrb	r3, [r3]
 939 0028 DBB2     		uxtb	r3, r3
 940 002a 03F01003 		and	r3, r3, #16
 941 002e 002B     		cmp	r3, #0
 942 0030 13D1     		bne	.L64
 600:.\Generated_Source\PSoC5/CAN_1.c ****         {
 601:.\Generated_Source\PSoC5/CAN_1.c ****             result = CYRET_SUCCESS;
 943              		.loc 1 601 0
 944 0032 0023     		movs	r3, #0
 945 0034 FB73     		strb	r3, [r7, #15]
 946 0036 10E0     		b	.L64
 947              	.L62:
 602:.\Generated_Source\PSoC5/CAN_1.c ****         }
 603:.\Generated_Source\PSoC5/CAN_1.c ****     }
 604:.\Generated_Source\PSoC5/CAN_1.c ****     else
 605:.\Generated_Source\PSoC5/CAN_1.c ****     {
 606:.\Generated_Source\PSoC5/CAN_1.c ****         CAN_1_CFG_REG.byte[0u] |= CAN_1_RESET_MASK;    /* Automatic restart */
 948              		.loc 1 606 0
 949 0038 0B4B     		ldr	r3, .L66
 950 003a 0B4A     		ldr	r2, .L66
 951 003c 1278     		ldrb	r2, [r2]
 952 003e D2B2     		uxtb	r2, r2
 953 0040 42F01002 		orr	r2, r2, #16
 954 0044 D2B2     		uxtb	r2, r2
 955 0046 1A70     		strb	r2, [r3]
 607:.\Generated_Source\PSoC5/CAN_1.c **** 
 608:.\Generated_Source\PSoC5/CAN_1.c ****         /* Verify that bit is set */
 609:.\Generated_Source\PSoC5/CAN_1.c ****         if ((CAN_1_CFG_REG.byte[0u] & CAN_1_RESET_MASK) == CAN_1_RESET_MASK)
 956              		.loc 1 609 0
 957 0048 074B     		ldr	r3, .L66
 958 004a 1B78     		ldrb	r3, [r3]
 959 004c DBB2     		uxtb	r3, r3
 960 004e 03F01003 		and	r3, r3, #16
 961 0052 002B     		cmp	r3, #0
 962 0054 01D0     		beq	.L64
 610:.\Generated_Source\PSoC5/CAN_1.c ****         {
 611:.\Generated_Source\PSoC5/CAN_1.c ****             result = CYRET_SUCCESS;
 963              		.loc 1 611 0
 964 0056 0023     		movs	r3, #0
 965 0058 FB73     		strb	r3, [r7, #15]
 966              	.L64:
 612:.\Generated_Source\PSoC5/CAN_1.c ****         }
 613:.\Generated_Source\PSoC5/CAN_1.c ****     }
 614:.\Generated_Source\PSoC5/CAN_1.c **** 
 615:.\Generated_Source\PSoC5/CAN_1.c ****     return (result);
 967              		.loc 1 615 0
 968 005a FB7B     		ldrb	r3, [r7, #15]	@ zero_extendqisi2
 616:.\Generated_Source\PSoC5/CAN_1.c **** }
 969              		.loc 1 616 0
 970 005c 1846     		mov	r0, r3
 971 005e 1437     		adds	r7, r7, #20
 972 0060 BD46     		mov	sp, r7
 973              		@ sp needed
ARM GAS  C:\Users\khjtony\AppData\Local\Temp\ccDWw2Fb.s 			page 29


 974 0062 5DF8047B 		ldr	r7, [sp], #4
 975 0066 7047     		bx	lr
 976              	.L67:
 977              		.align	2
 978              	.L66:
 979 0068 14A00040 		.word	1073782804
 980              		.cfi_endproc
 981              	.LFE9:
 982              		.size	CAN_1_SetRestartType, .-CAN_1_SetRestartType
 983              		.section	.text.CAN_1_SetEdgeMode,"ax",%progbits
 984              		.align	2
 985              		.global	CAN_1_SetEdgeMode
 986              		.thumb
 987              		.thumb_func
 988              		.type	CAN_1_SetEdgeMode, %function
 989              	CAN_1_SetEdgeMode:
 990              	.LFB10:
 617:.\Generated_Source\PSoC5/CAN_1.c **** 
 618:.\Generated_Source\PSoC5/CAN_1.c **** 
 619:.\Generated_Source\PSoC5/CAN_1.c **** /*******************************************************************************
 620:.\Generated_Source\PSoC5/CAN_1.c **** * FUNCTION NAME:   CAN_1_SetEdgeMode
 621:.\Generated_Source\PSoC5/CAN_1.c **** ********************************************************************************
 622:.\Generated_Source\PSoC5/CAN_1.c **** *
 623:.\Generated_Source\PSoC5/CAN_1.c **** * Summary:
 624:.\Generated_Source\PSoC5/CAN_1.c **** *  This function sets Edge Mode. Modes are 'R' to 'D'(Reccessive to Dominant)
 625:.\Generated_Source\PSoC5/CAN_1.c **** *  and Both edges are used.
 626:.\Generated_Source\PSoC5/CAN_1.c **** *
 627:.\Generated_Source\PSoC5/CAN_1.c **** * Parameters:
 628:.\Generated_Source\PSoC5/CAN_1.c **** *  edge: Edge Mode.
 629:.\Generated_Source\PSoC5/CAN_1.c **** *   Define                             Description
 630:.\Generated_Source\PSoC5/CAN_1.c **** *    CAN_1_EDGE_R_TO_D       Edge from R to D is used for 
 631:.\Generated_Source\PSoC5/CAN_1.c **** *                                       synchronization
 632:.\Generated_Source\PSoC5/CAN_1.c **** *    CAN_1_BOTH_EDGES        Both edges are used
 633:.\Generated_Source\PSoC5/CAN_1.c **** *
 634:.\Generated_Source\PSoC5/CAN_1.c **** * Return:
 635:.\Generated_Source\PSoC5/CAN_1.c **** *  Indication whether register is written and verified.
 636:.\Generated_Source\PSoC5/CAN_1.c **** *   Define                             Description
 637:.\Generated_Source\PSoC5/CAN_1.c **** *    CYRET_SUCCESS                      Function passed successfully
 638:.\Generated_Source\PSoC5/CAN_1.c **** *    CAN_1_FAIL              Function failed
 639:.\Generated_Source\PSoC5/CAN_1.c **** *
 640:.\Generated_Source\PSoC5/CAN_1.c **** *******************************************************************************/
 641:.\Generated_Source\PSoC5/CAN_1.c **** uint8 CAN_1_SetEdgeMode(uint8 edge) 
 642:.\Generated_Source\PSoC5/CAN_1.c **** {
 991              		.loc 1 642 0
 992              		.cfi_startproc
 993              		@ args = 0, pretend = 0, frame = 16
 994              		@ frame_needed = 1, uses_anonymous_args = 0
 995              		@ link register save eliminated.
 996 0000 80B4     		push	{r7}
 997              		.cfi_def_cfa_offset 4
 998              		.cfi_offset 7, -4
 999 0002 85B0     		sub	sp, sp, #20
 1000              		.cfi_def_cfa_offset 24
 1001 0004 00AF     		add	r7, sp, #0
 1002              		.cfi_def_cfa_register 7
 1003 0006 0346     		mov	r3, r0
 1004 0008 FB71     		strb	r3, [r7, #7]
ARM GAS  C:\Users\khjtony\AppData\Local\Temp\ccDWw2Fb.s 			page 30


 643:.\Generated_Source\PSoC5/CAN_1.c ****     uint8 result = CAN_1_FAIL;
 1005              		.loc 1 643 0
 1006 000a 0123     		movs	r3, #1
 1007 000c FB73     		strb	r3, [r7, #15]
 644:.\Generated_Source\PSoC5/CAN_1.c **** 
 645:.\Generated_Source\PSoC5/CAN_1.c ****     if (edge == CAN_1_EDGE_R_TO_D)
 1008              		.loc 1 645 0
 1009 000e FB79     		ldrb	r3, [r7, #7]	@ zero_extendqisi2
 1010 0010 002B     		cmp	r3, #0
 1011 0012 11D1     		bne	.L69
 646:.\Generated_Source\PSoC5/CAN_1.c ****     {
 647:.\Generated_Source\PSoC5/CAN_1.c ****         /* Recessive to Dominant is used for synchronization */
 648:.\Generated_Source\PSoC5/CAN_1.c ****         CAN_1_CFG_REG.byte[0u] &= (uint8) (~CAN_1_EDGE_MODE_MASK);
 1012              		.loc 1 648 0
 1013 0014 144B     		ldr	r3, .L73
 1014 0016 144A     		ldr	r2, .L73
 1015 0018 1278     		ldrb	r2, [r2]
 1016 001a D2B2     		uxtb	r2, r2
 1017 001c 22F00102 		bic	r2, r2, #1
 1018 0020 D2B2     		uxtb	r2, r2
 1019 0022 1A70     		strb	r2, [r3]
 649:.\Generated_Source\PSoC5/CAN_1.c **** 
 650:.\Generated_Source\PSoC5/CAN_1.c ****         /* Verify that bit is cleared */
 651:.\Generated_Source\PSoC5/CAN_1.c ****         if ((CAN_1_CFG_REG.byte[0u] & CAN_1_EDGE_MODE_MASK) == 0u)
 1020              		.loc 1 651 0
 1021 0024 104B     		ldr	r3, .L73
 1022 0026 1B78     		ldrb	r3, [r3]
 1023 0028 DBB2     		uxtb	r3, r3
 1024 002a 03F00103 		and	r3, r3, #1
 1025 002e 002B     		cmp	r3, #0
 1026 0030 13D1     		bne	.L71
 652:.\Generated_Source\PSoC5/CAN_1.c ****         {
 653:.\Generated_Source\PSoC5/CAN_1.c ****             result = CYRET_SUCCESS;
 1027              		.loc 1 653 0
 1028 0032 0023     		movs	r3, #0
 1029 0034 FB73     		strb	r3, [r7, #15]
 1030 0036 10E0     		b	.L71
 1031              	.L69:
 654:.\Generated_Source\PSoC5/CAN_1.c ****         }                      
 655:.\Generated_Source\PSoC5/CAN_1.c ****     }
 656:.\Generated_Source\PSoC5/CAN_1.c ****     else
 657:.\Generated_Source\PSoC5/CAN_1.c ****     {
 658:.\Generated_Source\PSoC5/CAN_1.c ****         /* Both edges are to be used */
 659:.\Generated_Source\PSoC5/CAN_1.c ****         CAN_1_CFG_REG.byte[0u] |= CAN_1_EDGE_MODE_MASK;
 1032              		.loc 1 659 0
 1033 0038 0B4B     		ldr	r3, .L73
 1034 003a 0B4A     		ldr	r2, .L73
 1035 003c 1278     		ldrb	r2, [r2]
 1036 003e D2B2     		uxtb	r2, r2
 1037 0040 42F00102 		orr	r2, r2, #1
 1038 0044 D2B2     		uxtb	r2, r2
 1039 0046 1A70     		strb	r2, [r3]
 660:.\Generated_Source\PSoC5/CAN_1.c **** 
 661:.\Generated_Source\PSoC5/CAN_1.c ****         /* Verify that bit is set */
 662:.\Generated_Source\PSoC5/CAN_1.c ****         if ((CAN_1_CFG_REG.byte[0u] & CAN_1_EDGE_MODE_MASK) == CAN_1_EDGE_MODE_MASK)
 1040              		.loc 1 662 0
 1041 0048 074B     		ldr	r3, .L73
ARM GAS  C:\Users\khjtony\AppData\Local\Temp\ccDWw2Fb.s 			page 31


 1042 004a 1B78     		ldrb	r3, [r3]
 1043 004c DBB2     		uxtb	r3, r3
 1044 004e 03F00103 		and	r3, r3, #1
 1045 0052 002B     		cmp	r3, #0
 1046 0054 01D0     		beq	.L71
 663:.\Generated_Source\PSoC5/CAN_1.c ****         {
 664:.\Generated_Source\PSoC5/CAN_1.c ****             result = CYRET_SUCCESS;
 1047              		.loc 1 664 0
 1048 0056 0023     		movs	r3, #0
 1049 0058 FB73     		strb	r3, [r7, #15]
 1050              	.L71:
 665:.\Generated_Source\PSoC5/CAN_1.c ****         }
 666:.\Generated_Source\PSoC5/CAN_1.c ****     }
 667:.\Generated_Source\PSoC5/CAN_1.c **** 
 668:.\Generated_Source\PSoC5/CAN_1.c ****     return (result);
 1051              		.loc 1 668 0
 1052 005a FB7B     		ldrb	r3, [r7, #15]	@ zero_extendqisi2
 669:.\Generated_Source\PSoC5/CAN_1.c **** }
 1053              		.loc 1 669 0
 1054 005c 1846     		mov	r0, r3
 1055 005e 1437     		adds	r7, r7, #20
 1056 0060 BD46     		mov	sp, r7
 1057              		@ sp needed
 1058 0062 5DF8047B 		ldr	r7, [sp], #4
 1059 0066 7047     		bx	lr
 1060              	.L74:
 1061              		.align	2
 1062              	.L73:
 1063 0068 14A00040 		.word	1073782804
 1064              		.cfi_endproc
 1065              	.LFE10:
 1066              		.size	CAN_1_SetEdgeMode, .-CAN_1_SetEdgeMode
 1067              		.section	.text.CAN_1_SetOpMode,"ax",%progbits
 1068              		.align	2
 1069              		.global	CAN_1_SetOpMode
 1070              		.thumb
 1071              		.thumb_func
 1072              		.type	CAN_1_SetOpMode, %function
 1073              	CAN_1_SetOpMode:
 1074              	.LFB11:
 670:.\Generated_Source\PSoC5/CAN_1.c **** 
 671:.\Generated_Source\PSoC5/CAN_1.c **** 
 672:.\Generated_Source\PSoC5/CAN_1.c **** /*******************************************************************************
 673:.\Generated_Source\PSoC5/CAN_1.c **** * FUNCTION NAME:   CAN_1_SetOpMode
 674:.\Generated_Source\PSoC5/CAN_1.c **** ********************************************************************************
 675:.\Generated_Source\PSoC5/CAN_1.c **** *
 676:.\Generated_Source\PSoC5/CAN_1.c **** * Summary:
 677:.\Generated_Source\PSoC5/CAN_1.c **** *  This function sets Operation Mode. Operations Modes are Active of Listen
 678:.\Generated_Source\PSoC5/CAN_1.c **** *  Only.
 679:.\Generated_Source\PSoC5/CAN_1.c **** *
 680:.\Generated_Source\PSoC5/CAN_1.c **** * Parameters:
 681:.\Generated_Source\PSoC5/CAN_1.c **** *  opMode: Operation Mode value.
 682:.\Generated_Source\PSoC5/CAN_1.c **** *   Define                             Description
 683:.\Generated_Source\PSoC5/CAN_1.c **** *    CAN_1_ACTIVE_MODE       Active mode
 684:.\Generated_Source\PSoC5/CAN_1.c **** *    CAN_1_LISTEN_ONLY       CAN listen only
 685:.\Generated_Source\PSoC5/CAN_1.c **** *
 686:.\Generated_Source\PSoC5/CAN_1.c **** * Return:
ARM GAS  C:\Users\khjtony\AppData\Local\Temp\ccDWw2Fb.s 			page 32


 687:.\Generated_Source\PSoC5/CAN_1.c **** *  Indication whether register is written and verified.
 688:.\Generated_Source\PSoC5/CAN_1.c **** *   Define                             Description
 689:.\Generated_Source\PSoC5/CAN_1.c **** *    CYRET_SUCCESS                      Function passed successfully
 690:.\Generated_Source\PSoC5/CAN_1.c **** *    CAN_1_FAIL              Function failed
 691:.\Generated_Source\PSoC5/CAN_1.c **** *
 692:.\Generated_Source\PSoC5/CAN_1.c **** *******************************************************************************/
 693:.\Generated_Source\PSoC5/CAN_1.c **** uint8 CAN_1_SetOpMode(uint8 opMode) 
 694:.\Generated_Source\PSoC5/CAN_1.c **** {
 1075              		.loc 1 694 0
 1076              		.cfi_startproc
 1077              		@ args = 0, pretend = 0, frame = 16
 1078              		@ frame_needed = 1, uses_anonymous_args = 0
 1079              		@ link register save eliminated.
 1080 0000 80B4     		push	{r7}
 1081              		.cfi_def_cfa_offset 4
 1082              		.cfi_offset 7, -4
 1083 0002 85B0     		sub	sp, sp, #20
 1084              		.cfi_def_cfa_offset 24
 1085 0004 00AF     		add	r7, sp, #0
 1086              		.cfi_def_cfa_register 7
 1087 0006 0346     		mov	r3, r0
 1088 0008 FB71     		strb	r3, [r7, #7]
 695:.\Generated_Source\PSoC5/CAN_1.c ****     uint8 result = CAN_1_FAIL;
 1089              		.loc 1 695 0
 1090 000a 0123     		movs	r3, #1
 1091 000c FB73     		strb	r3, [r7, #15]
 696:.\Generated_Source\PSoC5/CAN_1.c **** 
 697:.\Generated_Source\PSoC5/CAN_1.c ****     if (opMode == CAN_1_ACTIVE_MODE)
 1092              		.loc 1 697 0
 1093 000e FB79     		ldrb	r3, [r7, #7]	@ zero_extendqisi2
 1094 0010 002B     		cmp	r3, #0
 1095 0012 11D1     		bne	.L76
 698:.\Generated_Source\PSoC5/CAN_1.c ****     {
 699:.\Generated_Source\PSoC5/CAN_1.c ****         /* CAN in Active mode */
 700:.\Generated_Source\PSoC5/CAN_1.c ****         CAN_1_CMD_REG.byte[0u] &= (uint8) (~CAN_1_OPMODE_MASK);
 1096              		.loc 1 700 0
 1097 0014 144B     		ldr	r3, .L80
 1098 0016 144A     		ldr	r2, .L80
 1099 0018 1278     		ldrb	r2, [r2]
 1100 001a D2B2     		uxtb	r2, r2
 1101 001c 22F00202 		bic	r2, r2, #2
 1102 0020 D2B2     		uxtb	r2, r2
 1103 0022 1A70     		strb	r2, [r3]
 701:.\Generated_Source\PSoC5/CAN_1.c **** 
 702:.\Generated_Source\PSoC5/CAN_1.c ****         /* Verify that bit is cleared */
 703:.\Generated_Source\PSoC5/CAN_1.c ****         if ((CAN_1_CMD_REG.byte[0u] & CAN_1_OPMODE_MASK) == 0u)
 1104              		.loc 1 703 0
 1105 0024 104B     		ldr	r3, .L80
 1106 0026 1B78     		ldrb	r3, [r3]
 1107 0028 DBB2     		uxtb	r3, r3
 1108 002a 03F00203 		and	r3, r3, #2
 1109 002e 002B     		cmp	r3, #0
 1110 0030 13D1     		bne	.L78
 704:.\Generated_Source\PSoC5/CAN_1.c ****         {
 705:.\Generated_Source\PSoC5/CAN_1.c ****             result = CYRET_SUCCESS;
 1111              		.loc 1 705 0
 1112 0032 0023     		movs	r3, #0
ARM GAS  C:\Users\khjtony\AppData\Local\Temp\ccDWw2Fb.s 			page 33


 1113 0034 FB73     		strb	r3, [r7, #15]
 1114 0036 10E0     		b	.L78
 1115              	.L76:
 706:.\Generated_Source\PSoC5/CAN_1.c ****         }                
 707:.\Generated_Source\PSoC5/CAN_1.c ****     }
 708:.\Generated_Source\PSoC5/CAN_1.c ****     else
 709:.\Generated_Source\PSoC5/CAN_1.c ****     {
 710:.\Generated_Source\PSoC5/CAN_1.c ****         /* CAN listen only */
 711:.\Generated_Source\PSoC5/CAN_1.c ****         CAN_1_CMD_REG.byte[0u] |= CAN_1_OPMODE_MASK;
 1116              		.loc 1 711 0
 1117 0038 0B4B     		ldr	r3, .L80
 1118 003a 0B4A     		ldr	r2, .L80
 1119 003c 1278     		ldrb	r2, [r2]
 1120 003e D2B2     		uxtb	r2, r2
 1121 0040 42F00202 		orr	r2, r2, #2
 1122 0044 D2B2     		uxtb	r2, r2
 1123 0046 1A70     		strb	r2, [r3]
 712:.\Generated_Source\PSoC5/CAN_1.c **** 
 713:.\Generated_Source\PSoC5/CAN_1.c ****         /* Verify that bit is set */
 714:.\Generated_Source\PSoC5/CAN_1.c ****         if ((CAN_1_CMD_REG.byte[0u] & CAN_1_OPMODE_MASK) == CAN_1_OPMODE_MASK)
 1124              		.loc 1 714 0
 1125 0048 074B     		ldr	r3, .L80
 1126 004a 1B78     		ldrb	r3, [r3]
 1127 004c DBB2     		uxtb	r3, r3
 1128 004e 03F00203 		and	r3, r3, #2
 1129 0052 002B     		cmp	r3, #0
 1130 0054 01D0     		beq	.L78
 715:.\Generated_Source\PSoC5/CAN_1.c ****         {
 716:.\Generated_Source\PSoC5/CAN_1.c ****             result = CYRET_SUCCESS;
 1131              		.loc 1 716 0
 1132 0056 0023     		movs	r3, #0
 1133 0058 FB73     		strb	r3, [r7, #15]
 1134              	.L78:
 717:.\Generated_Source\PSoC5/CAN_1.c ****         }
 718:.\Generated_Source\PSoC5/CAN_1.c ****     }
 719:.\Generated_Source\PSoC5/CAN_1.c **** 
 720:.\Generated_Source\PSoC5/CAN_1.c ****     return (result);
 1135              		.loc 1 720 0
 1136 005a FB7B     		ldrb	r3, [r7, #15]	@ zero_extendqisi2
 721:.\Generated_Source\PSoC5/CAN_1.c **** }
 1137              		.loc 1 721 0
 1138 005c 1846     		mov	r0, r3
 1139 005e 1437     		adds	r7, r7, #20
 1140 0060 BD46     		mov	sp, r7
 1141              		@ sp needed
 1142 0062 5DF8047B 		ldr	r7, [sp], #4
 1143 0066 7047     		bx	lr
 1144              	.L81:
 1145              		.align	2
 1146              	.L80:
 1147 0068 10A00040 		.word	1073782800
 1148              		.cfi_endproc
 1149              	.LFE11:
 1150              		.size	CAN_1_SetOpMode, .-CAN_1_SetOpMode
 1151              		.section	.text.CAN_1_RXRegisterInit,"ax",%progbits
 1152              		.align	2
 1153              		.global	CAN_1_RXRegisterInit
ARM GAS  C:\Users\khjtony\AppData\Local\Temp\ccDWw2Fb.s 			page 34


 1154              		.thumb
 1155              		.thumb_func
 1156              		.type	CAN_1_RXRegisterInit, %function
 1157              	CAN_1_RXRegisterInit:
 1158              	.LFB12:
 722:.\Generated_Source\PSoC5/CAN_1.c **** 
 723:.\Generated_Source\PSoC5/CAN_1.c **** 
 724:.\Generated_Source\PSoC5/CAN_1.c **** /*******************************************************************************
 725:.\Generated_Source\PSoC5/CAN_1.c **** * FUNCTION NAME:   CAN_1_RXRegisterInit
 726:.\Generated_Source\PSoC5/CAN_1.c **** ********************************************************************************
 727:.\Generated_Source\PSoC5/CAN_1.c **** *
 728:.\Generated_Source\PSoC5/CAN_1.c **** * Summary:
 729:.\Generated_Source\PSoC5/CAN_1.c **** *  This function writes only receive CAN registers.
 730:.\Generated_Source\PSoC5/CAN_1.c **** *
 731:.\Generated_Source\PSoC5/CAN_1.c **** * Parameters:
 732:.\Generated_Source\PSoC5/CAN_1.c **** *  regAddr: Pointer to CAN receive register;
 733:.\Generated_Source\PSoC5/CAN_1.c **** *  config:  Value that will be written in register.
 734:.\Generated_Source\PSoC5/CAN_1.c **** *
 735:.\Generated_Source\PSoC5/CAN_1.c **** * Return:
 736:.\Generated_Source\PSoC5/CAN_1.c **** *  Indication whether register is written and verified.
 737:.\Generated_Source\PSoC5/CAN_1.c **** *   Define                             Description
 738:.\Generated_Source\PSoC5/CAN_1.c **** *    CYRET_SUCCESS                      Function passed successfully
 739:.\Generated_Source\PSoC5/CAN_1.c **** *    CAN_1_FAIL              Function failed
 740:.\Generated_Source\PSoC5/CAN_1.c **** *    CAN_1_OUT_OF_RANGE      Function parameter is out of range
 741:.\Generated_Source\PSoC5/CAN_1.c **** *
 742:.\Generated_Source\PSoC5/CAN_1.c **** *******************************************************************************/
 743:.\Generated_Source\PSoC5/CAN_1.c **** uint8 CAN_1_RXRegisterInit(reg32 *regAddr, uint32 config)
 744:.\Generated_Source\PSoC5/CAN_1.c ****                                       
 745:.\Generated_Source\PSoC5/CAN_1.c **** {
 1159              		.loc 1 745 0
 1160              		.cfi_startproc
 1161              		@ args = 0, pretend = 0, frame = 16
 1162              		@ frame_needed = 1, uses_anonymous_args = 0
 1163              		@ link register save eliminated.
 1164 0000 80B4     		push	{r7}
 1165              		.cfi_def_cfa_offset 4
 1166              		.cfi_offset 7, -4
 1167 0002 85B0     		sub	sp, sp, #20
 1168              		.cfi_def_cfa_offset 24
 1169 0004 00AF     		add	r7, sp, #0
 1170              		.cfi_def_cfa_register 7
 1171 0006 7860     		str	r0, [r7, #4]
 1172 0008 3960     		str	r1, [r7]
 746:.\Generated_Source\PSoC5/CAN_1.c ****     uint8 result = CAN_1_OUT_OF_RANGE;    
 1173              		.loc 1 746 0
 1174 000a 0223     		movs	r3, #2
 1175 000c FB73     		strb	r3, [r7, #15]
 747:.\Generated_Source\PSoC5/CAN_1.c ****     
 748:.\Generated_Source\PSoC5/CAN_1.c ****     if ((((uint32) regAddr & 0x0000FFFFu) >= ((uint32) CAN_1_RX_FIRST_REGISTER_PTR & 0x0000FFFFu)) 
 1176              		.loc 1 748 0
 1177 000e 7B68     		ldr	r3, [r7, #4]
 1178 0010 9AB2     		uxth	r2, r3
 1179 0012 4AF29F03 		movw	r3, #41119
 1180 0016 9A42     		cmp	r2, r3
 1181 0018 38D9     		bls	.L83
 749:.\Generated_Source\PSoC5/CAN_1.c ****          ((((uint32) regAddr & 0x0000FFFFu)) <= ((uint32) CAN_1_RX_LAST_REGISTER_PTR & 0x0000FFFFu)
 1182              		.loc 1 749 0 discriminator 1
ARM GAS  C:\Users\khjtony\AppData\Local\Temp\ccDWw2Fb.s 			page 35


 1183 001a 7B68     		ldr	r3, [r7, #4]
 1184 001c 9AB2     		uxth	r2, r3
 748:.\Generated_Source\PSoC5/CAN_1.c ****     if ((((uint32) regAddr & 0x0000FFFFu) >= ((uint32) CAN_1_RX_FIRST_REGISTER_PTR & 0x0000FFFFu)) 
 1185              		.loc 1 748 0 discriminator 1
 1186 001e 4AF29C23 		movw	r3, #41628
 1187 0022 9A42     		cmp	r2, r3
 1188 0024 32D8     		bhi	.L83
 750:.\Generated_Source\PSoC5/CAN_1.c ****     {
 751:.\Generated_Source\PSoC5/CAN_1.c ****         result = CAN_1_FAIL;
 1189              		.loc 1 751 0
 1190 0026 0123     		movs	r3, #1
 1191 0028 FB73     		strb	r3, [r7, #15]
 752:.\Generated_Source\PSoC5/CAN_1.c ****         
 753:.\Generated_Source\PSoC5/CAN_1.c ****         if ((((uint32) regAddr & 0x0000FFFFu) % CAN_1_RX_CMD_REG_WIDTH) == 0u)
 1192              		.loc 1 753 0
 1193 002a 7B68     		ldr	r3, [r7, #4]
 1194 002c 03F01F03 		and	r3, r3, #31
 1195 0030 002B     		cmp	r3, #0
 1196 0032 19D1     		bne	.L84
 754:.\Generated_Source\PSoC5/CAN_1.c ****         {
 755:.\Generated_Source\PSoC5/CAN_1.c ****             config |= CAN_1_RX_WPN_SET;
 1197              		.loc 1 755 0
 1198 0034 3B68     		ldr	r3, [r7]
 1199 0036 43F08013 		orr	r3, r3, #8388736
 1200 003a 3B60     		str	r3, [r7]
 756:.\Generated_Source\PSoC5/CAN_1.c ****             
 757:.\Generated_Source\PSoC5/CAN_1.c ****     /* Disable isr */
 758:.\Generated_Source\PSoC5/CAN_1.c ****     CyIntDisable(CAN_1_ISR_NUMBER);
 1201              		.loc 1 758 0
 1202 003c 174B     		ldr	r3, .L87
 1203 003e 4FF48032 		mov	r2, #65536
 1204 0042 1A60     		str	r2, [r3]
 759:.\Generated_Source\PSoC5/CAN_1.c **** 
 760:.\Generated_Source\PSoC5/CAN_1.c ****             /* Write defined RX CMD registers */
 761:.\Generated_Source\PSoC5/CAN_1.c ****             CY_SET_REG32(regAddr, config);
 1205              		.loc 1 761 0
 1206 0044 7B68     		ldr	r3, [r7, #4]
 1207 0046 3A68     		ldr	r2, [r7]
 1208 0048 1A60     		str	r2, [r3]
 762:.\Generated_Source\PSoC5/CAN_1.c ****             
 763:.\Generated_Source\PSoC5/CAN_1.c ****     /* Enable isr */
 764:.\Generated_Source\PSoC5/CAN_1.c ****     CyIntEnable(CAN_1_ISR_NUMBER);
 1209              		.loc 1 764 0
 1210 004a 154B     		ldr	r3, .L87+4
 1211 004c 4FF48032 		mov	r2, #65536
 1212 0050 1A60     		str	r2, [r3]
 765:.\Generated_Source\PSoC5/CAN_1.c **** 
 766:.\Generated_Source\PSoC5/CAN_1.c ****             /* Verify register */
 767:.\Generated_Source\PSoC5/CAN_1.c ****             if ((CY_GET_REG32(regAddr) & CAN_1_RX_READ_BACK_MASK) ==
 1213              		.loc 1 767 0
 1214 0052 7B68     		ldr	r3, [r7, #4]
 1215 0054 1A68     		ldr	r2, [r3]
 1216 0056 3B68     		ldr	r3, [r7]
 1217 0058 5340     		eors	r3, r3, r2
 1218 005a 03F07F13 		and	r3, r3, #8323199
 1219 005e 002B     		cmp	r3, #0
 1220 0060 14D1     		bne	.L83
ARM GAS  C:\Users\khjtony\AppData\Local\Temp\ccDWw2Fb.s 			page 36


 768:.\Generated_Source\PSoC5/CAN_1.c ****                 (config & CAN_1_RX_READ_BACK_MASK))
 769:.\Generated_Source\PSoC5/CAN_1.c ****             {
 770:.\Generated_Source\PSoC5/CAN_1.c ****                 result = CYRET_SUCCESS;
 1221              		.loc 1 770 0
 1222 0062 0023     		movs	r3, #0
 1223 0064 FB73     		strb	r3, [r7, #15]
 1224 0066 11E0     		b	.L83
 1225              	.L84:
 771:.\Generated_Source\PSoC5/CAN_1.c ****             }
 772:.\Generated_Source\PSoC5/CAN_1.c ****         }
 773:.\Generated_Source\PSoC5/CAN_1.c ****         /* All registers except RX CMD*/
 774:.\Generated_Source\PSoC5/CAN_1.c ****         else
 775:.\Generated_Source\PSoC5/CAN_1.c ****         {            
 776:.\Generated_Source\PSoC5/CAN_1.c ****     /* Disable isr */
 777:.\Generated_Source\PSoC5/CAN_1.c ****     CyIntDisable(CAN_1_ISR_NUMBER);
 1226              		.loc 1 777 0
 1227 0068 0C4B     		ldr	r3, .L87
 1228 006a 4FF48032 		mov	r2, #65536
 1229 006e 1A60     		str	r2, [r3]
 778:.\Generated_Source\PSoC5/CAN_1.c **** 
 779:.\Generated_Source\PSoC5/CAN_1.c ****             /* Write defined CAN receive register */
 780:.\Generated_Source\PSoC5/CAN_1.c ****             CY_SET_REG32(regAddr, config);
 1230              		.loc 1 780 0
 1231 0070 7B68     		ldr	r3, [r7, #4]
 1232 0072 3A68     		ldr	r2, [r7]
 1233 0074 1A60     		str	r2, [r3]
 781:.\Generated_Source\PSoC5/CAN_1.c ****             
 782:.\Generated_Source\PSoC5/CAN_1.c ****     /* Enable isr */
 783:.\Generated_Source\PSoC5/CAN_1.c ****     CyIntEnable(CAN_1_ISR_NUMBER);
 1234              		.loc 1 783 0
 1235 0076 0A4B     		ldr	r3, .L87+4
 1236 0078 4FF48032 		mov	r2, #65536
 1237 007c 1A60     		str	r2, [r3]
 784:.\Generated_Source\PSoC5/CAN_1.c **** 
 785:.\Generated_Source\PSoC5/CAN_1.c ****             /* Verify register */
 786:.\Generated_Source\PSoC5/CAN_1.c ****             if (CY_GET_REG32(regAddr) == config)
 1238              		.loc 1 786 0
 1239 007e 7B68     		ldr	r3, [r7, #4]
 1240 0080 1A68     		ldr	r2, [r3]
 1241 0082 3B68     		ldr	r3, [r7]
 1242 0084 9A42     		cmp	r2, r3
 1243 0086 01D1     		bne	.L83
 787:.\Generated_Source\PSoC5/CAN_1.c ****             {
 788:.\Generated_Source\PSoC5/CAN_1.c ****                 result = CYRET_SUCCESS;
 1244              		.loc 1 788 0
 1245 0088 0023     		movs	r3, #0
 1246 008a FB73     		strb	r3, [r7, #15]
 1247              	.L83:
 789:.\Generated_Source\PSoC5/CAN_1.c ****             }
 790:.\Generated_Source\PSoC5/CAN_1.c ****         }
 791:.\Generated_Source\PSoC5/CAN_1.c ****     }
 792:.\Generated_Source\PSoC5/CAN_1.c ****     
 793:.\Generated_Source\PSoC5/CAN_1.c ****     return (result);
 1248              		.loc 1 793 0
 1249 008c FB7B     		ldrb	r3, [r7, #15]	@ zero_extendqisi2
 794:.\Generated_Source\PSoC5/CAN_1.c **** }
 1250              		.loc 1 794 0
ARM GAS  C:\Users\khjtony\AppData\Local\Temp\ccDWw2Fb.s 			page 37


 1251 008e 1846     		mov	r0, r3
 1252 0090 1437     		adds	r7, r7, #20
 1253 0092 BD46     		mov	sp, r7
 1254              		@ sp needed
 1255 0094 5DF8047B 		ldr	r7, [sp], #4
 1256 0098 7047     		bx	lr
 1257              	.L88:
 1258 009a 00BF     		.align	2
 1259              	.L87:
 1260 009c 80E100E0 		.word	-536813184
 1261 00a0 00E100E0 		.word	-536813312
 1262              		.cfi_endproc
 1263              	.LFE12:
 1264              		.size	CAN_1_RXRegisterInit, .-CAN_1_RXRegisterInit
 1265              		.section	.text.CAN_1_SetIrqMask,"ax",%progbits
 1266              		.align	2
 1267              		.global	CAN_1_SetIrqMask
 1268              		.thumb
 1269              		.thumb_func
 1270              		.type	CAN_1_SetIrqMask, %function
 1271              	CAN_1_SetIrqMask:
 1272              	.LFB13:
 795:.\Generated_Source\PSoC5/CAN_1.c **** 
 796:.\Generated_Source\PSoC5/CAN_1.c **** 
 797:.\Generated_Source\PSoC5/CAN_1.c **** /*******************************************************************************
 798:.\Generated_Source\PSoC5/CAN_1.c **** * FUNCTION NAME:   CAN_1_SetIrqMask
 799:.\Generated_Source\PSoC5/CAN_1.c **** ********************************************************************************
 800:.\Generated_Source\PSoC5/CAN_1.c **** *
 801:.\Generated_Source\PSoC5/CAN_1.c **** * Summary:
 802:.\Generated_Source\PSoC5/CAN_1.c **** *  This function sets to enable/disable particular interrupt sources. Interrupt
 803:.\Generated_Source\PSoC5/CAN_1.c **** *  Mask directly write to CAN Interrupt Enable register. A particular interrupt
 804:.\Generated_Source\PSoC5/CAN_1.c **** *  source is enabled by setting its respective flag to 1.
 805:.\Generated_Source\PSoC5/CAN_1.c **** *
 806:.\Generated_Source\PSoC5/CAN_1.c **** * Parameters:
 807:.\Generated_Source\PSoC5/CAN_1.c **** *  mask: Interrupt enable/disable request. 1 bit per interrupt source.
 808:.\Generated_Source\PSoC5/CAN_1.c **** *   Define                                    Description
 809:.\Generated_Source\PSoC5/CAN_1.c **** *    CAN_1_GLOBAL_INT_ENABLE        Global Interrupt Enable Flag
 810:.\Generated_Source\PSoC5/CAN_1.c **** *    CAN_1_ARBITRATION_LOST_ENABLE  Arbitration Loss Interrupt Enable
 811:.\Generated_Source\PSoC5/CAN_1.c **** *    CAN_1_OVERLOAD_ERROR_ENABLE    Overload Interrupt Enable
 812:.\Generated_Source\PSoC5/CAN_1.c **** *    CAN_1_BIT_ERROR_ENABLE         Bit Error Interrupt Enable
 813:.\Generated_Source\PSoC5/CAN_1.c **** *    CAN_1_STUFF_ERROR_ENABLE       Stuff Error Interrupt Enable
 814:.\Generated_Source\PSoC5/CAN_1.c **** *    CAN_1_ACK_ERROR_ENABLE         Ack Error Interrupt Enable
 815:.\Generated_Source\PSoC5/CAN_1.c **** *    CAN_1_FORM_ERROR_ENABLE        Form Error Interrupt Enable
 816:.\Generated_Source\PSoC5/CAN_1.c **** *    CAN_1_CRC_ERROR_ENABLE         CRC Error Interrupt Enable
 817:.\Generated_Source\PSoC5/CAN_1.c **** *    CAN_1_BUS_OFF_ENABLE           Busoff State Interrupt Enable
 818:.\Generated_Source\PSoC5/CAN_1.c **** *    CAN_1_RX_MSG_LOST_ENABLE       Rx Msg Loss Interrupt Enable
 819:.\Generated_Source\PSoC5/CAN_1.c **** *    CAN_1_TX_MESSAGE_ENABLE        Tx Msg Sent Interrupt Enable
 820:.\Generated_Source\PSoC5/CAN_1.c **** *    CAN_1_RX_MESSAGE_ENABLE        Msg Recived Interrupt Enable
 821:.\Generated_Source\PSoC5/CAN_1.c **** *
 822:.\Generated_Source\PSoC5/CAN_1.c **** * Return:
 823:.\Generated_Source\PSoC5/CAN_1.c **** *  Indication whether register is written and verified.
 824:.\Generated_Source\PSoC5/CAN_1.c **** *   Define                             Description
 825:.\Generated_Source\PSoC5/CAN_1.c **** *    CYRET_SUCCESS                      Function passed successfully
 826:.\Generated_Source\PSoC5/CAN_1.c **** *    CAN_1_FAIL              Function failed
 827:.\Generated_Source\PSoC5/CAN_1.c **** *
 828:.\Generated_Source\PSoC5/CAN_1.c **** *******************************************************************************/
 829:.\Generated_Source\PSoC5/CAN_1.c **** uint8 CAN_1_SetIrqMask(uint16 mask) 
ARM GAS  C:\Users\khjtony\AppData\Local\Temp\ccDWw2Fb.s 			page 38


 830:.\Generated_Source\PSoC5/CAN_1.c **** {
 1273              		.loc 1 830 0
 1274              		.cfi_startproc
 1275              		@ args = 0, pretend = 0, frame = 16
 1276              		@ frame_needed = 1, uses_anonymous_args = 0
 1277              		@ link register save eliminated.
 1278 0000 80B4     		push	{r7}
 1279              		.cfi_def_cfa_offset 4
 1280              		.cfi_offset 7, -4
 1281 0002 85B0     		sub	sp, sp, #20
 1282              		.cfi_def_cfa_offset 24
 1283 0004 00AF     		add	r7, sp, #0
 1284              		.cfi_def_cfa_register 7
 1285 0006 0346     		mov	r3, r0
 1286 0008 FB80     		strh	r3, [r7, #6]	@ movhi
 831:.\Generated_Source\PSoC5/CAN_1.c ****     uint8 result = CAN_1_FAIL;
 1287              		.loc 1 831 0
 1288 000a 0123     		movs	r3, #1
 1289 000c FB73     		strb	r3, [r7, #15]
 832:.\Generated_Source\PSoC5/CAN_1.c **** 
 833:.\Generated_Source\PSoC5/CAN_1.c ****     /* Write byte 0 and 1 of CAN_1_INT_EN_REG register */
 834:.\Generated_Source\PSoC5/CAN_1.c ****     CY_SET_REG16((reg16 *) &CAN_1_INT_EN_REG, mask);
 1290              		.loc 1 834 0
 1291 000e 094B     		ldr	r3, .L92
 1292 0010 FA88     		ldrh	r2, [r7, #6]	@ movhi
 1293 0012 1A80     		strh	r2, [r3]	@ movhi
 835:.\Generated_Source\PSoC5/CAN_1.c **** 
 836:.\Generated_Source\PSoC5/CAN_1.c ****     /* Verify CAN_1_INT_EN_REG register */
 837:.\Generated_Source\PSoC5/CAN_1.c ****     if (CY_GET_REG16((reg16 *) &CAN_1_INT_EN_REG) == mask)
 1294              		.loc 1 837 0
 1295 0014 074B     		ldr	r3, .L92
 1296 0016 1B88     		ldrh	r3, [r3]	@ movhi
 1297 0018 9BB2     		uxth	r3, r3
 1298 001a FA88     		ldrh	r2, [r7, #6]
 1299 001c 9A42     		cmp	r2, r3
 1300 001e 01D1     		bne	.L90
 838:.\Generated_Source\PSoC5/CAN_1.c ****     {
 839:.\Generated_Source\PSoC5/CAN_1.c ****         result = CYRET_SUCCESS;
 1301              		.loc 1 839 0
 1302 0020 0023     		movs	r3, #0
 1303 0022 FB73     		strb	r3, [r7, #15]
 1304              	.L90:
 840:.\Generated_Source\PSoC5/CAN_1.c ****     }
 841:.\Generated_Source\PSoC5/CAN_1.c **** 
 842:.\Generated_Source\PSoC5/CAN_1.c ****     return (result);
 1305              		.loc 1 842 0
 1306 0024 FB7B     		ldrb	r3, [r7, #15]	@ zero_extendqisi2
 843:.\Generated_Source\PSoC5/CAN_1.c **** }
 1307              		.loc 1 843 0
 1308 0026 1846     		mov	r0, r3
 1309 0028 1437     		adds	r7, r7, #20
 1310 002a BD46     		mov	sp, r7
 1311              		@ sp needed
 1312 002c 5DF8047B 		ldr	r7, [sp], #4
 1313 0030 7047     		bx	lr
 1314              	.L93:
 1315 0032 00BF     		.align	2
ARM GAS  C:\Users\khjtony\AppData\Local\Temp\ccDWw2Fb.s 			page 39


 1316              	.L92:
 1317 0034 04A00040 		.word	1073782788
 1318              		.cfi_endproc
 1319              	.LFE13:
 1320              		.size	CAN_1_SetIrqMask, .-CAN_1_SetIrqMask
 1321              		.section	.text.CAN_1_GetTXErrorFlag,"ax",%progbits
 1322              		.align	2
 1323              		.global	CAN_1_GetTXErrorFlag
 1324              		.thumb
 1325              		.thumb_func
 1326              		.type	CAN_1_GetTXErrorFlag, %function
 1327              	CAN_1_GetTXErrorFlag:
 1328              	.LFB14:
 844:.\Generated_Source\PSoC5/CAN_1.c **** 
 845:.\Generated_Source\PSoC5/CAN_1.c **** 
 846:.\Generated_Source\PSoC5/CAN_1.c **** /*******************************************************************************
 847:.\Generated_Source\PSoC5/CAN_1.c **** * FUNCTION NAME:   CAN_1_GetTXErrorflag
 848:.\Generated_Source\PSoC5/CAN_1.c **** ********************************************************************************
 849:.\Generated_Source\PSoC5/CAN_1.c **** *
 850:.\Generated_Source\PSoC5/CAN_1.c **** * Summary:
 851:.\Generated_Source\PSoC5/CAN_1.c **** *  This function returns the bit that indicates if the number of TX errors
 852:.\Generated_Source\PSoC5/CAN_1.c **** *  exceeds 0x60.
 853:.\Generated_Source\PSoC5/CAN_1.c **** *
 854:.\Generated_Source\PSoC5/CAN_1.c **** * Parameters:
 855:.\Generated_Source\PSoC5/CAN_1.c **** *  None.
 856:.\Generated_Source\PSoC5/CAN_1.c **** *
 857:.\Generated_Source\PSoC5/CAN_1.c **** * Return:
 858:.\Generated_Source\PSoC5/CAN_1.c **** *  Indication whether the number of TX errors exceeds 0x60.
 859:.\Generated_Source\PSoC5/CAN_1.c **** *
 860:.\Generated_Source\PSoC5/CAN_1.c **** *******************************************************************************/
 861:.\Generated_Source\PSoC5/CAN_1.c **** uint8 CAN_1_GetTXErrorFlag(void) 
 862:.\Generated_Source\PSoC5/CAN_1.c **** {
 1329              		.loc 1 862 0
 1330              		.cfi_startproc
 1331              		@ args = 0, pretend = 0, frame = 0
 1332              		@ frame_needed = 1, uses_anonymous_args = 0
 1333              		@ link register save eliminated.
 1334 0000 80B4     		push	{r7}
 1335              		.cfi_def_cfa_offset 4
 1336              		.cfi_offset 7, -4
 1337 0002 00AF     		add	r7, sp, #0
 1338              		.cfi_def_cfa_register 7
 863:.\Generated_Source\PSoC5/CAN_1.c ****     /* Get the state of the transmit error flag */
 864:.\Generated_Source\PSoC5/CAN_1.c ****     return (((CAN_1_ERR_SR_REG.byte[2u] & CAN_1_TX_ERROR_FLAG_MASK) ==
 1339              		.loc 1 864 0
 1340 0004 074B     		ldr	r3, .L98
 1341 0006 9B78     		ldrb	r3, [r3, #2]
 1342 0008 DBB2     		uxtb	r3, r3
 1343 000a 03F00403 		and	r3, r3, #4
 1344 000e 002B     		cmp	r3, #0
 1345 0010 01D0     		beq	.L95
 1346              		.loc 1 864 0 is_stmt 0 discriminator 1
 1347 0012 0123     		movs	r3, #1
 1348 0014 00E0     		b	.L96
 1349              	.L95:
 1350              		.loc 1 864 0 discriminator 2
 1351 0016 0023     		movs	r3, #0
ARM GAS  C:\Users\khjtony\AppData\Local\Temp\ccDWw2Fb.s 			page 40


 1352              	.L96:
 865:.\Generated_Source\PSoC5/CAN_1.c ****               CAN_1_TX_ERROR_FLAG_MASK) ? 1u : 0u);
 866:.\Generated_Source\PSoC5/CAN_1.c **** }
 1353              		.loc 1 866 0 is_stmt 1 discriminator 3
 1354 0018 1846     		mov	r0, r3
 1355 001a BD46     		mov	sp, r7
 1356              		@ sp needed
 1357 001c 5DF8047B 		ldr	r7, [sp], #4
 1358 0020 7047     		bx	lr
 1359              	.L99:
 1360 0022 00BF     		.align	2
 1361              	.L98:
 1362 0024 0CA00040 		.word	1073782796
 1363              		.cfi_endproc
 1364              	.LFE14:
 1365              		.size	CAN_1_GetTXErrorFlag, .-CAN_1_GetTXErrorFlag
 1366              		.section	.text.CAN_1_GetRXErrorFlag,"ax",%progbits
 1367              		.align	2
 1368              		.global	CAN_1_GetRXErrorFlag
 1369              		.thumb
 1370              		.thumb_func
 1371              		.type	CAN_1_GetRXErrorFlag, %function
 1372              	CAN_1_GetRXErrorFlag:
 1373              	.LFB15:
 867:.\Generated_Source\PSoC5/CAN_1.c **** 
 868:.\Generated_Source\PSoC5/CAN_1.c **** 
 869:.\Generated_Source\PSoC5/CAN_1.c **** /*******************************************************************************
 870:.\Generated_Source\PSoC5/CAN_1.c **** * FUNCTION NAME:   CAN_1_GetRXErrorFlag
 871:.\Generated_Source\PSoC5/CAN_1.c **** ********************************************************************************
 872:.\Generated_Source\PSoC5/CAN_1.c **** *
 873:.\Generated_Source\PSoC5/CAN_1.c **** * Summary:
 874:.\Generated_Source\PSoC5/CAN_1.c **** *  This function returns the bit that indicates if the number of RX errors
 875:.\Generated_Source\PSoC5/CAN_1.c **** *  exceeds 0x60.
 876:.\Generated_Source\PSoC5/CAN_1.c **** *
 877:.\Generated_Source\PSoC5/CAN_1.c **** * Parameters:
 878:.\Generated_Source\PSoC5/CAN_1.c **** *  None.
 879:.\Generated_Source\PSoC5/CAN_1.c **** *
 880:.\Generated_Source\PSoC5/CAN_1.c **** * Return:
 881:.\Generated_Source\PSoC5/CAN_1.c **** *  Indication whether the number of TX errors exceeds 0x60.
 882:.\Generated_Source\PSoC5/CAN_1.c **** *
 883:.\Generated_Source\PSoC5/CAN_1.c **** *******************************************************************************/
 884:.\Generated_Source\PSoC5/CAN_1.c **** uint8 CAN_1_GetRXErrorFlag(void) 
 885:.\Generated_Source\PSoC5/CAN_1.c **** {
 1374              		.loc 1 885 0
 1375              		.cfi_startproc
 1376              		@ args = 0, pretend = 0, frame = 0
 1377              		@ frame_needed = 1, uses_anonymous_args = 0
 1378              		@ link register save eliminated.
 1379 0000 80B4     		push	{r7}
 1380              		.cfi_def_cfa_offset 4
 1381              		.cfi_offset 7, -4
 1382 0002 00AF     		add	r7, sp, #0
 1383              		.cfi_def_cfa_register 7
 886:.\Generated_Source\PSoC5/CAN_1.c ****     /* Get the state of the receive error flag */
 887:.\Generated_Source\PSoC5/CAN_1.c ****     return (((CAN_1_ERR_SR_REG.byte[2u] & CAN_1_RX_ERROR_FLAG_MASK) ==
 1384              		.loc 1 887 0
 1385 0004 074B     		ldr	r3, .L104
ARM GAS  C:\Users\khjtony\AppData\Local\Temp\ccDWw2Fb.s 			page 41


 1386 0006 9B78     		ldrb	r3, [r3, #2]
 1387 0008 DBB2     		uxtb	r3, r3
 1388 000a 03F00803 		and	r3, r3, #8
 1389 000e 002B     		cmp	r3, #0
 1390 0010 01D0     		beq	.L101
 1391              		.loc 1 887 0 is_stmt 0 discriminator 1
 1392 0012 0123     		movs	r3, #1
 1393 0014 00E0     		b	.L102
 1394              	.L101:
 1395              		.loc 1 887 0 discriminator 2
 1396 0016 0023     		movs	r3, #0
 1397              	.L102:
 888:.\Generated_Source\PSoC5/CAN_1.c ****               CAN_1_RX_ERROR_FLAG_MASK) ? 1u : 0u);
 889:.\Generated_Source\PSoC5/CAN_1.c **** }
 1398              		.loc 1 889 0 is_stmt 1 discriminator 3
 1399 0018 1846     		mov	r0, r3
 1400 001a BD46     		mov	sp, r7
 1401              		@ sp needed
 1402 001c 5DF8047B 		ldr	r7, [sp], #4
 1403 0020 7047     		bx	lr
 1404              	.L105:
 1405 0022 00BF     		.align	2
 1406              	.L104:
 1407 0024 0CA00040 		.word	1073782796
 1408              		.cfi_endproc
 1409              	.LFE15:
 1410              		.size	CAN_1_GetRXErrorFlag, .-CAN_1_GetRXErrorFlag
 1411              		.section	.text.CAN_1_GetTXErrorCount,"ax",%progbits
 1412              		.align	2
 1413              		.global	CAN_1_GetTXErrorCount
 1414              		.thumb
 1415              		.thumb_func
 1416              		.type	CAN_1_GetTXErrorCount, %function
 1417              	CAN_1_GetTXErrorCount:
 1418              	.LFB16:
 890:.\Generated_Source\PSoC5/CAN_1.c **** 
 891:.\Generated_Source\PSoC5/CAN_1.c **** 
 892:.\Generated_Source\PSoC5/CAN_1.c **** /*******************************************************************************
 893:.\Generated_Source\PSoC5/CAN_1.c **** * FUNCTION NAME:   CAN_1_TXErrorCount
 894:.\Generated_Source\PSoC5/CAN_1.c **** ********************************************************************************
 895:.\Generated_Source\PSoC5/CAN_1.c **** *
 896:.\Generated_Source\PSoC5/CAN_1.c **** * Summary:
 897:.\Generated_Source\PSoC5/CAN_1.c **** *  This function returns the number of Transmit Errors.
 898:.\Generated_Source\PSoC5/CAN_1.c **** *
 899:.\Generated_Source\PSoC5/CAN_1.c **** * Parameters:
 900:.\Generated_Source\PSoC5/CAN_1.c **** *  None.
 901:.\Generated_Source\PSoC5/CAN_1.c **** *
 902:.\Generated_Source\PSoC5/CAN_1.c **** * Return:
 903:.\Generated_Source\PSoC5/CAN_1.c **** *  Number of Transmit Errors.
 904:.\Generated_Source\PSoC5/CAN_1.c **** *
 905:.\Generated_Source\PSoC5/CAN_1.c **** *******************************************************************************/
 906:.\Generated_Source\PSoC5/CAN_1.c **** uint8 CAN_1_GetTXErrorCount(void) 
 907:.\Generated_Source\PSoC5/CAN_1.c **** {
 1419              		.loc 1 907 0
 1420              		.cfi_startproc
 1421              		@ args = 0, pretend = 0, frame = 0
 1422              		@ frame_needed = 1, uses_anonymous_args = 0
ARM GAS  C:\Users\khjtony\AppData\Local\Temp\ccDWw2Fb.s 			page 42


 1423              		@ link register save eliminated.
 1424 0000 80B4     		push	{r7}
 1425              		.cfi_def_cfa_offset 4
 1426              		.cfi_offset 7, -4
 1427 0002 00AF     		add	r7, sp, #0
 1428              		.cfi_def_cfa_register 7
 908:.\Generated_Source\PSoC5/CAN_1.c ****     /* Get the state of the transmit error count */
 909:.\Generated_Source\PSoC5/CAN_1.c ****     return (CAN_1_ERR_SR_REG.byte[0u]);    /* bits 7-0 */
 1429              		.loc 1 909 0
 1430 0004 034B     		ldr	r3, .L108
 1431 0006 1B78     		ldrb	r3, [r3]
 1432 0008 DBB2     		uxtb	r3, r3
 910:.\Generated_Source\PSoC5/CAN_1.c **** }
 1433              		.loc 1 910 0
 1434 000a 1846     		mov	r0, r3
 1435 000c BD46     		mov	sp, r7
 1436              		@ sp needed
 1437 000e 5DF8047B 		ldr	r7, [sp], #4
 1438 0012 7047     		bx	lr
 1439              	.L109:
 1440              		.align	2
 1441              	.L108:
 1442 0014 0CA00040 		.word	1073782796
 1443              		.cfi_endproc
 1444              	.LFE16:
 1445              		.size	CAN_1_GetTXErrorCount, .-CAN_1_GetTXErrorCount
 1446              		.section	.text.CAN_1_GetRXErrorCount,"ax",%progbits
 1447              		.align	2
 1448              		.global	CAN_1_GetRXErrorCount
 1449              		.thumb
 1450              		.thumb_func
 1451              		.type	CAN_1_GetRXErrorCount, %function
 1452              	CAN_1_GetRXErrorCount:
 1453              	.LFB17:
 911:.\Generated_Source\PSoC5/CAN_1.c **** 
 912:.\Generated_Source\PSoC5/CAN_1.c **** 
 913:.\Generated_Source\PSoC5/CAN_1.c **** /*******************************************************************************
 914:.\Generated_Source\PSoC5/CAN_1.c **** * FUNCTION NAME:   CAN_1_RXErrorCount
 915:.\Generated_Source\PSoC5/CAN_1.c **** ********************************************************************************
 916:.\Generated_Source\PSoC5/CAN_1.c **** *
 917:.\Generated_Source\PSoC5/CAN_1.c **** * Summary:
 918:.\Generated_Source\PSoC5/CAN_1.c **** *  This function returns the number of Receive Errors.
 919:.\Generated_Source\PSoC5/CAN_1.c **** *
 920:.\Generated_Source\PSoC5/CAN_1.c **** * Parameters:
 921:.\Generated_Source\PSoC5/CAN_1.c **** *  None.
 922:.\Generated_Source\PSoC5/CAN_1.c **** *
 923:.\Generated_Source\PSoC5/CAN_1.c **** * Return:
 924:.\Generated_Source\PSoC5/CAN_1.c **** *  Number of Receive Errors.
 925:.\Generated_Source\PSoC5/CAN_1.c **** *
 926:.\Generated_Source\PSoC5/CAN_1.c **** *******************************************************************************/
 927:.\Generated_Source\PSoC5/CAN_1.c **** uint8 CAN_1_GetRXErrorCount(void) 
 928:.\Generated_Source\PSoC5/CAN_1.c **** {
 1454              		.loc 1 928 0
 1455              		.cfi_startproc
 1456              		@ args = 0, pretend = 0, frame = 0
 1457              		@ frame_needed = 1, uses_anonymous_args = 0
 1458              		@ link register save eliminated.
ARM GAS  C:\Users\khjtony\AppData\Local\Temp\ccDWw2Fb.s 			page 43


 1459 0000 80B4     		push	{r7}
 1460              		.cfi_def_cfa_offset 4
 1461              		.cfi_offset 7, -4
 1462 0002 00AF     		add	r7, sp, #0
 1463              		.cfi_def_cfa_register 7
 929:.\Generated_Source\PSoC5/CAN_1.c ****     /* Get the state of the receive error count */
 930:.\Generated_Source\PSoC5/CAN_1.c ****     return (CAN_1_ERR_SR_REG.byte[1u]);    /* bits 15-8 */
 1464              		.loc 1 930 0
 1465 0004 034B     		ldr	r3, .L112
 1466 0006 5B78     		ldrb	r3, [r3, #1]
 1467 0008 DBB2     		uxtb	r3, r3
 931:.\Generated_Source\PSoC5/CAN_1.c **** }
 1468              		.loc 1 931 0
 1469 000a 1846     		mov	r0, r3
 1470 000c BD46     		mov	sp, r7
 1471              		@ sp needed
 1472 000e 5DF8047B 		ldr	r7, [sp], #4
 1473 0012 7047     		bx	lr
 1474              	.L113:
 1475              		.align	2
 1476              	.L112:
 1477 0014 0CA00040 		.word	1073782796
 1478              		.cfi_endproc
 1479              	.LFE17:
 1480              		.size	CAN_1_GetRXErrorCount, .-CAN_1_GetRXErrorCount
 1481              		.section	.text.CAN_1_GetErrorState,"ax",%progbits
 1482              		.align	2
 1483              		.global	CAN_1_GetErrorState
 1484              		.thumb
 1485              		.thumb_func
 1486              		.type	CAN_1_GetErrorState, %function
 1487              	CAN_1_GetErrorState:
 1488              	.LFB18:
 932:.\Generated_Source\PSoC5/CAN_1.c **** 
 933:.\Generated_Source\PSoC5/CAN_1.c **** 
 934:.\Generated_Source\PSoC5/CAN_1.c **** /*******************************************************************************
 935:.\Generated_Source\PSoC5/CAN_1.c **** * FUNCTION NAME:   CAN_1_GetErrorState
 936:.\Generated_Source\PSoC5/CAN_1.c **** ********************************************************************************
 937:.\Generated_Source\PSoC5/CAN_1.c **** *
 938:.\Generated_Source\PSoC5/CAN_1.c **** * Summary:
 939:.\Generated_Source\PSoC5/CAN_1.c **** *  This function returns error status of CAN Component.
 940:.\Generated_Source\PSoC5/CAN_1.c **** *
 941:.\Generated_Source\PSoC5/CAN_1.c **** * Parameters:
 942:.\Generated_Source\PSoC5/CAN_1.c **** *  None.
 943:.\Generated_Source\PSoC5/CAN_1.c **** *
 944:.\Generated_Source\PSoC5/CAN_1.c **** * Return:
 945:.\Generated_Source\PSoC5/CAN_1.c **** *  Error status.
 946:.\Generated_Source\PSoC5/CAN_1.c **** *
 947:.\Generated_Source\PSoC5/CAN_1.c **** *******************************************************************************/
 948:.\Generated_Source\PSoC5/CAN_1.c **** uint8 CAN_1_GetErrorState(void) 
 949:.\Generated_Source\PSoC5/CAN_1.c **** {
 1489              		.loc 1 949 0
 1490              		.cfi_startproc
 1491              		@ args = 0, pretend = 0, frame = 0
 1492              		@ frame_needed = 1, uses_anonymous_args = 0
 1493              		@ link register save eliminated.
 1494 0000 80B4     		push	{r7}
ARM GAS  C:\Users\khjtony\AppData\Local\Temp\ccDWw2Fb.s 			page 44


 1495              		.cfi_def_cfa_offset 4
 1496              		.cfi_offset 7, -4
 1497 0002 00AF     		add	r7, sp, #0
 1498              		.cfi_def_cfa_register 7
 950:.\Generated_Source\PSoC5/CAN_1.c ****     /* Get the error state of the receiver */
 951:.\Generated_Source\PSoC5/CAN_1.c ****     return (CAN_1_ERR_SR_REG.byte[2u] & CAN_1_ERROR_STATE_MASK);
 1499              		.loc 1 951 0
 1500 0004 054B     		ldr	r3, .L116
 1501 0006 9B78     		ldrb	r3, [r3, #2]
 1502 0008 DBB2     		uxtb	r3, r3
 1503 000a 03F00303 		and	r3, r3, #3
 1504 000e DBB2     		uxtb	r3, r3
 952:.\Generated_Source\PSoC5/CAN_1.c **** }
 1505              		.loc 1 952 0
 1506 0010 1846     		mov	r0, r3
 1507 0012 BD46     		mov	sp, r7
 1508              		@ sp needed
 1509 0014 5DF8047B 		ldr	r7, [sp], #4
 1510 0018 7047     		bx	lr
 1511              	.L117:
 1512 001a 00BF     		.align	2
 1513              	.L116:
 1514 001c 0CA00040 		.word	1073782796
 1515              		.cfi_endproc
 1516              	.LFE18:
 1517              		.size	CAN_1_GetErrorState, .-CAN_1_GetErrorState
 1518              		.section	.text.CAN_1_RxBufConfig,"ax",%progbits
 1519              		.align	2
 1520              		.global	CAN_1_RxBufConfig
 1521              		.thumb
 1522              		.thumb_func
 1523              		.type	CAN_1_RxBufConfig, %function
 1524              	CAN_1_RxBufConfig:
 1525              	.LFB19:
 953:.\Generated_Source\PSoC5/CAN_1.c **** 
 954:.\Generated_Source\PSoC5/CAN_1.c **** 
 955:.\Generated_Source\PSoC5/CAN_1.c **** /*******************************************************************************
 956:.\Generated_Source\PSoC5/CAN_1.c **** * FUNCTION NAME:   CAN_1_RxBufConfig
 957:.\Generated_Source\PSoC5/CAN_1.c **** ********************************************************************************
 958:.\Generated_Source\PSoC5/CAN_1.c **** *
 959:.\Generated_Source\PSoC5/CAN_1.c **** * Summary:
 960:.\Generated_Source\PSoC5/CAN_1.c **** *  This function configures all receive registers for particular mailbox.
 961:.\Generated_Source\PSoC5/CAN_1.c **** *
 962:.\Generated_Source\PSoC5/CAN_1.c **** * Parameters:
 963:.\Generated_Source\PSoC5/CAN_1.c **** *  rxConfig: Pointer to structure that contain all required values to configure
 964:.\Generated_Source\PSoC5/CAN_1.c **** *  all receive registers for particular mailbox.
 965:.\Generated_Source\PSoC5/CAN_1.c **** *
 966:.\Generated_Source\PSoC5/CAN_1.c **** * Return:
 967:.\Generated_Source\PSoC5/CAN_1.c **** *  Indication if particular configuration has been accepted or rejected.
 968:.\Generated_Source\PSoC5/CAN_1.c **** *   Define                             Description
 969:.\Generated_Source\PSoC5/CAN_1.c **** *    CYRET_SUCCESS                      Function passed successfully
 970:.\Generated_Source\PSoC5/CAN_1.c **** *    CAN_1_FAIL              Function failed
 971:.\Generated_Source\PSoC5/CAN_1.c **** *
 972:.\Generated_Source\PSoC5/CAN_1.c **** *******************************************************************************/
 973:.\Generated_Source\PSoC5/CAN_1.c **** uint8 CAN_1_RxBufConfig(const CAN_1_RX_CFG *rxConfig)
 974:.\Generated_Source\PSoC5/CAN_1.c ****                                    
 975:.\Generated_Source\PSoC5/CAN_1.c **** {
ARM GAS  C:\Users\khjtony\AppData\Local\Temp\ccDWw2Fb.s 			page 45


 1526              		.loc 1 975 0
 1527              		.cfi_startproc
 1528              		@ args = 0, pretend = 0, frame = 16
 1529              		@ frame_needed = 1, uses_anonymous_args = 0
 1530              		@ link register save eliminated.
 1531 0000 80B4     		push	{r7}
 1532              		.cfi_def_cfa_offset 4
 1533              		.cfi_offset 7, -4
 1534 0002 85B0     		sub	sp, sp, #20
 1535              		.cfi_def_cfa_offset 24
 1536 0004 00AF     		add	r7, sp, #0
 1537              		.cfi_def_cfa_register 7
 1538 0006 7860     		str	r0, [r7, #4]
 976:.\Generated_Source\PSoC5/CAN_1.c ****     uint8 result = CAN_1_FAIL;
 1539              		.loc 1 976 0
 1540 0008 0123     		movs	r3, #1
 1541 000a FB73     		strb	r3, [r7, #15]
 977:.\Generated_Source\PSoC5/CAN_1.c **** 
 978:.\Generated_Source\PSoC5/CAN_1.c ****     /* Write RX CMD Register */
 979:.\Generated_Source\PSoC5/CAN_1.c ****     CY_SET_REG32((reg32 *) &CAN_1_RX[rxConfig->rxmailbox].rxcmd, (rxConfig->rxcmd |
 1542              		.loc 1 979 0
 1543 000c 7B68     		ldr	r3, [r7, #4]
 1544 000e 1B78     		ldrb	r3, [r3]	@ zero_extendqisi2
 1545 0010 5A01     		lsls	r2, r3, #5
 1546 0012 354B     		ldr	r3, .L121
 1547 0014 1344     		add	r3, r3, r2
 1548 0016 7A68     		ldr	r2, [r7, #4]
 1549 0018 5268     		ldr	r2, [r2, #4]
 1550 001a 42F08012 		orr	r2, r2, #8388736
 1551 001e 1A60     		str	r2, [r3]
 980:.\Generated_Source\PSoC5/CAN_1.c ****                  CAN_1_RX_WPN_SET));
 981:.\Generated_Source\PSoC5/CAN_1.c ****     if ((CY_GET_REG32((reg32 *) &CAN_1_RX[rxConfig->rxmailbox].rxcmd) &
 1552              		.loc 1 981 0
 1553 0020 7B68     		ldr	r3, [r7, #4]
 1554 0022 1B78     		ldrb	r3, [r3]	@ zero_extendqisi2
 1555 0024 5A01     		lsls	r2, r3, #5
 1556 0026 304B     		ldr	r3, .L121
 1557 0028 1344     		add	r3, r3, r2
 1558 002a 1B68     		ldr	r3, [r3]
 1559 002c 03F07F12 		and	r2, r3, #8323199
 982:.\Generated_Source\PSoC5/CAN_1.c ****          CAN_1_RX_READ_BACK_MASK) == (rxConfig->rxcmd & CAN_1_RX_WPN_CLEAR))
 1560              		.loc 1 982 0
 1561 0030 7B68     		ldr	r3, [r7, #4]
 1562 0032 5B68     		ldr	r3, [r3, #4]
 1563 0034 23F08013 		bic	r3, r3, #8388736
 981:.\Generated_Source\PSoC5/CAN_1.c ****     if ((CY_GET_REG32((reg32 *) &CAN_1_RX[rxConfig->rxmailbox].rxcmd) &
 1564              		.loc 1 981 0
 1565 0038 9A42     		cmp	r2, r3
 1566 003a 4DD1     		bne	.L119
 983:.\Generated_Source\PSoC5/CAN_1.c ****     {
 984:.\Generated_Source\PSoC5/CAN_1.c ****         /* Write RX AMR Register */
 985:.\Generated_Source\PSoC5/CAN_1.c ****         CY_SET_REG32((reg32 *) &CAN_1_RX[rxConfig->rxmailbox].rxamr, rxConfig->rxamr);
 1567              		.loc 1 985 0
 1568 003c 7B68     		ldr	r3, [r7, #4]
 1569 003e 1B78     		ldrb	r3, [r3]	@ zero_extendqisi2
 1570 0040 5A01     		lsls	r2, r3, #5
 1571 0042 294B     		ldr	r3, .L121
ARM GAS  C:\Users\khjtony\AppData\Local\Temp\ccDWw2Fb.s 			page 46


 1572 0044 1344     		add	r3, r3, r2
 1573 0046 1033     		adds	r3, r3, #16
 1574 0048 7A68     		ldr	r2, [r7, #4]
 1575 004a 9268     		ldr	r2, [r2, #8]
 1576 004c 1A60     		str	r2, [r3]
 986:.\Generated_Source\PSoC5/CAN_1.c ****         if (CY_GET_REG32((reg32 *) &CAN_1_RX[rxConfig->rxmailbox].rxamr) == rxConfig->rxamr)
 1577              		.loc 1 986 0
 1578 004e 7B68     		ldr	r3, [r7, #4]
 1579 0050 1B78     		ldrb	r3, [r3]	@ zero_extendqisi2
 1580 0052 5A01     		lsls	r2, r3, #5
 1581 0054 244B     		ldr	r3, .L121
 1582 0056 1344     		add	r3, r3, r2
 1583 0058 1033     		adds	r3, r3, #16
 1584 005a 1A68     		ldr	r2, [r3]
 1585 005c 7B68     		ldr	r3, [r7, #4]
 1586 005e 9B68     		ldr	r3, [r3, #8]
 1587 0060 9A42     		cmp	r2, r3
 1588 0062 39D1     		bne	.L119
 987:.\Generated_Source\PSoC5/CAN_1.c ****         {
 988:.\Generated_Source\PSoC5/CAN_1.c ****             /* Write RX ACR Register */
 989:.\Generated_Source\PSoC5/CAN_1.c ****             CY_SET_REG32((reg32 *) &CAN_1_RX[rxConfig->rxmailbox].rxacr, rxConfig->rxacr);
 1589              		.loc 1 989 0
 1590 0064 7B68     		ldr	r3, [r7, #4]
 1591 0066 1B78     		ldrb	r3, [r3]	@ zero_extendqisi2
 1592 0068 5A01     		lsls	r2, r3, #5
 1593 006a 1F4B     		ldr	r3, .L121
 1594 006c 1344     		add	r3, r3, r2
 1595 006e 1433     		adds	r3, r3, #20
 1596 0070 7A68     		ldr	r2, [r7, #4]
 1597 0072 D268     		ldr	r2, [r2, #12]
 1598 0074 1A60     		str	r2, [r3]
 990:.\Generated_Source\PSoC5/CAN_1.c ****             if (CY_GET_REG32((reg32 *) &CAN_1_RX[rxConfig->rxmailbox].rxacr) == rxConfig->rxacr)
 1599              		.loc 1 990 0
 1600 0076 7B68     		ldr	r3, [r7, #4]
 1601 0078 1B78     		ldrb	r3, [r3]	@ zero_extendqisi2
 1602 007a 5A01     		lsls	r2, r3, #5
 1603 007c 1A4B     		ldr	r3, .L121
 1604 007e 1344     		add	r3, r3, r2
 1605 0080 1433     		adds	r3, r3, #20
 1606 0082 1A68     		ldr	r2, [r3]
 1607 0084 7B68     		ldr	r3, [r7, #4]
 1608 0086 DB68     		ldr	r3, [r3, #12]
 1609 0088 9A42     		cmp	r2, r3
 1610 008a 25D1     		bne	.L119
 991:.\Generated_Source\PSoC5/CAN_1.c ****             {
 992:.\Generated_Source\PSoC5/CAN_1.c ****                 /* Write RX AMRD Register */
 993:.\Generated_Source\PSoC5/CAN_1.c ****                 CY_SET_REG32((reg32 *) &CAN_1_RX[rxConfig->rxmailbox].rxamrd, 0xFFFFFFFFu);
 1611              		.loc 1 993 0
 1612 008c 7B68     		ldr	r3, [r7, #4]
 1613 008e 1B78     		ldrb	r3, [r3]	@ zero_extendqisi2
 1614 0090 5A01     		lsls	r2, r3, #5
 1615 0092 154B     		ldr	r3, .L121
 1616 0094 1344     		add	r3, r3, r2
 1617 0096 1833     		adds	r3, r3, #24
 1618 0098 4FF0FF32 		mov	r2, #-1
 1619 009c 1A60     		str	r2, [r3]
 994:.\Generated_Source\PSoC5/CAN_1.c ****                 if (CY_GET_REG32((reg32 *) &CAN_1_RX[rxConfig->rxmailbox].rxamrd) == 0xFFFFFFFFu)
ARM GAS  C:\Users\khjtony\AppData\Local\Temp\ccDWw2Fb.s 			page 47


 1620              		.loc 1 994 0
 1621 009e 7B68     		ldr	r3, [r7, #4]
 1622 00a0 1B78     		ldrb	r3, [r3]	@ zero_extendqisi2
 1623 00a2 5A01     		lsls	r2, r3, #5
 1624 00a4 104B     		ldr	r3, .L121
 1625 00a6 1344     		add	r3, r3, r2
 1626 00a8 1833     		adds	r3, r3, #24
 1627 00aa 1B68     		ldr	r3, [r3]
 1628 00ac B3F1FF3F 		cmp	r3, #-1
 1629 00b0 12D1     		bne	.L119
 995:.\Generated_Source\PSoC5/CAN_1.c ****                 {
 996:.\Generated_Source\PSoC5/CAN_1.c ****                     /* Write RX ACRD Register */
 997:.\Generated_Source\PSoC5/CAN_1.c ****                     CY_SET_REG32((reg32 *) &CAN_1_RX[rxConfig->rxmailbox].rxacrd, 0x00000000u);
 1630              		.loc 1 997 0
 1631 00b2 7B68     		ldr	r3, [r7, #4]
 1632 00b4 1B78     		ldrb	r3, [r3]	@ zero_extendqisi2
 1633 00b6 5A01     		lsls	r2, r3, #5
 1634 00b8 0B4B     		ldr	r3, .L121
 1635 00ba 1344     		add	r3, r3, r2
 1636 00bc 1C33     		adds	r3, r3, #28
 1637 00be 0022     		movs	r2, #0
 1638 00c0 1A60     		str	r2, [r3]
 998:.\Generated_Source\PSoC5/CAN_1.c ****                     if (CY_GET_REG32((reg32 *) &CAN_1_RX[rxConfig->rxmailbox].rxacrd) == 0x00000000
 1639              		.loc 1 998 0
 1640 00c2 7B68     		ldr	r3, [r7, #4]
 1641 00c4 1B78     		ldrb	r3, [r3]	@ zero_extendqisi2
 1642 00c6 5A01     		lsls	r2, r3, #5
 1643 00c8 074B     		ldr	r3, .L121
 1644 00ca 1344     		add	r3, r3, r2
 1645 00cc 1C33     		adds	r3, r3, #28
 1646 00ce 1B68     		ldr	r3, [r3]
 1647 00d0 002B     		cmp	r3, #0
 1648 00d2 01D1     		bne	.L119
 999:.\Generated_Source\PSoC5/CAN_1.c ****                     {
1000:.\Generated_Source\PSoC5/CAN_1.c ****                             result = CYRET_SUCCESS;
 1649              		.loc 1 1000 0
 1650 00d4 0023     		movs	r3, #0
 1651 00d6 FB73     		strb	r3, [r7, #15]
 1652              	.L119:
1001:.\Generated_Source\PSoC5/CAN_1.c ****                     }
1002:.\Generated_Source\PSoC5/CAN_1.c ****                 }
1003:.\Generated_Source\PSoC5/CAN_1.c ****             }
1004:.\Generated_Source\PSoC5/CAN_1.c ****         }
1005:.\Generated_Source\PSoC5/CAN_1.c ****     }
1006:.\Generated_Source\PSoC5/CAN_1.c **** 
1007:.\Generated_Source\PSoC5/CAN_1.c ****     return (result);
 1653              		.loc 1 1007 0
 1654 00d8 FB7B     		ldrb	r3, [r7, #15]	@ zero_extendqisi2
1008:.\Generated_Source\PSoC5/CAN_1.c **** }
 1655              		.loc 1 1008 0
 1656 00da 1846     		mov	r0, r3
 1657 00dc 1437     		adds	r7, r7, #20
 1658 00de BD46     		mov	sp, r7
 1659              		@ sp needed
 1660 00e0 5DF8047B 		ldr	r7, [sp], #4
 1661 00e4 7047     		bx	lr
 1662              	.L122:
ARM GAS  C:\Users\khjtony\AppData\Local\Temp\ccDWw2Fb.s 			page 48


 1663 00e6 00BF     		.align	2
 1664              	.L121:
 1665 00e8 A0A00040 		.word	1073782944
 1666              		.cfi_endproc
 1667              	.LFE19:
 1668              		.size	CAN_1_RxBufConfig, .-CAN_1_RxBufConfig
 1669              		.section	.text.CAN_1_TxBufConfig,"ax",%progbits
 1670              		.align	2
 1671              		.global	CAN_1_TxBufConfig
 1672              		.thumb
 1673              		.thumb_func
 1674              		.type	CAN_1_TxBufConfig, %function
 1675              	CAN_1_TxBufConfig:
 1676              	.LFB20:
1009:.\Generated_Source\PSoC5/CAN_1.c **** 
1010:.\Generated_Source\PSoC5/CAN_1.c **** 
1011:.\Generated_Source\PSoC5/CAN_1.c **** /*******************************************************************************
1012:.\Generated_Source\PSoC5/CAN_1.c **** * FUNCTION NAME:   CAN_1_TxBufConfig
1013:.\Generated_Source\PSoC5/CAN_1.c **** ********************************************************************************
1014:.\Generated_Source\PSoC5/CAN_1.c **** *
1015:.\Generated_Source\PSoC5/CAN_1.c **** * Summary:
1016:.\Generated_Source\PSoC5/CAN_1.c **** *  This function configures all transmit registers for particular mailbox.
1017:.\Generated_Source\PSoC5/CAN_1.c **** *  Mailbox number contains CAN_1_TX_CFG structure.
1018:.\Generated_Source\PSoC5/CAN_1.c **** *
1019:.\Generated_Source\PSoC5/CAN_1.c **** * Parameters:
1020:.\Generated_Source\PSoC5/CAN_1.c **** *  txConfig: Pointer to structure that contain all required values to configure
1021:.\Generated_Source\PSoC5/CAN_1.c **** *  all transmit registers for particular mailbox.
1022:.\Generated_Source\PSoC5/CAN_1.c **** *
1023:.\Generated_Source\PSoC5/CAN_1.c **** * Return:
1024:.\Generated_Source\PSoC5/CAN_1.c **** *  Indication if particular configuration has been accepted or rejected.
1025:.\Generated_Source\PSoC5/CAN_1.c **** *   Define                             Description
1026:.\Generated_Source\PSoC5/CAN_1.c **** *    CYRET_SUCCESS                      Function passed successfully
1027:.\Generated_Source\PSoC5/CAN_1.c **** *    CAN_1_FAIL              Function failed
1028:.\Generated_Source\PSoC5/CAN_1.c **** *
1029:.\Generated_Source\PSoC5/CAN_1.c **** *******************************************************************************/
1030:.\Generated_Source\PSoC5/CAN_1.c **** uint8 CAN_1_TxBufConfig(const CAN_1_TX_CFG *txConfig) 
1031:.\Generated_Source\PSoC5/CAN_1.c ****                                    
1032:.\Generated_Source\PSoC5/CAN_1.c **** {
 1677              		.loc 1 1032 0
 1678              		.cfi_startproc
 1679              		@ args = 0, pretend = 0, frame = 16
 1680              		@ frame_needed = 1, uses_anonymous_args = 0
 1681              		@ link register save eliminated.
 1682 0000 80B4     		push	{r7}
 1683              		.cfi_def_cfa_offset 4
 1684              		.cfi_offset 7, -4
 1685 0002 85B0     		sub	sp, sp, #20
 1686              		.cfi_def_cfa_offset 24
 1687 0004 00AF     		add	r7, sp, #0
 1688              		.cfi_def_cfa_register 7
 1689 0006 7860     		str	r0, [r7, #4]
1033:.\Generated_Source\PSoC5/CAN_1.c ****     uint8 result = CAN_1_FAIL;
 1690              		.loc 1 1033 0
 1691 0008 0123     		movs	r3, #1
 1692 000a FB73     		strb	r3, [r7, #15]
1034:.\Generated_Source\PSoC5/CAN_1.c **** 
1035:.\Generated_Source\PSoC5/CAN_1.c ****     /* Write TX CMD Register */
ARM GAS  C:\Users\khjtony\AppData\Local\Temp\ccDWw2Fb.s 			page 49


1036:.\Generated_Source\PSoC5/CAN_1.c ****     CY_SET_REG32((reg32 *) &CAN_1_TX[txConfig->txmailbox].txcmd, (txConfig->txcmd |
 1693              		.loc 1 1036 0
 1694 000c 7B68     		ldr	r3, [r7, #4]
 1695 000e 1B78     		ldrb	r3, [r3]	@ zero_extendqisi2
 1696 0010 1A01     		lsls	r2, r3, #4
 1697 0012 1B4B     		ldr	r3, .L126
 1698 0014 1344     		add	r3, r3, r2
 1699 0016 1A46     		mov	r2, r3
 1700 0018 7B68     		ldr	r3, [r7, #4]
 1701 001a 5B68     		ldr	r3, [r3, #4]
 1702 001c 43F40003 		orr	r3, r3, #8388608
 1703 0020 43F00803 		orr	r3, r3, #8
 1704 0024 1360     		str	r3, [r2]
1037:.\Generated_Source\PSoC5/CAN_1.c ****                  CAN_1_TX_WPN_SET));
1038:.\Generated_Source\PSoC5/CAN_1.c ****     if ((CY_GET_REG32((reg32 *) & CAN_1_TX[txConfig->txmailbox].txcmd) &
 1705              		.loc 1 1038 0
 1706 0026 7B68     		ldr	r3, [r7, #4]
 1707 0028 1B78     		ldrb	r3, [r3]	@ zero_extendqisi2
 1708 002a 1A01     		lsls	r2, r3, #4
 1709 002c 144B     		ldr	r3, .L126
 1710 002e 1344     		add	r3, r3, r2
 1711 0030 1B68     		ldr	r3, [r3]
 1712 0032 144A     		ldr	r2, .L126+4
 1713 0034 1A40     		ands	r2, r2, r3
1039:.\Generated_Source\PSoC5/CAN_1.c ****         CAN_1_TX_READ_BACK_MASK) == (txConfig->txcmd & CAN_1_TX_WPN_CLEAR))
 1714              		.loc 1 1039 0
 1715 0036 7B68     		ldr	r3, [r7, #4]
 1716 0038 5B68     		ldr	r3, [r3, #4]
 1717 003a 23F40003 		bic	r3, r3, #8388608
 1718 003e 23F00803 		bic	r3, r3, #8
1038:.\Generated_Source\PSoC5/CAN_1.c ****     if ((CY_GET_REG32((reg32 *) & CAN_1_TX[txConfig->txmailbox].txcmd) &
 1719              		.loc 1 1038 0
 1720 0042 9A42     		cmp	r2, r3
 1721 0044 15D1     		bne	.L124
1040:.\Generated_Source\PSoC5/CAN_1.c ****     {
1041:.\Generated_Source\PSoC5/CAN_1.c ****         /* Write TX ID Register */
1042:.\Generated_Source\PSoC5/CAN_1.c ****         CY_SET_REG32( (reg32 *) &CAN_1_TX[txConfig->txmailbox].txid, txConfig->txid);
 1722              		.loc 1 1042 0
 1723 0046 7B68     		ldr	r3, [r7, #4]
 1724 0048 1B78     		ldrb	r3, [r3]	@ zero_extendqisi2
 1725 004a 1A01     		lsls	r2, r3, #4
 1726 004c 0C4B     		ldr	r3, .L126
 1727 004e 1344     		add	r3, r3, r2
 1728 0050 0433     		adds	r3, r3, #4
 1729 0052 7A68     		ldr	r2, [r7, #4]
 1730 0054 9268     		ldr	r2, [r2, #8]
 1731 0056 1A60     		str	r2, [r3]
1043:.\Generated_Source\PSoC5/CAN_1.c ****         if (CY_GET_REG32( (reg32 *) &CAN_1_TX[txConfig->txmailbox].txid) == txConfig->txid)
 1732              		.loc 1 1043 0
 1733 0058 7B68     		ldr	r3, [r7, #4]
 1734 005a 1B78     		ldrb	r3, [r3]	@ zero_extendqisi2
 1735 005c 1A01     		lsls	r2, r3, #4
 1736 005e 084B     		ldr	r3, .L126
 1737 0060 1344     		add	r3, r3, r2
 1738 0062 0433     		adds	r3, r3, #4
 1739 0064 1A68     		ldr	r2, [r3]
 1740 0066 7B68     		ldr	r3, [r7, #4]
ARM GAS  C:\Users\khjtony\AppData\Local\Temp\ccDWw2Fb.s 			page 50


 1741 0068 9B68     		ldr	r3, [r3, #8]
 1742 006a 9A42     		cmp	r2, r3
 1743 006c 01D1     		bne	.L124
1044:.\Generated_Source\PSoC5/CAN_1.c ****         {
1045:.\Generated_Source\PSoC5/CAN_1.c ****             result = CYRET_SUCCESS;
 1744              		.loc 1 1045 0
 1745 006e 0023     		movs	r3, #0
 1746 0070 FB73     		strb	r3, [r7, #15]
 1747              	.L124:
1046:.\Generated_Source\PSoC5/CAN_1.c ****         }
1047:.\Generated_Source\PSoC5/CAN_1.c ****     }
1048:.\Generated_Source\PSoC5/CAN_1.c **** 
1049:.\Generated_Source\PSoC5/CAN_1.c ****     return (result);
 1748              		.loc 1 1049 0
 1749 0072 FB7B     		ldrb	r3, [r7, #15]	@ zero_extendqisi2
1050:.\Generated_Source\PSoC5/CAN_1.c **** }
 1750              		.loc 1 1050 0
 1751 0074 1846     		mov	r0, r3
 1752 0076 1437     		adds	r7, r7, #20
 1753 0078 BD46     		mov	sp, r7
 1754              		@ sp needed
 1755 007a 5DF8047B 		ldr	r7, [sp], #4
 1756 007e 7047     		bx	lr
 1757              	.L127:
 1758              		.align	2
 1759              	.L126:
 1760 0080 20A00040 		.word	1073782816
 1761 0084 F7007F00 		.word	8323319
 1762              		.cfi_endproc
 1763              	.LFE20:
 1764              		.size	CAN_1_TxBufConfig, .-CAN_1_TxBufConfig
 1765              		.section	.rodata
 1766              		.align	2
 1767              		.type	CAN_1_TXConfigStruct.4933, %object
 1768              		.size	CAN_1_TXConfigStruct.4933, 96
 1769              	CAN_1_TXConfigStruct.4933:
 1770 0000 00       		.byte	0
 1771 0001 000000   		.space	3
 1772 0004 04000800 		.word	524292
 1773 0008 00002000 		.word	2097152
 1774 000c 01       		.byte	1
 1775 000d 000000   		.space	3
 1776 0010 08008800 		.word	8912904
 1777 0014 00000000 		.word	0
 1778 0018 02       		.byte	2
 1779 0019 000000   		.space	3
 1780 001c 08008800 		.word	8912904
 1781 0020 00000000 		.word	0
 1782 0024 03       		.byte	3
 1783 0025 000000   		.space	3
 1784 0028 08008800 		.word	8912904
 1785 002c 00000000 		.word	0
 1786 0030 04       		.byte	4
 1787 0031 000000   		.space	3
 1788 0034 08008800 		.word	8912904
 1789 0038 00000000 		.word	0
 1790 003c 05       		.byte	5
ARM GAS  C:\Users\khjtony\AppData\Local\Temp\ccDWw2Fb.s 			page 51


 1791 003d 000000   		.space	3
 1792 0040 08008800 		.word	8912904
 1793 0044 00000000 		.word	0
 1794 0048 06       		.byte	6
 1795 0049 000000   		.space	3
 1796 004c 08008800 		.word	8912904
 1797 0050 00000000 		.word	0
 1798 0054 07       		.byte	7
 1799 0055 000000   		.space	3
 1800 0058 08008800 		.word	8912904
 1801 005c 00000000 		.word	0
 1802              		.align	2
 1803              		.type	CAN_1_RXConfigStruct.4932, %object
 1804              		.size	CAN_1_RXConfigStruct.4932, 256
 1805              	CAN_1_RXConfigStruct.4932:
 1806 0060 00       		.byte	0
 1807 0061 000000   		.space	3
 1808 0064 28000000 		.word	40
 1809 0068 F9FF1F00 		.word	2097145
 1810 006c 00000091 		.word	-1862270976
 1811 0070 01       		.byte	1
 1812 0071 000000   		.space	3
 1813 0074 28000000 		.word	40
 1814 0078 F9FF1F00 		.word	2097145
 1815 007c 00000071 		.word	1895825408
 1816 0080 02       		.byte	2
 1817 0081 000000   		.space	3
 1818 0084 28000000 		.word	40
 1819 0088 F9FF1F00 		.word	2097145
 1820 008c 00000031 		.word	822083584
 1821 0090 03       		.byte	3
 1822 0091 000000   		.space	3
 1823 0094 28000000 		.word	40
 1824 0098 F9FF1F00 		.word	2097145
 1825 009c 00006000 		.word	6291456
 1826 00a0 04       		.byte	4
 1827 00a1 000000   		.space	3
 1828 00a4 28000000 		.word	40
 1829 00a8 F9FF1F00 		.word	2097145
 1830 00ac 0000A040 		.word	1084227584
 1831 00b0 05       		.byte	5
 1832 00b1 000000   		.space	3
 1833 00b4 28000000 		.word	40
 1834 00b8 F9FF1F00 		.word	2097145
 1835 00bc 00002000 		.word	2097152
 1836 00c0 06       		.byte	6
 1837 00c1 000000   		.space	3
 1838 00c4 00000000 		.word	0
 1839 00c8 00000000 		.word	0
 1840 00cc 00000000 		.word	0
 1841 00d0 07       		.byte	7
 1842 00d1 000000   		.space	3
 1843 00d4 00000000 		.word	0
 1844 00d8 00000000 		.word	0
 1845 00dc 00000000 		.word	0
 1846 00e0 08       		.byte	8
 1847 00e1 000000   		.space	3
ARM GAS  C:\Users\khjtony\AppData\Local\Temp\ccDWw2Fb.s 			page 52


 1848 00e4 00000000 		.word	0
 1849 00e8 00000000 		.word	0
 1850 00ec 00000000 		.word	0
 1851 00f0 09       		.byte	9
 1852 00f1 000000   		.space	3
 1853 00f4 A8008000 		.word	8388776
 1854 00f8 FFFFFFFF 		.word	-1
 1855 00fc 00000000 		.word	0
 1856 0100 0A       		.byte	10
 1857 0101 000000   		.space	3
 1858 0104 A8008000 		.word	8388776
 1859 0108 FFFFFFFF 		.word	-1
 1860 010c 00000000 		.word	0
 1861 0110 0B       		.byte	11
 1862 0111 000000   		.space	3
 1863 0114 A8008000 		.word	8388776
 1864 0118 FFFFFFFF 		.word	-1
 1865 011c 00000000 		.word	0
 1866 0120 0C       		.byte	12
 1867 0121 000000   		.space	3
 1868 0124 A8008000 		.word	8388776
 1869 0128 FFFFFFFF 		.word	-1
 1870 012c 00000000 		.word	0
 1871 0130 0D       		.byte	13
 1872 0131 000000   		.space	3
 1873 0134 A8008000 		.word	8388776
 1874 0138 FFFFFFFF 		.word	-1
 1875 013c 00000000 		.word	0
 1876 0140 0E       		.byte	14
 1877 0141 000000   		.space	3
 1878 0144 A8008000 		.word	8388776
 1879 0148 FFFFFFFF 		.word	-1
 1880 014c 00000000 		.word	0
 1881 0150 0F       		.byte	15
 1882 0151 000000   		.space	3
 1883 0154 A8008000 		.word	8388776
 1884 0158 FFFFFFFF 		.word	-1
 1885 015c 00000000 		.word	0
 1886              		.text
 1887              	.Letext0:
 1888              		.file 2 ".\\Generated_Source\\PSoC5\\cytypes.h"
 1889              		.file 3 ".\\Generated_Source\\PSoC5\\CAN_1.h"