ARM GAS  C:\Users\khjtony\AppData\Local\Temp\ccDWw2Fb.s 			page 1


   1              		.syntax unified
   2              		.cpu cortex-m3
   3              		.fpu softvfp
   4              		.eabi_attribute 20, 1
   5              		.eabi_attribute 21, 1
   6              		.eabi_attribute 23, 3
   7              		.eabi_attribute 24, 1
   8              		.eabi_attribute 25, 1
   9              		.eabi_attribute 26, 1
  10              		.eabi_attribute 30, 6
  11              		.eabi_attribute 34, 1
  12              		.eabi_attribute 18, 4
  13              		.thumb
  14              		.file	"CAN_1.c"
  15              		.text
  16              	.Ltext0:
  17              		.cfi_sections	.debug_frame
  18              		.global	CAN_1_initVar
  19              		.bss
  20              		.type	CAN_1_initVar, %object
  21              		.size	CAN_1_initVar, 1
  22              	CAN_1_initVar:
  23 0000 00       		.space	1
  24              		.section	.text.CAN_1_Init,"ax",%progbits
  25              		.align	2
  26              		.global	CAN_1_Init
  27              		.thumb
  28              		.thumb_func
  29              		.type	CAN_1_Init, %function
  30              	CAN_1_Init:
  31              	.LFB0:
  32              		.file 1 ".\\Generated_Source\\PSoC5\\CAN_1.c"
   1:.\Generated_Source\PSoC5/CAN_1.c **** /*******************************************************************************
   2:.\Generated_Source\PSoC5/CAN_1.c **** * File Name: CAN_1.c
   3:.\Generated_Source\PSoC5/CAN_1.c **** * Version 2.30
   4:.\Generated_Source\PSoC5/CAN_1.c **** *
   5:.\Generated_Source\PSoC5/CAN_1.c **** * Description:
   6:.\Generated_Source\PSoC5/CAN_1.c **** *  The CAN Component provide functionality of Control Area Network.
   7:.\Generated_Source\PSoC5/CAN_1.c **** *  Two types of mailbox configurations available "Full" and "Basic".
   8:.\Generated_Source\PSoC5/CAN_1.c **** *
   9:.\Generated_Source\PSoC5/CAN_1.c **** * Note:
  10:.\Generated_Source\PSoC5/CAN_1.c **** *  CAN configuration puts as constant to ROM and could change only directly
  11:.\Generated_Source\PSoC5/CAN_1.c **** *  registers write by user.
  12:.\Generated_Source\PSoC5/CAN_1.c **** *
  13:.\Generated_Source\PSoC5/CAN_1.c **** ********************************************************************************
  14:.\Generated_Source\PSoC5/CAN_1.c **** * Copyright 2008-2012, Cypress Semiconductor Corporation.  All rights reserved.
  15:.\Generated_Source\PSoC5/CAN_1.c **** * You may use this file only in accordance with the license, terms, conditions,
  16:.\Generated_Source\PSoC5/CAN_1.c **** * disclaimers, and limitations in the end user license agreement accompanying
  17:.\Generated_Source\PSoC5/CAN_1.c **** * the software package with which this file was provided.
  18:.\Generated_Source\PSoC5/CAN_1.c **** *******************************************************************************/
  19:.\Generated_Source\PSoC5/CAN_1.c **** 
  20:.\Generated_Source\PSoC5/CAN_1.c **** #include "CAN_1.h"
  21:.\Generated_Source\PSoC5/CAN_1.c **** 
  22:.\Generated_Source\PSoC5/CAN_1.c **** uint8 CAN_1_initVar = 0u;
  23:.\Generated_Source\PSoC5/CAN_1.c **** 
  24:.\Generated_Source\PSoC5/CAN_1.c **** 
  25:.\Generated_Source\PSoC5/CAN_1.c **** /*******************************************************************************
ARM GAS  C:\Users\khjtony\AppData\Local\Temp\ccDWw2Fb.s 			page 2


  26:.\Generated_Source\PSoC5/CAN_1.c **** * FUNCTION NAME:   CAN_1_Init
  27:.\Generated_Source\PSoC5/CAN_1.c **** ********************************************************************************
  28:.\Generated_Source\PSoC5/CAN_1.c **** *
  29:.\Generated_Source\PSoC5/CAN_1.c **** * Summary:
  30:.\Generated_Source\PSoC5/CAN_1.c **** *  Inits/Restores default CAN configuration provided with customizer.
  31:.\Generated_Source\PSoC5/CAN_1.c **** *
  32:.\Generated_Source\PSoC5/CAN_1.c **** * Parameters:
  33:.\Generated_Source\PSoC5/CAN_1.c **** *  None.
  34:.\Generated_Source\PSoC5/CAN_1.c **** *
  35:.\Generated_Source\PSoC5/CAN_1.c **** * Return:
  36:.\Generated_Source\PSoC5/CAN_1.c **** *  Indication whether the configuration has been accepted or rejected.
  37:.\Generated_Source\PSoC5/CAN_1.c **** *   Define                             Description
  38:.\Generated_Source\PSoC5/CAN_1.c **** *    CYRET_SUCCESS                      Function passed successfully
  39:.\Generated_Source\PSoC5/CAN_1.c **** *    CAN_1_FAIL              Function failed
  40:.\Generated_Source\PSoC5/CAN_1.c **** *
  41:.\Generated_Source\PSoC5/CAN_1.c **** * Side Effects:
  42:.\Generated_Source\PSoC5/CAN_1.c **** *  All registers will be reset to their initial values. This will re-initialize 
  43:.\Generated_Source\PSoC5/CAN_1.c **** *  the component with the following exceptions - it will not clear data from 
  44:.\Generated_Source\PSoC5/CAN_1.c **** *  the mailboxes.
  45:.\Generated_Source\PSoC5/CAN_1.c **** *  Enable power to the CAN Core.
  46:.\Generated_Source\PSoC5/CAN_1.c **** *
  47:.\Generated_Source\PSoC5/CAN_1.c **** *******************************************************************************/
  48:.\Generated_Source\PSoC5/CAN_1.c **** uint8 CAN_1_Init(void) 
  49:.\Generated_Source\PSoC5/CAN_1.c **** {
  33              		.loc 1 49 0
  34              		.cfi_startproc
  35              		@ args = 0, pretend = 0, frame = 8
  36              		@ frame_needed = 1, uses_anonymous_args = 0
  37 0000 80B5     		push	{r7, lr}
  38              		.cfi_def_cfa_offset 8
  39              		.cfi_offset 7, -8
  40              		.cfi_offset 14, -4
  41 0002 82B0     		sub	sp, sp, #8
  42              		.cfi_def_cfa_offset 16
  43 0004 00AF     		add	r7, sp, #0
  44              		.cfi_def_cfa_register 7
  50:.\Generated_Source\PSoC5/CAN_1.c ****     /* Iniital values of CAN RX and TX registers */
  51:.\Generated_Source\PSoC5/CAN_1.c ****     static const CAN_1_RX_CFG CYCODE CAN_1_RXConfigStruct[] =
  52:.\Generated_Source\PSoC5/CAN_1.c ****     {
  53:.\Generated_Source\PSoC5/CAN_1.c ****         { 0u, 0x28u, 0x1FFFF9u, 0x91000000u },
  54:.\Generated_Source\PSoC5/CAN_1.c ****         { 1u, 0x28u, 0x1FFFF9u, 0x71000000u },
  55:.\Generated_Source\PSoC5/CAN_1.c ****         { 2u, 0x28u, 0x1FFFF9u, 0x31000000u },
  56:.\Generated_Source\PSoC5/CAN_1.c ****         { 3u, 0x28u, 0x1FFFF9u, 0x600000u },
  57:.\Generated_Source\PSoC5/CAN_1.c ****         { 4u, 0x28u, 0x1FFFF9u, 0x40A00000u },
  58:.\Generated_Source\PSoC5/CAN_1.c ****         { 5u, 0x28u, 0x1FFFF9u, 0x200000u },
  59:.\Generated_Source\PSoC5/CAN_1.c ****         { 6u, 0x0u, 0x0u, 0x0u },
  60:.\Generated_Source\PSoC5/CAN_1.c ****         { 7u, 0x0u, 0x0u, 0x0u },
  61:.\Generated_Source\PSoC5/CAN_1.c ****         { 8u, 0x0u, 0x0u, 0x0u },
  62:.\Generated_Source\PSoC5/CAN_1.c ****         { 9u, 0x8000A8u, 0xFFFFFFFFu, 0x0u },
  63:.\Generated_Source\PSoC5/CAN_1.c ****         { 10u, 0x8000A8u, 0xFFFFFFFFu, 0x0u },
  64:.\Generated_Source\PSoC5/CAN_1.c ****         { 11u, 0x8000A8u, 0xFFFFFFFFu, 0x0u },
  65:.\Generated_Source\PSoC5/CAN_1.c ****         { 12u, 0x8000A8u, 0xFFFFFFFFu, 0x0u },
  66:.\Generated_Source\PSoC5/CAN_1.c ****         { 13u, 0x8000A8u, 0xFFFFFFFFu, 0x0u },
  67:.\Generated_Source\PSoC5/CAN_1.c ****         { 14u, 0x8000A8u, 0xFFFFFFFFu, 0x0u },
  68:.\Generated_Source\PSoC5/CAN_1.c ****         { 15u, 0x8000A8u, 0xFFFFFFFFu, 0x0u }
  69:.\Generated_Source\PSoC5/CAN_1.c ****     };
  70:.\Generated_Source\PSoC5/CAN_1.c **** 
ARM GAS  C:\Users\khjtony\AppData\Local\Temp\ccDWw2Fb.s 			page 3


  71:.\Generated_Source\PSoC5/CAN_1.c ****     static const CAN_1_TX_CFG CYCODE CAN_1_TXConfigStruct[] =
  72:.\Generated_Source\PSoC5/CAN_1.c ****     {
  73:.\Generated_Source\PSoC5/CAN_1.c ****         { 0u, 0x80004u, 0x200000u },
  74:.\Generated_Source\PSoC5/CAN_1.c ****         { 1u, 0x880008u, 0x0u },
  75:.\Generated_Source\PSoC5/CAN_1.c ****         { 2u, 0x880008u, 0x0u },
  76:.\Generated_Source\PSoC5/CAN_1.c ****         { 3u, 0x880008u, 0x0u },
  77:.\Generated_Source\PSoC5/CAN_1.c ****         { 4u, 0x880008u, 0x0u },
  78:.\Generated_Source\PSoC5/CAN_1.c ****         { 5u, 0x880008u, 0x0u },
  79:.\Generated_Source\PSoC5/CAN_1.c ****         { 6u, 0x880008u, 0x0u },
  80:.\Generated_Source\PSoC5/CAN_1.c ****         { 7u, 0x880008u, 0x0u }
  81:.\Generated_Source\PSoC5/CAN_1.c ****     };
  82:.\Generated_Source\PSoC5/CAN_1.c ****     
  83:.\Generated_Source\PSoC5/CAN_1.c ****     uint8 i;
  84:.\Generated_Source\PSoC5/CAN_1.c ****     uint8 result = CAN_1_FAIL;
  45              		.loc 1 84 0
  46 0006 0123     		movs	r3, #1
  47 0008 BB71     		strb	r3, [r7, #6]
  85:.\Generated_Source\PSoC5/CAN_1.c ****     uint8 localResult = CAN_1_FAIL;
  48              		.loc 1 85 0
  49 000a 0123     		movs	r3, #1
  50 000c 7B71     		strb	r3, [r7, #5]
  86:.\Generated_Source\PSoC5/CAN_1.c ****     uint8 enableInterrupts;
  87:.\Generated_Source\PSoC5/CAN_1.c ****     
  88:.\Generated_Source\PSoC5/CAN_1.c ****     enableInterrupts = CyEnterCriticalSection();
  51              		.loc 1 88 0
  52 000e FFF7FEFF 		bl	CyEnterCriticalSection
  53 0012 0346     		mov	r3, r0
  54 0014 3B71     		strb	r3, [r7, #4]
  89:.\Generated_Source\PSoC5/CAN_1.c ****     
  90:.\Generated_Source\PSoC5/CAN_1.c ****     /* Enable CAN block in Active mode */
  91:.\Generated_Source\PSoC5/CAN_1.c ****     CAN_1_PM_ACT_CFG_REG |= CAN_1_ACT_PWR_EN;
  55              		.loc 1 91 0
  56 0016 4F4B     		ldr	r3, .L13
  57 0018 4E4A     		ldr	r2, .L13
  58 001a 1278     		ldrb	r2, [r2]
  59 001c D2B2     		uxtb	r2, r2
  60 001e 42F00102 		orr	r2, r2, #1
  61 0022 D2B2     		uxtb	r2, r2
  62 0024 1A70     		strb	r2, [r3]
  92:.\Generated_Source\PSoC5/CAN_1.c ****         
  93:.\Generated_Source\PSoC5/CAN_1.c ****     /* Enable CAN block in Alternate Active (Standby) mode */
  94:.\Generated_Source\PSoC5/CAN_1.c ****     CAN_1_PM_STBY_CFG_REG |= CAN_1_STBY_PWR_EN; 
  63              		.loc 1 94 0
  64 0026 4C4B     		ldr	r3, .L13+4
  65 0028 4B4A     		ldr	r2, .L13+4
  66 002a 1278     		ldrb	r2, [r2]
  67 002c D2B2     		uxtb	r2, r2
  68 002e 42F00102 		orr	r2, r2, #1
  69 0032 D2B2     		uxtb	r2, r2
  70 0034 1A70     		strb	r2, [r3]
  95:.\Generated_Source\PSoC5/CAN_1.c ****     
  96:.\Generated_Source\PSoC5/CAN_1.c ****     CyExitCriticalSection(enableInterrupts);
  71              		.loc 1 96 0
  72 0036 3B79     		ldrb	r3, [r7, #4]	@ zero_extendqisi2
  73 0038 1846     		mov	r0, r3
  74 003a FFF7FEFF 		bl	CyExitCriticalSection
  97:.\Generated_Source\PSoC5/CAN_1.c ****     
ARM GAS  C:\Users\khjtony\AppData\Local\Temp\ccDWw2Fb.s 			page 4


  98:.\Generated_Source\PSoC5/CAN_1.c ****     /* Sets the CAN controller to stop mode */
  99:.\Generated_Source\PSoC5/CAN_1.c ****     CAN_1_CMD_REG.byte[0u] &= (uint8) (~CAN_1_MODE_MASK);
  75              		.loc 1 99 0
  76 003e 474B     		ldr	r3, .L13+8
  77 0040 464A     		ldr	r2, .L13+8
  78 0042 1278     		ldrb	r2, [r2]
  79 0044 D2B2     		uxtb	r2, r2
  80 0046 22F00102 		bic	r2, r2, #1
  81 004a D2B2     		uxtb	r2, r2
  82 004c 1A70     		strb	r2, [r3]
 100:.\Generated_Source\PSoC5/CAN_1.c **** 
 101:.\Generated_Source\PSoC5/CAN_1.c ****     /* Verify that bit is cleared */
 102:.\Generated_Source\PSoC5/CAN_1.c ****     if ((CAN_1_CMD_REG.byte[0u] & CAN_1_MODE_MASK) == 0u)
  83              		.loc 1 102 0
  84 004e 434B     		ldr	r3, .L13+8
  85 0050 1B78     		ldrb	r3, [r3]
  86 0052 DBB2     		uxtb	r3, r3
  87 0054 03F00103 		and	r3, r3, #1
  88 0058 002B     		cmp	r3, #0
  89 005a 75D1     		bne	.L2
 103:.\Generated_Source\PSoC5/CAN_1.c ****     {                
 104:.\Generated_Source\PSoC5/CAN_1.c ****         /* Disable Interrupt. */
 105:.\Generated_Source\PSoC5/CAN_1.c ****         CyIntDisable(CAN_1_ISR_NUMBER);
  90              		.loc 1 105 0
  91 005c 404B     		ldr	r3, .L13+12
  92 005e 4FF48032 		mov	r2, #65536
  93 0062 1A60     		str	r2, [r3]
 106:.\Generated_Source\PSoC5/CAN_1.c ****         
 107:.\Generated_Source\PSoC5/CAN_1.c ****         /* Set the ISR to point to the CAN_1_ISR Interrupt. */
 108:.\Generated_Source\PSoC5/CAN_1.c ****         (void) CyIntSetVector(CAN_1_ISR_NUMBER, & CAN_1_ISR);
  94              		.loc 1 108 0
  95 0064 1020     		movs	r0, #16
  96 0066 3F49     		ldr	r1, .L13+16
  97 0068 FFF7FEFF 		bl	CyIntSetVector
 109:.\Generated_Source\PSoC5/CAN_1.c ****         
 110:.\Generated_Source\PSoC5/CAN_1.c ****         /* Set the priority. */
 111:.\Generated_Source\PSoC5/CAN_1.c ****         CyIntSetPriority(CAN_1_ISR_NUMBER, CAN_1_ISR_PRIORITY);
  98              		.loc 1 111 0
  99 006c 1020     		movs	r0, #16
 100 006e 0721     		movs	r1, #7
 101 0070 FFF7FEFF 		bl	CyIntSetPriority
 112:.\Generated_Source\PSoC5/CAN_1.c **** 
 113:.\Generated_Source\PSoC5/CAN_1.c ****         if (CAN_1_SetPreScaler(CAN_1_BITRATE) == CYRET_SUCCESS)
 102              		.loc 1 113 0
 103 0074 0220     		movs	r0, #2
 104 0076 FFF7FEFF 		bl	CAN_1_SetPreScaler
 105 007a 0346     		mov	r3, r0
 106 007c 002B     		cmp	r3, #0
 107 007e 1CD1     		bne	.L3
 114:.\Generated_Source\PSoC5/CAN_1.c ****         {
 115:.\Generated_Source\PSoC5/CAN_1.c ****             if (CAN_1_SetArbiter(CAN_1_ARBITER) == CYRET_SUCCESS)
 108              		.loc 1 115 0
 109 0080 0120     		movs	r0, #1
 110 0082 FFF7FEFF 		bl	CAN_1_SetArbiter
 111 0086 0346     		mov	r3, r0
 112 0088 002B     		cmp	r3, #0
 113 008a 16D1     		bne	.L3
ARM GAS  C:\Users\khjtony\AppData\Local\Temp\ccDWw2Fb.s 			page 5


 116:.\Generated_Source\PSoC5/CAN_1.c ****             {
 117:.\Generated_Source\PSoC5/CAN_1.c ****                 if (CAN_1_SetTsegSample(CAN_1_CFG_REG_TSEG1, CAN_1_CFG_REG_TSEG2,
 114              		.loc 1 117 0
 115 008c 0A20     		movs	r0, #10
 116 008e 0321     		movs	r1, #3
 117 0090 0022     		movs	r2, #0
 118 0092 0023     		movs	r3, #0
 119 0094 FFF7FEFF 		bl	CAN_1_SetTsegSample
 120 0098 0346     		mov	r3, r0
 121 009a 002B     		cmp	r3, #0
 122 009c 0DD1     		bne	.L3
 118:.\Generated_Source\PSoC5/CAN_1.c ****                     CAN_1_CFG_REG_SJW, CAN_1_SAMPLING_MODE) == CYRET_SUCCESS)
 119:.\Generated_Source\PSoC5/CAN_1.c ****                 {
 120:.\Generated_Source\PSoC5/CAN_1.c ****                     if (CAN_1_SetRestartType(CAN_1_RESET_TYPE) == CYRET_SUCCESS)
 123              		.loc 1 120 0
 124 009e 0120     		movs	r0, #1
 125 00a0 FFF7FEFF 		bl	CAN_1_SetRestartType
 126 00a4 0346     		mov	r3, r0
 127 00a6 002B     		cmp	r3, #0
 128 00a8 07D1     		bne	.L3
 121:.\Generated_Source\PSoC5/CAN_1.c ****                     {
 122:.\Generated_Source\PSoC5/CAN_1.c ****                         if (CAN_1_SetEdgeMode(CAN_1_SYNC_EDGE) == CYRET_SUCCESS)
 129              		.loc 1 122 0
 130 00aa 0020     		movs	r0, #0
 131 00ac FFF7FEFF 		bl	CAN_1_SetEdgeMode
 132 00b0 0346     		mov	r3, r0
 133 00b2 002B     		cmp	r3, #0
 134 00b4 01D1     		bne	.L3
 123:.\Generated_Source\PSoC5/CAN_1.c ****                         {
 124:.\Generated_Source\PSoC5/CAN_1.c ****                             localResult = CYRET_SUCCESS;
 135              		.loc 1 124 0
 136 00b6 0023     		movs	r3, #0
 137 00b8 7B71     		strb	r3, [r7, #5]
 138              	.L3:
 125:.\Generated_Source\PSoC5/CAN_1.c ****                         }
 126:.\Generated_Source\PSoC5/CAN_1.c ****                     }
 127:.\Generated_Source\PSoC5/CAN_1.c ****                 }
 128:.\Generated_Source\PSoC5/CAN_1.c ****             }
 129:.\Generated_Source\PSoC5/CAN_1.c ****         }
 130:.\Generated_Source\PSoC5/CAN_1.c ****         
 131:.\Generated_Source\PSoC5/CAN_1.c ****         if (localResult == CYRET_SUCCESS)
 139              		.loc 1 131 0
 140 00ba 7B79     		ldrb	r3, [r7, #5]	@ zero_extendqisi2
 141 00bc 002B     		cmp	r3, #0
 142 00be 43D1     		bne	.L2
 132:.\Generated_Source\PSoC5/CAN_1.c ****         {
 133:.\Generated_Source\PSoC5/CAN_1.c ****             /* Initialize TX maiboxes */
 134:.\Generated_Source\PSoC5/CAN_1.c ****             for (i = 0u; i < CAN_1_NUMBER_OF_TX_MAILBOXES; i++)
 143              		.loc 1 134 0
 144 00c0 0023     		movs	r3, #0
 145 00c2 FB71     		strb	r3, [r7, #7]
 146 00c4 12E0     		b	.L4
 147              	.L7:
 135:.\Generated_Source\PSoC5/CAN_1.c ****             {
 136:.\Generated_Source\PSoC5/CAN_1.c ****                 if (CAN_1_TxBufConfig((const CAN_1_TX_CFG *)
 137:.\Generated_Source\PSoC5/CAN_1.c ****                     (&CAN_1_TXConfigStruct[i])) != CYRET_SUCCESS)
 148              		.loc 1 137 0
ARM GAS  C:\Users\khjtony\AppData\Local\Temp\ccDWw2Fb.s 			page 6


 149 00c6 FA79     		ldrb	r2, [r7, #7]	@ zero_extendqisi2
 136:.\Generated_Source\PSoC5/CAN_1.c ****                 if (CAN_1_TxBufConfig((const CAN_1_TX_CFG *)
 150              		.loc 1 136 0
 151 00c8 1346     		mov	r3, r2
 152 00ca 5B00     		lsls	r3, r3, #1
 153 00cc 1344     		add	r3, r3, r2
 154 00ce 9B00     		lsls	r3, r3, #2
 155 00d0 254A     		ldr	r2, .L13+20
 156 00d2 1344     		add	r3, r3, r2
 157 00d4 1846     		mov	r0, r3
 158 00d6 FFF7FEFF 		bl	CAN_1_TxBufConfig
 159 00da 0346     		mov	r3, r0
 160 00dc 002B     		cmp	r3, #0
 161 00de 02D0     		beq	.L5
 138:.\Generated_Source\PSoC5/CAN_1.c ****                 {
 139:.\Generated_Source\PSoC5/CAN_1.c ****                     localResult = CAN_1_FAIL;
 162              		.loc 1 139 0
 163 00e0 0123     		movs	r3, #1
 164 00e2 7B71     		strb	r3, [r7, #5]
 140:.\Generated_Source\PSoC5/CAN_1.c ****                     break;
 165              		.loc 1 140 0
 166 00e4 05E0     		b	.L6
 167              	.L5:
 134:.\Generated_Source\PSoC5/CAN_1.c ****             for (i = 0u; i < CAN_1_NUMBER_OF_TX_MAILBOXES; i++)
 168              		.loc 1 134 0
 169 00e6 FB79     		ldrb	r3, [r7, #7]	@ zero_extendqisi2
 170 00e8 0133     		adds	r3, r3, #1
 171 00ea FB71     		strb	r3, [r7, #7]
 172              	.L4:
 134:.\Generated_Source\PSoC5/CAN_1.c ****             for (i = 0u; i < CAN_1_NUMBER_OF_TX_MAILBOXES; i++)
 173              		.loc 1 134 0 is_stmt 0 discriminator 1
 174 00ec FB79     		ldrb	r3, [r7, #7]	@ zero_extendqisi2
 175 00ee 072B     		cmp	r3, #7
 176 00f0 E9D9     		bls	.L7
 177              	.L6:
 141:.\Generated_Source\PSoC5/CAN_1.c ****                 }
 142:.\Generated_Source\PSoC5/CAN_1.c ****             }
 143:.\Generated_Source\PSoC5/CAN_1.c **** 
 144:.\Generated_Source\PSoC5/CAN_1.c ****             if (localResult == CYRET_SUCCESS)
 178              		.loc 1 144 0 is_stmt 1
 179 00f2 7B79     		ldrb	r3, [r7, #5]	@ zero_extendqisi2
 180 00f4 002B     		cmp	r3, #0
 181 00f6 27D1     		bne	.L2
 145:.\Generated_Source\PSoC5/CAN_1.c ****             {
 146:.\Generated_Source\PSoC5/CAN_1.c ****                 /* Initialize RX mailboxes */
 147:.\Generated_Source\PSoC5/CAN_1.c ****                 for (i = 0u; i < CAN_1_NUMBER_OF_RX_MAILBOXES; i++)
 182              		.loc 1 147 0
 183 00f8 0023     		movs	r3, #0
 184 00fa FB71     		strb	r3, [r7, #7]
 185 00fc 0FE0     		b	.L8
 186              	.L11:
 148:.\Generated_Source\PSoC5/CAN_1.c ****                 {
 149:.\Generated_Source\PSoC5/CAN_1.c ****                     if (CAN_1_RxBufConfig((const CAN_1_RX_CFG *)
 150:.\Generated_Source\PSoC5/CAN_1.c ****                         (&CAN_1_RXConfigStruct[i])) != CYRET_SUCCESS)
 187              		.loc 1 150 0
 188 00fe FB79     		ldrb	r3, [r7, #7]	@ zero_extendqisi2
 149:.\Generated_Source\PSoC5/CAN_1.c ****                     if (CAN_1_RxBufConfig((const CAN_1_RX_CFG *)
ARM GAS  C:\Users\khjtony\AppData\Local\Temp\ccDWw2Fb.s 			page 7


 189              		.loc 1 149 0
 190 0100 1A01     		lsls	r2, r3, #4
 191 0102 1A4B     		ldr	r3, .L13+24
 192 0104 1344     		add	r3, r3, r2
 193 0106 1846     		mov	r0, r3
 194 0108 FFF7FEFF 		bl	CAN_1_RxBufConfig
 195 010c 0346     		mov	r3, r0
 196 010e 002B     		cmp	r3, #0
 197 0110 02D0     		beq	.L9
 151:.\Generated_Source\PSoC5/CAN_1.c ****                     {
 152:.\Generated_Source\PSoC5/CAN_1.c ****                         localResult = CAN_1_FAIL;
 198              		.loc 1 152 0
 199 0112 0123     		movs	r3, #1
 200 0114 7B71     		strb	r3, [r7, #5]
 153:.\Generated_Source\PSoC5/CAN_1.c ****                         break;
 201              		.loc 1 153 0
 202 0116 05E0     		b	.L10
 203              	.L9:
 147:.\Generated_Source\PSoC5/CAN_1.c ****                 for (i = 0u; i < CAN_1_NUMBER_OF_RX_MAILBOXES; i++)
 204              		.loc 1 147 0
 205 0118 FB79     		ldrb	r3, [r7, #7]	@ zero_extendqisi2
 206 011a 0133     		adds	r3, r3, #1
 207 011c FB71     		strb	r3, [r7, #7]
 208              	.L8:
 147:.\Generated_Source\PSoC5/CAN_1.c ****                 for (i = 0u; i < CAN_1_NUMBER_OF_RX_MAILBOXES; i++)
 209              		.loc 1 147 0 is_stmt 0 discriminator 1
 210 011e FB79     		ldrb	r3, [r7, #7]	@ zero_extendqisi2
 211 0120 0F2B     		cmp	r3, #15
 212 0122 ECD9     		bls	.L11
 213              	.L10:
 154:.\Generated_Source\PSoC5/CAN_1.c ****                     }
 155:.\Generated_Source\PSoC5/CAN_1.c ****                 }
 156:.\Generated_Source\PSoC5/CAN_1.c **** 
 157:.\Generated_Source\PSoC5/CAN_1.c ****                 if (localResult == CYRET_SUCCESS)
 214              		.loc 1 157 0 is_stmt 1
 215 0124 7B79     		ldrb	r3, [r7, #5]	@ zero_extendqisi2
 216 0126 002B     		cmp	r3, #0
 217 0128 0ED1     		bne	.L2
 158:.\Generated_Source\PSoC5/CAN_1.c ****                 {
 159:.\Generated_Source\PSoC5/CAN_1.c ****                     /* Write IRQ Mask */
 160:.\Generated_Source\PSoC5/CAN_1.c ****                     if (CAN_1_SetIrqMask(CAN_1_INIT_INTERRUPT_MASK) ==
 218              		.loc 1 160 0
 219 012a 41F20100 		movw	r0, #4097
 220 012e FFF7FEFF 		bl	CAN_1_SetIrqMask
 221 0132 0346     		mov	r3, r0
 222 0134 002B     		cmp	r3, #0
 223 0136 07D1     		bne	.L2
 161:.\Generated_Source\PSoC5/CAN_1.c ****                         CYRET_SUCCESS)
 162:.\Generated_Source\PSoC5/CAN_1.c ****                     {
 163:.\Generated_Source\PSoC5/CAN_1.c ****                         /* Active mode always */
 164:.\Generated_Source\PSoC5/CAN_1.c ****                         if (CAN_1_SetOpMode(CAN_1_ACTIVE_MODE) == CYRET_SUCCESS)
 224              		.loc 1 164 0
 225 0138 0020     		movs	r0, #0
 226 013a FFF7FEFF 		bl	CAN_1_SetOpMode
 227 013e 0346     		mov	r3, r0
 228 0140 002B     		cmp	r3, #0
 229 0142 01D1     		bne	.L2
ARM GAS  C:\Users\khjtony\AppData\Local\Temp\ccDWw2Fb.s 			page 8


 165:.\Generated_Source\PSoC5/CAN_1.c ****                         {
 166:.\Generated_Source\PSoC5/CAN_1.c ****                             result = CYRET_SUCCESS;
 230              		.loc 1 166 0
 231 0144 0023     		movs	r3, #0
 232 0146 BB71     		strb	r3, [r7, #6]
 233              	.L2:
 167:.\Generated_Source\PSoC5/CAN_1.c ****                         }
 168:.\Generated_Source\PSoC5/CAN_1.c ****                     }
 169:.\Generated_Source\PSoC5/CAN_1.c ****                 }
 170:.\Generated_Source\PSoC5/CAN_1.c ****             }
 171:.\Generated_Source\PSoC5/CAN_1.c ****         }
 172:.\Generated_Source\PSoC5/CAN_1.c ****                             
 173:.\Generated_Source\PSoC5/CAN_1.c ****     }
 174:.\Generated_Source\PSoC5/CAN_1.c **** 
 175:.\Generated_Source\PSoC5/CAN_1.c ****     return (result);
 234              		.loc 1 175 0
 235 0148 BB79     		ldrb	r3, [r7, #6]	@ zero_extendqisi2
 176:.\Generated_Source\PSoC5/CAN_1.c **** }
 236              		.loc 1 176 0
 237 014a 1846     		mov	r0, r3
 238 014c 0837     		adds	r7, r7, #8
 239 014e BD46     		mov	sp, r7
 240              		@ sp needed
 241 0150 80BD     		pop	{r7, pc}
 242              	.L14:
 243 0152 00BF     		.align	2
 244              	.L13:
 245 0154 A6430040 		.word	1073759142
 246 0158 B6430040 		.word	1073759158
 247 015c 10A00040 		.word	1073782800
 248 0160 80E100E0 		.word	-536813184
 249 0164 00000000 		.word	CAN_1_ISR
 250 0168 00000000 		.word	CAN_1_TXConfigStruct.4933
 251 016c 60000000 		.word	CAN_1_RXConfigStruct.4932
 252              		.cfi_endproc
 253              	.LFE0:
 254              		.size	CAN_1_Init, .-CAN_1_Init
 255              		.section	.text.CAN_1_Enable,"ax",%progbits
 256              		.align	2
 257              		.global	CAN_1_Enable
 258              		.thumb
 259              		.thumb_func
 260              		.type	CAN_1_Enable, %function
 261              	CAN_1_Enable:
 262              	.LFB1:
 177:.\Generated_Source\PSoC5/CAN_1.c **** 
 178:.\Generated_Source\PSoC5/CAN_1.c **** 
 179:.\Generated_Source\PSoC5/CAN_1.c **** /*******************************************************************************
 180:.\Generated_Source\PSoC5/CAN_1.c **** * Function Name: CAN_1_Enable
 181:.\Generated_Source\PSoC5/CAN_1.c **** ********************************************************************************
 182:.\Generated_Source\PSoC5/CAN_1.c **** *
 183:.\Generated_Source\PSoC5/CAN_1.c **** * Summary:   
 184:.\Generated_Source\PSoC5/CAN_1.c **** *  This function enable CAN Component and ISR of CAN Component. 
 185:.\Generated_Source\PSoC5/CAN_1.c **** *
 186:.\Generated_Source\PSoC5/CAN_1.c **** * Parameters:  
 187:.\Generated_Source\PSoC5/CAN_1.c **** *  None.
 188:.\Generated_Source\PSoC5/CAN_1.c **** *
ARM GAS  C:\Users\khjtony\AppData\Local\Temp\ccDWw2Fb.s 			page 9


 189:.\Generated_Source\PSoC5/CAN_1.c **** * Return: 
 190:.\Generated_Source\PSoC5/CAN_1.c **** *  Indication whether register is written and verified.
 191:.\Generated_Source\PSoC5/CAN_1.c **** *   Define                             Description
 192:.\Generated_Source\PSoC5/CAN_1.c **** *    CYRET_SUCCESS                      Function passed successfully
 193:.\Generated_Source\PSoC5/CAN_1.c **** *    CAN_1_FAIL              Function failed
 194:.\Generated_Source\PSoC5/CAN_1.c **** *
 195:.\Generated_Source\PSoC5/CAN_1.c **** *******************************************************************************/
 196:.\Generated_Source\PSoC5/CAN_1.c **** uint8 CAN_1_Enable(void) 
 197:.\Generated_Source\PSoC5/CAN_1.c **** {
 263              		.loc 1 197 0
 264              		.cfi_startproc
 265              		@ args = 0, pretend = 0, frame = 8
 266              		@ frame_needed = 1, uses_anonymous_args = 0
 267 0000 80B5     		push	{r7, lr}
 268              		.cfi_def_cfa_offset 8
 269              		.cfi_offset 7, -8
 270              		.cfi_offset 14, -4
 271 0002 82B0     		sub	sp, sp, #8
 272              		.cfi_def_cfa_offset 16
 273 0004 00AF     		add	r7, sp, #0
 274              		.cfi_def_cfa_register 7
 198:.\Generated_Source\PSoC5/CAN_1.c ****     uint8 result = CAN_1_FAIL;
 275              		.loc 1 198 0
 276 0006 0123     		movs	r3, #1
 277 0008 FB71     		strb	r3, [r7, #7]
 199:.\Generated_Source\PSoC5/CAN_1.c ****     uint8 enableInterrupts;
 200:.\Generated_Source\PSoC5/CAN_1.c ****     
 201:.\Generated_Source\PSoC5/CAN_1.c ****     enableInterrupts = CyEnterCriticalSection();
 278              		.loc 1 201 0
 279 000a FFF7FEFF 		bl	CyEnterCriticalSection
 280 000e 0346     		mov	r3, r0
 281 0010 BB71     		strb	r3, [r7, #6]
 202:.\Generated_Source\PSoC5/CAN_1.c ****     
 203:.\Generated_Source\PSoC5/CAN_1.c ****     /* Enable CAN block in Active mode */
 204:.\Generated_Source\PSoC5/CAN_1.c ****     CAN_1_PM_ACT_CFG_REG |= CAN_1_ACT_PWR_EN;
 282              		.loc 1 204 0
 283 0012 154B     		ldr	r3, .L18
 284 0014 144A     		ldr	r2, .L18
 285 0016 1278     		ldrb	r2, [r2]
 286 0018 D2B2     		uxtb	r2, r2
 287 001a 42F00102 		orr	r2, r2, #1
 288 001e D2B2     		uxtb	r2, r2
 289 0020 1A70     		strb	r2, [r3]
 205:.\Generated_Source\PSoC5/CAN_1.c **** 
 206:.\Generated_Source\PSoC5/CAN_1.c ****     /* Enable CAN block in Alternate Active (Standby) mode */
 207:.\Generated_Source\PSoC5/CAN_1.c ****     CAN_1_PM_STBY_CFG_REG |= CAN_1_STBY_PWR_EN;
 290              		.loc 1 207 0
 291 0022 124B     		ldr	r3, .L18+4
 292 0024 114A     		ldr	r2, .L18+4
 293 0026 1278     		ldrb	r2, [r2]
 294 0028 D2B2     		uxtb	r2, r2
 295 002a 42F00102 		orr	r2, r2, #1
 296 002e D2B2     		uxtb	r2, r2
 297 0030 1A70     		strb	r2, [r3]
 208:.\Generated_Source\PSoC5/CAN_1.c ****     
 209:.\Generated_Source\PSoC5/CAN_1.c ****     CyExitCriticalSection(enableInterrupts);
 298              		.loc 1 209 0
ARM GAS  C:\Users\khjtony\AppData\Local\Temp\ccDWw2Fb.s 			page 10


 299 0032 BB79     		ldrb	r3, [r7, #6]	@ zero_extendqisi2
 300 0034 1846     		mov	r0, r3
 301 0036 FFF7FEFF 		bl	CyExitCriticalSection
 210:.\Generated_Source\PSoC5/CAN_1.c ****     
 211:.\Generated_Source\PSoC5/CAN_1.c ****     /* Enable isr */
 212:.\Generated_Source\PSoC5/CAN_1.c ****     CyIntEnable(CAN_1_ISR_NUMBER);
 302              		.loc 1 212 0
 303 003a 0D4B     		ldr	r3, .L18+8
 304 003c 4FF48032 		mov	r2, #65536
 305 0040 1A60     		str	r2, [r3]
 213:.\Generated_Source\PSoC5/CAN_1.c **** 
 214:.\Generated_Source\PSoC5/CAN_1.c **** 
 215:.\Generated_Source\PSoC5/CAN_1.c ****     /* Sets the CAN controller to run mode */
 216:.\Generated_Source\PSoC5/CAN_1.c ****     CY_SET_REG32(CAN_1_CMD_PTR, (CY_GET_REG32(CAN_1_CMD_PTR) | CAN_1_MODE_MASK));
 306              		.loc 1 216 0
 307 0042 0C4B     		ldr	r3, .L18+12
 308 0044 0B4A     		ldr	r2, .L18+12
 309 0046 1268     		ldr	r2, [r2]
 310 0048 42F00102 		orr	r2, r2, #1
 311 004c 1A60     		str	r2, [r3]
 217:.\Generated_Source\PSoC5/CAN_1.c ****     
 218:.\Generated_Source\PSoC5/CAN_1.c ****     /* Verify that bit is set */
 219:.\Generated_Source\PSoC5/CAN_1.c ****     if (0u != (CY_GET_REG32(CAN_1_CMD_PTR) & CAN_1_MODE_MASK))
 312              		.loc 1 219 0
 313 004e 094B     		ldr	r3, .L18+12
 314 0050 1B68     		ldr	r3, [r3]
 315 0052 03F00103 		and	r3, r3, #1
 316 0056 002B     		cmp	r3, #0
 317 0058 01D0     		beq	.L16
 220:.\Generated_Source\PSoC5/CAN_1.c ****     {
 221:.\Generated_Source\PSoC5/CAN_1.c ****         result = CYRET_SUCCESS;
 318              		.loc 1 221 0
 319 005a 0023     		movs	r3, #0
 320 005c FB71     		strb	r3, [r7, #7]
 321              	.L16:
 222:.\Generated_Source\PSoC5/CAN_1.c ****     }
 223:.\Generated_Source\PSoC5/CAN_1.c ****     
 224:.\Generated_Source\PSoC5/CAN_1.c ****     return (result);
 322              		.loc 1 224 0
 323 005e FB79     		ldrb	r3, [r7, #7]	@ zero_extendqisi2
 225:.\Generated_Source\PSoC5/CAN_1.c **** }
 324              		.loc 1 225 0
 325 0060 1846     		mov	r0, r3
 326 0062 0837     		adds	r7, r7, #8
 327 0064 BD46     		mov	sp, r7
 328              		@ sp needed
 329 0066 80BD     		pop	{r7, pc}
 330              	.L19:
 331              		.align	2
 332              	.L18:
 333 0068 A6430040 		.word	1073759142
 334 006c B6430040 		.word	1073759158
 335 0070 00E100E0 		.word	-536813312
 336 0074 10A00040 		.word	1073782800
 337              		.cfi_endproc
 338              	.LFE1:
 339              		.size	CAN_1_Enable, .-CAN_1_Enable
ARM GAS  C:\Users\khjtony\AppData\Local\Temp\ccDWw2Fb.s 			page 11


 340              		.section	.text.CAN_1_Start,"ax",%progbits
 341              		.align	2
 342              		.global	CAN_1_Start
 343              		.thumb
 344              		.thumb_func
 345              		.type	CAN_1_Start, %function
 346              	CAN_1_Start:
 347              	.LFB2:
 226:.\Generated_Source\PSoC5/CAN_1.c **** 
 227:.\Generated_Source\PSoC5/CAN_1.c **** 
 228:.\Generated_Source\PSoC5/CAN_1.c **** /*******************************************************************************
 229:.\Generated_Source\PSoC5/CAN_1.c **** * FUNCTION NAME:   CAN_1_Start
 230:.\Generated_Source\PSoC5/CAN_1.c **** ********************************************************************************
 231:.\Generated_Source\PSoC5/CAN_1.c **** *
 232:.\Generated_Source\PSoC5/CAN_1.c **** * Summary:
 233:.\Generated_Source\PSoC5/CAN_1.c **** *  This function sets CAN Component into Run mode. Starts the Rate Counter if
 234:.\Generated_Source\PSoC5/CAN_1.c **** *  polling mailboxes available.
 235:.\Generated_Source\PSoC5/CAN_1.c **** *
 236:.\Generated_Source\PSoC5/CAN_1.c **** * Parameters:
 237:.\Generated_Source\PSoC5/CAN_1.c **** *  None. 
 238:.\Generated_Source\PSoC5/CAN_1.c **** *
 239:.\Generated_Source\PSoC5/CAN_1.c **** * Return:
 240:.\Generated_Source\PSoC5/CAN_1.c **** *  Indication whether register is written and verified.
 241:.\Generated_Source\PSoC5/CAN_1.c **** *   Define                             Description
 242:.\Generated_Source\PSoC5/CAN_1.c **** *    CYRET_SUCCESS                      Function passed successfully
 243:.\Generated_Source\PSoC5/CAN_1.c **** *    CAN_1_FAIL              Function failed
 244:.\Generated_Source\PSoC5/CAN_1.c **** *
 245:.\Generated_Source\PSoC5/CAN_1.c **** * Global variables:
 246:.\Generated_Source\PSoC5/CAN_1.c **** *  CAN_1_initVar - used to check initial configuration, modified on
 247:.\Generated_Source\PSoC5/CAN_1.c **** *  first function call.
 248:.\Generated_Source\PSoC5/CAN_1.c **** *
 249:.\Generated_Source\PSoC5/CAN_1.c **** * Reentrant:
 250:.\Generated_Source\PSoC5/CAN_1.c **** *  No.
 251:.\Generated_Source\PSoC5/CAN_1.c **** *
 252:.\Generated_Source\PSoC5/CAN_1.c **** *******************************************************************************/
 253:.\Generated_Source\PSoC5/CAN_1.c **** uint8 CAN_1_Start(void) 
 254:.\Generated_Source\PSoC5/CAN_1.c **** {
 348              		.loc 1 254 0
 349              		.cfi_startproc
 350              		@ args = 0, pretend = 0, frame = 8
 351              		@ frame_needed = 1, uses_anonymous_args = 0
 352 0000 80B5     		push	{r7, lr}
 353              		.cfi_def_cfa_offset 8
 354              		.cfi_offset 7, -8
 355              		.cfi_offset 14, -4
 356 0002 82B0     		sub	sp, sp, #8
 357              		.cfi_def_cfa_offset 16
 358 0004 00AF     		add	r7, sp, #0
 359              		.cfi_def_cfa_register 7
 255:.\Generated_Source\PSoC5/CAN_1.c ****     uint8 result = CYRET_SUCCESS;
 360              		.loc 1 255 0
 361 0006 0023     		movs	r3, #0
 362 0008 FB71     		strb	r3, [r7, #7]
 256:.\Generated_Source\PSoC5/CAN_1.c ****     
 257:.\Generated_Source\PSoC5/CAN_1.c ****     if (CAN_1_initVar == 0u)
 363              		.loc 1 257 0
 364 000a 0B4B     		ldr	r3, .L24
ARM GAS  C:\Users\khjtony\AppData\Local\Temp\ccDWw2Fb.s 			page 12


 365 000c 1B78     		ldrb	r3, [r3]	@ zero_extendqisi2
 366 000e 002B     		cmp	r3, #0
 367 0010 06D1     		bne	.L21
 258:.\Generated_Source\PSoC5/CAN_1.c ****     {
 259:.\Generated_Source\PSoC5/CAN_1.c ****         result = CAN_1_Init();
 368              		.loc 1 259 0
 369 0012 FFF7FEFF 		bl	CAN_1_Init
 370 0016 0346     		mov	r3, r0
 371 0018 FB71     		strb	r3, [r7, #7]
 260:.\Generated_Source\PSoC5/CAN_1.c ****         CAN_1_initVar = 1u;        
 372              		.loc 1 260 0
 373 001a 074B     		ldr	r3, .L24
 374 001c 0122     		movs	r2, #1
 375 001e 1A70     		strb	r2, [r3]
 376              	.L21:
 261:.\Generated_Source\PSoC5/CAN_1.c ****     }
 262:.\Generated_Source\PSoC5/CAN_1.c ****     
 263:.\Generated_Source\PSoC5/CAN_1.c ****     if (result == CYRET_SUCCESS)
 377              		.loc 1 263 0
 378 0020 FB79     		ldrb	r3, [r7, #7]	@ zero_extendqisi2
 379 0022 002B     		cmp	r3, #0
 380 0024 03D1     		bne	.L22
 264:.\Generated_Source\PSoC5/CAN_1.c ****     {
 265:.\Generated_Source\PSoC5/CAN_1.c ****         result = CAN_1_Enable();
 381              		.loc 1 265 0
 382 0026 FFF7FEFF 		bl	CAN_1_Enable
 383 002a 0346     		mov	r3, r0
 384 002c FB71     		strb	r3, [r7, #7]
 385              	.L22:
 266:.\Generated_Source\PSoC5/CAN_1.c ****     }
 267:.\Generated_Source\PSoC5/CAN_1.c **** 
 268:.\Generated_Source\PSoC5/CAN_1.c ****     return (result);
 386              		.loc 1 268 0
 387 002e FB79     		ldrb	r3, [r7, #7]	@ zero_extendqisi2
 269:.\Generated_Source\PSoC5/CAN_1.c **** }
 388              		.loc 1 269 0
 389 0030 1846     		mov	r0, r3
 390 0032 0837     		adds	r7, r7, #8
 391 0034 BD46     		mov	sp, r7
 392              		@ sp needed
 393 0036 80BD     		pop	{r7, pc}
 394              	.L25:
 395              		.align	2
 396              	.L24:
 397 0038 00000000 		.word	CAN_1_initVar
 398              		.cfi_endproc
 399              	.LFE2:
 400              		.size	CAN_1_Start, .-CAN_1_Start
 401              		.section	.text.CAN_1_Stop,"ax",%progbits
 402              		.align	2
 403              		.global	CAN_1_Stop
 404              		.thumb
 405              		.thumb_func
 406              		.type	CAN_1_Stop, %function
 407              	CAN_1_Stop:
 408              	.LFB3:
 270:.\Generated_Source\PSoC5/CAN_1.c **** 
ARM GAS  C:\Users\khjtony\AppData\Local\Temp\ccDWw2Fb.s 			page 13


 271:.\Generated_Source\PSoC5/CAN_1.c **** 
 272:.\Generated_Source\PSoC5/CAN_1.c **** /*******************************************************************************
 273:.\Generated_Source\PSoC5/CAN_1.c **** * FUNCTION NAME:   CAN_1_Stop
 274:.\Generated_Source\PSoC5/CAN_1.c **** ********************************************************************************
 275:.\Generated_Source\PSoC5/CAN_1.c **** *
 276:.\Generated_Source\PSoC5/CAN_1.c **** * Summary:
 277:.\Generated_Source\PSoC5/CAN_1.c **** *  This function sets CAN Component into Stop mode.
 278:.\Generated_Source\PSoC5/CAN_1.c **** *
 279:.\Generated_Source\PSoC5/CAN_1.c **** * Parameters:
 280:.\Generated_Source\PSoC5/CAN_1.c **** *  None.
 281:.\Generated_Source\PSoC5/CAN_1.c **** *
 282:.\Generated_Source\PSoC5/CAN_1.c **** * Return:
 283:.\Generated_Source\PSoC5/CAN_1.c **** *  Indication whether register is written and verified.
 284:.\Generated_Source\PSoC5/CAN_1.c **** *   Define                             Description
 285:.\Generated_Source\PSoC5/CAN_1.c **** *    CYRET_SUCCESS                      Function passed successfully
 286:.\Generated_Source\PSoC5/CAN_1.c **** *    CAN_1_FAIL              Function failed
 287:.\Generated_Source\PSoC5/CAN_1.c **** *
 288:.\Generated_Source\PSoC5/CAN_1.c **** * Side Effects:
 289:.\Generated_Source\PSoC5/CAN_1.c **** *  Disable power to the CAN Core.
 290:.\Generated_Source\PSoC5/CAN_1.c **** *
 291:.\Generated_Source\PSoC5/CAN_1.c **** *******************************************************************************/
 292:.\Generated_Source\PSoC5/CAN_1.c **** uint8 CAN_1_Stop(void) 
 293:.\Generated_Source\PSoC5/CAN_1.c **** {
 409              		.loc 1 293 0
 410              		.cfi_startproc
 411              		@ args = 0, pretend = 0, frame = 8
 412              		@ frame_needed = 1, uses_anonymous_args = 0
 413 0000 80B5     		push	{r7, lr}
 414              		.cfi_def_cfa_offset 8
 415              		.cfi_offset 7, -8
 416              		.cfi_offset 14, -4
 417 0002 82B0     		sub	sp, sp, #8
 418              		.cfi_def_cfa_offset 16
 419 0004 00AF     		add	r7, sp, #0
 420              		.cfi_def_cfa_register 7
 294:.\Generated_Source\PSoC5/CAN_1.c ****     uint8 result = CAN_1_FAIL;
 421              		.loc 1 294 0
 422 0006 0123     		movs	r3, #1
 423 0008 FB71     		strb	r3, [r7, #7]
 295:.\Generated_Source\PSoC5/CAN_1.c ****     uint8 enableInterrupts;        
 296:.\Generated_Source\PSoC5/CAN_1.c ****     
 297:.\Generated_Source\PSoC5/CAN_1.c ****     /* Sets the CAN controller to stop mode */
 298:.\Generated_Source\PSoC5/CAN_1.c ****     CY_SET_REG32(CAN_1_CMD_PTR, (CY_GET_REG32(CAN_1_CMD_PTR) & 
 424              		.loc 1 298 0
 425 000a 174B     		ldr	r3, .L29
 426 000c 164A     		ldr	r2, .L29
 427 000e 1268     		ldr	r2, [r2]
 428 0010 02F0FE02 		and	r2, r2, #254
 429 0014 1A60     		str	r2, [r3]
 299:.\Generated_Source\PSoC5/CAN_1.c ****                                             ((uint8) (~CAN_1_MODE_MASK))));
 300:.\Generated_Source\PSoC5/CAN_1.c **** 
 301:.\Generated_Source\PSoC5/CAN_1.c ****     /* Verify that bit is cleared */
 302:.\Generated_Source\PSoC5/CAN_1.c ****     if (0u == (CY_GET_REG32(CAN_1_CMD_PTR) & CAN_1_MODE_MASK))
 430              		.loc 1 302 0
 431 0016 144B     		ldr	r3, .L29
 432 0018 1B68     		ldr	r3, [r3]
 433 001a 03F00103 		and	r3, r3, #1
ARM GAS  C:\Users\khjtony\AppData\Local\Temp\ccDWw2Fb.s 			page 14


 434 001e 002B     		cmp	r3, #0
 435 0020 01D1     		bne	.L27
 303:.\Generated_Source\PSoC5/CAN_1.c ****     {
 304:.\Generated_Source\PSoC5/CAN_1.c ****         result = CYRET_SUCCESS;
 436              		.loc 1 304 0
 437 0022 0023     		movs	r3, #0
 438 0024 FB71     		strb	r3, [r7, #7]
 439              	.L27:
 305:.\Generated_Source\PSoC5/CAN_1.c ****     }
 306:.\Generated_Source\PSoC5/CAN_1.c ****     
 307:.\Generated_Source\PSoC5/CAN_1.c ****     /* Disable isr */
 308:.\Generated_Source\PSoC5/CAN_1.c ****     CyIntDisable(CAN_1_ISR_NUMBER);
 440              		.loc 1 308 0
 441 0026 114B     		ldr	r3, .L29+4
 442 0028 4FF48032 		mov	r2, #65536
 443 002c 1A60     		str	r2, [r3]
 309:.\Generated_Source\PSoC5/CAN_1.c **** 
 310:.\Generated_Source\PSoC5/CAN_1.c ****     enableInterrupts = CyEnterCriticalSection(); 
 444              		.loc 1 310 0
 445 002e FFF7FEFF 		bl	CyEnterCriticalSection
 446 0032 0346     		mov	r3, r0
 447 0034 BB71     		strb	r3, [r7, #6]
 311:.\Generated_Source\PSoC5/CAN_1.c **** 
 312:.\Generated_Source\PSoC5/CAN_1.c ****     /* Disable CAN block in Active mode */
 313:.\Generated_Source\PSoC5/CAN_1.c ****     CAN_1_PM_ACT_CFG_REG &= (uint8) (~CAN_1_ACT_PWR_EN);
 448              		.loc 1 313 0
 449 0036 0E4B     		ldr	r3, .L29+8
 450 0038 0D4A     		ldr	r2, .L29+8
 451 003a 1278     		ldrb	r2, [r2]
 452 003c D2B2     		uxtb	r2, r2
 453 003e 22F00102 		bic	r2, r2, #1
 454 0042 D2B2     		uxtb	r2, r2
 455 0044 1A70     		strb	r2, [r3]
 314:.\Generated_Source\PSoC5/CAN_1.c **** 
 315:.\Generated_Source\PSoC5/CAN_1.c ****     /* Disable CAN block in Alternate Active (Standby) mode template */
 316:.\Generated_Source\PSoC5/CAN_1.c ****     CAN_1_PM_STBY_CFG_REG &= (uint8) (~CAN_1_STBY_PWR_EN);
 456              		.loc 1 316 0
 457 0046 0B4B     		ldr	r3, .L29+12
 458 0048 0A4A     		ldr	r2, .L29+12
 459 004a 1278     		ldrb	r2, [r2]
 460 004c D2B2     		uxtb	r2, r2
 461 004e 22F00102 		bic	r2, r2, #1
 462 0052 D2B2     		uxtb	r2, r2
 463 0054 1A70     		strb	r2, [r3]
 317:.\Generated_Source\PSoC5/CAN_1.c ****     
 318:.\Generated_Source\PSoC5/CAN_1.c ****     CyExitCriticalSection(enableInterrupts);
 464              		.loc 1 318 0
 465 0056 BB79     		ldrb	r3, [r7, #6]	@ zero_extendqisi2
 466 0058 1846     		mov	r0, r3
 467 005a FFF7FEFF 		bl	CyExitCriticalSection
 319:.\Generated_Source\PSoC5/CAN_1.c **** 
 320:.\Generated_Source\PSoC5/CAN_1.c ****     return (result);
 468              		.loc 1 320 0
 469 005e FB79     		ldrb	r3, [r7, #7]	@ zero_extendqisi2
 321:.\Generated_Source\PSoC5/CAN_1.c **** }
 470              		.loc 1 321 0
 471 0060 1846     		mov	r0, r3
ARM GAS  C:\Users\khjtony\AppData\Local\Temp\ccDWw2Fb.s 			page 15


 472 0062 0837     		adds	r7, r7, #8
 473 0064 BD46     		mov	sp, r7
 474              		@ sp needed
 475 0066 80BD     		pop	{r7, pc}
 476              	.L30:
 477              		.align	2
 478              	.L29:
 479 0068 10A00040 		.word	1073782800
 480 006c 80E100E0 		.word	-536813184
 481 0070 A6430040 		.word	1073759142
 482 0074 B6430040 		.word	1073759158
 483              		.cfi_endproc
 484              	.LFE3:
 485              		.size	CAN_1_Stop, .-CAN_1_Stop
 486              		.section	.text.CAN_1_GlobalIntEnable,"ax",%progbits
 487              		.align	2
 488              		.global	CAN_1_GlobalIntEnable
 489              		.thumb
 490              		.thumb_func
 491              		.type	CAN_1_GlobalIntEnable, %function
 492              	CAN_1_GlobalIntEnable:
 493              	.LFB4:
 322:.\Generated_Source\PSoC5/CAN_1.c **** 
 323:.\Generated_Source\PSoC5/CAN_1.c **** 
 324:.\Generated_Source\PSoC5/CAN_1.c **** /*******************************************************************************
 325:.\Generated_Source\PSoC5/CAN_1.c **** * FUNCTION NAME:   CAN_1_GlobalIntEnable
 326:.\Generated_Source\PSoC5/CAN_1.c **** ********************************************************************************
 327:.\Generated_Source\PSoC5/CAN_1.c **** *
 328:.\Generated_Source\PSoC5/CAN_1.c **** * Summary:
 329:.\Generated_Source\PSoC5/CAN_1.c **** *  This function enables Global Interrupts from CAN Core.
 330:.\Generated_Source\PSoC5/CAN_1.c **** *
 331:.\Generated_Source\PSoC5/CAN_1.c **** * Parameters:
 332:.\Generated_Source\PSoC5/CAN_1.c **** *  None.
 333:.\Generated_Source\PSoC5/CAN_1.c **** *
 334:.\Generated_Source\PSoC5/CAN_1.c **** * Return:
 335:.\Generated_Source\PSoC5/CAN_1.c **** *  Indication whether register is written and verified.
 336:.\Generated_Source\PSoC5/CAN_1.c **** *   Define                             Description
 337:.\Generated_Source\PSoC5/CAN_1.c **** *    CYRET_SUCCESS                      Function passed successfully
 338:.\Generated_Source\PSoC5/CAN_1.c **** *    CAN_1_FAIL              Function failed
 339:.\Generated_Source\PSoC5/CAN_1.c **** *
 340:.\Generated_Source\PSoC5/CAN_1.c **** *******************************************************************************/
 341:.\Generated_Source\PSoC5/CAN_1.c **** uint8 CAN_1_GlobalIntEnable(void) 
 342:.\Generated_Source\PSoC5/CAN_1.c **** {
 494              		.loc 1 342 0
 495              		.cfi_startproc
 496              		@ args = 0, pretend = 0, frame = 8
 497              		@ frame_needed = 1, uses_anonymous_args = 0
 498              		@ link register save eliminated.
 499 0000 80B4     		push	{r7}
 500              		.cfi_def_cfa_offset 4
 501              		.cfi_offset 7, -4
 502 0002 83B0     		sub	sp, sp, #12
 503              		.cfi_def_cfa_offset 16
 504 0004 00AF     		add	r7, sp, #0
 505              		.cfi_def_cfa_register 7
 343:.\Generated_Source\PSoC5/CAN_1.c ****     uint8 result = CAN_1_FAIL;
 506              		.loc 1 343 0
ARM GAS  C:\Users\khjtony\AppData\Local\Temp\ccDWw2Fb.s 			page 16


 507 0006 0123     		movs	r3, #1
 508 0008 FB71     		strb	r3, [r7, #7]
 344:.\Generated_Source\PSoC5/CAN_1.c **** 
 345:.\Generated_Source\PSoC5/CAN_1.c ****     CAN_1_INT_EN_REG.byte[0u] |= CAN_1_GLOBAL_INT_MASK;
 509              		.loc 1 345 0
 510 000a 0C4B     		ldr	r3, .L34
 511 000c 0B4A     		ldr	r2, .L34
 512 000e 1278     		ldrb	r2, [r2]
 513 0010 D2B2     		uxtb	r2, r2
 514 0012 42F00102 		orr	r2, r2, #1
 515 0016 D2B2     		uxtb	r2, r2
 516 0018 1A70     		strb	r2, [r3]
 346:.\Generated_Source\PSoC5/CAN_1.c **** 
 347:.\Generated_Source\PSoC5/CAN_1.c ****     /* Verify that bit is set */
 348:.\Generated_Source\PSoC5/CAN_1.c ****     if ((CAN_1_INT_EN_REG.byte[0u] & CAN_1_GLOBAL_INT_MASK) == CAN_1_GLOBAL_INT_MASK)
 517              		.loc 1 348 0
 518 001a 084B     		ldr	r3, .L34
 519 001c 1B78     		ldrb	r3, [r3]
 520 001e DBB2     		uxtb	r3, r3
 521 0020 03F00103 		and	r3, r3, #1
 522 0024 002B     		cmp	r3, #0
 523 0026 01D0     		beq	.L32
 349:.\Generated_Source\PSoC5/CAN_1.c ****     {
 350:.\Generated_Source\PSoC5/CAN_1.c ****         result = CYRET_SUCCESS;
 524              		.loc 1 350 0
 525 0028 0023     		movs	r3, #0
 526 002a FB71     		strb	r3, [r7, #7]
 527              	.L32:
 351:.\Generated_Source\PSoC5/CAN_1.c ****     }
 352:.\Generated_Source\PSoC5/CAN_1.c **** 
 353:.\Generated_Source\PSoC5/CAN_1.c ****     return (result);
 528              		.loc 1 353 0
 529 002c FB79     		ldrb	r3, [r7, #7]	@ zero_extendqisi2
 354:.\Generated_Source\PSoC5/CAN_1.c **** }
 530              		.loc 1 354 0
 531 002e 1846     		mov	r0, r3
 532 0030 0C37     		adds	r7, r7, #12
 533 0032 BD46     		mov	sp, r7
 534              		@ sp needed
 535 0034 5DF8047B 		ldr	r7, [sp], #4
 536 0038 7047     		bx	lr
 537              	.L35:
 538 003a 00BF     		.align	2
 539              	.L34:
 540 003c 04A00040 		.word	1073782788
 541              		.cfi_endproc
 542              	.LFE4:
 543              		.size	CAN_1_GlobalIntEnable, .-CAN_1_GlobalIntEnable
 544              		.section	.text.CAN_1_GlobalIntDisable,"ax",%progbits
 545              		.align	2
 546              		.global	CAN_1_GlobalIntDisable
 547              		.thumb
 548              		.thumb_func
 549              		.type	CAN_1_GlobalIntDisable, %function
 550              	CAN_1_GlobalIntDisable:
 551              	.LFB5:
 355:.\Generated_Source\PSoC5/CAN_1.c **** 
ARM GAS  C:\Users\khjtony\AppData\Local\Temp\ccDWw2Fb.s 			page 17


 356:.\Generated_Source\PSoC5/CAN_1.c **** 
 357:.\Generated_Source\PSoC5/CAN_1.c **** /*******************************************************************************
 358:.\Generated_Source\PSoC5/CAN_1.c **** * FUNCTION NAME:   CAN_1_GlobalIntDisable
 359:.\Generated_Source\PSoC5/CAN_1.c **** ********************************************************************************
 360:.\Generated_Source\PSoC5/CAN_1.c **** *
 361:.\Generated_Source\PSoC5/CAN_1.c **** * Summary:
 362:.\Generated_Source\PSoC5/CAN_1.c **** *  This function disables Global Interrupts from CAN Core.
 363:.\Generated_Source\PSoC5/CAN_1.c **** *
 364:.\Generated_Source\PSoC5/CAN_1.c **** * Parameters:
 365:.\Generated_Source\PSoC5/CAN_1.c **** *  None.
 366:.\Generated_Source\PSoC5/CAN_1.c **** *
 367:.\Generated_Source\PSoC5/CAN_1.c **** * Return:
 368:.\Generated_Source\PSoC5/CAN_1.c **** *  Indication whether register is written and verified.
 369:.\Generated_Source\PSoC5/CAN_1.c **** *   Define                             Description
 370:.\Generated_Source\PSoC5/CAN_1.c **** *    CYRET_SUCCESS                      Function passed successfully
 371:.\Generated_Source\PSoC5/CAN_1.c **** *    CAN_1_FAIL              Function failed
 372:.\Generated_Source\PSoC5/CAN_1.c **** *
 373:.\Generated_Source\PSoC5/CAN_1.c **** *******************************************************************************/
 374:.\Generated_Source\PSoC5/CAN_1.c **** uint8 CAN_1_GlobalIntDisable(void) 
 375:.\Generated_Source\PSoC5/CAN_1.c **** {
 552              		.loc 1 375 0
 553              		.cfi_startproc
 554              		@ args = 0, pretend = 0, frame = 8
 555              		@ frame_needed = 1, uses_anonymous_args = 0
 556              		@ link register save eliminated.
 557 0000 80B4     		push	{r7}
 558              		.cfi_def_cfa_offset 4
 559              		.cfi_offset 7, -4
 560 0002 83B0     		sub	sp, sp, #12
 561              		.cfi_def_cfa_offset 16
 562 0004 00AF     		add	r7, sp, #0
 563              		.cfi_def_cfa_register 7
 376:.\Generated_Source\PSoC5/CAN_1.c ****     uint8 result = CAN_1_FAIL;
 564              		.loc 1 376 0
 565 0006 0123     		movs	r3, #1
 566 0008 FB71     		strb	r3, [r7, #7]
 377:.\Generated_Source\PSoC5/CAN_1.c **** 
 378:.\Generated_Source\PSoC5/CAN_1.c ****     CAN_1_INT_EN_REG.byte[0u] &= (uint8) (~CAN_1_GLOBAL_INT_MASK);
 567              		.loc 1 378 0
 568 000a 0C4B     		ldr	r3, .L39
 569 000c 0B4A     		ldr	r2, .L39
 570 000e 1278     		ldrb	r2, [r2]
 571 0010 D2B2     		uxtb	r2, r2
 572 0012 22F00102 		bic	r2, r2, #1
 573 0016 D2B2     		uxtb	r2, r2
 574 0018 1A70     		strb	r2, [r3]
 379:.\Generated_Source\PSoC5/CAN_1.c **** 
 380:.\Generated_Source\PSoC5/CAN_1.c ****     /* Verify that bit is cleared */
 381:.\Generated_Source\PSoC5/CAN_1.c ****     if ((CAN_1_INT_EN_REG.byte[0u] & CAN_1_GLOBAL_INT_MASK) == 0u)
 575              		.loc 1 381 0
 576 001a 084B     		ldr	r3, .L39
 577 001c 1B78     		ldrb	r3, [r3]
 578 001e DBB2     		uxtb	r3, r3
 579 0020 03F00103 		and	r3, r3, #1
 580 0024 002B     		cmp	r3, #0
 581 0026 01D1     		bne	.L37
 382:.\Generated_Source\PSoC5/CAN_1.c ****     {
ARM GAS  C:\Users\khjtony\AppData\Local\Temp\ccDWw2Fb.s 			page 18


 383:.\Generated_Source\PSoC5/CAN_1.c ****         result = CYRET_SUCCESS;
 582              		.loc 1 383 0
 583 0028 0023     		movs	r3, #0
 584 002a FB71     		strb	r3, [r7, #7]
 585              	.L37:
 384:.\Generated_Source\PSoC5/CAN_1.c ****     }
 385:.\Generated_Source\PSoC5/CAN_1.c **** 
 386:.\Generated_Source\PSoC5/CAN_1.c ****     return (result);
 586              		.loc 1 386 0
 587 002c FB79     		ldrb	r3, [r7, #7]	@ zero_extendqisi2
 387:.\Generated_Source\PSoC5/CAN_1.c **** }
 588              		.loc 1 387 0
 589 002e 1846     		mov	r0, r3
 590 0030 0C37     		adds	r7, r7, #12
 591 0032 BD46     		mov	sp, r7
 592              		@ sp needed
 593 0034 5DF8047B 		ldr	r7, [sp], #4
 594 0038 7047     		bx	lr
 595              	.L40:
 596 003a 00BF     		.align	2
 597              	.L39:
 598 003c 04A00040 		.word	1073782788
 599              		.cfi_endproc
 600              	.LFE5:
 601              		.size	CAN_1_GlobalIntDisable, .-CAN_1_GlobalIntDisable
 602              		.section	.text.CAN_1_SetPreScaler,"ax",%progbits
 603              		.align	2
 604              		.global	CAN_1_SetPreScaler
 605              		.thumb
 606              		.thumb_func
 607              		.type	CAN_1_SetPreScaler, %function
 608              	CAN_1_SetPreScaler:
 609              	.LFB6:
 388:.\Generated_Source\PSoC5/CAN_1.c **** 
 389:.\Generated_Source\PSoC5/CAN_1.c **** 
 390:.\Generated_Source\PSoC5/CAN_1.c **** /*******************************************************************************
 391:.\Generated_Source\PSoC5/CAN_1.c **** * FUNCTION NAME:   CAN_1_SetPreScaler
 392:.\Generated_Source\PSoC5/CAN_1.c **** ********************************************************************************
 393:.\Generated_Source\PSoC5/CAN_1.c **** *
 394:.\Generated_Source\PSoC5/CAN_1.c **** * Summary:
 395:.\Generated_Source\PSoC5/CAN_1.c **** *  This function sets PreScaler for generation the time quantum which defines
 396:.\Generated_Source\PSoC5/CAN_1.c **** *  the time quanta. Value between 0x0 and 0x7FFF are valid.
 397:.\Generated_Source\PSoC5/CAN_1.c **** *
 398:.\Generated_Source\PSoC5/CAN_1.c **** * Parameters:
 399:.\Generated_Source\PSoC5/CAN_1.c **** *  bitrate: PreScaler value.
 400:.\Generated_Source\PSoC5/CAN_1.c **** *   Value           Description
 401:.\Generated_Source\PSoC5/CAN_1.c **** *    0               One time quantum equals 1 clock cycle
 402:.\Generated_Source\PSoC5/CAN_1.c **** *    1               One time quantum equals 2 clock cycles
 403:.\Generated_Source\PSoC5/CAN_1.c **** *    ...             ...
 404:.\Generated_Source\PSoC5/CAN_1.c **** *    32767           One time quantum equals 32768 clock cycles
 405:.\Generated_Source\PSoC5/CAN_1.c **** *
 406:.\Generated_Source\PSoC5/CAN_1.c **** * Return:
 407:.\Generated_Source\PSoC5/CAN_1.c **** *  Indication whether register is written and verified.
 408:.\Generated_Source\PSoC5/CAN_1.c **** *   Define                             Description
 409:.\Generated_Source\PSoC5/CAN_1.c **** *    CYRET_SUCCESS                      Function passed successfully
 410:.\Generated_Source\PSoC5/CAN_1.c **** *    CAN_1_FAIL              Function failed
 411:.\Generated_Source\PSoC5/CAN_1.c **** *    CAN_1_OUT_OF_RANGE      Function parameter is out of range
ARM GAS  C:\Users\khjtony\AppData\Local\Temp\ccDWw2Fb.s 			page 19


 412:.\Generated_Source\PSoC5/CAN_1.c **** *
 413:.\Generated_Source\PSoC5/CAN_1.c **** *******************************************************************************/
 414:.\Generated_Source\PSoC5/CAN_1.c **** uint8 CAN_1_SetPreScaler(uint16 bitrate) 
 415:.\Generated_Source\PSoC5/CAN_1.c **** {
 610              		.loc 1 415 0
 611              		.cfi_startproc
 612              		@ args = 0, pretend = 0, frame = 16
 613              		@ frame_needed = 1, uses_anonymous_args = 0
 614              		@ link register save eliminated.
 615 0000 80B4     		push	{r7}
 616              		.cfi_def_cfa_offset 4
 617              		.cfi_offset 7, -4
 618 0002 85B0     		sub	sp, sp, #20
 619              		.cfi_def_cfa_offset 24
 620 0004 00AF     		add	r7, sp, #0
 621              		.cfi_def_cfa_register 7
 622 0006 0346     		mov	r3, r0
 623 0008 FB80     		strh	r3, [r7, #6]	@ movhi
 416:.\Generated_Source\PSoC5/CAN_1.c ****     uint8 result = CAN_1_OUT_OF_RANGE;
 624              		.loc 1 416 0
 625 000a 0223     		movs	r3, #2
 626 000c FB73     		strb	r3, [r7, #15]
 417:.\Generated_Source\PSoC5/CAN_1.c **** 
 418:.\Generated_Source\PSoC5/CAN_1.c ****     if (bitrate <= CAN_1_BITRATE_MASK)
 627              		.loc 1 418 0
 628 000e FB88     		ldrh	r3, [r7, #6]
 629 0010 1BB2     		sxth	r3, r3
 630 0012 002B     		cmp	r3, #0
 631 0014 0CDB     		blt	.L42
 419:.\Generated_Source\PSoC5/CAN_1.c ****     {
 420:.\Generated_Source\PSoC5/CAN_1.c ****         result = CAN_1_FAIL;
 632              		.loc 1 420 0
 633 0016 0123     		movs	r3, #1
 634 0018 FB73     		strb	r3, [r7, #15]
 421:.\Generated_Source\PSoC5/CAN_1.c **** 
 422:.\Generated_Source\PSoC5/CAN_1.c ****         /* Set prescaler */
 423:.\Generated_Source\PSoC5/CAN_1.c ****         CY_SET_REG16((reg16 *) &CAN_1_CFG_REG.byte[2u], bitrate);
 635              		.loc 1 423 0
 636 001a 094B     		ldr	r3, .L44
 637 001c FA88     		ldrh	r2, [r7, #6]	@ movhi
 638 001e 1A80     		strh	r2, [r3]	@ movhi
 424:.\Generated_Source\PSoC5/CAN_1.c **** 
 425:.\Generated_Source\PSoC5/CAN_1.c ****         /* Verify that prescaler is set */
 426:.\Generated_Source\PSoC5/CAN_1.c ****         if (CY_GET_REG16((reg16 *) &CAN_1_CFG_REG.byte[2u]) == bitrate)
 639              		.loc 1 426 0
 640 0020 074B     		ldr	r3, .L44
 641 0022 1B88     		ldrh	r3, [r3]	@ movhi
 642 0024 9BB2     		uxth	r3, r3
 643 0026 FA88     		ldrh	r2, [r7, #6]
 644 0028 9A42     		cmp	r2, r3
 645 002a 01D1     		bne	.L42
 427:.\Generated_Source\PSoC5/CAN_1.c ****         {
 428:.\Generated_Source\PSoC5/CAN_1.c ****             result = CYRET_SUCCESS;
 646              		.loc 1 428 0
 647 002c 0023     		movs	r3, #0
 648 002e FB73     		strb	r3, [r7, #15]
 649              	.L42:
ARM GAS  C:\Users\khjtony\AppData\Local\Temp\ccDWw2Fb.s 			page 20


 429:.\Generated_Source\PSoC5/CAN_1.c ****         }
 430:.\Generated_Source\PSoC5/CAN_1.c ****     }
 431:.\Generated_Source\PSoC5/CAN_1.c **** 
 432:.\Generated_Source\PSoC5/CAN_1.c ****     return (result);
 650              		.loc 1 432 0
 651 0030 FB7B     		ldrb	r3, [r7, #15]	@ zero_extendqisi2
 433:.\Generated_Source\PSoC5/CAN_1.c **** }
 652              		.loc 1 433 0
 653 0032 1846     		mov	r0, r3
 654 0034 1437     		adds	r7, r7, #20
 655 0036 BD46     		mov	sp, r7
 656              		@ sp needed
 657 0038 5DF8047B 		ldr	r7, [sp], #4
 658 003c 7047     		bx	lr
 659              	.L45:
 660 003e 00BF     		.align	2
 661              	.L44:
 662 0040 16A00040 		.word	1073782806
 663              		.cfi_endproc
 664              	.LFE6:
 665              		.size	CAN_1_SetPreScaler, .-CAN_1_SetPreScaler
 666              		.section	.text.CAN_1_SetArbiter,"ax",%progbits
 667              		.align	2
 668              		.global	CAN_1_SetArbiter
 669              		.thumb
 670              		.thumb_func
 671              		.type	CAN_1_SetArbiter, %function
 672              	CAN_1_SetArbiter:
 673              	.LFB7:
 434:.\Generated_Source\PSoC5/CAN_1.c **** 
 435:.\Generated_Source\PSoC5/CAN_1.c **** 
 436:.\Generated_Source\PSoC5/CAN_1.c **** /*******************************************************************************
 437:.\Generated_Source\PSoC5/CAN_1.c **** * FUNCTION NAME:   CAN_1_SetArbiter
 438:.\Generated_Source\PSoC5/CAN_1.c **** ********************************************************************************
 439:.\Generated_Source\PSoC5/CAN_1.c **** *
 440:.\Generated_Source\PSoC5/CAN_1.c **** * Summary:
 441:.\Generated_Source\PSoC5/CAN_1.c **** *  This function sets arbitration type for transmit mailboxes. Types of
 442:.\Generated_Source\PSoC5/CAN_1.c **** *  arbiters are Round Robin and Fixed priority. Value 0 and 1 are valid.
 443:.\Generated_Source\PSoC5/CAN_1.c **** *
 444:.\Generated_Source\PSoC5/CAN_1.c **** * Parameters:
 445:.\Generated_Source\PSoC5/CAN_1.c **** *  arbiter: Arbitaration type for transmit mailboxes.
 446:.\Generated_Source\PSoC5/CAN_1.c **** *   Value                              Description
 447:.\Generated_Source\PSoC5/CAN_1.c **** *    CAN_1_ROUND_ROBIN       Round robin arbitration
 448:.\Generated_Source\PSoC5/CAN_1.c **** *    CAN_1_FIXED_PRIORITY    Fixed priority arbitration.
 449:.\Generated_Source\PSoC5/CAN_1.c **** *
 450:.\Generated_Source\PSoC5/CAN_1.c **** * Return:
 451:.\Generated_Source\PSoC5/CAN_1.c **** *  Indication whether register is written and verified.
 452:.\Generated_Source\PSoC5/CAN_1.c **** *   Define                             Description
 453:.\Generated_Source\PSoC5/CAN_1.c **** *    CYRET_SUCCESS                      Function passed successfully
 454:.\Generated_Source\PSoC5/CAN_1.c **** *    CAN_1_FAIL              Function failed
 455:.\Generated_Source\PSoC5/CAN_1.c **** *
 456:.\Generated_Source\PSoC5/CAN_1.c **** *******************************************************************************/
 457:.\Generated_Source\PSoC5/CAN_1.c **** uint8 CAN_1_SetArbiter(uint8 arbiter) 
 458:.\Generated_Source\PSoC5/CAN_1.c **** {
 674              		.loc 1 458 0
 675              		.cfi_startproc
 676              		@ args = 0, pretend = 0, frame = 16
ARM GAS  C:\Users\khjtony\AppData\Local\Temp\ccDWw2Fb.s 			page 21


 677              		@ frame_needed = 1, uses_anonymous_args = 0
 678              		@ link register save eliminated.
 679 0000 80B4     		push	{r7}
 680              		.cfi_def_cfa_offset 4
 681              		.cfi_offset 7, -4
 682 0002 85B0     		sub	sp, sp, #20
 683              		.cfi_def_cfa_offset 24
 684 0004 00AF     		add	r7, sp, #0
 685              		.cfi_def_cfa_register 7
 686 0006 0346     		mov	r3, r0
 687 0008 FB71     		strb	r3, [r7, #7]
 459:.\Generated_Source\PSoC5/CAN_1.c ****     uint8 result = CAN_1_FAIL;
 688              		.loc 1 459 0
 689 000a 0123     		movs	r3, #1
 690 000c FB73     		strb	r3, [r7, #15]
 460:.\Generated_Source\PSoC5/CAN_1.c **** 
 461:.\Generated_Source\PSoC5/CAN_1.c ****     if (arbiter == CAN_1_ROUND_ROBIN)
 691              		.loc 1 461 0
 692 000e FB79     		ldrb	r3, [r7, #7]	@ zero_extendqisi2
 693 0010 002B     		cmp	r3, #0
 694 0012 11D1     		bne	.L47
 462:.\Generated_Source\PSoC5/CAN_1.c ****     {
 463:.\Generated_Source\PSoC5/CAN_1.c ****         CAN_1_CFG_REG.byte[1u] &= (uint8) (~CAN_1_ARBITRATION_MASK);    /* Round Robin */
 695              		.loc 1 463 0
 696 0014 144B     		ldr	r3, .L51
 697 0016 144A     		ldr	r2, .L51
 698 0018 5278     		ldrb	r2, [r2, #1]
 699 001a D2B2     		uxtb	r2, r2
 700 001c 22F01002 		bic	r2, r2, #16
 701 0020 D2B2     		uxtb	r2, r2
 702 0022 5A70     		strb	r2, [r3, #1]
 464:.\Generated_Source\PSoC5/CAN_1.c **** 
 465:.\Generated_Source\PSoC5/CAN_1.c ****         /* Verify that bit is cleared */
 466:.\Generated_Source\PSoC5/CAN_1.c ****         if ((CAN_1_CFG_REG.byte[1u] & CAN_1_ARBITRATION_MASK) == 0u)
 703              		.loc 1 466 0
 704 0024 104B     		ldr	r3, .L51
 705 0026 5B78     		ldrb	r3, [r3, #1]
 706 0028 DBB2     		uxtb	r3, r3
 707 002a 03F01003 		and	r3, r3, #16
 708 002e 002B     		cmp	r3, #0
 709 0030 13D1     		bne	.L49
 467:.\Generated_Source\PSoC5/CAN_1.c ****         {
 468:.\Generated_Source\PSoC5/CAN_1.c ****             result = CYRET_SUCCESS;
 710              		.loc 1 468 0
 711 0032 0023     		movs	r3, #0
 712 0034 FB73     		strb	r3, [r7, #15]
 713 0036 10E0     		b	.L49
 714              	.L47:
 469:.\Generated_Source\PSoC5/CAN_1.c ****         }        
 470:.\Generated_Source\PSoC5/CAN_1.c ****     }
 471:.\Generated_Source\PSoC5/CAN_1.c ****     else
 472:.\Generated_Source\PSoC5/CAN_1.c ****     {
 473:.\Generated_Source\PSoC5/CAN_1.c ****         CAN_1_CFG_REG.byte[1u] |= CAN_1_ARBITRATION_MASK;    /* Fixed priority */
 715              		.loc 1 473 0
 716 0038 0B4B     		ldr	r3, .L51
 717 003a 0B4A     		ldr	r2, .L51
 718 003c 5278     		ldrb	r2, [r2, #1]
ARM GAS  C:\Users\khjtony\AppData\Local\Temp\ccDWw2Fb.s 			page 22


 719 003e D2B2     		uxtb	r2, r2
 720 0040 42F01002 		orr	r2, r2, #16
 721 0044 D2B2     		uxtb	r2, r2
 722 0046 5A70     		strb	r2, [r3, #1]
 474:.\Generated_Source\PSoC5/CAN_1.c **** 
 475:.\Generated_Source\PSoC5/CAN_1.c ****         /* Verify that bit is set */
 476:.\Generated_Source\PSoC5/CAN_1.c ****         if ((CAN_1_CFG_REG.byte[1u] & CAN_1_ARBITRATION_MASK) ==
 723              		.loc 1 476 0
 724 0048 074B     		ldr	r3, .L51
 725 004a 5B78     		ldrb	r3, [r3, #1]
 726 004c DBB2     		uxtb	r3, r3
 727 004e 03F01003 		and	r3, r3, #16
 728 0052 002B     		cmp	r3, #0
 729 0054 01D0     		beq	.L49
 477:.\Generated_Source\PSoC5/CAN_1.c ****             CAN_1_ARBITRATION_MASK)
 478:.\Generated_Source\PSoC5/CAN_1.c ****         {
 479:.\Generated_Source\PSoC5/CAN_1.c ****             result = CYRET_SUCCESS;
 730              		.loc 1 479 0
 731 0056 0023     		movs	r3, #0
 732 0058 FB73     		strb	r3, [r7, #15]
 733              	.L49:
 480:.\Generated_Source\PSoC5/CAN_1.c ****         }
 481:.\Generated_Source\PSoC5/CAN_1.c ****     }
 482:.\Generated_Source\PSoC5/CAN_1.c **** 
 483:.\Generated_Source\PSoC5/CAN_1.c ****     return (result);
 734              		.loc 1 483 0
 735 005a FB7B     		ldrb	r3, [r7, #15]	@ zero_extendqisi2
 484:.\Generated_Source\PSoC5/CAN_1.c **** }
 736              		.loc 1 484 0
 737 005c 1846     		mov	r0, r3
 738 005e 1437     		adds	r7, r7, #20
 739 0060 BD46     		mov	sp, r7
 740              		@ sp needed
 741 0062 5DF8047B 		ldr	r7, [sp], #4
 742 0066 7047     		bx	lr
 743              	.L52:
 744              		.align	2
 745              	.L51:
 746 0068 14A00040 		.word	1073782804
 747              		.cfi_endproc
 748              	.LFE7:
 749              		.size	CAN_1_SetArbiter, .-CAN_1_SetArbiter
 750              		.section	.text.CAN_1_SetTsegSample,"ax",%progbits
 751              		.align	2
 752              		.global	CAN_1_SetTsegSample
 753              		.thumb
 754              		.thumb_func
 755              		.type	CAN_1_SetTsegSample, %function
 756              	CAN_1_SetTsegSample:
 757              	.LFB8:
 485:.\Generated_Source\PSoC5/CAN_1.c **** 
 486:.\Generated_Source\PSoC5/CAN_1.c **** 
 487:.\Generated_Source\PSoC5/CAN_1.c **** /*******************************************************************************
 488:.\Generated_Source\PSoC5/CAN_1.c **** * FUNCTION NAME: CAN_1_SetTsegSample
 489:.\Generated_Source\PSoC5/CAN_1.c **** ********************************************************************************
 490:.\Generated_Source\PSoC5/CAN_1.c **** *
 491:.\Generated_Source\PSoC5/CAN_1.c **** * Summary:
ARM GAS  C:\Users\khjtony\AppData\Local\Temp\ccDWw2Fb.s 			page 23


 492:.\Generated_Source\PSoC5/CAN_1.c **** *  This function configures: Time segment 1, Time segment 2, Sampling Mode
 493:.\Generated_Source\PSoC5/CAN_1.c **** *  and Synchronization Jump Width.
 494:.\Generated_Source\PSoC5/CAN_1.c **** *
 495:.\Generated_Source\PSoC5/CAN_1.c **** * Parameters:
 496:.\Generated_Source\PSoC5/CAN_1.c **** *  cfgTseg1: Length of time segment 1, value between 0x2 and 0xF are valid;
 497:.\Generated_Source\PSoC5/CAN_1.c **** *  cfgTseg2: Length of time segment 2, value between 0x1 and 0x7 are valid;
 498:.\Generated_Source\PSoC5/CAN_1.c **** *  sjw: Synchronization Jump Width, value between 0x0 and 0x3 are valid;
 499:.\Generated_Source\PSoC5/CAN_1.c **** *  sm: Sampling Mode.
 500:.\Generated_Source\PSoC5/CAN_1.c **** *   Define                               Description
 501:.\Generated_Source\PSoC5/CAN_1.c **** *   CAN_1_ONE_SAMPLE_POINT     one sampling points is used
 502:.\Generated_Source\PSoC5/CAN_1.c **** *   CAN_1_THREE_SAMPLE_POINTS  three sampling points are used
 503:.\Generated_Source\PSoC5/CAN_1.c **** *
 504:.\Generated_Source\PSoC5/CAN_1.c **** * Return:
 505:.\Generated_Source\PSoC5/CAN_1.c **** *  Indication whether register is written and verified.
 506:.\Generated_Source\PSoC5/CAN_1.c **** *   Define                             Description
 507:.\Generated_Source\PSoC5/CAN_1.c **** *    CYRET_SUCCESS                      Function passed successfully
 508:.\Generated_Source\PSoC5/CAN_1.c **** *    CAN_1_FAIL              Function failed
 509:.\Generated_Source\PSoC5/CAN_1.c **** *    CAN_1_OUT_OF_RANGE      Function parameter is out of range
 510:.\Generated_Source\PSoC5/CAN_1.c **** *
 511:.\Generated_Source\PSoC5/CAN_1.c **** *******************************************************************************/
 512:.\Generated_Source\PSoC5/CAN_1.c **** uint8 CAN_1_SetTsegSample(uint8 cfgTseg1, uint8 cfgTseg2, uint8 sjw, uint8 sm)
 513:.\Generated_Source\PSoC5/CAN_1.c ****                                      
 514:.\Generated_Source\PSoC5/CAN_1.c **** {
 758              		.loc 1 514 0
 759              		.cfi_startproc
 760              		@ args = 0, pretend = 0, frame = 16
 761              		@ frame_needed = 1, uses_anonymous_args = 0
 762              		@ link register save eliminated.
 763 0000 80B4     		push	{r7}
 764              		.cfi_def_cfa_offset 4
 765              		.cfi_offset 7, -4
 766 0002 85B0     		sub	sp, sp, #20
 767              		.cfi_def_cfa_offset 24
 768 0004 00AF     		add	r7, sp, #0
 769              		.cfi_def_cfa_register 7
 770 0006 F871     		strb	r0, [r7, #7]
 771 0008 B971     		strb	r1, [r7, #6]
 772 000a 7A71     		strb	r2, [r7, #5]
 773 000c 3B71     		strb	r3, [r7, #4]
 515:.\Generated_Source\PSoC5/CAN_1.c ****     uint8 result = CAN_1_OUT_OF_RANGE;
 774              		.loc 1 515 0
 775 000e 0223     		movs	r3, #2
 776 0010 FB73     		strb	r3, [r7, #15]
 516:.\Generated_Source\PSoC5/CAN_1.c ****     uint8 cfgTemp;
 517:.\Generated_Source\PSoC5/CAN_1.c **** 
 518:.\Generated_Source\PSoC5/CAN_1.c ****     if ((cfgTseg1 >= CAN_1_CFG_REG_TSEG1_LOWER_LIMIT) && (cfgTseg1 <=
 777              		.loc 1 518 0
 778 0012 FB79     		ldrb	r3, [r7, #7]	@ zero_extendqisi2
 779 0014 012B     		cmp	r3, #1
 780 0016 4CD9     		bls	.L54
 781              		.loc 1 518 0 is_stmt 0 discriminator 1
 782 0018 FB79     		ldrb	r3, [r7, #7]	@ zero_extendqisi2
 783 001a 0F2B     		cmp	r3, #15
 784 001c 49D8     		bhi	.L54
 519:.\Generated_Source\PSoC5/CAN_1.c ****          CAN_1_CFG_REG_TSEG1_UPPER_LIMIT))
 520:.\Generated_Source\PSoC5/CAN_1.c ****     {
 521:.\Generated_Source\PSoC5/CAN_1.c ****         if (((cfgTseg2 >= CAN_1_CFG_REG_TSEG2_LOWER_LIMIT) &&
ARM GAS  C:\Users\khjtony\AppData\Local\Temp\ccDWw2Fb.s 			page 24


 785              		.loc 1 521 0 is_stmt 1
 786 001e BB79     		ldrb	r3, [r7, #6]	@ zero_extendqisi2
 787 0020 012B     		cmp	r3, #1
 788 0022 02D9     		bls	.L55
 789              		.loc 1 521 0 is_stmt 0 discriminator 1
 790 0024 BB79     		ldrb	r3, [r7, #6]	@ zero_extendqisi2
 791 0026 072B     		cmp	r3, #7
 792 0028 05D9     		bls	.L56
 793              	.L55:
 522:.\Generated_Source\PSoC5/CAN_1.c ****              (cfgTseg2 <= CAN_1_CFG_REG_TSEG2_UPPER_LIMIT)) || ((sm == CAN_1_ONE_SAMPLE_POINT) &&
 794              		.loc 1 522 0 is_stmt 1
 795 002a 3B79     		ldrb	r3, [r7, #4]	@ zero_extendqisi2
 796 002c 002B     		cmp	r3, #0
 797 002e 40D1     		bne	.L54
 798              		.loc 1 522 0 is_stmt 0 discriminator 1
 799 0030 BB79     		ldrb	r3, [r7, #6]	@ zero_extendqisi2
 800 0032 012B     		cmp	r3, #1
 801 0034 3DD1     		bne	.L54
 802              	.L56:
 523:.\Generated_Source\PSoC5/CAN_1.c ****              (cfgTseg2 == CAN_1_CFG_REG_TSEG2_EXCEPTION)))
 524:.\Generated_Source\PSoC5/CAN_1.c ****         {
 525:.\Generated_Source\PSoC5/CAN_1.c ****             if ((sjw <= CAN_1_CFG_REG_SJW_LOWER_LIMIT) && (sjw <= cfgTseg1) && (sjw <= cfgTseg2))
 803              		.loc 1 525 0 is_stmt 1
 804 0036 7B79     		ldrb	r3, [r7, #5]	@ zero_extendqisi2
 805 0038 032B     		cmp	r3, #3
 806 003a 3AD8     		bhi	.L54
 807              		.loc 1 525 0 is_stmt 0 discriminator 1
 808 003c 7A79     		ldrb	r2, [r7, #5]	@ zero_extendqisi2
 809 003e FB79     		ldrb	r3, [r7, #7]	@ zero_extendqisi2
 810 0040 9A42     		cmp	r2, r3
 811 0042 36D8     		bhi	.L54
 812 0044 7A79     		ldrb	r2, [r7, #5]	@ zero_extendqisi2
 813 0046 BB79     		ldrb	r3, [r7, #6]	@ zero_extendqisi2
 814 0048 9A42     		cmp	r2, r3
 815 004a 32D8     		bhi	.L54
 526:.\Generated_Source\PSoC5/CAN_1.c ****             {
 527:.\Generated_Source\PSoC5/CAN_1.c ****                 result = CAN_1_FAIL;
 816              		.loc 1 527 0 is_stmt 1
 817 004c 0123     		movs	r3, #1
 818 004e FB73     		strb	r3, [r7, #15]
 528:.\Generated_Source\PSoC5/CAN_1.c **** 
 529:.\Generated_Source\PSoC5/CAN_1.c ****                 cfgTemp = CAN_1_CFG_REG.byte[1];
 819              		.loc 1 529 0
 820 0050 1B4B     		ldr	r3, .L59
 821 0052 5B78     		ldrb	r3, [r3, #1]
 822 0054 BB73     		strb	r3, [r7, #14]
 530:.\Generated_Source\PSoC5/CAN_1.c ****                 cfgTemp &= (uint8) (~CAN_1_CFG_REG_TSEG1_MASK);
 823              		.loc 1 530 0
 824 0056 BB7B     		ldrb	r3, [r7, #14]
 825 0058 23F00F03 		bic	r3, r3, #15
 826 005c BB73     		strb	r3, [r7, #14]
 531:.\Generated_Source\PSoC5/CAN_1.c ****                 cfgTemp |= cfgTseg1;
 827              		.loc 1 531 0
 828 005e BA7B     		ldrb	r2, [r7, #14]
 829 0060 FB79     		ldrb	r3, [r7, #7]
 830 0062 1343     		orrs	r3, r3, r2
 831 0064 BB73     		strb	r3, [r7, #14]
ARM GAS  C:\Users\khjtony\AppData\Local\Temp\ccDWw2Fb.s 			page 25


 532:.\Generated_Source\PSoC5/CAN_1.c **** 
 533:.\Generated_Source\PSoC5/CAN_1.c ****                 /* write register byte 1 */
 534:.\Generated_Source\PSoC5/CAN_1.c ****                 CAN_1_CFG_REG.byte[1u] = cfgTemp;
 832              		.loc 1 534 0
 833 0066 164B     		ldr	r3, .L59
 834 0068 BA7B     		ldrb	r2, [r7, #14]
 835 006a 5A70     		strb	r2, [r3, #1]
 535:.\Generated_Source\PSoC5/CAN_1.c **** 
 536:.\Generated_Source\PSoC5/CAN_1.c ****                 /* Verify 2nd byte of CAN_1_CFG_REG register */
 537:.\Generated_Source\PSoC5/CAN_1.c ****                 if (CAN_1_CFG_REG.byte[1u] == cfgTemp)
 836              		.loc 1 537 0
 837 006c 144B     		ldr	r3, .L59
 838 006e 5B78     		ldrb	r3, [r3, #1]
 839 0070 DBB2     		uxtb	r3, r3
 840 0072 BA7B     		ldrb	r2, [r7, #14]	@ zero_extendqisi2
 841 0074 9A42     		cmp	r2, r3
 842 0076 1CD1     		bne	.L54
 538:.\Generated_Source\PSoC5/CAN_1.c ****                 {
 539:.\Generated_Source\PSoC5/CAN_1.c ****                     cfgTemp = 0u;
 843              		.loc 1 539 0
 844 0078 0023     		movs	r3, #0
 845 007a BB73     		strb	r3, [r7, #14]
 540:.\Generated_Source\PSoC5/CAN_1.c ****                     /* Set appropriate bits */
 541:.\Generated_Source\PSoC5/CAN_1.c ****                     if (sm != CAN_1_ONE_SAMPLE_POINT)
 846              		.loc 1 541 0
 847 007c 3B79     		ldrb	r3, [r7, #4]	@ zero_extendqisi2
 848 007e 002B     		cmp	r3, #0
 849 0080 01D0     		beq	.L57
 542:.\Generated_Source\PSoC5/CAN_1.c ****                     {
 543:.\Generated_Source\PSoC5/CAN_1.c ****                         cfgTemp = CAN_1_SAMPLE_MODE_MASK;
 850              		.loc 1 543 0
 851 0082 0223     		movs	r3, #2
 852 0084 BB73     		strb	r3, [r7, #14]
 853              	.L57:
 544:.\Generated_Source\PSoC5/CAN_1.c ****                     }
 545:.\Generated_Source\PSoC5/CAN_1.c ****                     cfgTemp |= ((uint8) (cfgTseg2 << CAN_1_CFG_REG_TSEG2_SHIFT)) |
 854              		.loc 1 545 0
 855 0086 BB79     		ldrb	r3, [r7, #6]
 856 0088 5B01     		lsls	r3, r3, #5
 857 008a DAB2     		uxtb	r2, r3
 546:.\Generated_Source\PSoC5/CAN_1.c ****                                ((uint8) (sjw << CAN_1_CFG_REG_SJW_SHIFT));
 858              		.loc 1 546 0
 859 008c 7B79     		ldrb	r3, [r7, #5]
 860 008e 9B00     		lsls	r3, r3, #2
 861 0090 DBB2     		uxtb	r3, r3
 545:.\Generated_Source\PSoC5/CAN_1.c ****                     cfgTemp |= ((uint8) (cfgTseg2 << CAN_1_CFG_REG_TSEG2_SHIFT)) |
 862              		.loc 1 545 0
 863 0092 1343     		orrs	r3, r3, r2
 864 0094 DAB2     		uxtb	r2, r3
 865 0096 BB7B     		ldrb	r3, [r7, #14]
 866 0098 1343     		orrs	r3, r3, r2
 867 009a BB73     		strb	r3, [r7, #14]
 547:.\Generated_Source\PSoC5/CAN_1.c **** 
 548:.\Generated_Source\PSoC5/CAN_1.c ****                     /* write register byte 0 */
 549:.\Generated_Source\PSoC5/CAN_1.c ****                     CAN_1_CFG_REG.byte[0u] = cfgTemp;
 868              		.loc 1 549 0
 869 009c 084B     		ldr	r3, .L59
ARM GAS  C:\Users\khjtony\AppData\Local\Temp\ccDWw2Fb.s 			page 26


 870 009e BA7B     		ldrb	r2, [r7, #14]
 871 00a0 1A70     		strb	r2, [r3]
 550:.\Generated_Source\PSoC5/CAN_1.c **** 
 551:.\Generated_Source\PSoC5/CAN_1.c ****                     /* Verify 1st byte of CAN_1_CFG_REG register */
 552:.\Generated_Source\PSoC5/CAN_1.c ****                     if (CAN_1_CFG_REG.byte[0u] == cfgTemp)
 872              		.loc 1 552 0
 873 00a2 074B     		ldr	r3, .L59
 874 00a4 1B78     		ldrb	r3, [r3]
 875 00a6 DBB2     		uxtb	r3, r3
 876 00a8 BA7B     		ldrb	r2, [r7, #14]	@ zero_extendqisi2
 877 00aa 9A42     		cmp	r2, r3
 878 00ac 01D1     		bne	.L54
 553:.\Generated_Source\PSoC5/CAN_1.c ****                     {
 554:.\Generated_Source\PSoC5/CAN_1.c ****                         result = CYRET_SUCCESS;
 879              		.loc 1 554 0
 880 00ae 0023     		movs	r3, #0
 881 00b0 FB73     		strb	r3, [r7, #15]
 882              	.L54:
 555:.\Generated_Source\PSoC5/CAN_1.c ****                     }
 556:.\Generated_Source\PSoC5/CAN_1.c ****                 }
 557:.\Generated_Source\PSoC5/CAN_1.c ****             }
 558:.\Generated_Source\PSoC5/CAN_1.c ****         }
 559:.\Generated_Source\PSoC5/CAN_1.c ****     }
 560:.\Generated_Source\PSoC5/CAN_1.c **** 
 561:.\Generated_Source\PSoC5/CAN_1.c ****     return (result);
 883              		.loc 1 561 0
 884 00b2 FB7B     		ldrb	r3, [r7, #15]	@ zero_extendqisi2
 562:.\Generated_Source\PSoC5/CAN_1.c **** }
 885              		.loc 1 562 0
 886 00b4 1846     		mov	r0, r3
 887 00b6 1437     		adds	r7, r7, #20
 888 00b8 BD46     		mov	sp, r7
 889              		@ sp needed
 890 00ba 5DF8047B 		ldr	r7, [sp], #4
 891 00be 7047     		bx	lr
 892              	.L60:
 893              		.align	2
 894              	.L59:
 895 00c0 14A00040 		.word	1073782804
 896              		.cfi_endproc
 897              	.LFE8:
 898              		.size	CAN_1_SetTsegSample, .-CAN_1_SetTsegSample
 899              		.section	.text.CAN_1_SetRestartType,"ax",%progbits
 900              		.align	2
 901              		.global	CAN_1_SetRestartType
 902              		.thumb
 903              		.thumb_func
 904              		.type	CAN_1_SetRestartType, %function
 905              	CAN_1_SetRestartType:
 906              	.LFB9:
 563:.\Generated_Source\PSoC5/CAN_1.c **** 
 564:.\Generated_Source\PSoC5/CAN_1.c **** 
 565:.\Generated_Source\PSoC5/CAN_1.c **** /*******************************************************************************
 566:.\Generated_Source\PSoC5/CAN_1.c **** * FUNCTION NAME:   CAN_1_SetRestartType
 567:.\Generated_Source\PSoC5/CAN_1.c **** ********************************************************************************
 568:.\Generated_Source\PSoC5/CAN_1.c **** *
 569:.\Generated_Source\PSoC5/CAN_1.c **** * Summary:
ARM GAS  C:\Users\khjtony\AppData\Local\Temp\ccDWw2Fb.s 			page 27


 570:.\Generated_Source\PSoC5/CAN_1.c **** *  This function sets Reset type. Types of Reset are Automatic and Manual.
 571:.\Generated_Source\PSoC5/CAN_1.c **** *  Manual Reset is recommended setting.
 572:.\Generated_Source\PSoC5/CAN_1.c **** *
 573:.\Generated_Source\PSoC5/CAN_1.c **** * Parameters:
 574:.\Generated_Source\PSoC5/CAN_1.c **** *  reset: Reset Type.
 575:.\Generated_Source\PSoC5/CAN_1.c **** *   Define                             Description
 576:.\Generated_Source\PSoC5/CAN_1.c **** *    CAN_1_MANUAL_RESTART    After bus-off, the CAN must be restarted
 577:.\Generated_Source\PSoC5/CAN_1.c **** *                                       by hand. This is the recommended 
 578:.\Generated_Source\PSoC5/CAN_1.c **** *                                       setting.
 579:.\Generated_Source\PSoC5/CAN_1.c **** *    CAN_1_AUTO_RESTART      After bus-off, the CAN is restarting 
 580:.\Generated_Source\PSoC5/CAN_1.c **** *                                       automatically after 128 groups of 11 
 581:.\Generated_Source\PSoC5/CAN_1.c **** *                                       recessive bits.
 582:.\Generated_Source\PSoC5/CAN_1.c **** *
 583:.\Generated_Source\PSoC5/CAN_1.c **** * Return:
 584:.\Generated_Source\PSoC5/CAN_1.c **** *  Indication whether register is written and verified.
 585:.\Generated_Source\PSoC5/CAN_1.c **** *   Define                             Description
 586:.\Generated_Source\PSoC5/CAN_1.c **** *    CYRET_SUCCESS                      Function passed successfully
 587:.\Generated_Source\PSoC5/CAN_1.c **** *    CAN_1_FAIL              Function failed
 588:.\Generated_Source\PSoC5/CAN_1.c **** *
 589:.\Generated_Source\PSoC5/CAN_1.c **** *******************************************************************************/
 590:.\Generated_Source\PSoC5/CAN_1.c **** uint8 CAN_1_SetRestartType(uint8 reset) 
 591:.\Generated_Source\PSoC5/CAN_1.c **** {
 907              		.loc 1 591 0
 908              		.cfi_startproc
 909              		@ args = 0, pretend = 0, frame = 16
 910              		@ frame_needed = 1, uses_anonymous_args = 0
 911              		@ link register save eliminated.
 912 0000 80B4     		push	{r7}
 913              		.cfi_def_cfa_offset 4
 914              		.cfi_offset 7, -4
 915 0002 85B0     		sub	sp, sp, #20
 916              		.cfi_def_cfa_offset 24
 917 0004 00AF     		add	r7, sp, #0
 918              		.cfi_def_cfa_register 7
 919 0006 0346     		mov	r3, r0
 920 0008 FB71     		strb	r3, [r7, #7]
 592:.\Generated_Source\PSoC5/CAN_1.c ****     uint8 result = CAN_1_FAIL;
 921              		.loc 1 592 0
 922 000a 0123     		movs	r3, #1
 923 000c FB73     		strb	r3, [r7, #15]
 593:.\Generated_Source\PSoC5/CAN_1.c **** 
 594:.\Generated_Source\PSoC5/CAN_1.c ****     if (reset == CAN_1_RESTART_BY_HAND)
 924              		.loc 1 594 0
 925 000e FB79     		ldrb	r3, [r7, #7]	@ zero_extendqisi2
 926 0010 002B     		cmp	r3, #0
 927 0012 11D1     		bne	.L62
 595:.\Generated_Source\PSoC5/CAN_1.c ****     {
 596:.\Generated_Source\PSoC5/CAN_1.c ****         CAN_1_CFG_REG.byte[0u] &= (uint8) (~CAN_1_RESET_MASK);   /* Manual reset */
 928              		.loc 1 596 0
 929 0014 144B     		ldr	r3, .L66
 930 0016 144A     		ldr	r2, .L66
 931 0018 1278     		ldrb	r2, [r2]
 932 001a D2B2     		uxtb	r2, r2
 933 001c 22F01002 		bic	r2, r2, #16
 934 0020 D2B2     		uxtb	r2, r2
 935 0022 1A70     		strb	r2, [r3]
 597:.\Generated_Source\PSoC5/CAN_1.c **** 
ARM GAS  C:\Users\khjtony\AppData\Local\Temp\ccDWw2Fb.s 			page 28


 598:.\Generated_Source\PSoC5/CAN_1.c ****         /* Verify that bit is cleared */
 599:.\Generated_Source\PSoC5/CAN_1.c ****         if ((CAN_1_CFG_REG.byte[0u] & CAN_1_RESET_MASK) == 0u)
 936              		.loc 1 599 0
 937 0024 104B     		ldr	r3, .L66
 938 0026 1B78     		ldrb	r3, [r3]
 939 0028 DBB2     		uxtb	r3, r3
 940 002a 03F01003 		and	r3, r3, #16
 941 002e 002B     		cmp	r3, #0
 942 0030 13D1     		bne	.L64
 600:.\Generated_Source\PSoC5/CAN_1.c ****         {
 601:.\Generated_Source\PSoC5/CAN_1.c ****             result = CYRET_SUCCESS;
 943              		.loc 1 601 0
 944 0032 0023     		movs	r3, #0
 945 0034 FB73     		strb	r3, [r7, #15]
 946 0036 10E0     		b	.L64
 947              	.L62:
 602:.\Generated_Source\PSoC5/CAN_1.c ****         }
 603:.\Generated_Source\PSoC5/CAN_1.c ****     }
 604:.\Generated_Source\PSoC5/CAN_1.c ****     else
 605:.\Generated_Source\PSoC5/CAN_1.c ****     {
 606:.\Generated_Source\PSoC5/CAN_1.c ****         CAN_1_CFG_REG.byte[0u] |= CAN_1_RESET_MASK;    /* Automatic restart */
 948              		.loc 1 606 0
 949 0038 0B4B     		ldr	r3, .L66
 950 003a 0B4A     		ldr	r2, .L66
 951 003c 1278     		ldrb	r2, [r2]
 952 003e D2B2     		uxtb	r2, r2
 953 0040 42F01002 		orr	r2, r2, #16
 954 0044 D2B2     		uxtb	r2, r2
 955 0046 1A70     		strb	r2, [r3]
 607:.\Generated_Source\PSoC5/CAN_1.c **** 
 608:.\Generated_Source\PSoC5/CAN_1.c ****         /* Verify that bit is set */
 609:.\Generated_Source\PSoC5/CAN_1.c ****         if ((CAN_1_CFG_REG.byte[0u] & CAN_1_RESET_MASK) == CAN_1_RESET_MASK)
 956              		.loc 1 609 0
 957 0048 074B     		ldr	r3, .L66
 958 004a 1B78     		ldrb	r3, [r3]
 959 004c DBB2     		uxtb	r3, r3
 960 004e 03F01003 		and	r3, r3, #16
 961 0052 002B     		cmp	r3, #0
 962 0054 01D0     		beq	.L64
 610:.\Generated_Source\PSoC5/CAN_1.c ****         {
 611:.\Generated_Source\PSoC5/CAN_1.c ****             result = CYRET_SUCCESS;
 963              		.loc 1 611 0
 964 0056 0023     		movs	r3, #0
 965 0058 FB73     		strb	r3, [r7, #15]
 966              	.L64:
 612:.\Generated_Source\PSoC5/CAN_1.c ****         }
 613:.\Generated_Source\PSoC5/CAN_1.c ****     }
 614:.\Generated_Source\PSoC5/CAN_1.c **** 
 615:.\Generated_Source\PSoC5/CAN_1.c ****     return (result);
 967              		.loc 1 615 0
 968 005a FB7B     		ldrb	r3, [r7, #15]	@ zero_extendqisi2
 616:.\Generated_Source\PSoC5/CAN_1.c **** }
 969              		.loc 1 616 0
 970 005c 1846     		mov	r0, r3
 971 005e 1437     		adds	r7, r7, #20
 972 0060 BD46     		mov	sp, r7
 973              		@ sp needed
ARM GAS  C:\Users\khjtony\AppData\Local\Temp\ccDWw2Fb.s 			page 29


 974 0062 5DF8047B 		ldr	r7, [sp], #4
 975 0066 7047     		bx	lr
 976              	.L67:
 977              		.align	2
 978              	.L66:
 979 0068 14A00040 		.word	1073782804
 980              		.cfi_endproc
 981              	.LFE9:
 982              		.size	CAN_1_SetRestartType, .-CAN_1_SetRestartType
 983              		.section	.text.CAN_1_SetEdgeMode,"ax",%progbits
 984              		.align	2
 985              		.global	CAN_1_SetEdgeMode
 986              		.thumb
 987              		.thumb_func
 988              		.type	CAN_1_SetEdgeMode, %function
 989              	CAN_1_SetEdgeMode:
 990              	.LFB10:
 617:.\Generated_Source\PSoC5/CAN_1.c **** 
 618:.\Generated_Source\PSoC5/CAN_1.c **** 
 619:.\Generated_Source\PSoC5/CAN_1.c **** /*******************************************************************************
 620:.\Generated_Source\PSoC5/CAN_1.c **** * FUNCTION NAME:   CAN_1_SetEdgeMode
 621:.\Generated_Source\PSoC5/CAN_1.c **** ********************************************************************************
 622:.\Generated_Source\PSoC5/CAN_1.c **** *
 623:.\Generated_Source\PSoC5/CAN_1.c **** * Summary:
 624:.\Generated_Source\PSoC5/CAN_1.c **** *  This function sets Edge Mode. Modes are 'R' to 'D'(Reccessive to Dominant)
 625:.\Generated_Source\PSoC5/CAN_1.c **** *  and Both edges are used.
 626:.\Generated_Source\PSoC5/CAN_1.c **** *
 627:.\Generated_Source\PSoC5/CAN_1.c **** * Parameters:
 628:.\Generated_Source\PSoC5/CAN_1.c **** *  edge: Edge Mode.
 629:.\Generated_Source\PSoC5/CAN_1.c **** *   Define                             Description
 630:.\Generated_Source\PSoC5/CAN_1.c **** *    CAN_1_EDGE_R_TO_D       Edge from R to D is used for 
 631:.\Generated_Source\PSoC5/CAN_1.c **** *                                       synchronization
 632:.\Generated_Source\PSoC5/CAN_1.c **** *    CAN_1_BOTH_EDGES        Both edges are used
 633:.\Generated_Source\PSoC5/CAN_1.c **** *
 634:.\Generated_Source\PSoC5/CAN_1.c **** * Return:
 635:.\Generated_Source\PSoC5/CAN_1.c **** *  Indication whether register is written and verified.
 636:.\Generated_Source\PSoC5/CAN_1.c **** *   Define                             Description
 637:.\Generated_Source\PSoC5/CAN_1.c **** *    CYRET_SUCCESS                      Function passed successfully
 638:.\Generated_Source\PSoC5/CAN_1.c **** *    CAN_1_FAIL              Function failed
 639:.\Generated_Source\PSoC5/CAN_1.c **** *
 640:.\Generated_Source\PSoC5/CAN_1.c **** *******************************************************************************/
 641:.\Generated_Source\PSoC5/CAN_1.c **** uint8 CAN_1_SetEdgeMode(uint8 edge) 
 642:.\Generated_Source\PSoC5/CAN_1.c **** {
 991              		.loc 1 642 0
 992              		.cfi_startproc
 993              		@ args = 0, pretend = 0, frame = 16
 994              		@ frame_needed = 1, uses_anonymous_args = 0
 995              		@ link register save eliminated.
 996 0000 80B4     		push	{r7}
 997              		.cfi_def_cfa_offset 4
 998              		.cfi_offset 7, -4
 999 0002 85B0     		sub	sp, sp, #20
 1000              		.cfi_def_cfa_offset 24
 1001 0004 00AF     		add	r7, sp, #0
 1002              		.cfi_def_cfa_register 7
 1003 0006 0346     		mov	r3, r0
 1004 0008 FB71     		strb	r3, [r7, #7]
ARM GAS  C:\Users\khjtony\AppData\Local\Temp\ccDWw2Fb.s 			page 30


 643:.\Generated_Source\PSoC5/CAN_1.c ****     uint8 result = CAN_1_FAIL;
 1005              		.loc 1 643 0
 1006 000a 0123     		movs	r3, #1
 1007 000c FB73     		strb	r3, [r7, #15]
 644:.\Generated_Source\PSoC5/CAN_1.c **** 
 645:.\Generated_Source\PSoC5/CAN_1.c ****     if (edge == CAN_1_EDGE_R_TO_D)
 1008              		.loc 1 645 0
 1009 000e FB79     		ldrb	r3, [r7, #7]	@ zero_extendqisi2
 1010 0010 002B     		cmp	r3, #0
 1011 0012 11D1     		bne	.L69
 646:.\Generated_Source\PSoC5/CAN_1.c ****     {
 647:.\Generated_Source\PSoC5/CAN_1.c ****         /* Recessive to Dominant is used for synchronization */
 648:.\Generated_Source\PSoC5/CAN_1.c ****         CAN_1_CFG_REG.byte[0u] &= (uint8) (~CAN_1_EDGE_MODE_MASK);
 1012              		.loc 1 648 0
 1013 0014 144B     		ldr	r3, .L73
 1014 0016 144A     		ldr	r2, .L73
 1015 0018 1278     		ldrb	r2, [r2]
 1016 001a D2B2     		uxtb	r2, r2
 1017 001c 22F00102 		bic	r2, r2, #1
 1018 0020 D2B2     		uxtb	r2, r2
 1019 0022 1A70     		strb	r2, [r3]
 649:.\Generated_Source\PSoC5/CAN_1.c **** 
 650:.\Generated_Source\PSoC5/CAN_1.c ****         /* Verify that bit is cleared */
 651:.\Generated_Source\PSoC5/CAN_1.c ****         if ((CAN_1_CFG_REG.byte[0u] & CAN_1_EDGE_MODE_MASK) == 0u)
 1020              		.loc 1 651 0
 1021 0024 104B     		ldr	r3, .L73
 1022 0026 1B78     		ldrb	r3, [r3]
 1023 0028 DBB2     		uxtb	r3, r3
 1024 002a 03F00103 		and	r3, r3, #1
 1025 002e 002B     		cmp	r3, #0
 1026 0030 13D1     		bne	.L71
 652:.\Generated_Source\PSoC5/CAN_1.c ****         {
 653:.\Generated_Source\PSoC5/CAN_1.c ****             result = CYRET_SUCCESS;
 1027              		.loc 1 653 0
 1028 0032 0023     		movs	r3, #0
 1029 0034 FB73     		strb	r3, [r7, #15]
 1030 0036 10E0     		b	.L71
 1031              	.L69:
 654:.\Generated_Source\PSoC5/CAN_1.c ****         }                      
 655:.\Generated_Source\PSoC5/CAN_1.c ****     }
 656:.\Generated_Source\PSoC5/CAN_1.c ****     else
 657:.\Generated_Source\PSoC5/CAN_1.c ****     {
 658:.\Generated_Source\PSoC5/CAN_1.c ****         /* Both edges are to be used */
 659:.\Generated_Source\PSoC5/CAN_1.c ****         CAN_1_CFG_REG.byte[0u] |= CAN_1_EDGE_MODE_MASK;
 1032              		.loc 1 659 0
 1033 0038 0B4B     		ldr	r3, .L73
 1034 003a 0B4A     		ldr	r2, .L73
 1035 003c 1278     		ldrb	r2, [r2]
 1036 003e D2B2     		uxtb	r2, r2
 1037 0040 42F00102 		orr	r2, r2, #1
 1038 0044 D2B2     		uxtb	r2, r2
 1039 0046 1A70     		strb	r2, [r3]
 660:.\Generated_Source\PSoC5/CAN_1.c **** 
 661:.\Generated_Source\PSoC5/CAN_1.c ****         /* Verify that bit is set */
 662:.\Generated_Source\PSoC5/CAN_1.c ****         if ((CAN_1_CFG_REG.byte[0u] & CAN_1_EDGE_MODE_MASK) == CAN_1_EDGE_MODE_MASK)
 1040              		.loc 1 662 0
 1041 0048 074B     		ldr	r3, .L73
ARM GAS  C:\Users\khjtony\AppData\Local\Temp\ccDWw2Fb.s 			page 31


 1042 004a 1B78     		ldrb	r3, [r3]
 1043 004c DBB2     		uxtb	r3, r3
 1044 004e 03F00103 		and	r3, r3, #1
 1045 0052 002B     		cmp	r3, #0
 1046 0054 01D0     		beq	.L71
 663:.\Generated_Source\PSoC5/CAN_1.c ****         {
 664:.\Generated_Source\PSoC5/CAN_1.c ****             result = CYRET_SUCCESS;
 1047              		.loc 1 664 0
 1048 0056 0023     		movs	r3, #0
 1049 0058 FB73     		strb	r3, [r7, #15]
 1050              	.L71:
 665:.\Generated_Source\PSoC5/CAN_1.c ****         }
 666:.\Generated_Source\PSoC5/CAN_1.c ****     }
 667:.\Generated_Source\PSoC5/CAN_1.c **** 
 668:.\Generated_Source\PSoC5/CAN_1.c ****     return (result);
 1051              		.loc 1 668 0
 1052 005a FB7B     		ldrb	r3, [r7, #15]	@ zero_extendqisi2
 669:.\Generated_Source\PSoC5/CAN_1.c **** }
 1053              		.loc 1 669 0
 1054 005c 1846     		mov	r0, r3
 1055 005e 1437     		adds	r7, r7, #20
 1056 0060 BD46     		mov	sp, r7
 1057              		@ sp needed
 1058 0062 5DF8047B 		ldr	r7, [sp], #4
 1059 0066 7047     		bx	lr
 1060              	.L74:
 1061              		.align	2
 1062              	.L73:
 1063 0068 14A00040 		.word	1073782804
 1064              		.cfi_endproc
 1065              	.LFE10:
 1066              		.size	CAN_1_SetEdgeMode, .-CAN_1_SetEdgeMode
 1067              		.section	.text.CAN_1_SetOpMode,"ax",%progbits
 1068              		.align	2
 1069              		.global	CAN_1_SetOpMode
 1070              		.thumb
 1071              		.thumb_func
 1072              		.type	CAN_1_SetOpMode, %function
 1073              	CAN_1_SetOpMode:
 1074              	.LFB11:
 670:.\Generated_Source\PSoC5/CAN_1.c **** 
 671:.\Generated_Source\PSoC5/CAN_1.c **** 
 672:.\Generated_Source\PSoC5/CAN_1.c **** /*******************************************************************************
 673:.\Generated_Source\PSoC5/CAN_1.c **** * FUNCTION NAME:   CAN_1_SetOpMode
 674:.\Generated_Source\PSoC5/CAN_1.c **** ********************************************************************************
 675:.\Generated_Source\PSoC5/CAN_1.c **** *
 676:.\Generated_Source\PSoC5/CAN_1.c **** * Summary:
 677:.\Generated_Source\PSoC5/CAN_1.c **** *  This function sets Operation Mode. Operations Modes are Active of Listen
 678:.\Generated_Source\PSoC5/CAN_1.c **** *  Only.
 679:.\Generated_Source\PSoC5/CAN_1.c **** *
 680:.\Generated_Source\PSoC5/CAN_1.c **** * Parameters:
 681:.\Generated_Source\PSoC5/CAN_1.c **** *  opMode: Operation Mode value.
 682:.\Generated_Source\PSoC5/CAN_1.c **** *   Define                             Description
 683:.\Generated_Source\PSoC5/CAN_1.c **** *    CAN_1_ACTIVE_MODE       Active mode
 684:.\Generated_Source\PSoC5/CAN_1.c **** *    CAN_1_LISTEN_ONLY       CAN listen only
 685:.\Generated_Source\PSoC5/CAN_1.c **** *
 686:.\Generated_Source\PSoC5/CAN_1.c **** * Return:
ARM GAS  C:\Users\khjtony\AppData\Local\Temp\ccDWw2Fb.s 			page 32


 687:.\Generated_Source\PSoC5/CAN_1.c **** *  Indication whether register is written and verified.
 688:.\Generated_Source\PSoC5/CAN_1.c **** *   Define                             Description
 689:.\Generated_Source\PSoC5/CAN_1.c **** *    CYRET_SUCCESS                      Function passed successfully
 690:.\Generated_Source\PSoC5/CAN_1.c **** *    CAN_1_FAIL              Function failed
 691:.\Generated_Source\PSoC5/CAN_1.c **** *
 692:.\Generated_Source\PSoC5/CAN_1.c **** *******************************************************************************/
 693:.\Generated_Source\PSoC5/CAN_1.c **** uint8 CAN_1_SetOpMode(uint8 opMode) 
 694:.\Generated_Source\PSoC5/CAN_1.c **** {
 1075              		.loc 1 694 0
 1076              		.cfi_startproc
 1077              		@ args = 0, pretend = 0, frame = 16
 1078              		@ frame_needed = 1, uses_anonymous_args = 0
 1079              		@ link register save eliminated.
 1080 0000 80B4     		push	{r7}
 1081              		.cfi_def_cfa_offset 4
 1082              		.cfi_offset 7, -4
 1083 0002 85B0     		sub	sp, sp, #20
 1084              		.cfi_def_cfa_offset 24
 1085 0004 00AF     		add	r7, sp, #0
 1086              		.cfi_def_cfa_register 7
 1087 0006 0346     		mov	r3, r0
 1088 0008 FB71     		strb	r3, [r7, #7]
 695:.\Generated_Source\PSoC5/CAN_1.c ****     uint8 result = CAN_1_FAIL;
 1089              		.loc 1 695 0
 1090 000a 0123     		movs	r3, #1
 1091 000c FB73     		strb	r3, [r7, #15]
 696:.\Generated_Source\PSoC5/CAN_1.c **** 
 697:.\Generated_Source\PSoC5/CAN_1.c ****     if (opMode == CAN_1_ACTIVE_MODE)
 1092              		.loc 1 697 0
 1093 000e FB79     		ldrb	r3, [r7, #7]	@ zero_extendqisi2
 1094 0010 002B     		cmp	r3, #0
 1095 0012 11D1     		bne	.L76
 698:.\Generated_Source\PSoC5/CAN_1.c ****     {
 699:.\Generated_Source\PSoC5/CAN_1.c ****         /* CAN in Active mode */
 700:.\Generated_Source\PSoC5/CAN_1.c ****         CAN_1_CMD_REG.byte[0u] &= (uint8) (~CAN_1_OPMODE_MASK);
 1096              		.loc 1 700 0
 1097 0014 144B     		ldr	r3, .L80
 1098 0016 144A     		ldr	r2, .L80
 1099 0018 1278     		ldrb	r2, [r2]
 1100 001a D2B2     		uxtb	r2, r2
 1101 001c 22F00202 		bic	r2, r2, #2
 1102 0020 D2B2     		uxtb	r2, r2
 1103 0022 1A70     		strb	r2, [r3]
 701:.\Generated_Source\PSoC5/CAN_1.c **** 
 702:.\Generated_Source\PSoC5/CAN_1.c ****         /* Verify that bit is cleared */
 703:.\Generated_Source\PSoC5/CAN_1.c ****         if ((CAN_1_CMD_REG.byte[0u] & CAN_1_OPMODE_MASK) == 0u)
 1104              		.loc 1 703 0
 1105 0024 104B     		ldr	r3, .L80
 1106 0026 1B78     		ldrb	r3, [r3]
 1107 0028 DBB2     		uxtb	r3, r3
 1108 002a 03F00203 		and	r3, r3, #2
 1109 002e 002B     		cmp	r3, #0
 1110 0030 13D1     		bne	.L78
 704:.\Generated_Source\PSoC5/CAN_1.c ****         {
 705:.\Generated_Source\PSoC5/CAN_1.c ****             result = CYRET_SUCCESS;
 1111              		.loc 1 705 0
 1112 0032 0023     		movs	r3, #0
ARM GAS  C:\Users\khjtony\AppData\Local\Temp\ccDWw2Fb.s 			page 33


 1113 0034 FB73     		strb	r3, [r7, #15]
 1114 0036 10E0     		b	.L78
 1115              	.L76:
 706:.\Generated_Source\PSoC5/CAN_1.c ****         }                
 707:.\Generated_Source\PSoC5/CAN_1.c ****     }
 708:.\Generated_Source\PSoC5/CAN_1.c ****     else
 709:.\Generated_Source\PSoC5/CAN_1.c ****     {
 710:.\Generated_Source\PSoC5/CAN_1.c ****         /* CAN listen only */
 711:.\Generated_Source\PSoC5/CAN_1.c ****         CAN_1_CMD_REG.byte[0u] |= CAN_1_OPMODE_MASK;
 1116              		.loc 1 711 0
 1117 0038 0B4B     		ldr	r3, .L80
 1118 003a 0B4A     		ldr	r2, .L80
 1119 003c 1278     		ldrb	r2, [r2]
 1120 003e D2B2     		uxtb	r2, r2
 1121 0040 42F00202 		orr	r2, r2, #2
 1122 0044 D2B2     		uxtb	r2, r2
 1123 0046 1A70     		strb	r2, [r3]
 712:.\Generated_Source\PSoC5/CAN_1.c **** 
 713:.\Generated_Source\PSoC5/CAN_1.c ****         /* Verify that bit is set */
 714:.\Generated_Source\PSoC5/CAN_1.c ****         if ((CAN_1_CMD_REG.byte[0u] & CAN_1_OPMODE_MASK) == CAN_1_OPMODE_MASK)
 1124              		.loc 1 714 0
 1125 0048 074B     		ldr	r3, .L80
 1126 004a 1B78     		ldrb	r3, [r3]
 1127 004c DBB2     		uxtb	r3, r3
 1128 004e 03F00203 		and	r3, r3, #2
 1129 0052 002B     		cmp	r3, #0
 1130 0054 01D0     		beq	.L78
 715:.\Generated_Source\PSoC5/CAN_1.c ****         {
 716:.\Generated_Source\PSoC5/CAN_1.c ****             result = CYRET_SUCCESS;
 1131              		.loc 1 716 0
 1132 0056 0023     		movs	r3, #0
 1133 0058 FB73     		strb	r3, [r7, #15]
 1134              	.L78:
 717:.\Generated_Source\PSoC5/CAN_1.c ****         }
 718:.\Generated_Source\PSoC5/CAN_1.c ****     }
 719:.\Generated_Source\PSoC5/CAN_1.c **** 
 720:.\Generated_Source\PSoC5/CAN_1.c ****     return (result);
 1135              		.loc 1 720 0
 1136 005a FB7B     		ldrb	r3, [r7, #15]	@ zero_extendqisi2
 721:.\Generated_Source\PSoC5/CAN_1.c **** }
 1137              		.loc 1 721 0
 1138 005c 1846     		mov	r0, r3
 1139 005e 1437     		adds	r7, r7, #20
 1140 0060 BD46     		mov	sp, r7
 1141              		@ sp needed
 1142 0062 5DF8047B 		ldr	r7, [sp], #4
 1143 0066 7047     		bx	lr
 1144              	.L81:
 1145              		.align	2
 1146              	.L80:
 1147 0068 10A00040 		.word	1073782800
 1148              		.cfi_endproc
 1149              	.LFE11:
 1150              		.size	CAN_1_SetOpMode, .-CAN_1_SetOpMode
 1151              		.section	.text.CAN_1_RXRegisterInit,"ax",%progbits
 1152              		.align	2
 1153              		.global	CAN_1_RXRegisterInit
ARM GAS  C:\Users\khjtony\AppData\Local\Temp\ccDWw2Fb.s 			page 34


 1154              		.thumb
 1155              		.thumb_func
 1156              		.type	CAN_1_RXRegisterInit, %function
 1157              	CAN_1_RXRegisterInit:
 1158              	.LFB12:
 722:.\Generated_Source\PSoC5/CAN_1.c **** 
 723:.\Generated_Source\PSoC5/CAN_1.c **** 
 724:.\Generated_Source\PSoC5/CAN_1.c **** /*******************************************************************************
 725:.\Generated_Source\PSoC5/CAN_1.c **** * FUNCTION NAME:   CAN_1_RXRegisterInit
 726:.\Generated_Source\PSoC5/CAN_1.c **** ********************************************************************************
 727:.\Generated_Source\PSoC5/CAN_1.c **** *
 728:.\Generated_Source\PSoC5/CAN_1.c **** * Summary:
 729:.\Generated_Source\PSoC5/CAN_1.c **** *  This function writes only receive CAN registers.
 730:.\Generated_Source\PSoC5/CAN_1.c **** *
 731:.\Generated_Source\PSoC5/CAN_1.c **** * Parameters:
 732:.\Generated_Source\PSoC5/CAN_1.c **** *  regAddr: Pointer to CAN receive register;
 733:.\Generated_Source\PSoC5/CAN_1.c **** *  config:  Value that will be written in register.
 734:.\Generated_Source\PSoC5/CAN_1.c **** *
 735:.\Generated_Source\PSoC5/CAN_1.c **** * Return:
 736:.\Generated_Source\PSoC5/CAN_1.c **** *  Indication whether register is written and verified.
 737:.\Generated_Source\PSoC5/CAN_1.c **** *   Define                             Description
 738:.\Generated_Source\PSoC5/CAN_1.c **** *    CYRET_SUCCESS                      Function passed successfully
 739:.\Generated_Source\PSoC5/CAN_1.c **** *    CAN_1_FAIL              Function failed
 740:.\Generated_Source\PSoC5/CAN_1.c **** *    CAN_1_OUT_OF_RANGE      Function parameter is out of range
 741:.\Generated_Source\PSoC5/CAN_1.c **** *
 742:.\Generated_Source\PSoC5/CAN_1.c **** *******************************************************************************/
 743:.\Generated_Source\PSoC5/CAN_1.c **** uint8 CAN_1_RXRegisterInit(reg32 *regAddr, uint32 config)
 744:.\Generated_Source\PSoC5/CAN_1.c ****                                       
 745:.\Generated_Source\PSoC5/CAN_1.c **** {
 1159              		.loc 1 745 0
 1160              		.cfi_startproc
 1161              		@ args = 0, pretend = 0, frame = 16
 1162              		@ frame_needed = 1, uses_anonymous_args = 0
 1163              		@ link register save eliminated.
 1164 0000 80B4     		push	{r7}
 1165              		.cfi_def_cfa_offset 4
 1166              		.cfi_offset 7, -4
 1167 0002 85B0     		sub	sp, sp, #20
 1168              		.cfi_def_cfa_offset 24
 1169 0004 00AF     		add	r7, sp, #0
 1170              		.cfi_def_cfa_register 7
 1171 0006 7860     		str	r0, [r7, #4]
 1172 0008 3960     		str	r1, [r7]
 746:.\Generated_Source\PSoC5/CAN_1.c ****     uint8 result = CAN_1_OUT_OF_RANGE;    
 1173              		.loc 1 746 0
 1174 000a 0223     		movs	r3, #2
 1175 000c FB73     		strb	r3, [r7, #15]
 747:.\Generated_Source\PSoC5/CAN_1.c ****     
 748:.\Generated_Source\PSoC5/CAN_1.c ****     if ((((uint32) regAddr & 0x0000FFFFu) >= ((uint32) CAN_1_RX_FIRST_REGISTER_PTR & 0x0000FFFFu)) 
 1176              		.loc 1 748 0
 1177 000e 7B68     		ldr	r3, [r7, #4]
 1178 0010 9AB2     		uxth	r2, r3
 1179 0012 4AF29F03 		movw	r3, #41119
 1180 0016 9A42     		cmp	r2, r3
 1181 0018 38D9     		bls	.L83
 749:.\Generated_Source\PSoC5/CAN_1.c ****          ((((uint32) regAddr & 0x0000FFFFu)) <= ((uint32) CAN_1_RX_LAST_REGISTER_PTR & 0x0000FFFFu)
 1182              		.loc 1 749 0 discriminator 1
ARM GAS  C:\Users\khjtony\AppData\Local\Temp\ccDWw2Fb.s 			page 35


 1183 001a 7B68     		ldr	r3, [r7, #4]
 1184 001c 9AB2     		uxth	r2, r3
 748:.\Generated_Source\PSoC5/CAN_1.c ****     if ((((uint32) regAddr & 0x0000FFFFu) >= ((uint32) CAN_1_RX_FIRST_REGISTER_PTR & 0x0000FFFFu)) 
 1185              		.loc 1 748 0 discriminator 1
 1186 001e 4AF29C23 		movw	r3, #41628
 1187 0022 9A42     		cmp	r2, r3
 1188 0024 32D8     		bhi	.L83
 750:.\Generated_Source\PSoC5/CAN_1.c ****     {
 751:.\Generated_Source\PSoC5/CAN_1.c ****         result = CAN_1_FAIL;
 1189              		.loc 1 751 0
 1190 0026 0123     		movs	r3, #1
 1191 0028 FB73     		strb	r3, [r7, #15]
 752:.\Generated_Source\PSoC5/CAN_1.c ****         
 753:.\Generated_Source\PSoC5/CAN_1.c ****         if ((((uint32) regAddr & 0x0000FFFFu) % CAN_1_RX_CMD_REG_WIDTH) == 0u)
 1192              		.loc 1 753 0
 1193 002a 7B68     		ldr	r3, [r7, #4]
 1194 002c 03F01F03 		and	r3, r3, #31
 1195 0030 002B     		cmp	r3, #0
 1196 0032 19D1     		bne	.L84
 754:.\Generated_Source\PSoC5/CAN_1.c ****         {
 755:.\Generated_Source\PSoC5/CAN_1.c ****             config |= CAN_1_RX_WPN_SET;
 1197              		.loc 1 755 0
 1198 0034 3B68     		ldr	r3, [r7]
 1199 0036 43F08013 		orr	r3, r3, #8388736
 1200 003a 3B60     		str	r3, [r7]
 756:.\Generated_Source\PSoC5/CAN_1.c ****             
 757:.\Generated_Source\PSoC5/CAN_1.c ****     /* Disable isr */
 758:.\Generated_Source\PSoC5/CAN_1.c ****     CyIntDisable(CAN_1_ISR_NUMBER);
 1201              		.loc 1 758 0
 1202 003c 174B     		ldr	r3, .L87
 1203 003e 4FF48032 		mov	r2, #65536
 1204 0042 1A60     		str	r2, [r3]
 759:.\Generated_Source\PSoC5/CAN_1.c **** 
 760:.\Generated_Source\PSoC5/CAN_1.c ****             /* Write defined RX CMD registers */
 761:.\Generated_Source\PSoC5/CAN_1.c ****             CY_SET_REG32(regAddr, config);
 1205              		.loc 1 761 0
 1206 0044 7B68     		ldr	r3, [r7, #4]
 1207 0046 3A68     		ldr	r2, [r7]
 1208 0048 1A60     		str	r2, [r3]
 762:.\Generated_Source\PSoC5/CAN_1.c ****             
 763:.\Generated_Source\PSoC5/CAN_1.c ****     /* Enable isr */
 764:.\Generated_Source\PSoC5/CAN_1.c ****     CyIntEnable(CAN_1_ISR_NUMBER);
 1209              		.loc 1 764 0
 1210 004a 154B     		ldr	r3, .L87+4
 1211 004c 4FF48032 		mov	r2, #65536
 1212 0050 1A60     		str	r2, [r3]
 765:.\Generated_Source\PSoC5/CAN_1.c **** 
 766:.\Generated_Source\PSoC5/CAN_1.c ****             /* Verify register */
 767:.\Generated_Source\PSoC5/CAN_1.c ****             if ((CY_GET_REG32(regAddr) & CAN_1_RX_READ_BACK_MASK) ==
 1213              		.loc 1 767 0
 1214 0052 7B68     		ldr	r3, [r7, #4]
 1215 0054 1A68     		ldr	r2, [r3]
 1216 0056 3B68     		ldr	r3, [r7]
 1217 0058 5340     		eors	r3, r3, r2
 1218 005a 03F07F13 		and	r3, r3, #8323199
 1219 005e 002B     		cmp	r3, #0
 1220 0060 14D1     		bne	.L83
ARM GAS  C:\Users\khjtony\AppData\Local\Temp\ccDWw2Fb.s 			page 36


 768:.\Generated_Source\PSoC5/CAN_1.c ****                 (config & CAN_1_RX_READ_BACK_MASK))
 769:.\Generated_Source\PSoC5/CAN_1.c ****             {
 770:.\Generated_Source\PSoC5/CAN_1.c ****                 result = CYRET_SUCCESS;
 1221              		.loc 1 770 0
 1222 0062 0023     		movs	r3, #0
 1223 0064 FB73     		strb	r3, [r7, #15]
 1224 0066 11E0     		b	.L83
 1225              	.L84:
 771:.\Generated_Source\PSoC5/CAN_1.c ****             }
 772:.\Generated_Source\PSoC5/CAN_1.c ****         }
 773:.\Generated_Source\PSoC5/CAN_1.c ****         /* All registers except RX CMD*/
 774:.\Generated_Source\PSoC5/CAN_1.c ****         else
 775:.\Generated_Source\PSoC5/CAN_1.c ****         {            
 776:.\Generated_Source\PSoC5/CAN_1.c ****     /* Disable isr */
 777:.\Generated_Source\PSoC5/CAN_1.c ****     CyIntDisable(CAN_1_ISR_NUMBER);
 1226              		.loc 1 777 0
 1227 0068 0C4B     		ldr	r3, .L87
 1228 006a 4FF48032 		mov	r2, #65536
 1229 006e 1A60     		str	r2, [r3]
 778:.\Generated_Source\PSoC5/CAN_1.c **** 
 779:.\Generated_Source\PSoC5/CAN_1.c ****             /* Write defined CAN receive register */
 780:.\Generated_Source\PSoC5/CAN_1.c ****             CY_SET_REG32(regAddr, config);
 1230              		.loc 1 780 0
 1231 0070 7B68     		ldr	r3, [r7, #4]
 1232 0072 3A68     		ldr	r2, [r7]
 1233 0074 1A60     		str	r2, [r3]
 781:.\Generated_Source\PSoC5/CAN_1.c ****             
 782:.\Generated_Source\PSoC5/CAN_1.c ****     /* Enable isr */
 783:.\Generated_Source\PSoC5/CAN_1.c ****     CyIntEnable(CAN_1_ISR_NUMBER);
 1234              		.loc 1 783 0
 1235 0076 0A4B     		ldr	r3, .L87+4
 1236 0078 4FF48032 		mov	r2, #65536
 1237 007c 1A60     		str	r2, [r3]
 784:.\Generated_Source\PSoC5/CAN_1.c **** 
 785:.\Generated_Source\PSoC5/CAN_1.c ****             /* Verify register */
 786:.\Generated_Source\PSoC5/CAN_1.c ****             if (CY_GET_REG32(regAddr) == config)
 1238              		.loc 1 786 0
 1239 007e 7B68     		ldr	r3, [r7, #4]
 1240 0080 1A68     		ldr	r2, [r3]
 1241 0082 3B68     		ldr	r3, [r7]
 1242 0084 9A42     		cmp	r2, r3
 1243 0086 01D1     		bne	.L83
 787:.\Generated_Source\PSoC5/CAN_1.c ****             {
 788:.\Generated_Source\PSoC5/CAN_1.c ****                 result = CYRET_SUCCESS;
 1244              		.loc 1 788 0
 1245 0088 0023     		movs	r3, #0
 1246 008a FB73     		strb	r3, [r7, #15]
 1247              	.L83:
 789:.\Generated_Source\PSoC5/CAN_1.c ****             }
 790:.\Generated_Source\PSoC5/CAN_1.c ****         }
 791:.\Generated_Source\PSoC5/CAN_1.c ****     }
 792:.\Generated_Source\PSoC5/CAN_1.c ****     
 793:.\Generated_Source\PSoC5/CAN_1.c ****     return (result);
 1248              		.loc 1 793 0
 1249 008c FB7B     		ldrb	r3, [r7, #15]	@ zero_extendqisi2
 794:.\Generated_Source\PSoC5/CAN_1.c **** }
 1250              		.loc 1 794 0
ARM GAS  C:\Users\khjtony\AppData\Local\Temp\ccDWw2Fb.s 			page 37


 1251 008e 1846     		mov	r0, r3
 1252 0090 1437     		adds	r7, r7, #20
 1253 0092 BD46     		mov	sp, r7
 1254              		@ sp needed
 1255 0094 5DF8047B 		ldr	r7, [sp], #4
 1256 0098 7047     		bx	lr
 1257              	.L88:
 1258 009a 00BF     		.align	2
 1259              	.L87:
 1260 009c 80E100E0 		.word	-536813184
 1261 00a0 00E100E0 		.word	-536813312
 1262              		.cfi_endproc
 1263              	.LFE12:
 1264              		.size	CAN_1_RXRegisterInit, .-CAN_1_RXRegisterInit
 1265              		.section	.text.CAN_1_SetIrqMask,"ax",%progbits
 1266              		.align	2
 1267              		.global	CAN_1_SetIrqMask
 1268              		.thumb
 1269              		.thumb_func
 1270              		.type	CAN_1_SetIrqMask, %function
 1271              	CAN_1_SetIrqMask:
 1272              	.LFB13:
 795:.\Generated_Source\PSoC5/CAN_1.c **** 
 796:.\Generated_Source\PSoC5/CAN_1.c **** 
 797:.\Generated_Source\PSoC5/CAN_1.c **** /*******************************************************************************
 798:.\Generated_Source\PSoC5/CAN_1.c **** * FUNCTION NAME:   CAN_1_SetIrqMask
 799:.\Generated_Source\PSoC5/CAN_1.c **** ********************************************************************************
 800:.\Generated_Source\PSoC5/CAN_1.c **** *
 801:.\Generated_Source\PSoC5/CAN_1.c **** * Summary:
 802:.\Generated_Source\PSoC5/CAN_1.c **** *  This function sets to enable/disable particular interrupt sources. Interrupt
 803:.\Generated_Source\PSoC5/CAN_1.c **** *  Mask directly write to CAN Interrupt Enable register. A particular interrupt
 804:.\Generated_Source\PSoC5/CAN_1.c **** *  source is enabled by setting its respective flag to 1.
 805:.\Generated_Source\PSoC5/CAN_1.c **** *
 806:.\Generated_Source\PSoC5/CAN_1.c **** * Parameters:
 807:.\Generated_Source\PSoC5/CAN_1.c **** *  mask: Interrupt enable/disable request. 1 bit per interrupt source.
 808:.\Generated_Source\PSoC5/CAN_1.c **** *   Define                                    Description
 809:.\Generated_Source\PSoC5/CAN_1.c **** *    CAN_1_GLOBAL_INT_ENABLE        Global Interrupt Enable Flag
 810:.\Generated_Source\PSoC5/CAN_1.c **** *    CAN_1_ARBITRATION_LOST_ENABLE  Arbitration Loss Interrupt Enable
 811:.\Generated_Source\PSoC5/CAN_1.c **** *    CAN_1_OVERLOAD_ERROR_ENABLE    Overload Interrupt Enable
 812:.\Generated_Source\PSoC5/CAN_1.c **** *    CAN_1_BIT_ERROR_ENABLE         Bit Error Interrupt Enable
 813:.\Generated_Source\PSoC5/CAN_1.c **** *    CAN_1_STUFF_ERROR_ENABLE       Stuff Error Interrupt Enable
 814:.\Generated_Source\PSoC5/CAN_1.c **** *    CAN_1_ACK_ERROR_ENABLE         Ack Error Interrupt Enable
 815:.\Generated_Source\PSoC5/CAN_1.c **** *    CAN_1_FORM_ERROR_ENABLE        Form Error Interrupt Enable
 816:.\Generated_Source\PSoC5/CAN_1.c **** *    CAN_1_CRC_ERROR_ENABLE         CRC Error Interrupt Enable
 817:.\Generated_Source\PSoC5/CAN_1.c **** *    CAN_1_BUS_OFF_ENABLE           Busoff State Interrupt Enable
 818:.\Generated_Source\PSoC5/CAN_1.c **** *    CAN_1_RX_MSG_LOST_ENABLE       Rx Msg Loss Interrupt Enable
 819:.\Generated_Source\PSoC5/CAN_1.c **** *    CAN_1_TX_MESSAGE_ENABLE        Tx Msg Sent Interrupt Enable
 820:.\Generated_Source\PSoC5/CAN_1.c **** *    CAN_1_RX_MESSAGE_ENABLE        Msg Recived Interrupt Enable
 821:.\Generated_Source\PSoC5/CAN_1.c **** *
 822:.\Generated_Source\PSoC5/CAN_1.c **** * Return:
 823:.\Generated_Source\PSoC5/CAN_1.c **** *  Indication whether register is written and verified.
 824:.\Generated_Source\PSoC5/CAN_1.c **** *   Define                             Description
 825:.\Generated_Source\PSoC5/CAN_1.c **** *    CYRET_SUCCESS                      Function passed successfully
 826:.\Generated_Source\PSoC5/CAN_1.c **** *    CAN_1_FAIL              Function failed
 827:.\Generated_Source\PSoC5/CAN_1.c **** *
 828:.\Generated_Source\PSoC5/CAN_1.c **** *******************************************************************************/
 829:.\Generated_Source\PSoC5/CAN_1.c **** uint8 CAN_1_SetIrqMask(uint16 mask) 
ARM GAS  C:\Users\khjtony\AppData\Local\Temp\ccDWw2Fb.s 			page 38


 830:.\Generated_Source\PSoC5/CAN_1.c **** {
 1273              		.loc 1 830 0
 1274              		.cfi_startproc
 1275              		@ args = 0, pretend = 0, frame = 16
 1276              		@ frame_needed = 1, uses_anonymous_args = 0
 1277              		@ link register save eliminated.
 1278 0000 80B4     		push	{r7}
 1279              		.cfi_def_cfa_offset 4
 1280              		.cfi_offset 7, -4
 1281 0002 85B0     		sub	sp, sp, #20
 1282              		.cfi_def_cfa_offset 24
 1283 0004 00AF     		add	r7, sp, #0
 1284              		.cfi_def_cfa_register 7
 1285 0006 0346     		mov	r3, r0
 1286 0008 FB80     		strh	r3, [r7, #6]	@ movhi
 831:.\Generated_Source\PSoC5/CAN_1.c ****     uint8 result = CAN_1_FAIL;
 1287              		.loc 1 831 0
 1288 000a 0123     		movs	r3, #1
 1289 000c FB73     		strb	r3, [r7, #15]
 832:.\Generated_Source\PSoC5/CAN_1.c **** 
 833:.\Generated_Source\PSoC5/CAN_1.c ****     /* Write byte 0 and 1 of CAN_1_INT_EN_REG register */
 834:.\Generated_Source\PSoC5/CAN_1.c ****     CY_SET_REG16((reg16 *) &CAN_1_INT_EN_REG, mask);
 1290              		.loc 1 834 0
 1291 000e 094B     		ldr	r3, .L92
 1292 0010 FA88     		ldrh	r2, [r7, #6]	@ movhi
 1293 0012 1A80     		strh	r2, [r3]	@ movhi
 835:.\Generated_Source\PSoC5/CAN_1.c **** 
 836:.\Generated_Source\PSoC5/CAN_1.c ****     /* Verify CAN_1_INT_EN_REG register */
 837:.\Generated_Source\PSoC5/CAN_1.c ****     if (CY_GET_REG16((reg16 *) &CAN_1_INT_EN_REG) == mask)
 1294              		.loc 1 837 0
 1295 0014 074B     		ldr	r3, .L92
 1296 0016 1B88     		ldrh	r3, [r3]	@ movhi
 1297 0018 9BB2     		uxth	r3, r3
 1298 001a FA88     		ldrh	r2, [r7, #6]
 1299 001c 9A42     		cmp	r2, r3
 1300 001e 01D1     		bne	.L90
 838:.\Generated_Source\PSoC5/CAN_1.c ****     {
 839:.\Generated_Source\PSoC5/CAN_1.c ****         result = CYRET_SUCCESS;
 1301              		.loc 1 839 0
 1302 0020 0023     		movs	r3, #0
 1303 0022 FB73     		strb	r3, [r7, #15]
 1304              	.L90:
 840:.\Generated_Source\PSoC5/CAN_1.c ****     }
 841:.\Generated_Source\PSoC5/CAN_1.c **** 
 842:.\Generated_Source\PSoC5/CAN_1.c ****     return (result);
 1305              		.loc 1 842 0
 1306 0024 FB7B     		ldrb	r3, [r7, #15]	@ zero_extendqisi2
 843:.\Generated_Source\PSoC5/CAN_1.c **** }
 1307              		.loc 1 843 0
 1308 0026 1846     		mov	r0, r3
 1309 0028 1437     		adds	r7, r7, #20
 1310 002a BD46     		mov	sp, r7
 1311              		@ sp needed
 1312 002c 5DF8047B 		ldr	r7, [sp], #4
 1313 0030 7047     		bx	lr
 1314              	.L93:
 1315 0032 00BF     		.align	2
ARM GAS  C:\Users\khjtony\AppData\Local\Temp\ccDWw2Fb.s 			page 39


 1316              	.L92:
 1317 0034 04A00040 		.word	1073782788
 1318              		.cfi_endproc
 1319              	.LFE13:
 1320              		.size	CAN_1_SetIrqMask, .-CAN_1_SetIrqMask
 1321              		.section	.text.CAN_1_GetTXErrorFlag,"ax",%progbits
 1322              		.align	2
 1323              		.global	CAN_1_GetTXErrorFlag
 1324              		.thumb
 1325              		.thumb_func
 1326              		.type	CAN_1_GetTXErrorFlag, %function
 1327              	CAN_1_GetTXErrorFlag:
 1328              	.LFB14:
 844:.\Generated_Source\PSoC5/CAN_1.c **** 
 845:.\Generated_Source\PSoC5/CAN_1.c **** 
 846:.\Generated_Source\PSoC5/CAN_1.c **** /*******************************************************************************
 847:.\Generated_Source\PSoC5/CAN_1.c **** * FUNCTION NAME:   CAN_1_GetTXErrorflag
 848:.\Generated_Source\PSoC5/CAN_1.c **** ********************************************************************************
 849:.\Generated_Source\PSoC5/CAN_1.c **** *
 850:.\Generated_Source\PSoC5/CAN_1.c **** * Summary:
 851:.\Generated_Source\PSoC5/CAN_1.c **** *  This function returns the bit that indicates if the number of TX errors
 852:.\Generated_Source\PSoC5/CAN_1.c **** *  exceeds 0x60.
 853:.\Generated_Source\PSoC5/CAN_1.c **** *
 854:.\Generated_Source\PSoC5/CAN_1.c **** * Parameters:
 855:.\Generated_Source\PSoC5/CAN_1.c **** *  None.
 856:.\Generated_Source\PSoC5/CAN_1.c **** *
 857:.\Generated_Source\PSoC5/CAN_1.c **** * Return:
 858:.\Generated_Source\PSoC5/CAN_1.c **** *  Indication whether the number of TX errors exceeds 0x60.
 859:.\Generated_Source\PSoC5/CAN_1.c **** *
 860:.\Generated_Source\PSoC5/CAN_1.c **** *******************************************************************************/
 861:.\Generated_Source\PSoC5/CAN_1.c **** uint8 CAN_1_GetTXErrorFlag(void) 
 862:.\Generated_Source\PSoC5/CAN_1.c **** {
 1329              		.loc 1 862 0
 1330              		.cfi_startproc
 1331              		@ args = 0, pretend = 0, frame = 0
 1332              		@ frame_needed = 1, uses_anonymous_args = 0
 1333              		@ link register save eliminated.
 1334 0000 80B4     		push	{r7}
 1335              		.cfi_def_cfa_offset 4
 1336              		.cfi_offset 7, -4
 1337 0002 00AF     		add	r7, sp, #0
 1338              		.cfi_def_cfa_register 7
 863:.\Generated_Source\PSoC5/CAN_1.c ****     /* Get the state of the transmit error flag */
 864:.\Generated_Source\PSoC5/CAN_1.c ****     return (((CAN_1_ERR_SR_REG.byte[2u] & CAN_1_TX_ERROR_FLAG_MASK) ==
 1339              		.loc 1 864 0
 1340 0004 074B     		ldr	r3, .L98
 1341 0006 9B78     		ldrb	r3, [r3, #2]
 1342 0008 DBB2     		uxtb	r3, r3
 1343 000a 03F00403 		and	r3, r3, #4
 1344 000e 002B     		cmp	r3, #0
 1345 0010 01D0     		beq	.L95
 1346              		.loc 1 864 0 is_stmt 0 discriminator 1
 1347 0012 0123     		movs	r3, #1
 1348 0014 00E0     		b	.L96
 1349              	.L95:
 1350              		.loc 1 864 0 discriminator 2
 1351 0016 0023     		movs	r3, #0
ARM GAS  C:\Users\khjtony\AppData\Local\Temp\ccDWw2Fb.s 			page 40


 1352              	.L96:
 865:.\Generated_Source\PSoC5/CAN_1.c ****               CAN_1_TX_ERROR_FLAG_MASK) ? 1u : 0u);
 866:.\Generated_Source\PSoC5/CAN_1.c **** }
 1353              		.loc 1 866 0 is_stmt 1 discriminator 3
 1354 0018 1846     		mov	r0, r3
 1355 001a BD46     		mov	sp, r7
 1356              		@ sp needed
 1357 001c 5DF8047B 		ldr	r7, [sp], #4
 1358 0020 7047     		bx	lr
 1359              	.L99:
 1360 0022 00BF     		.align	2
 1361              	.L98:
 1362 0024 0CA00040 		.word	1073782796
 1363              		.cfi_endproc
 1364              	.LFE14:
 1365              		.size	CAN_1_GetTXErrorFlag, .-CAN_1_GetTXErrorFlag
 1366              		.section	.text.CAN_1_GetRXErrorFlag,"ax",%progbits
 1367              		.align	2
 1368              		.global	CAN_1_GetRXErrorFlag
 1369              		.thumb
 1370              		.thumb_func
 1371              		.type	CAN_1_GetRXErrorFlag, %function
 1372              	CAN_1_GetRXErrorFlag:
 1373              	.LFB15:
 867:.\Generated_Source\PSoC5/CAN_1.c **** 
 868:.\Generated_Source\PSoC5/CAN_1.c **** 
 869:.\Generated_Source\PSoC5/CAN_1.c **** /*******************************************************************************
 870:.\Generated_Source\PSoC5/CAN_1.c **** * FUNCTION NAME:   CAN_1_GetRXErrorFlag
 871:.\Generated_Source\PSoC5/CAN_1.c **** ********************************************************************************
 872:.\Generated_Source\PSoC5/CAN_1.c **** *
 873:.\Generated_Source\PSoC5/CAN_1.c **** * Summary:
 874:.\Generated_Source\PSoC5/CAN_1.c **** *  This function returns the bit that indicates if the number of RX errors
 875:.\Generated_Source\PSoC5/CAN_1.c **** *  exceeds 0x60.
 876:.\Generated_Source\PSoC5/CAN_1.c **** *
 877:.\Generated_Source\PSoC5/CAN_1.c **** * Parameters:
 878:.\Generated_Source\PSoC5/CAN_1.c **** *  None.
 879:.\Generated_Source\PSoC5/CAN_1.c **** *
 880:.\Generated_Source\PSoC5/CAN_1.c **** * Return:
 881:.\Generated_Source\PSoC5/CAN_1.c **** *  Indication whether the number of TX errors exceeds 0x60.
 882:.\Generated_Source\PSoC5/CAN_1.c **** *
 883:.\Generated_Source\PSoC5/CAN_1.c **** *******************************************************************************/
 884:.\Generated_Source\PSoC5/CAN_1.c **** uint8 CAN_1_GetRXErrorFlag(void) 
 885:.\Generated_Source\PSoC5/CAN_1.c **** {
 1374              		.loc 1 885 0
 1375              		.cfi_startproc
 1376              		@ args = 0, pretend = 0, frame = 0
 1377              		@ frame_needed = 1, uses_anonymous_args = 0
 1378              		@ link register save eliminated.
 1379 0000 80B4     		push	{r7}
 1380              		.cfi_def_cfa_offset 4
 1381              		.cfi_offset 7, -4
 1382 0002 00AF     		add	r7, sp, #0
 1383              		.cfi_def_cfa_register 7
 886:.\Generated_Source\PSoC5/CAN_1.c ****     /* Get the state of the receive error flag */
 887:.\Generated_Source\PSoC5/CAN_1.c ****     return (((CAN_1_ERR_SR_REG.byte[2u] & CAN_1_RX_ERROR_FLAG_MASK) ==
 1384              		.loc 1 887 0
 1385 0004 074B     		ldr	r3, .L104
ARM GAS  C:\Users\khjtony\AppData\Local\Temp\ccDWw2Fb.s 			page 41


 1386 0006 9B78     		ldrb	r3, [r3, #2]
 1387 0008 DBB2     		uxtb	r3, r3
 1388 000a 03F00803 		and	r3, r3, #8
 1389 000e 002B     		cmp	r3, #0
 1390 0010 01D0     		beq	.L101
 1391              		.loc 1 887 0 is_stmt 0 discriminator 1
 1392 0012 0123     		movs	r3, #1
 1393 0014 00E0     		b	.L102
 1394              	.L101:
 1395              		.loc 1 887 0 discriminator 2
 1396 0016 0023     		movs	r3, #0
 1397              	.L102:
 888:.\Generated_Source\PSoC5/CAN_1.c ****               CAN_1_RX_ERROR_FLAG_MASK) ? 1u : 0u);
 889:.\Generated_Source\PSoC5/CAN_1.c **** }
 1398              		.loc 1 889 0 is_stmt 1 discriminator 3
 1399 0018 1846     		mov	r0, r3
 1400 001a BD46     		mov	sp, r7
 1401              		@ sp needed
 1402 001c 5DF8047B 		ldr	r7, [sp], #4
 1403 0020 7047     		bx	lr
 1404              	.L105:
 1405 0022 00BF     		.align	2
 1406              	.L104:
 1407 0024 0CA00040 		.word	1073782796
 1408              		.cfi_endproc
 1409              	.LFE15:
 1410              		.size	CAN_1_GetRXErrorFlag, .-CAN_1_GetRXErrorFlag
 1411              		.section	.text.CAN_1_GetTXErrorCount,"ax",%progbits
 1412              		.align	2
 1413              		.global	CAN_1_GetTXErrorCount
 1414              		.thumb
 1415              		.thumb_func
 1416              		.type	CAN_1_GetTXErrorCount, %function
 1417              	CAN_1_GetTXErrorCount:
 1418              	.LFB16:
 890:.\Generated_Source\PSoC5/CAN_1.c **** 
 891:.\Generated_Source\PSoC5/CAN_1.c **** 
 892:.\Generated_Source\PSoC5/CAN_1.c **** /*******************************************************************************
 893:.\Generated_Source\PSoC5/CAN_1.c **** * FUNCTION NAME:   CAN_1_TXErrorCount
 894:.\Generated_Source\PSoC5/CAN_1.c **** ********************************************************************************
 895:.\Generated_Source\PSoC5/CAN_1.c **** *
 896:.\Generated_Source\PSoC5/CAN_1.c **** * Summary:
 897:.\Generated_Source\PSoC5/CAN_1.c **** *  This function returns the number of Transmit Errors.
 898:.\Generated_Source\PSoC5/CAN_1.c **** *
 899:.\Generated_Source\PSoC5/CAN_1.c **** * Parameters:
 900:.\Generated_Source\PSoC5/CAN_1.c **** *  None.
 901:.\Generated_Source\PSoC5/CAN_1.c **** *
 902:.\Generated_Source\PSoC5/CAN_1.c **** * Return:
 903:.\Generated_Source\PSoC5/CAN_1.c **** *  Number of Transmit Errors.
 904:.\Generated_Source\PSoC5/CAN_1.c **** *
 905:.\Generated_Source\PSoC5/CAN_1.c **** *******************************************************************************/
 906:.\Generated_Source\PSoC5/CAN_1.c **** uint8 CAN_1_GetTXErrorCount(void) 
 907:.\Generated_Source\PSoC5/CAN_1.c **** {
 1419              		.loc 1 907 0
 1420              		.cfi_startproc
 1421              		@ args = 0, pretend = 0, frame = 0
 1422              		@ frame_needed = 1, uses_anonymous_args = 0
ARM GAS  C:\Users\khjtony\AppData\Local\Temp\ccDWw2Fb.s 			page 42


 1423              		@ link register save eliminated.
 1424 0000 80B4     		push	{r7}
 1425              		.cfi_def_cfa_offset 4
 1426              		.cfi_offset 7, -4
 1427 0002 00AF     		add	r7, sp, #0
 1428              		.cfi_def_cfa_register 7
 908:.\Generated_Source\PSoC5/CAN_1.c ****     /* Get the state of the transmit error count */
 909:.\Generated_Source\PSoC5/CAN_1.c ****     return (CAN_1_ERR_SR_REG.byte[0u]);    /* bits 7-0 */
 1429              		.loc 1 909 0
 1430 0004 034B     		ldr	r3, .L108
 1431 0006 1B78     		ldrb	r3, [r3]
 1432 0008 DBB2     		uxtb	r3, r3
 910:.\Generated_Source\PSoC5/CAN_1.c **** }
 1433              		.loc 1 910 0
 1434 000a 1846     		mov	r0, r3
 1435 000c BD46     		mov	sp, r7
 1436              		@ sp needed
 1437 000e 5DF8047B 		ldr	r7, [sp], #4
 1438 0012 7047     		bx	lr
 1439              	.L109:
 1440              		.align	2
 1441              	.L108:
 1442 0014 0CA00040 		.word	1073782796
 1443              		.cfi_endproc
 1444              	.LFE16:
 1445              		.size	CAN_1_GetTXErrorCount, .-CAN_1_GetTXErrorCount
 1446              		.section	.text.CAN_1_GetRXErrorCount,"ax",%progbits
 1447              		.align	2
 1448              		.global	CAN_1_GetRXErrorCount
 1449              		.thumb
 1450              		.thumb_func
 1451              		.type	CAN_1_GetRXErrorCount, %function
 1452              	CAN_1_GetRXErrorCount:
 1453              	.LFB17:
 911:.\Generated_Source\PSoC5/CAN_1.c **** 
 912:.\Generated_Source\PSoC5/CAN_1.c **** 
 913:.\Generated_Source\PSoC5/CAN_1.c **** /*******************************************************************************
 914:.\Generated_Source\PSoC5/CAN_1.c **** * FUNCTION NAME:   CAN_1_RXErrorCount
 915:.\Generated_Source\PSoC5/CAN_1.c **** ********************************************************************************
 916:.\Generated_Source\PSoC5/CAN_1.c **** *
 917:.\Generated_Source\PSoC5/CAN_1.c **** * Summary:
 918:.\Generated_Source\PSoC5/CAN_1.c **** *  This function returns the number of Receive Errors.
 919:.\Generated_Source\PSoC5/CAN_1.c **** *
 920:.\Generated_Source\PSoC5/CAN_1.c **** * Parameters:
 921:.\Generated_Source\PSoC5/CAN_1.c **** *  None.
 922:.\Generated_Source\PSoC5/CAN_1.c **** *
 923:.\Generated_Source\PSoC5/CAN_1.c **** * Return:
 924:.\Generated_Source\PSoC5/CAN_1.c **** *  Number of Receive Errors.
 925:.\Generated_Source\PSoC5/CAN_1.c **** *
 926:.\Generated_Source\PSoC5/CAN_1.c **** *******************************************************************************/
 927:.\Generated_Source\PSoC5/CAN_1.c **** uint8 CAN_1_GetRXErrorCount(void) 
 928:.\Generated_Source\PSoC5/CAN_1.c **** {
 1454              		.loc 1 928 0
 1455              		.cfi_startproc
 1456              		@ args = 0, pretend = 0, frame = 0
 1457              		@ frame_needed = 1, uses_anonymous_args = 0
 1458              		@ link register save eliminated.
ARM GAS  C:\Users\khjtony\AppData\Local\Temp\ccDWw2Fb.s 			page 43


 1459 0000 80B4     		push	{r7}
 1460              		.cfi_def_cfa_offset 4
 1461              		.cfi_offset 7, -4
 1462 0002 00AF     		add	r7, sp, #0
 1463              		.cfi_def_cfa_register 7
 929:.\Generated_Source\PSoC5/CAN_1.c ****     /* Get the state of the receive error count */
 930:.\Generated_Source\PSoC5/CAN_1.c ****     return (CAN_1_ERR_SR_REG.byte[1u]);    /* bits 15-8 */
 1464              		.loc 1 930 0
 1465 0004 034B     		ldr	r3, .L112
 1466 0006 5B78     		ldrb	r3, [r3, #1]
 1467 0008 DBB2     		uxtb	r3, r3
 931:.\Generated_Source\PSoC5/CAN_1.c **** }
 1468              		.loc 1 931 0
 1469 000a 1846     		mov	r0, r3
 1470 000c BD46     		mov	sp, r7
 1471              		@ sp needed
 1472 000e 5DF8047B 		ldr	r7, [sp], #4
 1473 0012 7047     		bx	lr
 1474              	.L113:
 1475              		.align	2
 1476              	.L112:
 1477 0014 0CA00040 		.word	1073782796
 1478              		.cfi_endproc
 1479              	.LFE17:
 1480              		.size	CAN_1_GetRXErrorCount, .-CAN_1_GetRXErrorCount
 1481              		.section	.text.CAN_1_GetErrorState,"ax",%progbits
 1482              		.align	2
 1483              		.global	CAN_1_GetErrorState
 1484              		.thumb
 1485              		.thumb_func
 1486              		.type	CAN_1_GetErrorState, %function
 1487              	CAN_1_GetErrorState:
 1488              	.LFB18:
 932:.\Generated_Source\PSoC5/CAN_1.c **** 
 933:.\Generated_Source\PSoC5/CAN_1.c **** 
 934:.\Generated_Source\PSoC5/CAN_1.c **** /*******************************************************************************
 935:.\Generated_Source\PSoC5/CAN_1.c **** * FUNCTION NAME:   CAN_1_GetErrorState
 936:.\Generated_Source\PSoC5/CAN_1.c **** ********************************************************************************
 937:.\Generated_Source\PSoC5/CAN_1.c **** *
 938:.\Generated_Source\PSoC5/CAN_1.c **** * Summary:
 939:.\Generated_Source\PSoC5/CAN_1.c **** *  This function returns error status of CAN Component.
 940:.\Generated_Source\PSoC5/CAN_1.c **** *
 941:.\Generated_Source\PSoC5/CAN_1.c **** * Parameters:
 942:.\Generated_Source\PSoC5/CAN_1.c **** *  None.
 943:.\Generated_Source\PSoC5/CAN_1.c **** *
 944:.\Generated_Source\PSoC5/CAN_1.c **** * Return:
 945:.\Generated_Source\PSoC5/CAN_1.c **** *  Error status.
 946:.\Generated_Source\PSoC5/CAN_1.c **** *
 947:.\Generated_Source\PSoC5/CAN_1.c **** *******************************************************************************/
 948:.\Generated_Source\PSoC5/CAN_1.c **** uint8 CAN_1_GetErrorState(void) 
 949:.\Generated_Source\PSoC5/CAN_1.c **** {
 1489              		.loc 1 949 0
 1490              		.cfi_startproc
 1491              		@ args = 0, pretend = 0, frame = 0
 1492              		@ frame_needed = 1, uses_anonymous_args = 0
 1493              		@ link register save eliminated.
 1494 0000 80B4     		push	{r7}
ARM GAS  C:\Users\khjtony\AppData\Local\Temp\ccDWw2Fb.s 			page 44


 1495              		.cfi_def_cfa_offset 4
 1496              		.cfi_offset 7, -4
 1497 0002 00AF     		add	r7, sp, #0
 1498              		.cfi_def_cfa_register 7
 950:.\Generated_Source\PSoC5/CAN_1.c ****     /* Get the error state of the receiver */
 951:.\Generated_Source\PSoC5/CAN_1.c ****     return (CAN_1_ERR_SR_REG.byte[2u] & CAN_1_ERROR_STATE_MASK);
 1499              		.loc 1 951 0
 1500 0004 054B     		ldr	r3, .L116
 1501 0006 9B78     		ldrb	r3, [r3, #2]
 1502 0008 DBB2     		uxtb	r3, r3
 1503 000a 03F00303 		and	r3, r3, #3
 1504 000e DBB2     		uxtb	r3, r3
 952:.\Generated_Source\PSoC5/CAN_1.c **** }
 1505              		.loc 1 952 0
 1506 0010 1846     		mov	r0, r3
 1507 0012 BD46     		mov	sp, r7
 1508              		@ sp needed
 1509 0014 5DF8047B 		ldr	r7, [sp], #4
 1510 0018 7047     		bx	lr
 1511              	.L117:
 1512 001a 00BF     		.align	2
 1513              	.L116:
 1514 001c 0CA00040 		.word	1073782796
 1515              		.cfi_endproc
 1516              	.LFE18:
 1517              		.size	CAN_1_GetErrorState, .-CAN_1_GetErrorState
 1518              		.section	.text.CAN_1_RxBufConfig,"ax",%progbits
 1519              		.align	2
 1520              		.global	CAN_1_RxBufConfig
 1521              		.thumb
 1522              		.thumb_func
 1523              		.type	CAN_1_RxBufConfig, %function
 1524              	CAN_1_RxBufConfig:
 1525              	.LFB19:
 953:.\Generated_Source\PSoC5/CAN_1.c **** 
 954:.\Generated_Source\PSoC5/CAN_1.c **** 
 955:.\Generated_Source\PSoC5/CAN_1.c **** /*******************************************************************************
 956:.\Generated_Source\PSoC5/CAN_1.c **** * FUNCTION NAME:   CAN_1_RxBufConfig
 957:.\Generated_Source\PSoC5/CAN_1.c **** ********************************************************************************
 958:.\Generated_Source\PSoC5/CAN_1.c **** *
 959:.\Generated_Source\PSoC5/CAN_1.c **** * Summary:
 960:.\Generated_Source\PSoC5/CAN_1.c **** *  This function configures all receive registers for particular mailbox.
 961:.\Generated_Source\PSoC5/CAN_1.c **** *
 962:.\Generated_Source\PSoC5/CAN_1.c **** * Parameters:
 963:.\Generated_Source\PSoC5/CAN_1.c **** *  rxConfig: Pointer to structure that contain all required values to configure
 964:.\Generated_Source\PSoC5/CAN_1.c **** *  all receive registers for particular mailbox.
 965:.\Generated_Source\PSoC5/CAN_1.c **** *
 966:.\Generated_Source\PSoC5/CAN_1.c **** * Return:
 967:.\Generated_Source\PSoC5/CAN_1.c **** *  Indication if particular configuration has been accepted or rejected.
 968:.\Generated_Source\PSoC5/CAN_1.c **** *   Define                             Description
 969:.\Generated_Source\PSoC5/CAN_1.c **** *    CYRET_SUCCESS                      Function passed successfully
 970:.\Generated_Source\PSoC5/CAN_1.c **** *    CAN_1_FAIL              Function failed
 971:.\Generated_Source\PSoC5/CAN_1.c **** *
 972:.\Generated_Source\PSoC5/CAN_1.c **** *******************************************************************************/
 973:.\Generated_Source\PSoC5/CAN_1.c **** uint8 CAN_1_RxBufConfig(const CAN_1_RX_CFG *rxConfig)
 974:.\Generated_Source\PSoC5/CAN_1.c ****                                    
 975:.\Generated_Source\PSoC5/CAN_1.c **** {
ARM GAS  C:\Users\khjtony\AppData\Local\Temp\ccDWw2Fb.s 			page 45


 1526              		.loc 1 975 0
 1527              		.cfi_startproc
 1528              		@ args = 0, pretend = 0, frame = 16
 1529              		@ frame_needed = 1, uses_anonymous_args = 0
 1530              		@ link register save eliminated.
 1531 0000 80B4     		push	{r7}
 1532              		.cfi_def_cfa_offset 4
 1533              		.cfi_offset 7, -4
 1534 0002 85B0     		sub	sp, sp, #20
 1535              		.cfi_def_cfa_offset 24
 1536 0004 00AF     		add	r7, sp, #0
 1537              		.cfi_def_cfa_register 7
 1538 0006 7860     		str	r0, [r7, #4]
 976:.\Generated_Source\PSoC5/CAN_1.c ****     uint8 result = CAN_1_FAIL;
 1539              		.loc 1 976 0
 1540 0008 0123     		movs	r3, #1
 1541 000a FB73     		strb	r3, [r7, #15]
 977:.\Generated_Source\PSoC5/CAN_1.c **** 
 978:.\Generated_Source\PSoC5/CAN_1.c ****     /* Write RX CMD Register */
 979:.\Generated_Source\PSoC5/CAN_1.c ****     CY_SET_REG32((reg32 *) &CAN_1_RX[rxConfig->rxmailbox].rxcmd, (rxConfig->rxcmd |
 1542              		.loc 1 979 0
 1543 000c 7B68     		ldr	r3, [r7, #4]
 1544 000e 1B78     		ldrb	r3, [r3]	@ zero_extendqisi2
 1545 0010 5A01     		lsls	r2, r3, #5
 1546 0012 354B     		ldr	r3, .L121
 1547 0014 1344     		add	r3, r3, r2
 1548 0016 7A68     		ldr	r2, [r7, #4]
 1549 0018 5268     		ldr	r2, [r2, #4]
 1550 001a 42F08012 		orr	r2, r2, #8388736
 1551 001e 1A60     		str	r2, [r3]
 980:.\Generated_Source\PSoC5/CAN_1.c ****                  CAN_1_RX_WPN_SET));
 981:.\Generated_Source\PSoC5/CAN_1.c ****     if ((CY_GET_REG32((reg32 *) &CAN_1_RX[rxConfig->rxmailbox].rxcmd) &
 1552              		.loc 1 981 0
 1553 0020 7B68     		ldr	r3, [r7, #4]
 1554 0022 1B78     		ldrb	r3, [r3]	@ zero_extendqisi2
 1555 0024 5A01     		lsls	r2, r3, #5
 1556 0026 304B     		ldr	r3, .L121
 1557 0028 1344     		add	r3, r3, r2
 1558 002a 1B68     		ldr	r3, [r3]
 1559 002c 03F07F12 		and	r2, r3, #8323199
 982:.\Generated_Source\PSoC5/CAN_1.c ****          CAN_1_RX_READ_BACK_MASK) == (rxConfig->rxcmd & CAN_1_RX_WPN_CLEAR))
 1560              		.loc 1 982 0
 1561 0030 7B68     		ldr	r3, [r7, #4]
 1562 0032 5B68     		ldr	r3, [r3, #4]
 1563 0034 23F08013 		bic	r3, r3, #8388736
 981:.\Generated_Source\PSoC5/CAN_1.c ****     if ((CY_GET_REG32((reg32 *) &CAN_1_RX[rxConfig->rxmailbox].rxcmd) &
 1564              		.loc 1 981 0
 1565 0038 9A42     		cmp	r2, r3
 1566 003a 4DD1     		bne	.L119
 983:.\Generated_Source\PSoC5/CAN_1.c ****     {
 984:.\Generated_Source\PSoC5/CAN_1.c ****         /* Write RX AMR Register */
 985:.\Generated_Source\PSoC5/CAN_1.c ****         CY_SET_REG32((reg32 *) &CAN_1_RX[rxConfig->rxmailbox].rxamr, rxConfig->rxamr);
 1567              		.loc 1 985 0
 1568 003c 7B68     		ldr	r3, [r7, #4]
 1569 003e 1B78     		ldrb	r3, [r3]	@ zero_extendqisi2
 1570 0040 5A01     		lsls	r2, r3, #5
 1571 0042 294B     		ldr	r3, .L121
ARM GAS  C:\Users\khjtony\AppData\Local\Temp\ccDWw2Fb.s 			page 46


 1572 0044 1344     		add	r3, r3, r2
 1573 0046 1033     		adds	r3, r3, #16
 1574 0048 7A68     		ldr	r2, [r7, #4]
 1575 004a 9268     		ldr	r2, [r2, #8]
 1576 004c 1A60     		str	r2, [r3]
 986:.\Generated_Source\PSoC5/CAN_1.c ****         if (CY_GET_REG32((reg32 *) &CAN_1_RX[rxConfig->rxmailbox].rxamr) == rxConfig->rxamr)
 1577              		.loc 1 986 0
 1578 004e 7B68     		ldr	r3, [r7, #4]
 1579 0050 1B78     		ldrb	r3, [r3]	@ zero_extendqisi2
 1580 0052 5A01     		lsls	r2, r3, #5
 1581 0054 244B     		ldr	r3, .L121
 1582 0056 1344     		add	r3, r3, r2
 1583 0058 1033     		adds	r3, r3, #16
 1584 005a 1A68     		ldr	r2, [r3]
 1585 005c 7B68     		ldr	r3, [r7, #4]
 1586 005e 9B68     		ldr	r3, [r3, #8]
 1587 0060 9A42     		cmp	r2, r3
 1588 0062 39D1     		bne	.L119
 987:.\Generated_Source\PSoC5/CAN_1.c ****         {
 988:.\Generated_Source\PSoC5/CAN_1.c ****             /* Write RX ACR Register */
 989:.\Generated_Source\PSoC5/CAN_1.c ****             CY_SET_REG32((reg32 *) &CAN_1_RX[rxConfig->rxmailbox].rxacr, rxConfig->rxacr);
 1589              		.loc 1 989 0
 1590 0064 7B68     		ldr	r3, [r7, #4]
 1591 0066 1B78     		ldrb	r3, [r3]	@ zero_extendqisi2
 1592 0068 5A01     		lsls	r2, r3, #5
 1593 006a 1F4B     		ldr	r3, .L121
 1594 006c 1344     		add	r3, r3, r2
 1595 006e 1433     		adds	r3, r3, #20
 1596 0070 7A68     		ldr	r2, [r7, #4]
 1597 0072 D268     		ldr	r2, [r2, #12]
 1598 0074 1A60     		str	r2, [r3]
 990:.\Generated_Source\PSoC5/CAN_1.c ****             if (CY_GET_REG32((reg32 *) &CAN_1_RX[rxConfig->rxmailbox].rxacr) == rxConfig->rxacr)
 1599              		.loc 1 990 0
 1600 0076 7B68     		ldr	r3, [r7, #4]
 1601 0078 1B78     		ldrb	r3, [r3]	@ zero_extendqisi2
 1602 007a 5A01     		lsls	r2, r3, #5
 1603 007c 1A4B     		ldr	r3, .L121
 1604 007e 1344     		add	r3, r3, r2
 1605 0080 1433     		adds	r3, r3, #20
 1606 0082 1A68     		ldr	r2, [r3]
 1607 0084 7B68     		ldr	r3, [r7, #4]
 1608 0086 DB68     		ldr	r3, [r3, #12]
 1609 0088 9A42     		cmp	r2, r3
 1610 008a 25D1     		bne	.L119
 991:.\Generated_Source\PSoC5/CAN_1.c ****             {
 992:.\Generated_Source\PSoC5/CAN_1.c ****                 /* Write RX AMRD Register */
 993:.\Generated_Source\PSoC5/CAN_1.c ****                 CY_SET_REG32((reg32 *) &CAN_1_RX[rxConfig->rxmailbox].rxamrd, 0xFFFFFFFFu);
 1611              		.loc 1 993 0
 1612 008c 7B68     		ldr	r3, [r7, #4]
 1613 008e 1B78     		ldrb	r3, [r3]	@ zero_extendqisi2
 1614 0090 5A01     		lsls	r2, r3, #5
 1615 0092 154B     		ldr	r3, .L121
 1616 0094 1344     		add	r3, r3, r2
 1617 0096 1833     		adds	r3, r3, #24
 1618 0098 4FF0FF32 		mov	r2, #-1
 1619 009c 1A60     		str	r2, [r3]
 994:.\Generated_Source\PSoC5/CAN_1.c ****                 if (CY_GET_REG32((reg32 *) &CAN_1_RX[rxConfig->rxmailbox].rxamrd) == 0xFFFFFFFFu)
ARM GAS  C:\Users\khjtony\AppData\Local\Temp\ccDWw2Fb.s 			page 47


 1620              		.loc 1 994 0
 1621 009e 7B68     		ldr	r3, [r7, #4]
 1622 00a0 1B78     		ldrb	r3, [r3]	@ zero_extendqisi2
 1623 00a2 5A01     		lsls	r2, r3, #5
 1624 00a4 104B     		ldr	r3, .L121
 1625 00a6 1344     		add	r3, r3, r2
 1626 00a8 1833     		adds	r3, r3, #24
 1627 00aa 1B68     		ldr	r3, [r3]
 1628 00ac B3F1FF3F 		cmp	r3, #-1
 1629 00b0 12D1     		bne	.L119
 995:.\Generated_Source\PSoC5/CAN_1.c ****                 {
 996:.\Generated_Source\PSoC5/CAN_1.c ****                     /* Write RX ACRD Register */
 997:.\Generated_Source\PSoC5/CAN_1.c ****                     CY_SET_REG32((reg32 *) &CAN_1_RX[rxConfig->rxmailbox].rxacrd, 0x00000000u);
 1630              		.loc 1 997 0
 1631 00b2 7B68     		ldr	r3, [r7, #4]
 1632 00b4 1B78     		ldrb	r3, [r3]	@ zero_extendqisi2
 1633 00b6 5A01     		lsls	r2, r3, #5
 1634 00b8 0B4B     		ldr	r3, .L121
 1635 00ba 1344     		add	r3, r3, r2
 1636 00bc 1C33     		adds	r3, r3, #28
 1637 00be 0022     		movs	r2, #0
 1638 00c0 1A60     		str	r2, [r3]
 998:.\Generated_Source\PSoC5/CAN_1.c ****                     if (CY_GET_REG32((reg32 *) &CAN_1_RX[rxConfig->rxmailbox].rxacrd) == 0x00000000
 1639              		.loc 1 998 0
 1640 00c2 7B68     		ldr	r3, [r7, #4]
 1641 00c4 1B78     		ldrb	r3, [r3]	@ zero_extendqisi2
 1642 00c6 5A01     		lsls	r2, r3, #5
 1643 00c8 074B     		ldr	r3, .L121
 1644 00ca 1344     		add	r3, r3, r2
 1645 00cc 1C33     		adds	r3, r3, #28
 1646 00ce 1B68     		ldr	r3, [r3]
 1647 00d0 002B     		cmp	r3, #0
 1648 00d2 01D1     		bne	.L119
 999:.\Generated_Source\PSoC5/CAN_1.c ****                     {
1000:.\Generated_Source\PSoC5/CAN_1.c ****                             result = CYRET_SUCCESS;
 1649              		.loc 1 1000 0
 1650 00d4 0023     		movs	r3, #0
 1651 00d6 FB73     		strb	r3, [r7, #15]
 1652              	.L119:
1001:.\Generated_Source\PSoC5/CAN_1.c ****                     }
1002:.\Generated_Source\PSoC5/CAN_1.c ****                 }
1003:.\Generated_Source\PSoC5/CAN_1.c ****             }
1004:.\Generated_Source\PSoC5/CAN_1.c ****         }
1005:.\Generated_Source\PSoC5/CAN_1.c ****     }
1006:.\Generated_Source\PSoC5/CAN_1.c **** 
1007:.\Generated_Source\PSoC5/CAN_1.c ****     return (result);
 1653              		.loc 1 1007 0
 1654 00d8 FB7B     		ldrb	r3, [r7, #15]	@ zero_extendqisi2
1008:.\Generated_Source\PSoC5/CAN_1.c **** }
 1655              		.loc 1 1008 0
 1656 00da 1846     		mov	r0, r3
 1657 00dc 1437     		adds	r7, r7, #20
 1658 00de BD46     		mov	sp, r7
 1659              		@ sp needed
 1660 00e0 5DF8047B 		ldr	r7, [sp], #4
 1661 00e4 7047     		bx	lr
 1662              	.L122:
ARM GAS  C:\Users\khjtony\AppData\Local\Temp\ccDWw2Fb.s 			page 48


 1663 00e6 00BF     		.align	2
 1664              	.L121:
 1665 00e8 A0A00040 		.word	1073782944
 1666              		.cfi_endproc
 1667              	.LFE19:
 1668              		.size	CAN_1_RxBufConfig, .-CAN_1_RxBufConfig
 1669              		.section	.text.CAN_1_TxBufConfig,"ax",%progbits
 1670              		.align	2
 1671              		.global	CAN_1_TxBufConfig
 1672              		.thumb
 1673              		.thumb_func
 1674              		.type	CAN_1_TxBufConfig, %function
 1675              	CAN_1_TxBufConfig:
 1676              	.LFB20:
1009:.\Generated_Source\PSoC5/CAN_1.c **** 
1010:.\Generated_Source\PSoC5/CAN_1.c **** 
1011:.\Generated_Source\PSoC5/CAN_1.c **** /*******************************************************************************
1012:.\Generated_Source\PSoC5/CAN_1.c **** * FUNCTION NAME:   CAN_1_TxBufConfig
1013:.\Generated_Source\PSoC5/CAN_1.c **** ********************************************************************************
1014:.\Generated_Source\PSoC5/CAN_1.c **** *
1015:.\Generated_Source\PSoC5/CAN_1.c **** * Summary:
1016:.\Generated_Source\PSoC5/CAN_1.c **** *  This function configures all transmit registers for particular mailbox.
1017:.\Generated_Source\PSoC5/CAN_1.c **** *  Mailbox number contains CAN_1_TX_CFG structure.
1018:.\Generated_Source\PSoC5/CAN_1.c **** *
1019:.\Generated_Source\PSoC5/CAN_1.c **** * Parameters:
1020:.\Generated_Source\PSoC5/CAN_1.c **** *  txConfig: Pointer to structure that contain all required values to configure
1021:.\Generated_Source\PSoC5/CAN_1.c **** *  all transmit registers for particular mailbox.
1022:.\Generated_Source\PSoC5/CAN_1.c **** *
1023:.\Generated_Source\PSoC5/CAN_1.c **** * Return:
1024:.\Generated_Source\PSoC5/CAN_1.c **** *  Indication if particular configuration has been accepted or rejected.
1025:.\Generated_Source\PSoC5/CAN_1.c **** *   Define                             Description
1026:.\Generated_Source\PSoC5/CAN_1.c **** *    CYRET_SUCCESS                      Function passed successfully
1027:.\Generated_Source\PSoC5/CAN_1.c **** *    CAN_1_FAIL              Function failed
1028:.\Generated_Source\PSoC5/CAN_1.c **** *
1029:.\Generated_Source\PSoC5/CAN_1.c **** *******************************************************************************/
1030:.\Generated_Source\PSoC5/CAN_1.c **** uint8 CAN_1_TxBufConfig(const CAN_1_TX_CFG *txConfig) 
1031:.\Generated_Source\PSoC5/CAN_1.c ****                                    
1032:.\Generated_Source\PSoC5/CAN_1.c **** {
 1677              		.loc 1 1032 0
 1678              		.cfi_startproc
 1679              		@ args = 0, pretend = 0, frame = 16
 1680              		@ frame_needed = 1, uses_anonymous_args = 0
 1681              		@ link register save eliminated.
 1682 0000 80B4     		push	{r7}
 1683              		.cfi_def_cfa_offset 4
 1684              		.cfi_offset 7, -4
 1685 0002 85B0     		sub	sp, sp, #20
 1686              		.cfi_def_cfa_offset 24
 1687 0004 00AF     		add	r7, sp, #0
 1688              		.cfi_def_cfa_register 7
 1689 0006 7860     		str	r0, [r7, #4]
1033:.\Generated_Source\PSoC5/CAN_1.c ****     uint8 result = CAN_1_FAIL;
 1690              		.loc 1 1033 0
 1691 0008 0123     		movs	r3, #1
 1692 000a FB73     		strb	r3, [r7, #15]
1034:.\Generated_Source\PSoC5/CAN_1.c **** 
1035:.\Generated_Source\PSoC5/CAN_1.c ****     /* Write TX CMD Register */
ARM GAS  C:\Users\khjtony\AppData\Local\Temp\ccDWw2Fb.s 			page 49


1036:.\Generated_Source\PSoC5/CAN_1.c ****     CY_SET_REG32((reg32 *) &CAN_1_TX[txConfig->txmailbox].txcmd, (txConfig->txcmd |
 1693              		.loc 1 1036 0
 1694 000c 7B68     		ldr	r3, [r7, #4]
 1695 000e 1B78     		ldrb	r3, [r3]	@ zero_extendqisi2
 1696 0010 1A01     		lsls	r2, r3, #4
 1697 0012 1B4B     		ldr	r3, .L126
 1698 0014 1344     		add	r3, r3, r2
 1699 0016 1A46     		mov	r2, r3
 1700 0018 7B68     		ldr	r3, [r7, #4]
 1701 001a 5B68     		ldr	r3, [r3, #4]
 1702 001c 43F40003 		orr	r3, r3, #8388608
 1703 0020 43F00803 		orr	r3, r3, #8
 1704 0024 1360     		str	r3, [r2]
1037:.\Generated_Source\PSoC5/CAN_1.c ****                  CAN_1_TX_WPN_SET));
1038:.\Generated_Source\PSoC5/CAN_1.c ****     if ((CY_GET_REG32((reg32 *) & CAN_1_TX[txConfig->txmailbox].txcmd) &
 1705              		.loc 1 1038 0
 1706 0026 7B68     		ldr	r3, [r7, #4]
 1707 0028 1B78     		ldrb	r3, [r3]	@ zero_extendqisi2
 1708 002a 1A01     		lsls	r2, r3, #4
 1709 002c 144B     		ldr	r3, .L126
 1710 002e 1344     		add	r3, r3, r2
 1711 0030 1B68     		ldr	r3, [r3]
 1712 0032 144A     		ldr	r2, .L126+4
 1713 0034 1A40     		ands	r2, r2, r3
1039:.\Generated_Source\PSoC5/CAN_1.c ****         CAN_1_TX_READ_BACK_MASK) == (txConfig->txcmd & CAN_1_TX_WPN_CLEAR))
 1714              		.loc 1 1039 0
 1715 0036 7B68     		ldr	r3, [r7, #4]
 1716 0038 5B68     		ldr	r3, [r3, #4]
 1717 003a 23F40003 		bic	r3, r3, #8388608
 1718 003e 23F00803 		bic	r3, r3, #8
1038:.\Generated_Source\PSoC5/CAN_1.c ****     if ((CY_GET_REG32((reg32 *) & CAN_1_TX[txConfig->txmailbox].txcmd) &
 1719              		.loc 1 1038 0
 1720 0042 9A42     		cmp	r2, r3
 1721 0044 15D1     		bne	.L124
1040:.\Generated_Source\PSoC5/CAN_1.c ****     {
1041:.\Generated_Source\PSoC5/CAN_1.c ****         /* Write TX ID Register */
1042:.\Generated_Source\PSoC5/CAN_1.c ****         CY_SET_REG32( (reg32 *) &CAN_1_TX[txConfig->txmailbox].txid, txConfig->txid);
 1722              		.loc 1 1042 0
 1723 0046 7B68     		ldr	r3, [r7, #4]
 1724 0048 1B78     		ldrb	r3, [r3]	@ zero_extendqisi2
 1725 004a 1A01     		lsls	r2, r3, #4
 1726 004c 0C4B     		ldr	r3, .L126
 1727 004e 1344     		add	r3, r3, r2
 1728 0050 0433     		adds	r3, r3, #4
 1729 0052 7A68     		ldr	r2, [r7, #4]
 1730 0054 9268     		ldr	r2, [r2, #8]
 1731 0056 1A60     		str	r2, [r3]
1043:.\Generated_Source\PSoC5/CAN_1.c ****         if (CY_GET_REG32( (reg32 *) &CAN_1_TX[txConfig->txmailbox].txid) == txConfig->txid)
 1732              		.loc 1 1043 0
 1733 0058 7B68     		ldr	r3, [r7, #4]
 1734 005a 1B78     		ldrb	r3, [r3]	@ zero_extendqisi2
 1735 005c 1A01     		lsls	r2, r3, #4
 1736 005e 084B     		ldr	r3, .L126
 1737 0060 1344     		add	r3, r3, r2
 1738 0062 0433     		adds	r3, r3, #4
 1739 0064 1A68     		ldr	r2, [r3]
 1740 0066 7B68     		ldr	r3, [r7, #4]
ARM GAS  C:\Users\khjtony\AppData\Local\Temp\ccDWw2Fb.s 			page 50


 1741 0068 9B68     		ldr	r3, [r3, #8]
 1742 006a 9A42     		cmp	r2, r3
 1743 006c 01D1     		bne	.L124
1044:.\Generated_Source\PSoC5/CAN_1.c ****         {
1045:.\Generated_Source\PSoC5/CAN_1.c ****             result = CYRET_SUCCESS;
 1744              		.loc 1 1045 0
 1745 006e 0023     		movs	r3, #0
 1746 0070 FB73     		strb	r3, [r7, #15]
 1747              	.L124:
1046:.\Generated_Source\PSoC5/CAN_1.c ****         }
1047:.\Generated_Source\PSoC5/CAN_1.c ****     }
1048:.\Generated_Source\PSoC5/CAN_1.c **** 
1049:.\Generated_Source\PSoC5/CAN_1.c ****     return (result);
 1748              		.loc 1 1049 0
 1749 0072 FB7B     		ldrb	r3, [r7, #15]	@ zero_extendqisi2
1050:.\Generated_Source\PSoC5/CAN_1.c **** }
 1750              		.loc 1 1050 0
 1751 0074 1846     		mov	r0, r3
 1752 0076 1437     		adds	r7, r7, #20
 1753 0078 BD46     		mov	sp, r7
 1754              		@ sp needed
 1755 007a 5DF8047B 		ldr	r7, [sp], #4
 1756 007e 7047     		bx	lr
 1757              	.L127:
 1758              		.align	2
 1759              	.L126:
 1760 0080 20A00040 		.word	1073782816
 1761 0084 F7007F00 		.word	8323319
 1762              		.cfi_endproc
 1763              	.LFE20:
 1764              		.size	CAN_1_TxBufConfig, .-CAN_1_TxBufConfig
 1765              		.section	.rodata
 1766              		.align	2
 1767              		.type	CAN_1_TXConfigStruct.4933, %object
 1768              		.size	CAN_1_TXConfigStruct.4933, 96
 1769              	CAN_1_TXConfigStruct.4933:
 1770 0000 00       		.byte	0
 1771 0001 000000   		.space	3
 1772 0004 04000800 		.word	524292
 1773 0008 00002000 		.word	2097152
 1774 000c 01       		.byte	1
 1775 000d 000000   		.space	3
 1776 0010 08008800 		.word	8912904
 1777 0014 00000000 		.word	0
 1778 0018 02       		.byte	2
 1779 0019 000000   		.space	3
 1780 001c 08008800 		.word	8912904
 1781 0020 00000000 		.word	0
 1782 0024 03       		.byte	3
 1783 0025 000000   		.space	3
 1784 0028 08008800 		.word	8912904
 1785 002c 00000000 		.word	0
 1786 0030 04       		.byte	4
 1787 0031 000000   		.space	3
 1788 0034 08008800 		.word	8912904
 1789 0038 00000000 		.word	0
 1790 003c 05       		.byte	5
ARM GAS  C:\Users\khjtony\AppData\Local\Temp\ccDWw2Fb.s 			page 51


 1791 003d 000000   		.space	3
 1792 0040 08008800 		.word	8912904
 1793 0044 00000000 		.word	0
 1794 0048 06       		.byte	6
 1795 0049 000000   		.space	3
 1796 004c 08008800 		.word	8912904
 1797 0050 00000000 		.word	0
 1798 0054 07       		.byte	7
 1799 0055 000000   		.space	3
 1800 0058 08008800 		.word	8912904
 1801 005c 00000000 		.word	0
 1802              		.align	2
 1803              		.type	CAN_1_RXConfigStruct.4932, %object
 1804              		.size	CAN_1_RXConfigStruct.4932, 256
 1805              	CAN_1_RXConfigStruct.4932:
 1806 0060 00       		.byte	0
 1807 0061 000000   		.space	3
 1808 0064 28000000 		.word	40
 1809 0068 F9FF1F00 		.word	2097145
 1810 006c 00000091 		.word	-1862270976
 1811 0070 01       		.byte	1
 1812 0071 000000   		.space	3
 1813 0074 28000000 		.word	40
 1814 0078 F9FF1F00 		.word	2097145
 1815 007c 00000071 		.word	1895825408
 1816 0080 02       		.byte	2
 1817 0081 000000   		.space	3
 1818 0084 28000000 		.word	40
 1819 0088 F9FF1F00 		.word	2097145
 1820 008c 00000031 		.word	822083584
 1821 0090 03       		.byte	3
 1822 0091 000000   		.space	3
 1823 0094 28000000 		.word	40
 1824 0098 F9FF1F00 		.word	2097145
 1825 009c 00006000 		.word	6291456
 1826 00a0 04       		.byte	4
 1827 00a1 000000   		.space	3
 1828 00a4 28000000 		.word	40
 1829 00a8 F9FF1F00 		.word	2097145
 1830 00ac 0000A040 		.word	1084227584
 1831 00b0 05       		.byte	5
 1832 00b1 000000   		.space	3
 1833 00b4 28000000 		.word	40
 1834 00b8 F9FF1F00 		.word	2097145
 1835 00bc 00002000 		.word	2097152
 1836 00c0 06       		.byte	6
 1837 00c1 000000   		.space	3
 1838 00c4 00000000 		.word	0
 1839 00c8 00000000 		.word	0
 1840 00cc 00000000 		.word	0
 1841 00d0 07       		.byte	7
 1842 00d1 000000   		.space	3
 1843 00d4 00000000 		.word	0
 1844 00d8 00000000 		.word	0
 1845 00dc 00000000 		.word	0
 1846 00e0 08       		.byte	8
 1847 00e1 000000   		.space	3
ARM GAS  C:\Users\khjtony\AppData\Local\Temp\ccDWw2Fb.s 			page 52


 1848 00e4 00000000 		.word	0
 1849 00e8 00000000 		.word	0
 1850 00ec 00000000 		.word	0
 1851 00f0 09       		.byte	9
 1852 00f1 000000   		.space	3
 1853 00f4 A8008000 		.word	8388776
 1854 00f8 FFFFFFFF 		.word	-1
 1855 00fc 00000000 		.word	0
 1856 0100 0A       		.byte	10
 1857 0101 000000   		.space	3
 1858 0104 A8008000 		.word	8388776
 1859 0108 FFFFFFFF 		.word	-1
 1860 010c 00000000 		.word	0
 1861 0110 0B       		.byte	11
 1862 0111 000000   		.space	3
 1863 0114 A8008000 		.word	8388776
 1864 0118 FFFFFFFF 		.word	-1
 1865 011c 00000000 		.word	0
 1866 0120 0C       		.byte	12
 1867 0121 000000   		.space	3
 1868 0124 A8008000 		.word	8388776
 1869 0128 FFFFFFFF 		.word	-1
 1870 012c 00000000 		.word	0
 1871 0130 0D       		.byte	13
 1872 0131 000000   		.space	3
 1873 0134 A8008000 		.word	8388776
 1874 0138 FFFFFFFF 		.word	-1
 1875 013c 00000000 		.word	0
 1876 0140 0E       		.byte	14
 1877 0141 000000   		.space	3
 1878 0144 A8008000 		.word	8388776
 1879 0148 FFFFFFFF 		.word	-1
 1880 014c 00000000 		.word	0
 1881 0150 0F       		.byte	15
 1882 0151 000000   		.space	3
 1883 0154 A8008000 		.word	8388776
 1884 0158 FFFFFFFF 		.word	-1
 1885 015c 00000000 		.word	0
 1886              		.text
 1887              	.Letext0:
 1888              		.file 2 ".\\Generated_Source\\PSoC5\\cytypes.h"
 1889              		.file 3 ".\\Generated_Source\\PSoC5\\CAN_1.h"
 1890              		.section	.debug_info,"",%progbits
 1891              	.Ldebug_info0:
 1892 0000 04070000 		.4byte	0x704
 1893 0004 0400     		.2byte	0x4
 1894 0006 00000000 		.4byte	.Ldebug_abbrev0
 1895 000a 04       		.byte	0x4
 1896 000b 01       		.uleb128 0x1
 1897 000c 64020000 		.4byte	.LASF77
 1898 0010 01       		.byte	0x1
 1899 0011 CA030000 		.4byte	.LASF78
 1900 0015 4B030000 		.4byte	.LASF79
 1901 0019 00000000 		.4byte	.Ldebug_ranges0+0
 1902 001d 00000000 		.4byte	0
 1903 0021 00000000 		.4byte	.Ldebug_line0
 1904 0025 02       		.uleb128 0x2
ARM GAS  C:\Users\khjtony\AppData\Local\Temp\ccDWw2Fb.s 			page 53


 1905 0026 01       		.byte	0x1
 1906 0027 06       		.byte	0x6
 1907 0028 94000000 		.4byte	.LASF0
 1908 002c 02       		.uleb128 0x2
 1909 002d 01       		.byte	0x1
 1910 002e 08       		.byte	0x8
 1911 002f 28030000 		.4byte	.LASF1
 1912 0033 02       		.uleb128 0x2
 1913 0034 02       		.byte	0x2
 1914 0035 05       		.byte	0x5
 1915 0036 36030000 		.4byte	.LASF2
 1916 003a 02       		.uleb128 0x2
 1917 003b 02       		.byte	0x2
 1918 003c 07       		.byte	0x7
 1919 003d AF010000 		.4byte	.LASF3
 1920 0041 02       		.uleb128 0x2
 1921 0042 04       		.byte	0x4
 1922 0043 05       		.byte	0x5
 1923 0044 EB000000 		.4byte	.LASF4
 1924 0048 02       		.uleb128 0x2
 1925 0049 04       		.byte	0x4
 1926 004a 07       		.byte	0x7
 1927 004b 90010000 		.4byte	.LASF5
 1928 004f 02       		.uleb128 0x2
 1929 0050 08       		.byte	0x8
 1930 0051 05       		.byte	0x5
 1931 0052 86000000 		.4byte	.LASF6
 1932 0056 02       		.uleb128 0x2
 1933 0057 08       		.byte	0x8
 1934 0058 07       		.byte	0x7
 1935 0059 23000000 		.4byte	.LASF7
 1936 005d 03       		.uleb128 0x3
 1937 005e 04       		.byte	0x4
 1938 005f 05       		.byte	0x5
 1939 0060 696E7400 		.ascii	"int\000"
 1940 0064 02       		.uleb128 0x2
 1941 0065 04       		.byte	0x4
 1942 0066 07       		.byte	0x7
 1943 0067 5F010000 		.4byte	.LASF8
 1944 006b 04       		.uleb128 0x4
 1945 006c 26010000 		.4byte	.LASF9
 1946 0070 02       		.byte	0x2
 1947 0071 A1       		.byte	0xa1
 1948 0072 2C000000 		.4byte	0x2c
 1949 0076 04       		.uleb128 0x4
 1950 0077 00000000 		.4byte	.LASF10
 1951 007b 02       		.byte	0x2
 1952 007c A2       		.byte	0xa2
 1953 007d 3A000000 		.4byte	0x3a
 1954 0081 04       		.uleb128 0x4
 1955 0082 39010000 		.4byte	.LASF11
 1956 0086 02       		.byte	0x2
 1957 0087 A3       		.byte	0xa3
 1958 0088 48000000 		.4byte	0x48
 1959 008c 02       		.uleb128 0x2
 1960 008d 04       		.byte	0x4
 1961 008e 04       		.byte	0x4
ARM GAS  C:\Users\khjtony\AppData\Local\Temp\ccDWw2Fb.s 			page 54


 1962 008f E5020000 		.4byte	.LASF12
 1963 0093 02       		.uleb128 0x2
 1964 0094 08       		.byte	0x8
 1965 0095 04       		.byte	0x4
 1966 0096 32010000 		.4byte	.LASF13
 1967 009a 02       		.uleb128 0x2
 1968 009b 01       		.byte	0x1
 1969 009c 08       		.byte	0x8
 1970 009d 82030000 		.4byte	.LASF14
 1971 00a1 05       		.uleb128 0x5
 1972 00a2 16030000 		.4byte	.LASF15
 1973 00a6 02       		.byte	0x2
 1974 00a7 4B01     		.2byte	0x14b
 1975 00a9 AD000000 		.4byte	0xad
 1976 00ad 06       		.uleb128 0x6
 1977 00ae 6B000000 		.4byte	0x6b
 1978 00b2 05       		.uleb128 0x5
 1979 00b3 20010000 		.4byte	.LASF16
 1980 00b7 02       		.byte	0x2
 1981 00b8 4C01     		.2byte	0x14c
 1982 00ba BE000000 		.4byte	0xbe
 1983 00be 06       		.uleb128 0x6
 1984 00bf 76000000 		.4byte	0x76
 1985 00c3 05       		.uleb128 0x5
 1986 00c4 07020000 		.4byte	.LASF17
 1987 00c8 02       		.byte	0x2
 1988 00c9 4D01     		.2byte	0x14d
 1989 00cb CF000000 		.4byte	0xcf
 1990 00cf 06       		.uleb128 0x6
 1991 00d0 81000000 		.4byte	0x81
 1992 00d4 02       		.uleb128 0x2
 1993 00d5 04       		.byte	0x4
 1994 00d6 07       		.byte	0x7
 1995 00d7 27020000 		.4byte	.LASF18
 1996 00db 07       		.uleb128 0x7
 1997 00dc 08       		.byte	0x8
 1998 00dd 03       		.byte	0x3
 1999 00de 69       		.byte	0x69
 2000 00df F0000000 		.4byte	0xf0
 2001 00e3 08       		.uleb128 0x8
 2002 00e4 40010000 		.4byte	.LASF20
 2003 00e8 03       		.byte	0x3
 2004 00e9 6B       		.byte	0x6b
 2005 00ea 00010000 		.4byte	0x100
 2006 00ee 00       		.byte	0
 2007 00ef 00       		.byte	0
 2008 00f0 09       		.uleb128 0x9
 2009 00f1 A1000000 		.4byte	0xa1
 2010 00f5 00010000 		.4byte	0x100
 2011 00f9 0A       		.uleb128 0xa
 2012 00fa D4000000 		.4byte	0xd4
 2013 00fe 07       		.byte	0x7
 2014 00ff 00       		.byte	0
 2015 0100 06       		.uleb128 0x6
 2016 0101 F0000000 		.4byte	0xf0
 2017 0105 04       		.uleb128 0x4
 2018 0106 43020000 		.4byte	.LASF19
ARM GAS  C:\Users\khjtony\AppData\Local\Temp\ccDWw2Fb.s 			page 55


 2019 010a 03       		.byte	0x3
 2020 010b 6C       		.byte	0x6c
 2021 010c DB000000 		.4byte	0xdb
 2022 0110 07       		.uleb128 0x7
 2023 0111 04       		.byte	0x4
 2024 0112 03       		.byte	0x3
 2025 0113 6F       		.byte	0x6f
 2026 0114 25010000 		.4byte	0x125
 2027 0118 08       		.uleb128 0x8
 2028 0119 40010000 		.4byte	.LASF20
 2029 011d 03       		.byte	0x3
 2030 011e 71       		.byte	0x71
 2031 011f 35010000 		.4byte	0x135
 2032 0123 00       		.byte	0
 2033 0124 00       		.byte	0
 2034 0125 09       		.uleb128 0x9
 2035 0126 A1000000 		.4byte	0xa1
 2036 012a 35010000 		.4byte	0x135
 2037 012e 0A       		.uleb128 0xa
 2038 012f D4000000 		.4byte	0xd4
 2039 0133 03       		.byte	0x3
 2040 0134 00       		.byte	0
 2041 0135 06       		.uleb128 0x6
 2042 0136 25010000 		.4byte	0x125
 2043 013a 04       		.uleb128 0x4
 2044 013b E6010000 		.4byte	.LASF21
 2045 013f 03       		.byte	0x3
 2046 0140 72       		.byte	0x72
 2047 0141 10010000 		.4byte	0x110
 2048 0145 07       		.uleb128 0x7
 2049 0146 10       		.byte	0x10
 2050 0147 03       		.byte	0x3
 2051 0148 80       		.byte	0x80
 2052 0149 7E010000 		.4byte	0x17e
 2053 014d 08       		.uleb128 0x8
 2054 014e 1D020000 		.4byte	.LASF22
 2055 0152 03       		.byte	0x3
 2056 0153 82       		.byte	0x82
 2057 0154 6B000000 		.4byte	0x6b
 2058 0158 00       		.byte	0
 2059 0159 08       		.uleb128 0x8
 2060 015a FB030000 		.4byte	.LASF23
 2061 015e 03       		.byte	0x3
 2062 015f 83       		.byte	0x83
 2063 0160 81000000 		.4byte	0x81
 2064 0164 04       		.byte	0x4
 2065 0165 08       		.uleb128 0x8
 2066 0166 2C010000 		.4byte	.LASF24
 2067 016a 03       		.byte	0x3
 2068 016b 84       		.byte	0x84
 2069 016c 81000000 		.4byte	0x81
 2070 0170 08       		.byte	0x8
 2071 0171 08       		.uleb128 0x8
 2072 0172 46040000 		.4byte	.LASF25
 2073 0176 03       		.byte	0x3
 2074 0177 85       		.byte	0x85
 2075 0178 81000000 		.4byte	0x81
ARM GAS  C:\Users\khjtony\AppData\Local\Temp\ccDWw2Fb.s 			page 56


 2076 017c 0C       		.byte	0xc
 2077 017d 00       		.byte	0
 2078 017e 04       		.uleb128 0x4
 2079 017f A2010000 		.4byte	.LASF26
 2080 0183 03       		.byte	0x3
 2081 0184 86       		.byte	0x86
 2082 0185 45010000 		.4byte	0x145
 2083 0189 07       		.uleb128 0x7
 2084 018a 0C       		.byte	0xc
 2085 018b 03       		.byte	0x3
 2086 018c 89       		.byte	0x89
 2087 018d B6010000 		.4byte	0x1b6
 2088 0191 08       		.uleb128 0x8
 2089 0192 AE030000 		.4byte	.LASF27
 2090 0196 03       		.byte	0x3
 2091 0197 8B       		.byte	0x8b
 2092 0198 6B000000 		.4byte	0x6b
 2093 019c 00       		.byte	0
 2094 019d 08       		.uleb128 0x8
 2095 019e 3A000000 		.4byte	.LASF28
 2096 01a2 03       		.byte	0x3
 2097 01a3 8C       		.byte	0x8c
 2098 01a4 81000000 		.4byte	0x81
 2099 01a8 04       		.byte	0x4
 2100 01a9 08       		.uleb128 0x8
 2101 01aa 2C040000 		.4byte	.LASF29
 2102 01ae 03       		.byte	0x3
 2103 01af 8D       		.byte	0x8d
 2104 01b0 81000000 		.4byte	0x81
 2105 01b4 08       		.byte	0x8
 2106 01b5 00       		.byte	0
 2107 01b6 04       		.uleb128 0x4
 2108 01b7 4C040000 		.4byte	.LASF30
 2109 01bb 03       		.byte	0x3
 2110 01bc 8E       		.byte	0x8e
 2111 01bd 89010000 		.4byte	0x189
 2112 01c1 07       		.uleb128 0x7
 2113 01c2 20       		.byte	0x20
 2114 01c3 03       		.byte	0x3
 2115 01c4 91       		.byte	0x91
 2116 01c5 1E020000 		.4byte	0x21e
 2117 01c9 08       		.uleb128 0x8
 2118 01ca FB030000 		.4byte	.LASF23
 2119 01ce 03       		.byte	0x3
 2120 01cf 93       		.byte	0x93
 2121 01d0 3A010000 		.4byte	0x13a
 2122 01d4 00       		.byte	0
 2123 01d5 08       		.uleb128 0x8
 2124 01d6 E0020000 		.4byte	.LASF31
 2125 01da 03       		.byte	0x3
 2126 01db 94       		.byte	0x94
 2127 01dc 3A010000 		.4byte	0x13a
 2128 01e0 04       		.byte	0x4
 2129 01e1 08       		.uleb128 0x8
 2130 01e2 04010000 		.4byte	.LASF32
 2131 01e6 03       		.byte	0x3
 2132 01e7 95       		.byte	0x95
ARM GAS  C:\Users\khjtony\AppData\Local\Temp\ccDWw2Fb.s 			page 57


 2133 01e8 05010000 		.4byte	0x105
 2134 01ec 08       		.byte	0x8
 2135 01ed 08       		.uleb128 0x8
 2136 01ee 2C010000 		.4byte	.LASF24
 2137 01f2 03       		.byte	0x3
 2138 01f3 96       		.byte	0x96
 2139 01f4 3A010000 		.4byte	0x13a
 2140 01f8 10       		.byte	0x10
 2141 01f9 08       		.uleb128 0x8
 2142 01fa 46040000 		.4byte	.LASF25
 2143 01fe 03       		.byte	0x3
 2144 01ff 97       		.byte	0x97
 2145 0200 3A010000 		.4byte	0x13a
 2146 0204 14       		.byte	0x14
 2147 0205 08       		.uleb128 0x8
 2148 0206 62000000 		.4byte	.LASF33
 2149 020a 03       		.byte	0x3
 2150 020b 98       		.byte	0x98
 2151 020c 3A010000 		.4byte	0x13a
 2152 0210 18       		.byte	0x18
 2153 0211 08       		.uleb128 0x8
 2154 0212 61040000 		.4byte	.LASF34
 2155 0216 03       		.byte	0x3
 2156 0217 99       		.byte	0x99
 2157 0218 3A010000 		.4byte	0x13a
 2158 021c 1C       		.byte	0x1c
 2159 021d 00       		.byte	0
 2160 021e 04       		.uleb128 0x4
 2161 021f 54020000 		.4byte	.LASF35
 2162 0223 03       		.byte	0x3
 2163 0224 9A       		.byte	0x9a
 2164 0225 C1010000 		.4byte	0x1c1
 2165 0229 07       		.uleb128 0x7
 2166 022a 10       		.byte	0x10
 2167 022b 03       		.byte	0x3
 2168 022c 9D       		.byte	0x9d
 2169 022d 56020000 		.4byte	0x256
 2170 0231 08       		.uleb128 0x8
 2171 0232 3A000000 		.4byte	.LASF28
 2172 0236 03       		.byte	0x3
 2173 0237 9F       		.byte	0x9f
 2174 0238 3A010000 		.4byte	0x13a
 2175 023c 00       		.byte	0
 2176 023d 08       		.uleb128 0x8
 2177 023e 2C040000 		.4byte	.LASF29
 2178 0242 03       		.byte	0x3
 2179 0243 A0       		.byte	0xa0
 2180 0244 3A010000 		.4byte	0x13a
 2181 0248 04       		.byte	0x4
 2182 0249 08       		.uleb128 0x8
 2183 024a DF010000 		.4byte	.LASF36
 2184 024e 03       		.byte	0x3
 2185 024f A1       		.byte	0xa1
 2186 0250 05010000 		.4byte	0x105
 2187 0254 08       		.byte	0x8
 2188 0255 00       		.byte	0
 2189 0256 04       		.uleb128 0x4
ARM GAS  C:\Users\khjtony\AppData\Local\Temp\ccDWw2Fb.s 			page 58


 2190 0257 EB030000 		.4byte	.LASF37
 2191 025b 03       		.byte	0x3
 2192 025c A2       		.byte	0xa2
 2193 025d 29020000 		.4byte	0x229
 2194 0261 0B       		.uleb128 0xb
 2195 0262 57000000 		.4byte	.LASF43
 2196 0266 01       		.byte	0x1
 2197 0267 30       		.byte	0x30
 2198 0268 6B000000 		.4byte	0x6b
 2199 026c 00000000 		.4byte	.LFB0
 2200 0270 70010000 		.4byte	.LFE0-.LFB0
 2201 0274 01       		.uleb128 0x1
 2202 0275 9C       		.byte	0x9c
 2203 0276 D3020000 		.4byte	0x2d3
 2204 027a 0C       		.uleb128 0xc
 2205 027b 01030000 		.4byte	.LASF38
 2206 027f 01       		.byte	0x1
 2207 0280 33       		.byte	0x33
 2208 0281 E3020000 		.4byte	0x2e3
 2209 0285 05       		.uleb128 0x5
 2210 0286 03       		.byte	0x3
 2211 0287 60000000 		.4byte	CAN_1_RXConfigStruct.4932
 2212 028b 0C       		.uleb128 0xc
 2213 028c 4A010000 		.4byte	.LASF39
 2214 0290 01       		.byte	0x1
 2215 0291 47       		.byte	0x47
 2216 0292 F8020000 		.4byte	0x2f8
 2217 0296 05       		.uleb128 0x5
 2218 0297 03       		.byte	0x3
 2219 0298 00000000 		.4byte	CAN_1_TXConfigStruct.4933
 2220 029c 0D       		.uleb128 0xd
 2221 029d 6900     		.ascii	"i\000"
 2222 029f 01       		.byte	0x1
 2223 02a0 53       		.byte	0x53
 2224 02a1 6B000000 		.4byte	0x6b
 2225 02a5 02       		.uleb128 0x2
 2226 02a6 91       		.byte	0x91
 2227 02a7 77       		.sleb128 -9
 2228 02a8 0C       		.uleb128 0xc
 2229 02a9 68040000 		.4byte	.LASF40
 2230 02ad 01       		.byte	0x1
 2231 02ae 54       		.byte	0x54
 2232 02af 6B000000 		.4byte	0x6b
 2233 02b3 02       		.uleb128 0x2
 2234 02b4 91       		.byte	0x91
 2235 02b5 76       		.sleb128 -10
 2236 02b6 0C       		.uleb128 0xc
 2237 02b7 A2030000 		.4byte	.LASF41
 2238 02bb 01       		.byte	0x1
 2239 02bc 55       		.byte	0x55
 2240 02bd 6B000000 		.4byte	0x6b
 2241 02c1 02       		.uleb128 0x2
 2242 02c2 91       		.byte	0x91
 2243 02c3 75       		.sleb128 -11
 2244 02c4 0C       		.uleb128 0xc
 2245 02c5 1B040000 		.4byte	.LASF42
 2246 02c9 01       		.byte	0x1
ARM GAS  C:\Users\khjtony\AppData\Local\Temp\ccDWw2Fb.s 			page 59


 2247 02ca 56       		.byte	0x56
 2248 02cb 6B000000 		.4byte	0x6b
 2249 02cf 02       		.uleb128 0x2
 2250 02d0 91       		.byte	0x91
 2251 02d1 74       		.sleb128 -12
 2252 02d2 00       		.byte	0
 2253 02d3 09       		.uleb128 0x9
 2254 02d4 7E010000 		.4byte	0x17e
 2255 02d8 E3020000 		.4byte	0x2e3
 2256 02dc 0A       		.uleb128 0xa
 2257 02dd D4000000 		.4byte	0xd4
 2258 02e1 0F       		.byte	0xf
 2259 02e2 00       		.byte	0
 2260 02e3 0E       		.uleb128 0xe
 2261 02e4 D3020000 		.4byte	0x2d3
 2262 02e8 09       		.uleb128 0x9
 2263 02e9 B6010000 		.4byte	0x1b6
 2264 02ed F8020000 		.4byte	0x2f8
 2265 02f1 0A       		.uleb128 0xa
 2266 02f2 D4000000 		.4byte	0xd4
 2267 02f6 07       		.byte	0x7
 2268 02f7 00       		.byte	0
 2269 02f8 0E       		.uleb128 0xe
 2270 02f9 E8020000 		.4byte	0x2e8
 2271 02fd 0B       		.uleb128 0xb
 2272 02fe 1B030000 		.4byte	.LASF44
 2273 0302 01       		.byte	0x1
 2274 0303 C4       		.byte	0xc4
 2275 0304 6B000000 		.4byte	0x6b
 2276 0308 00000000 		.4byte	.LFB1
 2277 030c 78000000 		.4byte	.LFE1-.LFB1
 2278 0310 01       		.uleb128 0x1
 2279 0311 9C       		.byte	0x9c
 2280 0312 33030000 		.4byte	0x333
 2281 0316 0C       		.uleb128 0xc
 2282 0317 68040000 		.4byte	.LASF40
 2283 031b 01       		.byte	0x1
 2284 031c C6       		.byte	0xc6
 2285 031d 6B000000 		.4byte	0x6b
 2286 0321 02       		.uleb128 0x2
 2287 0322 91       		.byte	0x91
 2288 0323 77       		.sleb128 -9
 2289 0324 0C       		.uleb128 0xc
 2290 0325 1B040000 		.4byte	.LASF42
 2291 0329 01       		.byte	0x1
 2292 032a C7       		.byte	0xc7
 2293 032b 6B000000 		.4byte	0x6b
 2294 032f 02       		.uleb128 0x2
 2295 0330 91       		.byte	0x91
 2296 0331 76       		.sleb128 -10
 2297 0332 00       		.byte	0
 2298 0333 0B       		.uleb128 0xb
 2299 0334 B2000000 		.4byte	.LASF45
 2300 0338 01       		.byte	0x1
 2301 0339 FD       		.byte	0xfd
 2302 033a 6B000000 		.4byte	0x6b
 2303 033e 00000000 		.4byte	.LFB2
ARM GAS  C:\Users\khjtony\AppData\Local\Temp\ccDWw2Fb.s 			page 60


 2304 0342 3C000000 		.4byte	.LFE2-.LFB2
 2305 0346 01       		.uleb128 0x1
 2306 0347 9C       		.byte	0x9c
 2307 0348 5B030000 		.4byte	0x35b
 2308 034c 0C       		.uleb128 0xc
 2309 034d 68040000 		.4byte	.LASF40
 2310 0351 01       		.byte	0x1
 2311 0352 FF       		.byte	0xff
 2312 0353 6B000000 		.4byte	0x6b
 2313 0357 02       		.uleb128 0x2
 2314 0358 91       		.byte	0x91
 2315 0359 77       		.sleb128 -9
 2316 035a 00       		.byte	0
 2317 035b 0F       		.uleb128 0xf
 2318 035c 40030000 		.4byte	.LASF46
 2319 0360 01       		.byte	0x1
 2320 0361 2401     		.2byte	0x124
 2321 0363 6B000000 		.4byte	0x6b
 2322 0367 00000000 		.4byte	.LFB3
 2323 036b 78000000 		.4byte	.LFE3-.LFB3
 2324 036f 01       		.uleb128 0x1
 2325 0370 9C       		.byte	0x9c
 2326 0371 94030000 		.4byte	0x394
 2327 0375 10       		.uleb128 0x10
 2328 0376 68040000 		.4byte	.LASF40
 2329 037a 01       		.byte	0x1
 2330 037b 2601     		.2byte	0x126
 2331 037d 6B000000 		.4byte	0x6b
 2332 0381 02       		.uleb128 0x2
 2333 0382 91       		.byte	0x91
 2334 0383 77       		.sleb128 -9
 2335 0384 10       		.uleb128 0x10
 2336 0385 1B040000 		.4byte	.LASF42
 2337 0389 01       		.byte	0x1
 2338 038a 2701     		.2byte	0x127
 2339 038c 6B000000 		.4byte	0x6b
 2340 0390 02       		.uleb128 0x2
 2341 0391 91       		.byte	0x91
 2342 0392 76       		.sleb128 -10
 2343 0393 00       		.byte	0
 2344 0394 11       		.uleb128 0x11
 2345 0395 C9010000 		.4byte	.LASF47
 2346 0399 01       		.byte	0x1
 2347 039a 5501     		.2byte	0x155
 2348 039c 6B000000 		.4byte	0x6b
 2349 03a0 00000000 		.4byte	.LFB4
 2350 03a4 40000000 		.4byte	.LFE4-.LFB4
 2351 03a8 01       		.uleb128 0x1
 2352 03a9 9C       		.byte	0x9c
 2353 03aa BE030000 		.4byte	0x3be
 2354 03ae 10       		.uleb128 0x10
 2355 03af 68040000 		.4byte	.LASF40
 2356 03b3 01       		.byte	0x1
 2357 03b4 5701     		.2byte	0x157
 2358 03b6 6B000000 		.4byte	0x6b
 2359 03ba 02       		.uleb128 0x2
 2360 03bb 91       		.byte	0x91
ARM GAS  C:\Users\khjtony\AppData\Local\Temp\ccDWw2Fb.s 			page 61


 2361 03bc 77       		.sleb128 -9
 2362 03bd 00       		.byte	0
 2363 03be 11       		.uleb128 0x11
 2364 03bf BE000000 		.4byte	.LASF48
 2365 03c3 01       		.byte	0x1
 2366 03c4 7601     		.2byte	0x176
 2367 03c6 6B000000 		.4byte	0x6b
 2368 03ca 00000000 		.4byte	.LFB5
 2369 03ce 40000000 		.4byte	.LFE5-.LFB5
 2370 03d2 01       		.uleb128 0x1
 2371 03d3 9C       		.byte	0x9c
 2372 03d4 E8030000 		.4byte	0x3e8
 2373 03d8 10       		.uleb128 0x10
 2374 03d9 68040000 		.4byte	.LASF40
 2375 03dd 01       		.byte	0x1
 2376 03de 7801     		.2byte	0x178
 2377 03e0 6B000000 		.4byte	0x6b
 2378 03e4 02       		.uleb128 0x2
 2379 03e5 91       		.byte	0x91
 2380 03e6 77       		.sleb128 -9
 2381 03e7 00       		.byte	0
 2382 03e8 11       		.uleb128 0x11
 2383 03e9 30020000 		.4byte	.LASF49
 2384 03ed 01       		.byte	0x1
 2385 03ee 9E01     		.2byte	0x19e
 2386 03f0 6B000000 		.4byte	0x6b
 2387 03f4 00000000 		.4byte	.LFB6
 2388 03f8 44000000 		.4byte	.LFE6-.LFB6
 2389 03fc 01       		.uleb128 0x1
 2390 03fd 9C       		.byte	0x9c
 2391 03fe 21040000 		.4byte	0x421
 2392 0402 12       		.uleb128 0x12
 2393 0403 7E000000 		.4byte	.LASF51
 2394 0407 01       		.byte	0x1
 2395 0408 9E01     		.2byte	0x19e
 2396 040a 76000000 		.4byte	0x76
 2397 040e 02       		.uleb128 0x2
 2398 040f 91       		.byte	0x91
 2399 0410 6E       		.sleb128 -18
 2400 0411 10       		.uleb128 0x10
 2401 0412 68040000 		.4byte	.LASF40
 2402 0416 01       		.byte	0x1
 2403 0417 A001     		.2byte	0x1a0
 2404 0419 6B000000 		.4byte	0x6b
 2405 041d 02       		.uleb128 0x2
 2406 041e 91       		.byte	0x91
 2407 041f 77       		.sleb128 -9
 2408 0420 00       		.byte	0
 2409 0421 11       		.uleb128 0x11
 2410 0422 0A040000 		.4byte	.LASF50
 2411 0426 01       		.byte	0x1
 2412 0427 C901     		.2byte	0x1c9
 2413 0429 6B000000 		.4byte	0x6b
 2414 042d 00000000 		.4byte	.LFB7
 2415 0431 6C000000 		.4byte	.LFE7-.LFB7
 2416 0435 01       		.uleb128 0x1
 2417 0436 9C       		.byte	0x9c
ARM GAS  C:\Users\khjtony\AppData\Local\Temp\ccDWw2Fb.s 			page 62


 2418 0437 5A040000 		.4byte	0x45a
 2419 043b 12       		.uleb128 0x12
 2420 043c 59040000 		.4byte	.LASF52
 2421 0440 01       		.byte	0x1
 2422 0441 C901     		.2byte	0x1c9
 2423 0443 6B000000 		.4byte	0x6b
 2424 0447 02       		.uleb128 0x2
 2425 0448 91       		.byte	0x91
 2426 0449 6F       		.sleb128 -17
 2427 044a 10       		.uleb128 0x10
 2428 044b 68040000 		.4byte	.LASF40
 2429 044f 01       		.byte	0x1
 2430 0450 CB01     		.2byte	0x1cb
 2431 0452 6B000000 		.4byte	0x6b
 2432 0456 02       		.uleb128 0x2
 2433 0457 91       		.byte	0x91
 2434 0458 77       		.sleb128 -9
 2435 0459 00       		.byte	0
 2436 045a 11       		.uleb128 0x11
 2437 045b 87030000 		.4byte	.LASF53
 2438 045f 01       		.byte	0x1
 2439 0460 0002     		.2byte	0x200
 2440 0462 6B000000 		.4byte	0x6b
 2441 0466 00000000 		.4byte	.LFB8
 2442 046a C4000000 		.4byte	.LFE8-.LFB8
 2443 046e 01       		.uleb128 0x1
 2444 046f 9C       		.byte	0x9c
 2445 0470 CE040000 		.4byte	0x4ce
 2446 0474 12       		.uleb128 0x12
 2447 0475 B8030000 		.4byte	.LASF54
 2448 0479 01       		.byte	0x1
 2449 047a 0002     		.2byte	0x200
 2450 047c 6B000000 		.4byte	0x6b
 2451 0480 02       		.uleb128 0x2
 2452 0481 91       		.byte	0x91
 2453 0482 6F       		.sleb128 -17
 2454 0483 12       		.uleb128 0x12
 2455 0484 C1030000 		.4byte	.LASF55
 2456 0488 01       		.byte	0x1
 2457 0489 0002     		.2byte	0x200
 2458 048b 6B000000 		.4byte	0x6b
 2459 048f 02       		.uleb128 0x2
 2460 0490 91       		.byte	0x91
 2461 0491 6E       		.sleb128 -18
 2462 0492 13       		.uleb128 0x13
 2463 0493 736A7700 		.ascii	"sjw\000"
 2464 0497 01       		.byte	0x1
 2465 0498 0002     		.2byte	0x200
 2466 049a 6B000000 		.4byte	0x6b
 2467 049e 02       		.uleb128 0x2
 2468 049f 91       		.byte	0x91
 2469 04a0 6D       		.sleb128 -19
 2470 04a1 13       		.uleb128 0x13
 2471 04a2 736D00   		.ascii	"sm\000"
 2472 04a5 01       		.byte	0x1
 2473 04a6 0002     		.2byte	0x200
 2474 04a8 6B000000 		.4byte	0x6b
ARM GAS  C:\Users\khjtony\AppData\Local\Temp\ccDWw2Fb.s 			page 63


 2475 04ac 02       		.uleb128 0x2
 2476 04ad 91       		.byte	0x91
 2477 04ae 6C       		.sleb128 -20
 2478 04af 10       		.uleb128 0x10
 2479 04b0 68040000 		.4byte	.LASF40
 2480 04b4 01       		.byte	0x1
 2481 04b5 0302     		.2byte	0x203
 2482 04b7 6B000000 		.4byte	0x6b
 2483 04bb 02       		.uleb128 0x2
 2484 04bc 91       		.byte	0x91
 2485 04bd 77       		.sleb128 -9
 2486 04be 10       		.uleb128 0x10
 2487 04bf 15020000 		.4byte	.LASF56
 2488 04c3 01       		.byte	0x1
 2489 04c4 0402     		.2byte	0x204
 2490 04c6 6B000000 		.4byte	0x6b
 2491 04ca 02       		.uleb128 0x2
 2492 04cb 91       		.byte	0x91
 2493 04cc 76       		.sleb128 -10
 2494 04cd 00       		.byte	0
 2495 04ce 11       		.uleb128 0x11
 2496 04cf 0B010000 		.4byte	.LASF57
 2497 04d3 01       		.byte	0x1
 2498 04d4 4E02     		.2byte	0x24e
 2499 04d6 6B000000 		.4byte	0x6b
 2500 04da 00000000 		.4byte	.LFB9
 2501 04de 6C000000 		.4byte	.LFE9-.LFB9
 2502 04e2 01       		.uleb128 0x1
 2503 04e3 9C       		.byte	0x9c
 2504 04e4 07050000 		.4byte	0x507
 2505 04e8 12       		.uleb128 0x12
 2506 04e9 07000000 		.4byte	.LASF58
 2507 04ed 01       		.byte	0x1
 2508 04ee 4E02     		.2byte	0x24e
 2509 04f0 6B000000 		.4byte	0x6b
 2510 04f4 02       		.uleb128 0x2
 2511 04f5 91       		.byte	0x91
 2512 04f6 6F       		.sleb128 -17
 2513 04f7 10       		.uleb128 0x10
 2514 04f8 68040000 		.4byte	.LASF40
 2515 04fc 01       		.byte	0x1
 2516 04fd 5002     		.2byte	0x250
 2517 04ff 6B000000 		.4byte	0x6b
 2518 0503 02       		.uleb128 0x2
 2519 0504 91       		.byte	0x91
 2520 0505 77       		.sleb128 -9
 2521 0506 00       		.byte	0
 2522 0507 11       		.uleb128 0x11
 2523 0508 6C010000 		.4byte	.LASF59
 2524 050c 01       		.byte	0x1
 2525 050d 8102     		.2byte	0x281
 2526 050f 6B000000 		.4byte	0x6b
 2527 0513 00000000 		.4byte	.LFB10
 2528 0517 6C000000 		.4byte	.LFE10-.LFB10
 2529 051b 01       		.uleb128 0x1
 2530 051c 9C       		.byte	0x9c
 2531 051d 40050000 		.4byte	0x540
ARM GAS  C:\Users\khjtony\AppData\Local\Temp\ccDWw2Fb.s 			page 64


 2532 0521 12       		.uleb128 0x12
 2533 0522 0D000000 		.4byte	.LASF60
 2534 0526 01       		.byte	0x1
 2535 0527 8102     		.2byte	0x281
 2536 0529 6B000000 		.4byte	0x6b
 2537 052d 02       		.uleb128 0x2
 2538 052e 91       		.byte	0x91
 2539 052f 6F       		.sleb128 -17
 2540 0530 10       		.uleb128 0x10
 2541 0531 68040000 		.4byte	.LASF40
 2542 0535 01       		.byte	0x1
 2543 0536 8302     		.2byte	0x283
 2544 0538 6B000000 		.4byte	0x6b
 2545 053c 02       		.uleb128 0x2
 2546 053d 91       		.byte	0x91
 2547 053e 77       		.sleb128 -9
 2548 053f 00       		.byte	0
 2549 0540 11       		.uleb128 0x11
 2550 0541 F4000000 		.4byte	.LASF61
 2551 0545 01       		.byte	0x1
 2552 0546 B502     		.2byte	0x2b5
 2553 0548 6B000000 		.4byte	0x6b
 2554 054c 00000000 		.4byte	.LFB11
 2555 0550 6C000000 		.4byte	.LFE11-.LFB11
 2556 0554 01       		.uleb128 0x1
 2557 0555 9C       		.byte	0x9c
 2558 0556 79050000 		.4byte	0x579
 2559 055a 12       		.uleb128 0x12
 2560 055b C2010000 		.4byte	.LASF62
 2561 055f 01       		.byte	0x1
 2562 0560 B502     		.2byte	0x2b5
 2563 0562 6B000000 		.4byte	0x6b
 2564 0566 02       		.uleb128 0x2
 2565 0567 91       		.byte	0x91
 2566 0568 6F       		.sleb128 -17
 2567 0569 10       		.uleb128 0x10
 2568 056a 68040000 		.4byte	.LASF40
 2569 056e 01       		.byte	0x1
 2570 056f B702     		.2byte	0x2b7
 2571 0571 6B000000 		.4byte	0x6b
 2572 0575 02       		.uleb128 0x2
 2573 0576 91       		.byte	0x91
 2574 0577 77       		.sleb128 -9
 2575 0578 00       		.byte	0
 2576 0579 11       		.uleb128 0x11
 2577 057a 69000000 		.4byte	.LASF63
 2578 057e 01       		.byte	0x1
 2579 057f E702     		.2byte	0x2e7
 2580 0581 6B000000 		.4byte	0x6b
 2581 0585 00000000 		.4byte	.LFB12
 2582 0589 A4000000 		.4byte	.LFE12-.LFB12
 2583 058d 01       		.uleb128 0x1
 2584 058e 9C       		.byte	0x9c
 2585 058f C1050000 		.4byte	0x5c1
 2586 0593 12       		.uleb128 0x12
 2587 0594 0D020000 		.4byte	.LASF64
 2588 0598 01       		.byte	0x1
ARM GAS  C:\Users\khjtony\AppData\Local\Temp\ccDWw2Fb.s 			page 65


 2589 0599 E702     		.2byte	0x2e7
 2590 059b C1050000 		.4byte	0x5c1
 2591 059f 02       		.uleb128 0x2
 2592 05a0 91       		.byte	0x91
 2593 05a1 6C       		.sleb128 -20
 2594 05a2 12       		.uleb128 0x12
 2595 05a3 9B030000 		.4byte	.LASF65
 2596 05a7 01       		.byte	0x1
 2597 05a8 E702     		.2byte	0x2e7
 2598 05aa 81000000 		.4byte	0x81
 2599 05ae 02       		.uleb128 0x2
 2600 05af 91       		.byte	0x91
 2601 05b0 68       		.sleb128 -24
 2602 05b1 10       		.uleb128 0x10
 2603 05b2 68040000 		.4byte	.LASF40
 2604 05b6 01       		.byte	0x1
 2605 05b7 EA02     		.2byte	0x2ea
 2606 05b9 6B000000 		.4byte	0x6b
 2607 05bd 02       		.uleb128 0x2
 2608 05be 91       		.byte	0x91
 2609 05bf 77       		.sleb128 -9
 2610 05c0 00       		.byte	0
 2611 05c1 14       		.uleb128 0x14
 2612 05c2 04       		.byte	0x4
 2613 05c3 C3000000 		.4byte	0xc3
 2614 05c7 11       		.uleb128 0x11
 2615 05c8 12000000 		.4byte	.LASF66
 2616 05cc 01       		.byte	0x1
 2617 05cd 3D03     		.2byte	0x33d
 2618 05cf 6B000000 		.4byte	0x6b
 2619 05d3 00000000 		.4byte	.LFB13
 2620 05d7 38000000 		.4byte	.LFE13-.LFB13
 2621 05db 01       		.uleb128 0x1
 2622 05dc 9C       		.byte	0x9c
 2623 05dd 00060000 		.4byte	0x600
 2624 05e1 12       		.uleb128 0x12
 2625 05e2 45010000 		.4byte	.LASF67
 2626 05e6 01       		.byte	0x1
 2627 05e7 3D03     		.2byte	0x33d
 2628 05e9 76000000 		.4byte	0x76
 2629 05ed 02       		.uleb128 0x2
 2630 05ee 91       		.byte	0x91
 2631 05ef 6E       		.sleb128 -18
 2632 05f0 10       		.uleb128 0x10
 2633 05f1 68040000 		.4byte	.LASF40
 2634 05f5 01       		.byte	0x1
 2635 05f6 3F03     		.2byte	0x33f
 2636 05f8 6B000000 		.4byte	0x6b
 2637 05fc 02       		.uleb128 0x2
 2638 05fd 91       		.byte	0x91
 2639 05fe 77       		.sleb128 -9
 2640 05ff 00       		.byte	0
 2641 0600 15       		.uleb128 0x15
 2642 0601 31040000 		.4byte	.LASF68
 2643 0605 01       		.byte	0x1
 2644 0606 5D03     		.2byte	0x35d
 2645 0608 6B000000 		.4byte	0x6b
ARM GAS  C:\Users\khjtony\AppData\Local\Temp\ccDWw2Fb.s 			page 66


 2646 060c 00000000 		.4byte	.LFB14
 2647 0610 28000000 		.4byte	.LFE14-.LFB14
 2648 0614 01       		.uleb128 0x1
 2649 0615 9C       		.byte	0x9c
 2650 0616 15       		.uleb128 0x15
 2651 0617 6F040000 		.4byte	.LASF69
 2652 061b 01       		.byte	0x1
 2653 061c 7403     		.2byte	0x374
 2654 061e 6B000000 		.4byte	0x6b
 2655 0622 00000000 		.4byte	.LFB15
 2656 0626 28000000 		.4byte	.LFE15-.LFB15
 2657 062a 01       		.uleb128 0x1
 2658 062b 9C       		.byte	0x9c
 2659 062c 15       		.uleb128 0x15
 2660 062d EB020000 		.4byte	.LASF70
 2661 0631 01       		.byte	0x1
 2662 0632 8A03     		.2byte	0x38a
 2663 0634 6B000000 		.4byte	0x6b
 2664 0638 00000000 		.4byte	.LFB16
 2665 063c 18000000 		.4byte	.LFE16-.LFB16
 2666 0640 01       		.uleb128 0x1
 2667 0641 9C       		.byte	0x9c
 2668 0642 15       		.uleb128 0x15
 2669 0643 D5000000 		.4byte	.LASF71
 2670 0647 01       		.byte	0x1
 2671 0648 9F03     		.2byte	0x39f
 2672 064a 6B000000 		.4byte	0x6b
 2673 064e 00000000 		.4byte	.LFB17
 2674 0652 18000000 		.4byte	.LFE17-.LFB17
 2675 0656 01       		.uleb128 0x1
 2676 0657 9C       		.byte	0x9c
 2677 0658 15       		.uleb128 0x15
 2678 0659 F3010000 		.4byte	.LASF72
 2679 065d 01       		.byte	0x1
 2680 065e B403     		.2byte	0x3b4
 2681 0660 6B000000 		.4byte	0x6b
 2682 0664 00000000 		.4byte	.LFB18
 2683 0668 20000000 		.4byte	.LFE18-.LFB18
 2684 066c 01       		.uleb128 0x1
 2685 066d 9C       		.byte	0x9c
 2686 066e 11       		.uleb128 0x11
 2687 066f A0000000 		.4byte	.LASF73
 2688 0673 01       		.byte	0x1
 2689 0674 CD03     		.2byte	0x3cd
 2690 0676 6B000000 		.4byte	0x6b
 2691 067a 00000000 		.4byte	.LFB19
 2692 067e EC000000 		.4byte	.LFE19-.LFB19
 2693 0682 01       		.uleb128 0x1
 2694 0683 9C       		.byte	0x9c
 2695 0684 A7060000 		.4byte	0x6a7
 2696 0688 12       		.uleb128 0x12
 2697 0689 4E000000 		.4byte	.LASF74
 2698 068d 01       		.byte	0x1
 2699 068e CD03     		.2byte	0x3cd
 2700 0690 A7060000 		.4byte	0x6a7
 2701 0694 02       		.uleb128 0x2
 2702 0695 91       		.byte	0x91
ARM GAS  C:\Users\khjtony\AppData\Local\Temp\ccDWw2Fb.s 			page 67


 2703 0696 6C       		.sleb128 -20
 2704 0697 10       		.uleb128 0x10
 2705 0698 68040000 		.4byte	.LASF40
 2706 069c 01       		.byte	0x1
 2707 069d D003     		.2byte	0x3d0
 2708 069f 6B000000 		.4byte	0x6b
 2709 06a3 02       		.uleb128 0x2
 2710 06a4 91       		.byte	0x91
 2711 06a5 77       		.sleb128 -9
 2712 06a6 00       		.byte	0
 2713 06a7 14       		.uleb128 0x14
 2714 06a8 04       		.byte	0x4
 2715 06a9 AD060000 		.4byte	0x6ad
 2716 06ad 0E       		.uleb128 0xe
 2717 06ae 7E010000 		.4byte	0x17e
 2718 06b2 11       		.uleb128 0x11
 2719 06b3 7E010000 		.4byte	.LASF75
 2720 06b7 01       		.byte	0x1
 2721 06b8 0604     		.2byte	0x406
 2722 06ba 6B000000 		.4byte	0x6b
 2723 06be 00000000 		.4byte	.LFB20
 2724 06c2 88000000 		.4byte	.LFE20-.LFB20
 2725 06c6 01       		.uleb128 0x1
 2726 06c7 9C       		.byte	0x9c
 2727 06c8 EB060000 		.4byte	0x6eb
 2728 06cc 12       		.uleb128 0x12
 2729 06cd 01040000 		.4byte	.LASF76
 2730 06d1 01       		.byte	0x1
 2731 06d2 0604     		.2byte	0x406
 2732 06d4 EB060000 		.4byte	0x6eb
 2733 06d8 02       		.uleb128 0x2
 2734 06d9 91       		.byte	0x91
 2735 06da 6C       		.sleb128 -20
 2736 06db 10       		.uleb128 0x10
 2737 06dc 68040000 		.4byte	.LASF40
 2738 06e0 01       		.byte	0x1
 2739 06e1 0904     		.2byte	0x409
 2740 06e3 6B000000 		.4byte	0x6b
 2741 06e7 02       		.uleb128 0x2
 2742 06e8 91       		.byte	0x91
 2743 06e9 77       		.sleb128 -9
 2744 06ea 00       		.byte	0
 2745 06eb 14       		.uleb128 0x14
 2746 06ec 04       		.byte	0x4
 2747 06ed F1060000 		.4byte	0x6f1
 2748 06f1 0E       		.uleb128 0xe
 2749 06f2 B6010000 		.4byte	0x1b6
 2750 06f6 16       		.uleb128 0x16
 2751 06f7 40000000 		.4byte	.LASF80
 2752 06fb 01       		.byte	0x1
 2753 06fc 16       		.byte	0x16
 2754 06fd 6B000000 		.4byte	0x6b
 2755 0701 05       		.uleb128 0x5
 2756 0702 03       		.byte	0x3
 2757 0703 00000000 		.4byte	CAN_1_initVar
 2758 0707 00       		.byte	0
 2759              		.section	.debug_abbrev,"",%progbits
ARM GAS  C:\Users\khjtony\AppData\Local\Temp\ccDWw2Fb.s 			page 68


 2760              	.Ldebug_abbrev0:
 2761 0000 01       		.uleb128 0x1
 2762 0001 11       		.uleb128 0x11
 2763 0002 01       		.byte	0x1
 2764 0003 25       		.uleb128 0x25
 2765 0004 0E       		.uleb128 0xe
 2766 0005 13       		.uleb128 0x13
 2767 0006 0B       		.uleb128 0xb
 2768 0007 03       		.uleb128 0x3
 2769 0008 0E       		.uleb128 0xe
 2770 0009 1B       		.uleb128 0x1b
 2771 000a 0E       		.uleb128 0xe
 2772 000b 55       		.uleb128 0x55
 2773 000c 17       		.uleb128 0x17
 2774 000d 11       		.uleb128 0x11
 2775 000e 01       		.uleb128 0x1
 2776 000f 10       		.uleb128 0x10
 2777 0010 17       		.uleb128 0x17
 2778 0011 00       		.byte	0
 2779 0012 00       		.byte	0
 2780 0013 02       		.uleb128 0x2
 2781 0014 24       		.uleb128 0x24
 2782 0015 00       		.byte	0
 2783 0016 0B       		.uleb128 0xb
 2784 0017 0B       		.uleb128 0xb
 2785 0018 3E       		.uleb128 0x3e
 2786 0019 0B       		.uleb128 0xb
 2787 001a 03       		.uleb128 0x3
 2788 001b 0E       		.uleb128 0xe
 2789 001c 00       		.byte	0
 2790 001d 00       		.byte	0
 2791 001e 03       		.uleb128 0x3
 2792 001f 24       		.uleb128 0x24
 2793 0020 00       		.byte	0
 2794 0021 0B       		.uleb128 0xb
 2795 0022 0B       		.uleb128 0xb
 2796 0023 3E       		.uleb128 0x3e
 2797 0024 0B       		.uleb128 0xb
 2798 0025 03       		.uleb128 0x3
 2799 0026 08       		.uleb128 0x8
 2800 0027 00       		.byte	0
 2801 0028 00       		.byte	0
 2802 0029 04       		.uleb128 0x4
 2803 002a 16       		.uleb128 0x16
 2804 002b 00       		.byte	0
 2805 002c 03       		.uleb128 0x3
 2806 002d 0E       		.uleb128 0xe
 2807 002e 3A       		.uleb128 0x3a
 2808 002f 0B       		.uleb128 0xb
 2809 0030 3B       		.uleb128 0x3b
 2810 0031 0B       		.uleb128 0xb
 2811 0032 49       		.uleb128 0x49
 2812 0033 13       		.uleb128 0x13
 2813 0034 00       		.byte	0
 2814 0035 00       		.byte	0
 2815 0036 05       		.uleb128 0x5
 2816 0037 16       		.uleb128 0x16
ARM GAS  C:\Users\khjtony\AppData\Local\Temp\ccDWw2Fb.s 			page 69


 2817 0038 00       		.byte	0
 2818 0039 03       		.uleb128 0x3
 2819 003a 0E       		.uleb128 0xe
 2820 003b 3A       		.uleb128 0x3a
 2821 003c 0B       		.uleb128 0xb
 2822 003d 3B       		.uleb128 0x3b
 2823 003e 05       		.uleb128 0x5
 2824 003f 49       		.uleb128 0x49
 2825 0040 13       		.uleb128 0x13
 2826 0041 00       		.byte	0
 2827 0042 00       		.byte	0
 2828 0043 06       		.uleb128 0x6
 2829 0044 35       		.uleb128 0x35
 2830 0045 00       		.byte	0
 2831 0046 49       		.uleb128 0x49
 2832 0047 13       		.uleb128 0x13
 2833 0048 00       		.byte	0
 2834 0049 00       		.byte	0
 2835 004a 07       		.uleb128 0x7
 2836 004b 13       		.uleb128 0x13
 2837 004c 01       		.byte	0x1
 2838 004d 0B       		.uleb128 0xb
 2839 004e 0B       		.uleb128 0xb
 2840 004f 3A       		.uleb128 0x3a
 2841 0050 0B       		.uleb128 0xb
 2842 0051 3B       		.uleb128 0x3b
 2843 0052 0B       		.uleb128 0xb
 2844 0053 01       		.uleb128 0x1
 2845 0054 13       		.uleb128 0x13
 2846 0055 00       		.byte	0
 2847 0056 00       		.byte	0
 2848 0057 08       		.uleb128 0x8
 2849 0058 0D       		.uleb128 0xd
 2850 0059 00       		.byte	0
 2851 005a 03       		.uleb128 0x3
 2852 005b 0E       		.uleb128 0xe
 2853 005c 3A       		.uleb128 0x3a
 2854 005d 0B       		.uleb128 0xb
 2855 005e 3B       		.uleb128 0x3b
 2856 005f 0B       		.uleb128 0xb
 2857 0060 49       		.uleb128 0x49
 2858 0061 13       		.uleb128 0x13
 2859 0062 38       		.uleb128 0x38
 2860 0063 0B       		.uleb128 0xb
 2861 0064 00       		.byte	0
 2862 0065 00       		.byte	0
 2863 0066 09       		.uleb128 0x9
 2864 0067 01       		.uleb128 0x1
 2865 0068 01       		.byte	0x1
 2866 0069 49       		.uleb128 0x49
 2867 006a 13       		.uleb128 0x13
 2868 006b 01       		.uleb128 0x1
 2869 006c 13       		.uleb128 0x13
 2870 006d 00       		.byte	0
 2871 006e 00       		.byte	0
 2872 006f 0A       		.uleb128 0xa
 2873 0070 21       		.uleb128 0x21
ARM GAS  C:\Users\khjtony\AppData\Local\Temp\ccDWw2Fb.s 			page 70


 2874 0071 00       		.byte	0
 2875 0072 49       		.uleb128 0x49
 2876 0073 13       		.uleb128 0x13
 2877 0074 2F       		.uleb128 0x2f
 2878 0075 0B       		.uleb128 0xb
 2879 0076 00       		.byte	0
 2880 0077 00       		.byte	0
 2881 0078 0B       		.uleb128 0xb
 2882 0079 2E       		.uleb128 0x2e
 2883 007a 01       		.byte	0x1
 2884 007b 3F       		.uleb128 0x3f
 2885 007c 19       		.uleb128 0x19
 2886 007d 03       		.uleb128 0x3
 2887 007e 0E       		.uleb128 0xe
 2888 007f 3A       		.uleb128 0x3a
 2889 0080 0B       		.uleb128 0xb
 2890 0081 3B       		.uleb128 0x3b
 2891 0082 0B       		.uleb128 0xb
 2892 0083 27       		.uleb128 0x27
 2893 0084 19       		.uleb128 0x19
 2894 0085 49       		.uleb128 0x49
 2895 0086 13       		.uleb128 0x13
 2896 0087 11       		.uleb128 0x11
 2897 0088 01       		.uleb128 0x1
 2898 0089 12       		.uleb128 0x12
 2899 008a 06       		.uleb128 0x6
 2900 008b 40       		.uleb128 0x40
 2901 008c 18       		.uleb128 0x18
 2902 008d 9642     		.uleb128 0x2116
 2903 008f 19       		.uleb128 0x19
 2904 0090 01       		.uleb128 0x1
 2905 0091 13       		.uleb128 0x13
 2906 0092 00       		.byte	0
 2907 0093 00       		.byte	0
 2908 0094 0C       		.uleb128 0xc
 2909 0095 34       		.uleb128 0x34
 2910 0096 00       		.byte	0
 2911 0097 03       		.uleb128 0x3
 2912 0098 0E       		.uleb128 0xe
 2913 0099 3A       		.uleb128 0x3a
 2914 009a 0B       		.uleb128 0xb
 2915 009b 3B       		.uleb128 0x3b
 2916 009c 0B       		.uleb128 0xb
 2917 009d 49       		.uleb128 0x49
 2918 009e 13       		.uleb128 0x13
 2919 009f 02       		.uleb128 0x2
 2920 00a0 18       		.uleb128 0x18
 2921 00a1 00       		.byte	0
 2922 00a2 00       		.byte	0
 2923 00a3 0D       		.uleb128 0xd
 2924 00a4 34       		.uleb128 0x34
 2925 00a5 00       		.byte	0
 2926 00a6 03       		.uleb128 0x3
 2927 00a7 08       		.uleb128 0x8
 2928 00a8 3A       		.uleb128 0x3a
 2929 00a9 0B       		.uleb128 0xb
 2930 00aa 3B       		.uleb128 0x3b
ARM GAS  C:\Users\khjtony\AppData\Local\Temp\ccDWw2Fb.s 			page 71


 2931 00ab 0B       		.uleb128 0xb
 2932 00ac 49       		.uleb128 0x49
 2933 00ad 13       		.uleb128 0x13
 2934 00ae 02       		.uleb128 0x2
 2935 00af 18       		.uleb128 0x18
 2936 00b0 00       		.byte	0
 2937 00b1 00       		.byte	0
 2938 00b2 0E       		.uleb128 0xe
 2939 00b3 26       		.uleb128 0x26
 2940 00b4 00       		.byte	0
 2941 00b5 49       		.uleb128 0x49
 2942 00b6 13       		.uleb128 0x13
 2943 00b7 00       		.byte	0
 2944 00b8 00       		.byte	0
 2945 00b9 0F       		.uleb128 0xf
 2946 00ba 2E       		.uleb128 0x2e
 2947 00bb 01       		.byte	0x1
 2948 00bc 3F       		.uleb128 0x3f
 2949 00bd 19       		.uleb128 0x19
 2950 00be 03       		.uleb128 0x3
 2951 00bf 0E       		.uleb128 0xe
 2952 00c0 3A       		.uleb128 0x3a
 2953 00c1 0B       		.uleb128 0xb
 2954 00c2 3B       		.uleb128 0x3b
 2955 00c3 05       		.uleb128 0x5
 2956 00c4 27       		.uleb128 0x27
 2957 00c5 19       		.uleb128 0x19
 2958 00c6 49       		.uleb128 0x49
 2959 00c7 13       		.uleb128 0x13
 2960 00c8 11       		.uleb128 0x11
 2961 00c9 01       		.uleb128 0x1
 2962 00ca 12       		.uleb128 0x12
 2963 00cb 06       		.uleb128 0x6
 2964 00cc 40       		.uleb128 0x40
 2965 00cd 18       		.uleb128 0x18
 2966 00ce 9642     		.uleb128 0x2116
 2967 00d0 19       		.uleb128 0x19
 2968 00d1 01       		.uleb128 0x1
 2969 00d2 13       		.uleb128 0x13
 2970 00d3 00       		.byte	0
 2971 00d4 00       		.byte	0
 2972 00d5 10       		.uleb128 0x10
 2973 00d6 34       		.uleb128 0x34
 2974 00d7 00       		.byte	0
 2975 00d8 03       		.uleb128 0x3
 2976 00d9 0E       		.uleb128 0xe
 2977 00da 3A       		.uleb128 0x3a
 2978 00db 0B       		.uleb128 0xb
 2979 00dc 3B       		.uleb128 0x3b
 2980 00dd 05       		.uleb128 0x5
 2981 00de 49       		.uleb128 0x49
 2982 00df 13       		.uleb128 0x13
 2983 00e0 02       		.uleb128 0x2
 2984 00e1 18       		.uleb128 0x18
 2985 00e2 00       		.byte	0
 2986 00e3 00       		.byte	0
 2987 00e4 11       		.uleb128 0x11
ARM GAS  C:\Users\khjtony\AppData\Local\Temp\ccDWw2Fb.s 			page 72


 2988 00e5 2E       		.uleb128 0x2e
 2989 00e6 01       		.byte	0x1
 2990 00e7 3F       		.uleb128 0x3f
 2991 00e8 19       		.uleb128 0x19
 2992 00e9 03       		.uleb128 0x3
 2993 00ea 0E       		.uleb128 0xe
 2994 00eb 3A       		.uleb128 0x3a
 2995 00ec 0B       		.uleb128 0xb
 2996 00ed 3B       		.uleb128 0x3b
 2997 00ee 05       		.uleb128 0x5
 2998 00ef 27       		.uleb128 0x27
 2999 00f0 19       		.uleb128 0x19
 3000 00f1 49       		.uleb128 0x49
 3001 00f2 13       		.uleb128 0x13
 3002 00f3 11       		.uleb128 0x11
 3003 00f4 01       		.uleb128 0x1
 3004 00f5 12       		.uleb128 0x12
 3005 00f6 06       		.uleb128 0x6
 3006 00f7 40       		.uleb128 0x40
 3007 00f8 18       		.uleb128 0x18
 3008 00f9 9742     		.uleb128 0x2117
 3009 00fb 19       		.uleb128 0x19
 3010 00fc 01       		.uleb128 0x1
 3011 00fd 13       		.uleb128 0x13
 3012 00fe 00       		.byte	0
 3013 00ff 00       		.byte	0
 3014 0100 12       		.uleb128 0x12
 3015 0101 05       		.uleb128 0x5
 3016 0102 00       		.byte	0
 3017 0103 03       		.uleb128 0x3
 3018 0104 0E       		.uleb128 0xe
 3019 0105 3A       		.uleb128 0x3a
 3020 0106 0B       		.uleb128 0xb
 3021 0107 3B       		.uleb128 0x3b
 3022 0108 05       		.uleb128 0x5
 3023 0109 49       		.uleb128 0x49
 3024 010a 13       		.uleb128 0x13
 3025 010b 02       		.uleb128 0x2
 3026 010c 18       		.uleb128 0x18
 3027 010d 00       		.byte	0
 3028 010e 00       		.byte	0
 3029 010f 13       		.uleb128 0x13
 3030 0110 05       		.uleb128 0x5
 3031 0111 00       		.byte	0
 3032 0112 03       		.uleb128 0x3
 3033 0113 08       		.uleb128 0x8
 3034 0114 3A       		.uleb128 0x3a
 3035 0115 0B       		.uleb128 0xb
 3036 0116 3B       		.uleb128 0x3b
 3037 0117 05       		.uleb128 0x5
 3038 0118 49       		.uleb128 0x49
 3039 0119 13       		.uleb128 0x13
 3040 011a 02       		.uleb128 0x2
 3041 011b 18       		.uleb128 0x18
 3042 011c 00       		.byte	0
 3043 011d 00       		.byte	0
 3044 011e 14       		.uleb128 0x14
ARM GAS  C:\Users\khjtony\AppData\Local\Temp\ccDWw2Fb.s 			page 73


 3045 011f 0F       		.uleb128 0xf
 3046 0120 00       		.byte	0
 3047 0121 0B       		.uleb128 0xb
 3048 0122 0B       		.uleb128 0xb
 3049 0123 49       		.uleb128 0x49
 3050 0124 13       		.uleb128 0x13
 3051 0125 00       		.byte	0
 3052 0126 00       		.byte	0
 3053 0127 15       		.uleb128 0x15
 3054 0128 2E       		.uleb128 0x2e
 3055 0129 00       		.byte	0
 3056 012a 3F       		.uleb128 0x3f
 3057 012b 19       		.uleb128 0x19
 3058 012c 03       		.uleb128 0x3
 3059 012d 0E       		.uleb128 0xe
 3060 012e 3A       		.uleb128 0x3a
 3061 012f 0B       		.uleb128 0xb
 3062 0130 3B       		.uleb128 0x3b
 3063 0131 05       		.uleb128 0x5
 3064 0132 27       		.uleb128 0x27
 3065 0133 19       		.uleb128 0x19
 3066 0134 49       		.uleb128 0x49
 3067 0135 13       		.uleb128 0x13
 3068 0136 11       		.uleb128 0x11
 3069 0137 01       		.uleb128 0x1
 3070 0138 12       		.uleb128 0x12
 3071 0139 06       		.uleb128 0x6
 3072 013a 40       		.uleb128 0x40
 3073 013b 18       		.uleb128 0x18
 3074 013c 9742     		.uleb128 0x2117
 3075 013e 19       		.uleb128 0x19
 3076 013f 00       		.byte	0
 3077 0140 00       		.byte	0
 3078 0141 16       		.uleb128 0x16
 3079 0142 34       		.uleb128 0x34
 3080 0143 00       		.byte	0
 3081 0144 03       		.uleb128 0x3
 3082 0145 0E       		.uleb128 0xe
 3083 0146 3A       		.uleb128 0x3a
 3084 0147 0B       		.uleb128 0xb
 3085 0148 3B       		.uleb128 0x3b
 3086 0149 0B       		.uleb128 0xb
 3087 014a 49       		.uleb128 0x49
 3088 014b 13       		.uleb128 0x13
 3089 014c 3F       		.uleb128 0x3f
 3090 014d 19       		.uleb128 0x19
 3091 014e 02       		.uleb128 0x2
 3092 014f 18       		.uleb128 0x18
 3093 0150 00       		.byte	0
 3094 0151 00       		.byte	0
 3095 0152 00       		.byte	0
 3096              		.section	.debug_aranges,"",%progbits
 3097 0000 BC000000 		.4byte	0xbc
 3098 0004 0200     		.2byte	0x2
 3099 0006 00000000 		.4byte	.Ldebug_info0
 3100 000a 04       		.byte	0x4
 3101 000b 00       		.byte	0
ARM GAS  C:\Users\khjtony\AppData\Local\Temp\ccDWw2Fb.s 			page 74


 3102 000c 0000     		.2byte	0
 3103 000e 0000     		.2byte	0
 3104 0010 00000000 		.4byte	.LFB0
 3105 0014 70010000 		.4byte	.LFE0-.LFB0
 3106 0018 00000000 		.4byte	.LFB1
 3107 001c 78000000 		.4byte	.LFE1-.LFB1
 3108 0020 00000000 		.4byte	.LFB2
 3109 0024 3C000000 		.4byte	.LFE2-.LFB2
 3110 0028 00000000 		.4byte	.LFB3
 3111 002c 78000000 		.4byte	.LFE3-.LFB3
 3112 0030 00000000 		.4byte	.LFB4
 3113 0034 40000000 		.4byte	.LFE4-.LFB4
 3114 0038 00000000 		.4byte	.LFB5
 3115 003c 40000000 		.4byte	.LFE5-.LFB5
 3116 0040 00000000 		.4byte	.LFB6
 3117 0044 44000000 		.4byte	.LFE6-.LFB6
 3118 0048 00000000 		.4byte	.LFB7
 3119 004c 6C000000 		.4byte	.LFE7-.LFB7
 3120 0050 00000000 		.4byte	.LFB8
 3121 0054 C4000000 		.4byte	.LFE8-.LFB8
 3122 0058 00000000 		.4byte	.LFB9
 3123 005c 6C000000 		.4byte	.LFE9-.LFB9
 3124 0060 00000000 		.4byte	.LFB10
 3125 0064 6C000000 		.4byte	.LFE10-.LFB10
 3126 0068 00000000 		.4byte	.LFB11
 3127 006c 6C000000 		.4byte	.LFE11-.LFB11
 3128 0070 00000000 		.4byte	.LFB12
 3129 0074 A4000000 		.4byte	.LFE12-.LFB12
 3130 0078 00000000 		.4byte	.LFB13
 3131 007c 38000000 		.4byte	.LFE13-.LFB13
 3132 0080 00000000 		.4byte	.LFB14
 3133 0084 28000000 		.4byte	.LFE14-.LFB14
 3134 0088 00000000 		.4byte	.LFB15
 3135 008c 28000000 		.4byte	.LFE15-.LFB15
 3136 0090 00000000 		.4byte	.LFB16
 3137 0094 18000000 		.4byte	.LFE16-.LFB16
 3138 0098 00000000 		.4byte	.LFB17
 3139 009c 18000000 		.4byte	.LFE17-.LFB17
 3140 00a0 00000000 		.4byte	.LFB18
 3141 00a4 20000000 		.4byte	.LFE18-.LFB18
 3142 00a8 00000000 		.4byte	.LFB19
 3143 00ac EC000000 		.4byte	.LFE19-.LFB19
 3144 00b0 00000000 		.4byte	.LFB20
 3145 00b4 88000000 		.4byte	.LFE20-.LFB20
 3146 00b8 00000000 		.4byte	0
 3147 00bc 00000000 		.4byte	0
 3148              		.section	.debug_ranges,"",%progbits
 3149              	.Ldebug_ranges0:
 3150 0000 00000000 		.4byte	.LFB0
 3151 0004 70010000 		.4byte	.LFE0
 3152 0008 00000000 		.4byte	.LFB1
 3153 000c 78000000 		.4byte	.LFE1
 3154 0010 00000000 		.4byte	.LFB2
 3155 0014 3C000000 		.4byte	.LFE2
 3156 0018 00000000 		.4byte	.LFB3
 3157 001c 78000000 		.4byte	.LFE3
 3158 0020 00000000 		.4byte	.LFB4
ARM GAS  C:\Users\khjtony\AppData\Local\Temp\ccDWw2Fb.s 			page 75


 3159 0024 40000000 		.4byte	.LFE4
 3160 0028 00000000 		.4byte	.LFB5
 3161 002c 40000000 		.4byte	.LFE5
 3162 0030 00000000 		.4byte	.LFB6
 3163 0034 44000000 		.4byte	.LFE6
 3164 0038 00000000 		.4byte	.LFB7
 3165 003c 6C000000 		.4byte	.LFE7
 3166 0040 00000000 		.4byte	.LFB8
 3167 0044 C4000000 		.4byte	.LFE8
 3168 0048 00000000 		.4byte	.LFB9
 3169 004c 6C000000 		.4byte	.LFE9
 3170 0050 00000000 		.4byte	.LFB10
 3171 0054 6C000000 		.4byte	.LFE10
 3172 0058 00000000 		.4byte	.LFB11
 3173 005c 6C000000 		.4byte	.LFE11
 3174 0060 00000000 		.4byte	.LFB12
 3175 0064 A4000000 		.4byte	.LFE12
 3176 0068 00000000 		.4byte	.LFB13
 3177 006c 38000000 		.4byte	.LFE13
 3178 0070 00000000 		.4byte	.LFB14
 3179 0074 28000000 		.4byte	.LFE14
 3180 0078 00000000 		.4byte	.LFB15
 3181 007c 28000000 		.4byte	.LFE15
 3182 0080 00000000 		.4byte	.LFB16
 3183 0084 18000000 		.4byte	.LFE16
 3184 0088 00000000 		.4byte	.LFB17
 3185 008c 18000000 		.4byte	.LFE17
 3186 0090 00000000 		.4byte	.LFB18
 3187 0094 20000000 		.4byte	.LFE18
 3188 0098 00000000 		.4byte	.LFB19
 3189 009c EC000000 		.4byte	.LFE19
 3190 00a0 00000000 		.4byte	.LFB20
 3191 00a4 88000000 		.4byte	.LFE20
 3192 00a8 00000000 		.4byte	0
 3193 00ac 00000000 		.4byte	0
 3194              		.section	.debug_line,"",%progbits
 3195              	.Ldebug_line0:
 3196 0000 D4020000 		.section	.debug_str,"MS",%progbits,1
 3196      02004F00 
 3196      00000201 
 3196      FB0E0D00 
 3196      01010101 
 3197              	.LASF10:
 3198 0000 75696E74 		.ascii	"uint16\000"
 3198      313600
 3199              	.LASF58:
 3200 0007 72657365 		.ascii	"reset\000"
 3200      7400
 3201              	.LASF60:
 3202 000d 65646765 		.ascii	"edge\000"
 3202      00
 3203              	.LASF66:
 3204 0012 43414E5F 		.ascii	"CAN_1_SetIrqMask\000"
 3204      315F5365 
 3204      74497271 
 3204      4D61736B 
 3204      00
ARM GAS  C:\Users\khjtony\AppData\Local\Temp\ccDWw2Fb.s 			page 76


 3205              	.LASF7:
 3206 0023 6C6F6E67 		.ascii	"long long unsigned int\000"
 3206      206C6F6E 
 3206      6720756E 
 3206      7369676E 
 3206      65642069 
 3207              	.LASF28:
 3208 003a 7478636D 		.ascii	"txcmd\000"
 3208      6400
 3209              	.LASF80:
 3210 0040 43414E5F 		.ascii	"CAN_1_initVar\000"
 3210      315F696E 
 3210      69745661 
 3210      7200
 3211              	.LASF74:
 3212 004e 7278436F 		.ascii	"rxConfig\000"
 3212      6E666967 
 3212      00
 3213              	.LASF43:
 3214 0057 43414E5F 		.ascii	"CAN_1_Init\000"
 3214      315F496E 
 3214      697400
 3215              	.LASF33:
 3216 0062 7278616D 		.ascii	"rxamrd\000"
 3216      726400
 3217              	.LASF63:
 3218 0069 43414E5F 		.ascii	"CAN_1_RXRegisterInit\000"
 3218      315F5258 
 3218      52656769 
 3218      73746572 
 3218      496E6974 
 3219              	.LASF51:
 3220 007e 62697472 		.ascii	"bitrate\000"
 3220      61746500 
 3221              	.LASF6:
 3222 0086 6C6F6E67 		.ascii	"long long int\000"
 3222      206C6F6E 
 3222      6720696E 
 3222      7400
 3223              	.LASF0:
 3224 0094 7369676E 		.ascii	"signed char\000"
 3224      65642063 
 3224      68617200 
 3225              	.LASF73:
 3226 00a0 43414E5F 		.ascii	"CAN_1_RxBufConfig\000"
 3226      315F5278 
 3226      42756643 
 3226      6F6E6669 
 3226      6700
 3227              	.LASF45:
 3228 00b2 43414E5F 		.ascii	"CAN_1_Start\000"
 3228      315F5374 
 3228      61727400 
 3229              	.LASF48:
 3230 00be 43414E5F 		.ascii	"CAN_1_GlobalIntDisable\000"
 3230      315F476C 
 3230      6F62616C 
ARM GAS  C:\Users\khjtony\AppData\Local\Temp\ccDWw2Fb.s 			page 77


 3230      496E7444 
 3230      69736162 
 3231              	.LASF71:
 3232 00d5 43414E5F 		.ascii	"CAN_1_GetRXErrorCount\000"
 3232      315F4765 
 3232      74525845 
 3232      72726F72 
 3232      436F756E 
 3233              	.LASF4:
 3234 00eb 6C6F6E67 		.ascii	"long int\000"
 3234      20696E74 
 3234      00
 3235              	.LASF61:
 3236 00f4 43414E5F 		.ascii	"CAN_1_SetOpMode\000"
 3236      315F5365 
 3236      744F704D 
 3236      6F646500 
 3237              	.LASF32:
 3238 0104 72786461 		.ascii	"rxdata\000"
 3238      746100
 3239              	.LASF57:
 3240 010b 43414E5F 		.ascii	"CAN_1_SetRestartType\000"
 3240      315F5365 
 3240      74526573 
 3240      74617274 
 3240      54797065 
 3241              	.LASF16:
 3242 0120 72656731 		.ascii	"reg16\000"
 3242      3600
 3243              	.LASF9:
 3244 0126 75696E74 		.ascii	"uint8\000"
 3244      3800
 3245              	.LASF24:
 3246 012c 7278616D 		.ascii	"rxamr\000"
 3246      7200
 3247              	.LASF13:
 3248 0132 646F7562 		.ascii	"double\000"
 3248      6C6500
 3249              	.LASF11:
 3250 0139 75696E74 		.ascii	"uint32\000"
 3250      333200
 3251              	.LASF20:
 3252 0140 62797465 		.ascii	"byte\000"
 3252      00
 3253              	.LASF67:
 3254 0145 6D61736B 		.ascii	"mask\000"
 3254      00
 3255              	.LASF39:
 3256 014a 43414E5F 		.ascii	"CAN_1_TXConfigStruct\000"
 3256      315F5458 
 3256      436F6E66 
 3256      69675374 
 3256      72756374 
 3257              	.LASF8:
 3258 015f 756E7369 		.ascii	"unsigned int\000"
 3258      676E6564 
 3258      20696E74 
ARM GAS  C:\Users\khjtony\AppData\Local\Temp\ccDWw2Fb.s 			page 78


 3258      00
 3259              	.LASF59:
 3260 016c 43414E5F 		.ascii	"CAN_1_SetEdgeMode\000"
 3260      315F5365 
 3260      74456467 
 3260      654D6F64 
 3260      6500
 3261              	.LASF75:
 3262 017e 43414E5F 		.ascii	"CAN_1_TxBufConfig\000"
 3262      315F5478 
 3262      42756643 
 3262      6F6E6669 
 3262      6700
 3263              	.LASF5:
 3264 0190 6C6F6E67 		.ascii	"long unsigned int\000"
 3264      20756E73 
 3264      69676E65 
 3264      6420696E 
 3264      7400
 3265              	.LASF26:
 3266 01a2 43414E5F 		.ascii	"CAN_1_RX_CFG\000"
 3266      315F5258 
 3266      5F434647 
 3266      00
 3267              	.LASF3:
 3268 01af 73686F72 		.ascii	"short unsigned int\000"
 3268      7420756E 
 3268      7369676E 
 3268      65642069 
 3268      6E7400
 3269              	.LASF62:
 3270 01c2 6F704D6F 		.ascii	"opMode\000"
 3270      646500
 3271              	.LASF47:
 3272 01c9 43414E5F 		.ascii	"CAN_1_GlobalIntEnable\000"
 3272      315F476C 
 3272      6F62616C 
 3272      496E7445 
 3272      6E61626C 
 3273              	.LASF36:
 3274 01df 74786461 		.ascii	"txdata\000"
 3274      746100
 3275              	.LASF21:
 3276 01e6 43414E5F 		.ascii	"CAN_1_REG_32\000"
 3276      315F5245 
 3276      475F3332 
 3276      00
 3277              	.LASF72:
 3278 01f3 43414E5F 		.ascii	"CAN_1_GetErrorState\000"
 3278      315F4765 
 3278      74457272 
 3278      6F725374 
 3278      61746500 
 3279              	.LASF17:
 3280 0207 72656733 		.ascii	"reg32\000"
 3280      3200
 3281              	.LASF64:
ARM GAS  C:\Users\khjtony\AppData\Local\Temp\ccDWw2Fb.s 			page 79


 3282 020d 72656741 		.ascii	"regAddr\000"
 3282      64647200 
 3283              	.LASF56:
 3284 0215 63666754 		.ascii	"cfgTemp\000"
 3284      656D7000 
 3285              	.LASF22:
 3286 021d 72786D61 		.ascii	"rxmailbox\000"
 3286      696C626F 
 3286      7800
 3287              	.LASF18:
 3288 0227 73697A65 		.ascii	"sizetype\000"
 3288      74797065 
 3288      00
 3289              	.LASF49:
 3290 0230 43414E5F 		.ascii	"CAN_1_SetPreScaler\000"
 3290      315F5365 
 3290      74507265 
 3290      5363616C 
 3290      657200
 3291              	.LASF19:
 3292 0243 43414E5F 		.ascii	"CAN_1_DATA_BYTES\000"
 3292      315F4441 
 3292      54415F42 
 3292      59544553 
 3292      00
 3293              	.LASF35:
 3294 0254 43414E5F 		.ascii	"CAN_1_RX_STRUCT\000"
 3294      315F5258 
 3294      5F535452 
 3294      55435400 
 3295              	.LASF77:
 3296 0264 474E5520 		.ascii	"GNU C 4.8.4 20140526 (release) [ARM/embedded-4_8-br"
 3296      4320342E 
 3296      382E3420 
 3296      32303134 
 3296      30353236 
 3297 0297 616E6368 		.ascii	"anch revision 211358] -mcpu=cortex-m3 -mthumb -g -O"
 3297      20726576 
 3297      6973696F 
 3297      6E203231 
 3297      31333538 
 3298 02ca 30202D66 		.ascii	"0 -ffunction-sections\000"
 3298      66756E63 
 3298      74696F6E 
 3298      2D736563 
 3298      74696F6E 
 3299              	.LASF31:
 3300 02e0 72786964 		.ascii	"rxid\000"
 3300      00
 3301              	.LASF12:
 3302 02e5 666C6F61 		.ascii	"float\000"
 3302      7400
 3303              	.LASF70:
 3304 02eb 43414E5F 		.ascii	"CAN_1_GetTXErrorCount\000"
 3304      315F4765 
 3304      74545845 
 3304      72726F72 
ARM GAS  C:\Users\khjtony\AppData\Local\Temp\ccDWw2Fb.s 			page 80


 3304      436F756E 
 3305              	.LASF38:
 3306 0301 43414E5F 		.ascii	"CAN_1_RXConfigStruct\000"
 3306      315F5258 
 3306      436F6E66 
 3306      69675374 
 3306      72756374 
 3307              	.LASF15:
 3308 0316 72656738 		.ascii	"reg8\000"
 3308      00
 3309              	.LASF44:
 3310 031b 43414E5F 		.ascii	"CAN_1_Enable\000"
 3310      315F456E 
 3310      61626C65 
 3310      00
 3311              	.LASF1:
 3312 0328 756E7369 		.ascii	"unsigned char\000"
 3312      676E6564 
 3312      20636861 
 3312      7200
 3313              	.LASF2:
 3314 0336 73686F72 		.ascii	"short int\000"
 3314      7420696E 
 3314      7400
 3315              	.LASF46:
 3316 0340 43414E5F 		.ascii	"CAN_1_Stop\000"
 3316      315F5374 
 3316      6F7000
 3317              	.LASF79:
 3318 034b 443A5C77 		.ascii	"D:\\workspace\\Super-Eagle\\Super-Eagle\\Super-Eagl"
 3318      6F726B73 
 3318      70616365 
 3318      5C537570 
 3318      65722D45 
 3319 037a 652E6379 		.ascii	"e.cydsn\000"
 3319      64736E00 
 3320              	.LASF14:
 3321 0382 63686172 		.ascii	"char\000"
 3321      00
 3322              	.LASF53:
 3323 0387 43414E5F 		.ascii	"CAN_1_SetTsegSample\000"
 3323      315F5365 
 3323      74547365 
 3323      6753616D 
 3323      706C6500 
 3324              	.LASF65:
 3325 039b 636F6E66 		.ascii	"config\000"
 3325      696700
 3326              	.LASF41:
 3327 03a2 6C6F6361 		.ascii	"localResult\000"
 3327      6C526573 
 3327      756C7400 
 3328              	.LASF27:
 3329 03ae 74786D61 		.ascii	"txmailbox\000"
 3329      696C626F 
 3329      7800
 3330              	.LASF54:
ARM GAS  C:\Users\khjtony\AppData\Local\Temp\ccDWw2Fb.s 			page 81


 3331 03b8 63666754 		.ascii	"cfgTseg1\000"
 3331      73656731 
 3331      00
 3332              	.LASF55:
 3333 03c1 63666754 		.ascii	"cfgTseg2\000"
 3333      73656732 
 3333      00
 3334              	.LASF78:
 3335 03ca 2E5C4765 		.ascii	".\\Generated_Source\\PSoC5\\CAN_1.c\000"
 3335      6E657261 
 3335      7465645F 
 3335      536F7572 
 3335      63655C50 
 3336              	.LASF37:
 3337 03eb 43414E5F 		.ascii	"CAN_1_TX_STRUCT\000"
 3337      315F5458 
 3337      5F535452 
 3337      55435400 
 3338              	.LASF23:
 3339 03fb 7278636D 		.ascii	"rxcmd\000"
 3339      6400
 3340              	.LASF76:
 3341 0401 7478436F 		.ascii	"txConfig\000"
 3341      6E666967 
 3341      00
 3342              	.LASF50:
 3343 040a 43414E5F 		.ascii	"CAN_1_SetArbiter\000"
 3343      315F5365 
 3343      74417262 
 3343      69746572 
 3343      00
 3344              	.LASF42:
 3345 041b 656E6162 		.ascii	"enableInterrupts\000"
 3345      6C65496E 
 3345      74657272 
 3345      75707473 
 3345      00
 3346              	.LASF29:
 3347 042c 74786964 		.ascii	"txid\000"
 3347      00
 3348              	.LASF68:
 3349 0431 43414E5F 		.ascii	"CAN_1_GetTXErrorFlag\000"
 3349      315F4765 
 3349      74545845 
 3349      72726F72 
 3349      466C6167 
 3350              	.LASF25:
 3351 0446 72786163 		.ascii	"rxacr\000"
 3351      7200
 3352              	.LASF30:
 3353 044c 43414E5F 		.ascii	"CAN_1_TX_CFG\000"
 3353      315F5458 
 3353      5F434647 
 3353      00
 3354              	.LASF52:
 3355 0459 61726269 		.ascii	"arbiter\000"
 3355      74657200 
ARM GAS  C:\Users\khjtony\AppData\Local\Temp\ccDWw2Fb.s 			page 82


 3356              	.LASF34:
 3357 0461 72786163 		.ascii	"rxacrd\000"
 3357      726400
 3358              	.LASF40:
 3359 0468 72657375 		.ascii	"result\000"
 3359      6C7400
 3360              	.LASF69:
 3361 046f 43414E5F 		.ascii	"CAN_1_GetRXErrorFlag\000"
 3361      315F4765 
 3361      74525845 
 3361      72726F72 
 3361      466C6167 
 3362              		.ident	"GCC: (GNU Tools for ARM Embedded Processors) 4.8.4 20140526 (release) [ARM/embedded-4_8-br
