ARM GAS  C:\Users\khjtony\AppData\Local\Temp\ccLE4Zj8.s 			page 1


   1              		.syntax unified
   2              		.cpu cortex-m3
   3              		.fpu softvfp
   4              		.eabi_attribute 20, 1
   5              		.eabi_attribute 21, 1
   6              		.eabi_attribute 23, 3
   7              		.eabi_attribute 24, 1
   8              		.eabi_attribute 25, 1
   9              		.eabi_attribute 26, 1
  10              		.eabi_attribute 30, 6
  11              		.eabi_attribute 34, 1
  12              		.eabi_attribute 18, 4
  13              		.thumb
  14              		.file	"can_manager.c"
  15              		.text
  16              	.Ltext0:
  17              		.cfi_sections	.debug_frame
  18              		.comm	can_buffer,8,4
  19              		.global	info_battery_voltage
  20              		.bss
  21              		.align	2
  22              		.type	info_battery_voltage, %object
  23              		.size	info_battery_voltage, 4
  24              	info_battery_voltage:
  25 0000 00000000 		.space	4
  26              		.global	info_battery_current
  27              		.align	1
  28              		.type	info_battery_current, %object
  29              		.size	info_battery_current, 2
  30              	info_battery_current:
  31 0004 0000     		.space	2
  32              		.global	info_battery_temp
  33              		.align	1
  34              		.type	info_battery_temp, %object
  35              		.size	info_battery_temp, 2
  36              	info_battery_temp:
  37 0006 0000     		.space	2
  38              		.global	info_battery_status
  39              		.align	1
  40              		.type	info_battery_status, %object
  41              		.size	info_battery_status, 2
  42              	info_battery_status:
  43 0008 0000     		.space	2
  44              		.global	info_car_speed
  45              		.align	1
  46              		.type	info_car_speed, %object
  47              		.size	info_car_speed, 2
  48              	info_car_speed:
  49 000a 0000     		.space	2
  50              		.global	info_common_time
  51              		.align	1
  52              		.type	info_common_time, %object
  53              		.size	info_common_time, 2
  54              	info_common_time:
  55 000c 0000     		.space	2
  56              		.global	error_battery
  57              		.type	error_battery, %object
ARM GAS  C:\Users\khjtony\AppData\Local\Temp\ccLE4Zj8.s 			page 2


  58              		.size	error_battery, 1
  59              	error_battery:
  60 000e 00       		.space	1
  61              		.global	error_padel
  62              		.type	error_padel, %object
  63              		.size	error_padel, 1
  64              	error_padel:
  65 000f 00       		.space	1
  66              		.global	wdt_battery
  67              		.data
  68              		.type	wdt_battery, %object
  69              		.size	wdt_battery, 1
  70              	wdt_battery:
  71 0000 0A       		.byte	10
  72              		.global	wdt_voltage
  73              		.type	wdt_voltage, %object
  74              		.size	wdt_voltage, 1
  75              	wdt_voltage:
  76 0001 0A       		.byte	10
  77              		.global	wdt_padel
  78              		.type	wdt_padel, %object
  79              		.size	wdt_padel, 1
  80              	wdt_padel:
  81 0002 0A       		.byte	10
  82              		.global	wdt_current
  83              		.type	wdt_current, %object
  84              		.size	wdt_current, 1
  85              	wdt_current:
  86 0003 0A       		.byte	10
  87              		.section	.text.can_test_send,"ax",%progbits
  88              		.align	2
  89              		.global	can_test_send
  90              		.thumb
  91              		.thumb_func
  92              		.type	can_test_send, %function
  93              	can_test_send:
  94              	.LFB56:
  95              		.file 1 ".\\can_manager.c"
   1:.\can_manager.c **** #include "can_manager.h"
   2:.\can_manager.c **** 
   3:.\can_manager.c **** volatile uint8_t can_buffer[8];
   4:.\can_manager.c ****     uint32_t info_battery_voltage = 0;
   5:.\can_manager.c ****     uint16_t info_battery_current = 0;
   6:.\can_manager.c ****     uint16_t info_battery_temp = 0;
   7:.\can_manager.c ****     uint16_t info_battery_status = 0;
   8:.\can_manager.c ****     uint16_t info_car_speed = 0;
   9:.\can_manager.c ****     uint16_t info_common_time = 0;
  10:.\can_manager.c ****     uint8_t error_battery =0;
  11:.\can_manager.c ****     uint8_t error_padel = 0;
  12:.\can_manager.c ****     uint8_t wdt_battery = 10;
  13:.\can_manager.c ****     uint8_t wdt_voltage = 10;
  14:.\can_manager.c ****     uint8_t wdt_padel = 10;
  15:.\can_manager.c ****     uint8_t wdt_current = 10;
  16:.\can_manager.c ****    
  17:.\can_manager.c **** 
  18:.\can_manager.c **** /* Data Frame format for Voltage and Temperature
  19:.\can_manager.c **** The datatype consists of three bytes:
ARM GAS  C:\Users\khjtony\AppData\Local\Temp\ccLE4Zj8.s 			page 3


  20:.\can_manager.c **** 1. Identifying Number (eg cell #1)
  21:.\can_manager.c **** 2. upper byte of data
  22:.\can_manager.c **** 3. lower byte of data
  23:.\can_manager.c **** */
  24:.\can_manager.c **** 
  25:.\can_manager.c **** 
  26:.\can_manager.c **** 
  27:.\can_manager.c ****                     
  28:.\can_manager.c **** 
  29:.\can_manager.c ****                     
  30:.\can_manager.c **** uint8_t can_test_send()
  31:.\can_manager.c **** {
  96              		.loc 1 31 0
  97              		.cfi_startproc
  98              		@ args = 0, pretend = 0, frame = 40
  99              		@ frame_needed = 1, uses_anonymous_args = 0
 100 0000 80B5     		push	{r7, lr}
 101              		.cfi_def_cfa_offset 8
 102              		.cfi_offset 7, -8
 103              		.cfi_offset 14, -4
 104 0002 8AB0     		sub	sp, sp, #40
 105              		.cfi_def_cfa_offset 48
 106 0004 00AF     		add	r7, sp, #0
 107              		.cfi_def_cfa_register 7
  32:.\can_manager.c ****     uint16_t ID=0x205;
 108              		.loc 1 32 0
 109 0006 40F20523 		movw	r3, #517
 110 000a BB84     		strh	r3, [r7, #36]	@ movhi
  33:.\can_manager.c ****     uint8_t msg[8];
  34:.\can_manager.c ****     //msg[0~3] is left
  35:.\can_manager.c ****     msg[0]=0x0f;
 111              		.loc 1 35 0
 112 000c 0F23     		movs	r3, #15
 113 000e 3B76     		strb	r3, [r7, #24]
  36:.\can_manager.c ****     msg[1]=0xf0;
 114              		.loc 1 36 0
 115 0010 F023     		movs	r3, #240
 116 0012 7B76     		strb	r3, [r7, #25]
  37:.\can_manager.c ****     msg[2]=0x0f;
 117              		.loc 1 37 0
 118 0014 0F23     		movs	r3, #15
 119 0016 BB76     		strb	r3, [r7, #26]
  38:.\can_manager.c ****     msg[3]=0xf0;
 120              		.loc 1 38 0
 121 0018 F023     		movs	r3, #240
 122 001a FB76     		strb	r3, [r7, #27]
  39:.\can_manager.c ****     //msg[4~7] is right
  40:.\can_manager.c ****     msg[4]=0x9a;
 123              		.loc 1 40 0
 124 001c 9A23     		movs	r3, #154
 125 001e 3B77     		strb	r3, [r7, #28]
  41:.\can_manager.c ****     msg[5]=0xbc;
 126              		.loc 1 41 0
 127 0020 BC23     		movs	r3, #188
 128 0022 7B77     		strb	r3, [r7, #29]
  42:.\can_manager.c ****     msg[6]=0xde;
 129              		.loc 1 42 0
ARM GAS  C:\Users\khjtony\AppData\Local\Temp\ccLE4Zj8.s 			page 4


 130 0024 DE23     		movs	r3, #222
 131 0026 BB77     		strb	r3, [r7, #30]
  43:.\can_manager.c ****     msg[7]=0xff;
 132              		.loc 1 43 0
 133 0028 FF23     		movs	r3, #255
 134 002a FB77     		strb	r3, [r7, #31]
  44:.\can_manager.c ****     
  45:.\can_manager.c ****     
  46:.\can_manager.c ****     
  47:.\can_manager.c **** 	uint8_t i, state;
  48:.\can_manager.c **** 	CAN_1_TX_MSG message;
  49:.\can_manager.c **** 	CAN_1_DATA_BYTES_MSG payload;
  50:.\can_manager.c **** 
  51:.\can_manager.c **** 	message.id = ID; // edit for testing
 135              		.loc 1 51 0
 136 002c BB8C     		ldrh	r3, [r7, #36]
 137 002e FB60     		str	r3, [r7, #12]
  52:.\can_manager.c **** 	message.rtr = 0;
 138              		.loc 1 52 0
 139 0030 0023     		movs	r3, #0
 140 0032 3B74     		strb	r3, [r7, #16]
  53:.\can_manager.c **** 	message.ide = 0;
 141              		.loc 1 53 0
 142 0034 0023     		movs	r3, #0
 143 0036 7B74     		strb	r3, [r7, #17]
  54:.\can_manager.c **** 	message.dlc = 0x08;
 144              		.loc 1 54 0
 145 0038 0823     		movs	r3, #8
 146 003a BB74     		strb	r3, [r7, #18]
  55:.\can_manager.c **** 	message.irq = 1;
 147              		.loc 1 55 0
 148 003c 0123     		movs	r3, #1
 149 003e FB74     		strb	r3, [r7, #19]
  56:.\can_manager.c **** 	message.msg = &payload;
 150              		.loc 1 56 0
 151 0040 3B1D     		adds	r3, r7, #4
 152 0042 7B61     		str	r3, [r7, #20]
  57:.\can_manager.c **** 
  58:.\can_manager.c **** 	for(i=0;i<8;i++)
 153              		.loc 1 58 0
 154 0044 0023     		movs	r3, #0
 155 0046 87F82730 		strb	r3, [r7, #39]
 156 004a 12E0     		b	.L2
 157              	.L3:
  59:.\can_manager.c **** 		payload.byte[i] = msg[i];
 158              		.loc 1 59 0 discriminator 2
 159 004c 97F82730 		ldrb	r3, [r7, #39]	@ zero_extendqisi2
 160 0050 97F82720 		ldrb	r2, [r7, #39]	@ zero_extendqisi2
 161 0054 07F12801 		add	r1, r7, #40
 162 0058 0A44     		add	r2, r2, r1
 163 005a 12F8102C 		ldrb	r2, [r2, #-16]	@ zero_extendqisi2
 164 005e 07F12801 		add	r1, r7, #40
 165 0062 0B44     		add	r3, r3, r1
 166 0064 03F8242C 		strb	r2, [r3, #-36]
  58:.\can_manager.c **** 	for(i=0;i<8;i++)
 167              		.loc 1 58 0 discriminator 2
 168 0068 97F82730 		ldrb	r3, [r7, #39]	@ zero_extendqisi2
ARM GAS  C:\Users\khjtony\AppData\Local\Temp\ccLE4Zj8.s 			page 5


 169 006c 0133     		adds	r3, r3, #1
 170 006e 87F82730 		strb	r3, [r7, #39]
 171              	.L2:
  58:.\can_manager.c **** 	for(i=0;i<8;i++)
 172              		.loc 1 58 0 is_stmt 0 discriminator 1
 173 0072 97F82730 		ldrb	r3, [r7, #39]	@ zero_extendqisi2
 174 0076 072B     		cmp	r3, #7
 175 0078 E8D9     		bls	.L3
  60:.\can_manager.c **** 
  61:.\can_manager.c **** 	state = CAN_1_SendMsg(&message);
 176              		.loc 1 61 0 is_stmt 1
 177 007a 07F10C03 		add	r3, r7, #12
 178 007e 1846     		mov	r0, r3
 179 0080 FFF7FEFF 		bl	CAN_1_SendMsg
 180 0084 0346     		mov	r3, r0
 181 0086 87F82330 		strb	r3, [r7, #35]
  62:.\can_manager.c **** 
  63:.\can_manager.c **** /*
  64:.\can_manager.c **** 	if(state != CYRET_SUCCESS)
  65:.\can_manager.c **** 	{
  66:.\can_manager.c **** 		LED_Write(1);
  67:.\can_manager.c **** 		return CAN_1_FAIL;
  68:.\can_manager.c **** 	}
  69:.\can_manager.c **** 
  70:.\can_manager.c **** 	LED_Write(0);
  71:.\can_manager.c **** 	return CYRET_SUCCESS;
  72:.\can_manager.c **** */
  73:.\can_manager.c **** 	
  74:.\can_manager.c **** 	return state;
 182              		.loc 1 74 0
 183 008a 97F82330 		ldrb	r3, [r7, #35]	@ zero_extendqisi2
  75:.\can_manager.c **** } // can_test_send()
 184              		.loc 1 75 0
 185 008e 1846     		mov	r0, r3
 186 0090 2837     		adds	r7, r7, #40
 187 0092 BD46     		mov	sp, r7
 188              		@ sp needed
 189 0094 80BD     		pop	{r7, pc}
 190              		.cfi_endproc
 191              	.LFE56:
 192              		.size	can_test_send, .-can_test_send
 193 0096 00BF     		.section	.text.can_init,"ax",%progbits
 194              		.align	2
 195              		.global	can_init
 196              		.thumb
 197              		.thumb_func
 198              		.type	can_init, %function
 199              	can_init:
 200              	.LFB57:
  76:.\can_manager.c **** 
  77:.\can_manager.c **** 
  78:.\can_manager.c **** void can_init()
  79:.\can_manager.c **** {
 201              		.loc 1 79 0
 202              		.cfi_startproc
 203              		@ args = 0, pretend = 0, frame = 0
 204              		@ frame_needed = 1, uses_anonymous_args = 0
ARM GAS  C:\Users\khjtony\AppData\Local\Temp\ccLE4Zj8.s 			page 6


 205 0000 80B5     		push	{r7, lr}
 206              		.cfi_def_cfa_offset 8
 207              		.cfi_offset 7, -8
 208              		.cfi_offset 14, -4
 209 0002 00AF     		add	r7, sp, #0
 210              		.cfi_def_cfa_register 7
  80:.\can_manager.c **** 	CAN_1_GlobalIntEnable(); // CAN Initialization
 211              		.loc 1 80 0
 212 0004 FFF7FEFF 		bl	CAN_1_GlobalIntEnable
  81:.\can_manager.c **** 	CAN_1_Init();
 213              		.loc 1 81 0
 214 0008 FFF7FEFF 		bl	CAN_1_Init
  82:.\can_manager.c **** 	CAN_1_Start();
 215              		.loc 1 82 0
 216 000c FFF7FEFF 		bl	CAN_1_Start
  83:.\can_manager.c **** } // can_init()...
 217              		.loc 1 83 0
 218 0010 80BD     		pop	{r7, pc}
 219              		.cfi_endproc
 220              	.LFE57:
 221              		.size	can_init, .-can_init
 222 0012 00BF     		.text
 223              	.Letext0:
 224              		.file 2 "c:\\program files (x86)\\cypress\\psoc creator\\3.2\\psoc creator\\import\\gnu\\arm\\4.8.
 225              		.file 3 "c:\\program files (x86)\\cypress\\psoc creator\\3.2\\psoc creator\\import\\gnu\\arm\\4.8.
 226              		.file 4 "Generated_Source\\PSoC5/cytypes.h"
 227              		.file 5 "Generated_Source\\PSoC5/CAN_1.h"
 228              		.file 6 "Generated_Source\\PSoC5/core_cm3.h"