ARM GAS  C:\Users\khjtony\AppData\Local\Temp\ccGsdxSj.s 			page 1


   1              		.syntax unified
   2              		.cpu cortex-m3
   3              		.fpu softvfp
   4              		.eabi_attribute 20, 1
   5              		.eabi_attribute 21, 1
   6              		.eabi_attribute 23, 3
   7              		.eabi_attribute 24, 1
   8              		.eabi_attribute 25, 1
   9              		.eabi_attribute 26, 1
  10              		.eabi_attribute 30, 6
  11              		.eabi_attribute 34, 1
  12              		.eabi_attribute 18, 4
  13              		.thumb
  14              		.file	"cyfitter_cfg.c"
  15              		.text
  16              	.Ltext0:
  17              		.cfi_sections	.debug_frame
  18              		.section	.text.CYMEMZERO,"ax",%progbits
  19              		.align	2
  20              		.thumb
  21              		.thumb_func
  22              		.type	CYMEMZERO, %function
  23              	CYMEMZERO:
  24              	.LFB0:
  25              		.file 1 ".\\Generated_Source\\PSoC5\\cyfitter_cfg.c"
   1:.\Generated_Source\PSoC5/cyfitter_cfg.c **** /*******************************************************************************
   2:.\Generated_Source\PSoC5/cyfitter_cfg.c **** * FILENAME: cyfitter_cfg.c
   3:.\Generated_Source\PSoC5/cyfitter_cfg.c **** * 
   4:.\Generated_Source\PSoC5/cyfitter_cfg.c **** * PSoC Creator  3.2
   5:.\Generated_Source\PSoC5/cyfitter_cfg.c **** *
   6:.\Generated_Source\PSoC5/cyfitter_cfg.c **** * DESCRIPTION:
   7:.\Generated_Source\PSoC5/cyfitter_cfg.c **** * This file contains device initialization code.
   8:.\Generated_Source\PSoC5/cyfitter_cfg.c **** * Except for the user defined sections in CyClockStartupError(), this file should not be modified.
   9:.\Generated_Source\PSoC5/cyfitter_cfg.c **** * This file is automatically generated by PSoC Creator.
  10:.\Generated_Source\PSoC5/cyfitter_cfg.c **** *
  11:.\Generated_Source\PSoC5/cyfitter_cfg.c **** ********************************************************************************
  12:.\Generated_Source\PSoC5/cyfitter_cfg.c **** * Copyright (c) 2007-2015 Cypress Semiconductor.  All rights reserved.
  13:.\Generated_Source\PSoC5/cyfitter_cfg.c **** * You may use this file only in accordance with the license, terms, conditions, 
  14:.\Generated_Source\PSoC5/cyfitter_cfg.c **** * disclaimers, and limitations in the end user license agreement accompanying 
  15:.\Generated_Source\PSoC5/cyfitter_cfg.c **** * the software package with which this file was provided.
  16:.\Generated_Source\PSoC5/cyfitter_cfg.c **** ********************************************************************************/
  17:.\Generated_Source\PSoC5/cyfitter_cfg.c **** 
  18:.\Generated_Source\PSoC5/cyfitter_cfg.c **** #include <string.h>
  19:.\Generated_Source\PSoC5/cyfitter_cfg.c **** #include "cytypes.h"
  20:.\Generated_Source\PSoC5/cyfitter_cfg.c **** #include "cydevice_trm.h"
  21:.\Generated_Source\PSoC5/cyfitter_cfg.c **** #include "cyfitter.h"
  22:.\Generated_Source\PSoC5/cyfitter_cfg.c **** #include "CyLib.h"
  23:.\Generated_Source\PSoC5/cyfitter_cfg.c **** #include "cyfitter_cfg.h"
  24:.\Generated_Source\PSoC5/cyfitter_cfg.c **** 
  25:.\Generated_Source\PSoC5/cyfitter_cfg.c **** #define CY_NEED_CYCLOCKSTARTUPERROR 1
  26:.\Generated_Source\PSoC5/cyfitter_cfg.c **** 
  27:.\Generated_Source\PSoC5/cyfitter_cfg.c **** 
  28:.\Generated_Source\PSoC5/cyfitter_cfg.c **** #if defined(__GNUC__) || defined(__ARMCC_VERSION)
  29:.\Generated_Source\PSoC5/cyfitter_cfg.c ****     #define CYPACKED 
  30:.\Generated_Source\PSoC5/cyfitter_cfg.c ****     #define CYPACKED_ATTR __attribute__ ((packed))
  31:.\Generated_Source\PSoC5/cyfitter_cfg.c ****     #define CYALIGNED __attribute__ ((aligned))
  32:.\Generated_Source\PSoC5/cyfitter_cfg.c ****     #define CY_CFG_UNUSED __attribute__ ((unused))
ARM GAS  C:\Users\khjtony\AppData\Local\Temp\ccGsdxSj.s 			page 2


  33:.\Generated_Source\PSoC5/cyfitter_cfg.c ****     #define CY_CFG_SECTION __attribute__ ((section(".psocinit")))
  34:.\Generated_Source\PSoC5/cyfitter_cfg.c ****     
  35:.\Generated_Source\PSoC5/cyfitter_cfg.c ****     #if defined(__ARMCC_VERSION)
  36:.\Generated_Source\PSoC5/cyfitter_cfg.c ****         #define CY_CFG_MEMORY_BARRIER() __memory_changed()
  37:.\Generated_Source\PSoC5/cyfitter_cfg.c ****     #else
  38:.\Generated_Source\PSoC5/cyfitter_cfg.c ****         #define CY_CFG_MEMORY_BARRIER() __sync_synchronize()
  39:.\Generated_Source\PSoC5/cyfitter_cfg.c ****     #endif
  40:.\Generated_Source\PSoC5/cyfitter_cfg.c ****     
  41:.\Generated_Source\PSoC5/cyfitter_cfg.c **** #elif defined(__ICCARM__)
  42:.\Generated_Source\PSoC5/cyfitter_cfg.c ****     #include <intrinsics.h>
  43:.\Generated_Source\PSoC5/cyfitter_cfg.c **** 
  44:.\Generated_Source\PSoC5/cyfitter_cfg.c ****     #define CYPACKED __packed
  45:.\Generated_Source\PSoC5/cyfitter_cfg.c ****     #define CYPACKED_ATTR 
  46:.\Generated_Source\PSoC5/cyfitter_cfg.c ****     #define CYALIGNED _Pragma("data_alignment=4")
  47:.\Generated_Source\PSoC5/cyfitter_cfg.c ****     #define CY_CFG_UNUSED _Pragma("diag_suppress=Pe177")
  48:.\Generated_Source\PSoC5/cyfitter_cfg.c ****     #define CY_CFG_SECTION _Pragma("location=\".psocinit\"")
  49:.\Generated_Source\PSoC5/cyfitter_cfg.c ****     
  50:.\Generated_Source\PSoC5/cyfitter_cfg.c ****     #define CY_CFG_MEMORY_BARRIER() __DMB()
  51:.\Generated_Source\PSoC5/cyfitter_cfg.c ****     
  52:.\Generated_Source\PSoC5/cyfitter_cfg.c **** #else
  53:.\Generated_Source\PSoC5/cyfitter_cfg.c ****     #error Unsupported toolchain
  54:.\Generated_Source\PSoC5/cyfitter_cfg.c **** #endif
  55:.\Generated_Source\PSoC5/cyfitter_cfg.c **** 
  56:.\Generated_Source\PSoC5/cyfitter_cfg.c **** 
  57:.\Generated_Source\PSoC5/cyfitter_cfg.c **** CY_CFG_UNUSED
  58:.\Generated_Source\PSoC5/cyfitter_cfg.c **** static void CYMEMZERO(void *s, size_t n);
  59:.\Generated_Source\PSoC5/cyfitter_cfg.c **** CY_CFG_UNUSED
  60:.\Generated_Source\PSoC5/cyfitter_cfg.c **** static void CYMEMZERO(void *s, size_t n)
  61:.\Generated_Source\PSoC5/cyfitter_cfg.c **** {
  26              		.loc 1 61 0
  27              		.cfi_startproc
  28              		@ args = 0, pretend = 0, frame = 8
  29              		@ frame_needed = 1, uses_anonymous_args = 0
  30 0000 80B5     		push	{r7, lr}
  31              		.cfi_def_cfa_offset 8
  32              		.cfi_offset 7, -8
  33              		.cfi_offset 14, -4
  34 0002 82B0     		sub	sp, sp, #8
  35              		.cfi_def_cfa_offset 16
  36 0004 00AF     		add	r7, sp, #0
  37              		.cfi_def_cfa_register 7
  38 0006 7860     		str	r0, [r7, #4]
  39 0008 3960     		str	r1, [r7]
  62:.\Generated_Source\PSoC5/cyfitter_cfg.c **** 	(void)memset(s, 0, n);
  40              		.loc 1 62 0
  41 000a 7868     		ldr	r0, [r7, #4]
  42 000c 0021     		movs	r1, #0
  43 000e 3A68     		ldr	r2, [r7]
  44 0010 FFF7FEFF 		bl	memset
  63:.\Generated_Source\PSoC5/cyfitter_cfg.c **** }
  45              		.loc 1 63 0
  46 0014 0837     		adds	r7, r7, #8
  47 0016 BD46     		mov	sp, r7
  48              		@ sp needed
  49 0018 80BD     		pop	{r7, pc}
  50              		.cfi_endproc
  51              	.LFE0:
ARM GAS  C:\Users\khjtony\AppData\Local\Temp\ccGsdxSj.s 			page 3


  52              		.size	CYMEMZERO, .-CYMEMZERO
  53 001a 00BF     		.section	.text.CYCONFIGCPY,"ax",%progbits
  54              		.align	2
  55              		.thumb
  56              		.thumb_func
  57              		.type	CYCONFIGCPY, %function
  58              	CYCONFIGCPY:
  59              	.LFB1:
  64:.\Generated_Source\PSoC5/cyfitter_cfg.c **** CY_CFG_UNUSED
  65:.\Generated_Source\PSoC5/cyfitter_cfg.c **** static void CYCONFIGCPY(void *dest, const void *src, size_t n);
  66:.\Generated_Source\PSoC5/cyfitter_cfg.c **** CY_CFG_UNUSED
  67:.\Generated_Source\PSoC5/cyfitter_cfg.c **** static void CYCONFIGCPY(void *dest, const void *src, size_t n)
  68:.\Generated_Source\PSoC5/cyfitter_cfg.c **** {
  60              		.loc 1 68 0
  61              		.cfi_startproc
  62              		@ args = 0, pretend = 0, frame = 16
  63              		@ frame_needed = 1, uses_anonymous_args = 0
  64 0000 80B5     		push	{r7, lr}
  65              		.cfi_def_cfa_offset 8
  66              		.cfi_offset 7, -8
  67              		.cfi_offset 14, -4
  68 0002 84B0     		sub	sp, sp, #16
  69              		.cfi_def_cfa_offset 24
  70 0004 00AF     		add	r7, sp, #0
  71              		.cfi_def_cfa_register 7
  72 0006 F860     		str	r0, [r7, #12]
  73 0008 B960     		str	r1, [r7, #8]
  74 000a 7A60     		str	r2, [r7, #4]
  69:.\Generated_Source\PSoC5/cyfitter_cfg.c **** 	(void)memcpy(dest, src, n);
  75              		.loc 1 69 0
  76 000c F868     		ldr	r0, [r7, #12]
  77 000e B968     		ldr	r1, [r7, #8]
  78 0010 7A68     		ldr	r2, [r7, #4]
  79 0012 FFF7FEFF 		bl	memcpy
  70:.\Generated_Source\PSoC5/cyfitter_cfg.c **** }
  80              		.loc 1 70 0
  81 0016 1037     		adds	r7, r7, #16
  82 0018 BD46     		mov	sp, r7
  83              		@ sp needed
  84 001a 80BD     		pop	{r7, pc}
  85              		.cfi_endproc
  86              	.LFE1:
  87              		.size	CYCONFIGCPY, .-CYCONFIGCPY
  88              		.section	.text.CYCONFIGCPYCODE,"ax",%progbits
  89              		.align	2
  90              		.thumb
  91              		.thumb_func
  92              		.type	CYCONFIGCPYCODE, %function
  93              	CYCONFIGCPYCODE:
  94              	.LFB2:
  71:.\Generated_Source\PSoC5/cyfitter_cfg.c **** CY_CFG_UNUSED
  72:.\Generated_Source\PSoC5/cyfitter_cfg.c **** static void CYCONFIGCPYCODE(void *dest, const void *src, size_t n);
  73:.\Generated_Source\PSoC5/cyfitter_cfg.c **** CY_CFG_UNUSED
  74:.\Generated_Source\PSoC5/cyfitter_cfg.c **** static void CYCONFIGCPYCODE(void *dest, const void *src, size_t n)
  75:.\Generated_Source\PSoC5/cyfitter_cfg.c **** {
  95              		.loc 1 75 0
  96              		.cfi_startproc
ARM GAS  C:\Users\khjtony\AppData\Local\Temp\ccGsdxSj.s 			page 4


  97              		@ args = 0, pretend = 0, frame = 16
  98              		@ frame_needed = 1, uses_anonymous_args = 0
  99 0000 80B5     		push	{r7, lr}
 100              		.cfi_def_cfa_offset 8
 101              		.cfi_offset 7, -8
 102              		.cfi_offset 14, -4
 103 0002 84B0     		sub	sp, sp, #16
 104              		.cfi_def_cfa_offset 24
 105 0004 00AF     		add	r7, sp, #0
 106              		.cfi_def_cfa_register 7
 107 0006 F860     		str	r0, [r7, #12]
 108 0008 B960     		str	r1, [r7, #8]
 109 000a 7A60     		str	r2, [r7, #4]
  76:.\Generated_Source\PSoC5/cyfitter_cfg.c **** 	(void)memcpy(dest, src, n);
 110              		.loc 1 76 0
 111 000c F868     		ldr	r0, [r7, #12]
 112 000e B968     		ldr	r1, [r7, #8]
 113 0010 7A68     		ldr	r2, [r7, #4]
 114 0012 FFF7FEFF 		bl	memcpy
  77:.\Generated_Source\PSoC5/cyfitter_cfg.c **** }
 115              		.loc 1 77 0
 116 0016 1037     		adds	r7, r7, #16
 117 0018 BD46     		mov	sp, r7
 118              		@ sp needed
 119 001a 80BD     		pop	{r7, pc}
 120              		.cfi_endproc
 121              	.LFE2:
 122              		.size	CYCONFIGCPYCODE, .-CYCONFIGCPYCODE
 123              		.section	.text.CyClockStartupError,"ax",%progbits
 124              		.align	2
 125              		.thumb
 126              		.thumb_func
 127              		.type	CyClockStartupError, %function
 128              	CyClockStartupError:
 129              	.LFB3:
  78:.\Generated_Source\PSoC5/cyfitter_cfg.c **** 
  79:.\Generated_Source\PSoC5/cyfitter_cfg.c **** 
  80:.\Generated_Source\PSoC5/cyfitter_cfg.c **** 
  81:.\Generated_Source\PSoC5/cyfitter_cfg.c **** /* Clock startup error codes                                                   */
  82:.\Generated_Source\PSoC5/cyfitter_cfg.c **** #define CYCLOCKSTART_NO_ERROR    0u
  83:.\Generated_Source\PSoC5/cyfitter_cfg.c **** #define CYCLOCKSTART_XTAL_ERROR  1u
  84:.\Generated_Source\PSoC5/cyfitter_cfg.c **** #define CYCLOCKSTART_32KHZ_ERROR 2u
  85:.\Generated_Source\PSoC5/cyfitter_cfg.c **** #define CYCLOCKSTART_PLL_ERROR   3u
  86:.\Generated_Source\PSoC5/cyfitter_cfg.c **** 
  87:.\Generated_Source\PSoC5/cyfitter_cfg.c **** #ifdef CY_NEED_CYCLOCKSTARTUPERROR
  88:.\Generated_Source\PSoC5/cyfitter_cfg.c **** /*******************************************************************************
  89:.\Generated_Source\PSoC5/cyfitter_cfg.c **** * Function Name: CyClockStartupError
  90:.\Generated_Source\PSoC5/cyfitter_cfg.c **** ********************************************************************************
  91:.\Generated_Source\PSoC5/cyfitter_cfg.c **** * Summary:
  92:.\Generated_Source\PSoC5/cyfitter_cfg.c **** *  If an error is encountered during clock configuration (crystal startup error,
  93:.\Generated_Source\PSoC5/cyfitter_cfg.c **** *  PLL lock error, etc.), the system will end up here.  Unless reimplemented by
  94:.\Generated_Source\PSoC5/cyfitter_cfg.c **** *  the customer, this function will stop in an infinite loop.
  95:.\Generated_Source\PSoC5/cyfitter_cfg.c **** *
  96:.\Generated_Source\PSoC5/cyfitter_cfg.c **** * Parameters:
  97:.\Generated_Source\PSoC5/cyfitter_cfg.c **** *   void
  98:.\Generated_Source\PSoC5/cyfitter_cfg.c **** *
  99:.\Generated_Source\PSoC5/cyfitter_cfg.c **** * Return:
ARM GAS  C:\Users\khjtony\AppData\Local\Temp\ccGsdxSj.s 			page 5


 100:.\Generated_Source\PSoC5/cyfitter_cfg.c **** *   void
 101:.\Generated_Source\PSoC5/cyfitter_cfg.c **** *
 102:.\Generated_Source\PSoC5/cyfitter_cfg.c **** *******************************************************************************/
 103:.\Generated_Source\PSoC5/cyfitter_cfg.c **** CY_CFG_UNUSED
 104:.\Generated_Source\PSoC5/cyfitter_cfg.c **** static void CyClockStartupError(uint8 errorCode);
 105:.\Generated_Source\PSoC5/cyfitter_cfg.c **** CY_CFG_UNUSED
 106:.\Generated_Source\PSoC5/cyfitter_cfg.c **** static void CyClockStartupError(uint8 errorCode)
 107:.\Generated_Source\PSoC5/cyfitter_cfg.c **** {
 130              		.loc 1 107 0
 131              		.cfi_startproc
 132              		@ args = 0, pretend = 0, frame = 8
 133              		@ frame_needed = 1, uses_anonymous_args = 0
 134              		@ link register save eliminated.
 135 0000 80B4     		push	{r7}
 136              		.cfi_def_cfa_offset 4
 137              		.cfi_offset 7, -4
 138 0002 83B0     		sub	sp, sp, #12
 139              		.cfi_def_cfa_offset 16
 140 0004 00AF     		add	r7, sp, #0
 141              		.cfi_def_cfa_register 7
 142 0006 0346     		mov	r3, r0
 143 0008 FB71     		strb	r3, [r7, #7]
 144              	.L5:
 108:.\Generated_Source\PSoC5/cyfitter_cfg.c ****     /* To remove the compiler warning if errorCode not used.                */
 109:.\Generated_Source\PSoC5/cyfitter_cfg.c ****     errorCode = errorCode;
 110:.\Generated_Source\PSoC5/cyfitter_cfg.c **** 
 111:.\Generated_Source\PSoC5/cyfitter_cfg.c ****     /* `#START CyClockStartupError` */
 112:.\Generated_Source\PSoC5/cyfitter_cfg.c **** 
 113:.\Generated_Source\PSoC5/cyfitter_cfg.c ****     /* If we have a clock startup error (bad MHz crystal, PLL lock, etc.),  */
 114:.\Generated_Source\PSoC5/cyfitter_cfg.c ****     /* we will end up here to allow the customer to implement something to  */
 115:.\Generated_Source\PSoC5/cyfitter_cfg.c ****     /* deal with the clock condition.                                       */
 116:.\Generated_Source\PSoC5/cyfitter_cfg.c **** 
 117:.\Generated_Source\PSoC5/cyfitter_cfg.c ****     /* `#END` */
 118:.\Generated_Source\PSoC5/cyfitter_cfg.c **** 
 119:.\Generated_Source\PSoC5/cyfitter_cfg.c ****     /* If nothing else, stop here since the clocks have not started         */
 120:.\Generated_Source\PSoC5/cyfitter_cfg.c ****     /* correctly.                                                           */
 121:.\Generated_Source\PSoC5/cyfitter_cfg.c ****     while(1) {}
 145              		.loc 1 121 0 discriminator 1
 146 000a FEE7     		b	.L5
 147              		.cfi_endproc
 148              	.LFE3:
 149              		.size	CyClockStartupError, .-CyClockStartupError
 150              		.section	.text.cfg_write_bytes32,"ax",%progbits
 151              		.align	2
 152              		.thumb
 153              		.thumb_func
 154              		.type	cfg_write_bytes32, %function
 155              	cfg_write_bytes32:
 156              	.LFB4:
 122:.\Generated_Source\PSoC5/cyfitter_cfg.c **** }
 123:.\Generated_Source\PSoC5/cyfitter_cfg.c **** #endif
 124:.\Generated_Source\PSoC5/cyfitter_cfg.c **** 
 125:.\Generated_Source\PSoC5/cyfitter_cfg.c **** #define CY_CFG_BASE_ADDR_COUNT 32u
 126:.\Generated_Source\PSoC5/cyfitter_cfg.c **** CYPACKED typedef struct
 127:.\Generated_Source\PSoC5/cyfitter_cfg.c **** {
 128:.\Generated_Source\PSoC5/cyfitter_cfg.c **** 	uint8 offset;
 129:.\Generated_Source\PSoC5/cyfitter_cfg.c **** 	uint8 value;
ARM GAS  C:\Users\khjtony\AppData\Local\Temp\ccGsdxSj.s 			page 6


 130:.\Generated_Source\PSoC5/cyfitter_cfg.c **** } CYPACKED_ATTR cy_cfg_addrvalue_t;
 131:.\Generated_Source\PSoC5/cyfitter_cfg.c **** 
 132:.\Generated_Source\PSoC5/cyfitter_cfg.c **** 
 133:.\Generated_Source\PSoC5/cyfitter_cfg.c **** 
 134:.\Generated_Source\PSoC5/cyfitter_cfg.c **** /*******************************************************************************
 135:.\Generated_Source\PSoC5/cyfitter_cfg.c **** * Function Name: cfg_write_bytes32
 136:.\Generated_Source\PSoC5/cyfitter_cfg.c **** ********************************************************************************
 137:.\Generated_Source\PSoC5/cyfitter_cfg.c **** * Summary:
 138:.\Generated_Source\PSoC5/cyfitter_cfg.c **** *  This function is used for setting up the chip configuration areas that
 139:.\Generated_Source\PSoC5/cyfitter_cfg.c **** *  contain relatively sparse data.
 140:.\Generated_Source\PSoC5/cyfitter_cfg.c **** *
 141:.\Generated_Source\PSoC5/cyfitter_cfg.c **** * Parameters:
 142:.\Generated_Source\PSoC5/cyfitter_cfg.c **** *   void
 143:.\Generated_Source\PSoC5/cyfitter_cfg.c **** *
 144:.\Generated_Source\PSoC5/cyfitter_cfg.c **** * Return:
 145:.\Generated_Source\PSoC5/cyfitter_cfg.c **** *   void
 146:.\Generated_Source\PSoC5/cyfitter_cfg.c **** *
 147:.\Generated_Source\PSoC5/cyfitter_cfg.c **** *******************************************************************************/
 148:.\Generated_Source\PSoC5/cyfitter_cfg.c **** static void cfg_write_bytes32(const uint32 addr_table[], const cy_cfg_addrvalue_t data_table[]);
 149:.\Generated_Source\PSoC5/cyfitter_cfg.c **** static void cfg_write_bytes32(const uint32 addr_table[], const cy_cfg_addrvalue_t data_table[])
 150:.\Generated_Source\PSoC5/cyfitter_cfg.c **** {
 157              		.loc 1 150 0
 158              		.cfi_startproc
 159              		@ args = 0, pretend = 0, frame = 24
 160              		@ frame_needed = 1, uses_anonymous_args = 0
 161              		@ link register save eliminated.
 162 0000 80B4     		push	{r7}
 163              		.cfi_def_cfa_offset 4
 164              		.cfi_offset 7, -4
 165 0002 87B0     		sub	sp, sp, #28
 166              		.cfi_def_cfa_offset 32
 167 0004 00AF     		add	r7, sp, #0
 168              		.cfi_def_cfa_register 7
 169 0006 7860     		str	r0, [r7, #4]
 170 0008 3960     		str	r1, [r7]
 151:.\Generated_Source\PSoC5/cyfitter_cfg.c **** 	/* For 32-bit little-endian architectures */
 152:.\Generated_Source\PSoC5/cyfitter_cfg.c **** 	uint32 i, j = 0u;
 171              		.loc 1 152 0
 172 000a 0023     		movs	r3, #0
 173 000c 3B61     		str	r3, [r7, #16]
 153:.\Generated_Source\PSoC5/cyfitter_cfg.c **** 	for (i = 0u; i < CY_CFG_BASE_ADDR_COUNT; i++)
 174              		.loc 1 153 0
 175 000e 0023     		movs	r3, #0
 176 0010 7B61     		str	r3, [r7, #20]
 177 0012 26E0     		b	.L7
 178              	.L10:
 179              	.LBB2:
 154:.\Generated_Source\PSoC5/cyfitter_cfg.c **** 	{
 155:.\Generated_Source\PSoC5/cyfitter_cfg.c **** 		uint32 baseAddr = addr_table[i];
 180              		.loc 1 155 0
 181 0014 7B69     		ldr	r3, [r7, #20]
 182 0016 9B00     		lsls	r3, r3, #2
 183 0018 7A68     		ldr	r2, [r7, #4]
 184 001a 1344     		add	r3, r3, r2
 185 001c 1B68     		ldr	r3, [r3]
 186 001e BB60     		str	r3, [r7, #8]
 156:.\Generated_Source\PSoC5/cyfitter_cfg.c **** 		uint8 count = (uint8)baseAddr;
ARM GAS  C:\Users\khjtony\AppData\Local\Temp\ccGsdxSj.s 			page 7


 187              		.loc 1 156 0
 188 0020 BB68     		ldr	r3, [r7, #8]
 189 0022 FB73     		strb	r3, [r7, #15]
 157:.\Generated_Source\PSoC5/cyfitter_cfg.c **** 		baseAddr &= 0xFFFFFF00u;
 190              		.loc 1 157 0
 191 0024 BB68     		ldr	r3, [r7, #8]
 192 0026 23F0FF03 		bic	r3, r3, #255
 193 002a BB60     		str	r3, [r7, #8]
 158:.\Generated_Source\PSoC5/cyfitter_cfg.c **** 		while (count != 0u)
 194              		.loc 1 158 0
 195 002c 13E0     		b	.L8
 196              	.L9:
 159:.\Generated_Source\PSoC5/cyfitter_cfg.c **** 		{
 160:.\Generated_Source\PSoC5/cyfitter_cfg.c **** 			CY_SET_XTND_REG8((void CYFAR *)(baseAddr + data_table[j].offset), data_table[j].value);
 197              		.loc 1 160 0
 198 002e 3B69     		ldr	r3, [r7, #16]
 199 0030 5B00     		lsls	r3, r3, #1
 200 0032 3A68     		ldr	r2, [r7]
 201 0034 1344     		add	r3, r3, r2
 202 0036 1B78     		ldrb	r3, [r3]	@ zero_extendqisi2
 203 0038 1A46     		mov	r2, r3
 204 003a BB68     		ldr	r3, [r7, #8]
 205 003c 1344     		add	r3, r3, r2
 206 003e 3A69     		ldr	r2, [r7, #16]
 207 0040 5200     		lsls	r2, r2, #1
 208 0042 3968     		ldr	r1, [r7]
 209 0044 0A44     		add	r2, r2, r1
 210 0046 5278     		ldrb	r2, [r2, #1]	@ zero_extendqisi2
 211 0048 1A70     		strb	r2, [r3]
 161:.\Generated_Source\PSoC5/cyfitter_cfg.c **** 			j++;
 212              		.loc 1 161 0
 213 004a 3B69     		ldr	r3, [r7, #16]
 214 004c 0133     		adds	r3, r3, #1
 215 004e 3B61     		str	r3, [r7, #16]
 162:.\Generated_Source\PSoC5/cyfitter_cfg.c **** 			count--;
 216              		.loc 1 162 0
 217 0050 FB7B     		ldrb	r3, [r7, #15]	@ zero_extendqisi2
 218 0052 013B     		subs	r3, r3, #1
 219 0054 FB73     		strb	r3, [r7, #15]
 220              	.L8:
 158:.\Generated_Source\PSoC5/cyfitter_cfg.c **** 		while (count != 0u)
 221              		.loc 1 158 0 discriminator 1
 222 0056 FB7B     		ldrb	r3, [r7, #15]	@ zero_extendqisi2
 223 0058 002B     		cmp	r3, #0
 224 005a E8D1     		bne	.L9
 225              	.LBE2:
 153:.\Generated_Source\PSoC5/cyfitter_cfg.c **** 	for (i = 0u; i < CY_CFG_BASE_ADDR_COUNT; i++)
 226              		.loc 1 153 0
 227 005c 7B69     		ldr	r3, [r7, #20]
 228 005e 0133     		adds	r3, r3, #1
 229 0060 7B61     		str	r3, [r7, #20]
 230              	.L7:
 153:.\Generated_Source\PSoC5/cyfitter_cfg.c **** 	for (i = 0u; i < CY_CFG_BASE_ADDR_COUNT; i++)
 231              		.loc 1 153 0 is_stmt 0 discriminator 1
 232 0062 7B69     		ldr	r3, [r7, #20]
 233 0064 1F2B     		cmp	r3, #31
 234 0066 D5D9     		bls	.L10
ARM GAS  C:\Users\khjtony\AppData\Local\Temp\ccGsdxSj.s 			page 8


 163:.\Generated_Source\PSoC5/cyfitter_cfg.c **** 		}
 164:.\Generated_Source\PSoC5/cyfitter_cfg.c **** 	}
 165:.\Generated_Source\PSoC5/cyfitter_cfg.c **** }
 235              		.loc 1 165 0 is_stmt 1
 236 0068 1C37     		adds	r7, r7, #28
 237 006a BD46     		mov	sp, r7
 238              		@ sp needed
 239 006c 5DF8047B 		ldr	r7, [sp], #4
 240 0070 7047     		bx	lr
 241              		.cfi_endproc
 242              	.LFE4:
 243              		.size	cfg_write_bytes32, .-cfg_write_bytes32
 244 0072 00BF     		.section	.text.ClockSetup,"ax",%progbits
 245              		.align	2
 246              		.thumb
 247              		.thumb_func
 248              		.type	ClockSetup, %function
 249              	ClockSetup:
 250              	.LFB5:
 166:.\Generated_Source\PSoC5/cyfitter_cfg.c **** 
 167:.\Generated_Source\PSoC5/cyfitter_cfg.c **** /*******************************************************************************
 168:.\Generated_Source\PSoC5/cyfitter_cfg.c **** * Function Name: ClockSetup
 169:.\Generated_Source\PSoC5/cyfitter_cfg.c **** ********************************************************************************
 170:.\Generated_Source\PSoC5/cyfitter_cfg.c **** *
 171:.\Generated_Source\PSoC5/cyfitter_cfg.c **** * Summary:
 172:.\Generated_Source\PSoC5/cyfitter_cfg.c **** *  Performs the initialization of all of the clocks in the device based on the
 173:.\Generated_Source\PSoC5/cyfitter_cfg.c **** *  settings in the Clock tab of the DWR.  This includes enabling the requested
 174:.\Generated_Source\PSoC5/cyfitter_cfg.c **** *  clocks and setting the necessary dividers to produce the desired frequency. 
 175:.\Generated_Source\PSoC5/cyfitter_cfg.c **** *
 176:.\Generated_Source\PSoC5/cyfitter_cfg.c **** * Parameters:
 177:.\Generated_Source\PSoC5/cyfitter_cfg.c **** *  void
 178:.\Generated_Source\PSoC5/cyfitter_cfg.c **** *
 179:.\Generated_Source\PSoC5/cyfitter_cfg.c **** * Return:
 180:.\Generated_Source\PSoC5/cyfitter_cfg.c **** *  void
 181:.\Generated_Source\PSoC5/cyfitter_cfg.c **** *
 182:.\Generated_Source\PSoC5/cyfitter_cfg.c **** *******************************************************************************/
 183:.\Generated_Source\PSoC5/cyfitter_cfg.c **** static void ClockSetup(void);
 184:.\Generated_Source\PSoC5/cyfitter_cfg.c **** static void ClockSetup(void)
 185:.\Generated_Source\PSoC5/cyfitter_cfg.c **** {
 251              		.loc 1 185 0
 252              		.cfi_startproc
 253              		@ args = 0, pretend = 0, frame = 8
 254              		@ frame_needed = 1, uses_anonymous_args = 0
 255 0000 80B5     		push	{r7, lr}
 256              		.cfi_def_cfa_offset 8
 257              		.cfi_offset 7, -8
 258              		.cfi_offset 14, -4
 259 0002 82B0     		sub	sp, sp, #8
 260              		.cfi_def_cfa_offset 16
 261 0004 00AF     		add	r7, sp, #0
 262              		.cfi_def_cfa_register 7
 186:.\Generated_Source\PSoC5/cyfitter_cfg.c **** 	uint32 timeout;
 187:.\Generated_Source\PSoC5/cyfitter_cfg.c **** 	uint8 pllLock;
 188:.\Generated_Source\PSoC5/cyfitter_cfg.c **** 
 189:.\Generated_Source\PSoC5/cyfitter_cfg.c **** 
 190:.\Generated_Source\PSoC5/cyfitter_cfg.c **** 	/* Configure Digital Clocks based on settings from Clock DWR */
 191:.\Generated_Source\PSoC5/cyfitter_cfg.c **** 	CY_SET_XTND_REG16((void CYFAR *)(CYREG_CLKDIST_DCFG0_CFG0), 0x000Bu);
ARM GAS  C:\Users\khjtony\AppData\Local\Temp\ccGsdxSj.s 			page 9


 263              		.loc 1 191 0
 264 0006 374B     		ldr	r3, .L16
 265 0008 0B22     		movs	r2, #11
 266 000a 1A80     		strh	r2, [r3]	@ movhi
 192:.\Generated_Source\PSoC5/cyfitter_cfg.c **** 	CY_SET_XTND_REG8((void CYFAR *)(CYREG_CLKDIST_DCFG0_CFG0 + 0x2u), 0x18u);
 267              		.loc 1 192 0
 268 000c 364B     		ldr	r3, .L16+4
 269 000e 1822     		movs	r2, #24
 270 0010 1A70     		strb	r2, [r3]
 193:.\Generated_Source\PSoC5/cyfitter_cfg.c **** 	CY_SET_XTND_REG16((void CYFAR *)(CYREG_CLKDIST_DCFG1_CFG0), 0x095Fu);
 271              		.loc 1 193 0
 272 0012 364B     		ldr	r3, .L16+8
 273 0014 40F65F12 		movw	r2, #2399
 274 0018 1A80     		strh	r2, [r3]	@ movhi
 194:.\Generated_Source\PSoC5/cyfitter_cfg.c **** 	CY_SET_XTND_REG8((void CYFAR *)(CYREG_CLKDIST_DCFG1_CFG0 + 0x2u), 0x18u);
 275              		.loc 1 194 0
 276 001a 354B     		ldr	r3, .L16+12
 277 001c 1822     		movs	r2, #24
 278 001e 1A70     		strb	r2, [r3]
 195:.\Generated_Source\PSoC5/cyfitter_cfg.c **** 	CY_SET_XTND_REG16((void CYFAR *)(CYREG_CLKDIST_DCFG2_CFG0), 0xEA5Fu);
 279              		.loc 1 195 0
 280 0020 344B     		ldr	r3, .L16+16
 281 0022 4EF65F22 		movw	r2, #59999
 282 0026 1A80     		strh	r2, [r3]	@ movhi
 196:.\Generated_Source\PSoC5/cyfitter_cfg.c **** 	CY_SET_XTND_REG8((void CYFAR *)(CYREG_CLKDIST_DCFG2_CFG0 + 0x2u), 0x19u);
 283              		.loc 1 196 0
 284 0028 334B     		ldr	r3, .L16+20
 285 002a 1922     		movs	r2, #25
 286 002c 1A70     		strb	r2, [r3]
 197:.\Generated_Source\PSoC5/cyfitter_cfg.c **** 
 198:.\Generated_Source\PSoC5/cyfitter_cfg.c **** 	/* Configure ILO based on settings from Clock DWR */
 199:.\Generated_Source\PSoC5/cyfitter_cfg.c **** 	CY_SET_XTND_REG8((void CYFAR *)(CYREG_SLOWCLK_ILO_CR0), 0x02u);
 287              		.loc 1 199 0
 288 002e 334B     		ldr	r3, .L16+24
 289 0030 0222     		movs	r2, #2
 290 0032 1A70     		strb	r2, [r3]
 200:.\Generated_Source\PSoC5/cyfitter_cfg.c **** 	CY_SET_XTND_REG8((void CYFAR *)(CYREG_CLKDIST_CR), 0x08u);
 291              		.loc 1 200 0
 292 0034 4FF04023 		mov	r3, #1073758208
 293 0038 0822     		movs	r2, #8
 294 003a 1A70     		strb	r2, [r3]
 201:.\Generated_Source\PSoC5/cyfitter_cfg.c **** 
 202:.\Generated_Source\PSoC5/cyfitter_cfg.c **** 	/* Configure IMO based on settings from Clock DWR */
 203:.\Generated_Source\PSoC5/cyfitter_cfg.c **** 	CY_SET_XTND_REG8((void CYFAR *)(CYREG_FASTCLK_IMO_CR), 0x03u);
 295              		.loc 1 203 0
 296 003c 304B     		ldr	r3, .L16+28
 297 003e 0322     		movs	r2, #3
 298 0040 1A70     		strb	r2, [r3]
 204:.\Generated_Source\PSoC5/cyfitter_cfg.c **** 	CY_SET_XTND_REG8((void CYFAR *)(CYREG_IMO_TR1), (CY_GET_XTND_REG8((void CYFAR *)CYREG_FLSHID_CUST_
 299              		.loc 1 204 0
 300 0042 304B     		ldr	r3, .L16+32
 301 0044 304A     		ldr	r2, .L16+36
 302 0046 1278     		ldrb	r2, [r2]
 303 0048 D2B2     		uxtb	r2, r2
 304 004a 1A70     		strb	r2, [r3]
 205:.\Generated_Source\PSoC5/cyfitter_cfg.c **** 
 206:.\Generated_Source\PSoC5/cyfitter_cfg.c **** 	/* Configure PLL based on settings from Clock DWR */
ARM GAS  C:\Users\khjtony\AppData\Local\Temp\ccGsdxSj.s 			page 10


 207:.\Generated_Source\PSoC5/cyfitter_cfg.c **** 	CY_SET_XTND_REG16((void CYFAR *)(CYREG_FASTCLK_PLL_P), 0x0008u);
 305              		.loc 1 207 0
 306 004c 2F4B     		ldr	r3, .L16+40
 307 004e 0822     		movs	r2, #8
 308 0050 1A80     		strh	r2, [r3]	@ movhi
 208:.\Generated_Source\PSoC5/cyfitter_cfg.c **** 	CY_SET_XTND_REG16((void CYFAR *)(CYREG_FASTCLK_PLL_CFG0), 0x1251u);
 309              		.loc 1 208 0
 310 0052 2F4B     		ldr	r3, .L16+44
 311 0054 41F25122 		movw	r2, #4689
 312 0058 1A80     		strh	r2, [r3]	@ movhi
 209:.\Generated_Source\PSoC5/cyfitter_cfg.c **** 	/* Wait up to 250us for the PLL to lock */
 210:.\Generated_Source\PSoC5/cyfitter_cfg.c **** 	pllLock = 0u;
 313              		.loc 1 210 0
 314 005a 0023     		movs	r3, #0
 315 005c FB70     		strb	r3, [r7, #3]
 211:.\Generated_Source\PSoC5/cyfitter_cfg.c **** 	for (timeout = 250u / 10u; (timeout > 0u) && (pllLock != 0x03u); timeout--)
 316              		.loc 1 211 0
 317 005e 1923     		movs	r3, #25
 318 0060 7B60     		str	r3, [r7, #4]
 319 0062 14E0     		b	.L12
 320              	.L14:
 212:.\Generated_Source\PSoC5/cyfitter_cfg.c **** 	{ 
 213:.\Generated_Source\PSoC5/cyfitter_cfg.c **** 		pllLock = 0x03u & ((uint8)((uint8)pllLock << 1) | ((CY_GET_XTND_REG8((void CYFAR *)CYREG_FASTCLK_
 321              		.loc 1 213 0 discriminator 1
 322 0064 FB78     		ldrb	r3, [r7, #3]
 323 0066 5B00     		lsls	r3, r3, #1
 324 0068 DAB2     		uxtb	r2, r3
 325 006a 2A4B     		ldr	r3, .L16+48
 326 006c 1B78     		ldrb	r3, [r3]
 327 006e DBB2     		uxtb	r3, r3
 328 0070 03F00103 		and	r3, r3, #1
 329 0074 DBB2     		uxtb	r3, r3
 330 0076 1343     		orrs	r3, r3, r2
 331 0078 DBB2     		uxtb	r3, r3
 332 007a 03F00303 		and	r3, r3, #3
 333 007e FB70     		strb	r3, [r7, #3]
 214:.\Generated_Source\PSoC5/cyfitter_cfg.c **** 		CyDelayCycles(10u * 48u); /* Delay 10us based on 48MHz clock */
 334              		.loc 1 214 0 discriminator 1
 335 0080 4FF4F070 		mov	r0, #480
 336 0084 FFF7FEFF 		bl	CyDelayCycles
 211:.\Generated_Source\PSoC5/cyfitter_cfg.c **** 	for (timeout = 250u / 10u; (timeout > 0u) && (pllLock != 0x03u); timeout--)
 337              		.loc 1 211 0 discriminator 1
 338 0088 7B68     		ldr	r3, [r7, #4]
 339 008a 013B     		subs	r3, r3, #1
 340 008c 7B60     		str	r3, [r7, #4]
 341              	.L12:
 342 008e 7B68     		ldr	r3, [r7, #4]
 343 0090 002B     		cmp	r3, #0
 344 0092 02D0     		beq	.L13
 211:.\Generated_Source\PSoC5/cyfitter_cfg.c **** 	for (timeout = 250u / 10u; (timeout > 0u) && (pllLock != 0x03u); timeout--)
 345              		.loc 1 211 0 is_stmt 0 discriminator 2
 346 0094 FB78     		ldrb	r3, [r7, #3]	@ zero_extendqisi2
 347 0096 032B     		cmp	r3, #3
 348 0098 E4D1     		bne	.L14
 349              	.L13:
 215:.\Generated_Source\PSoC5/cyfitter_cfg.c **** 	}
 216:.\Generated_Source\PSoC5/cyfitter_cfg.c **** 	/* If we ran out of time the PLL didn't lock so go to the error function */
ARM GAS  C:\Users\khjtony\AppData\Local\Temp\ccGsdxSj.s 			page 11


 217:.\Generated_Source\PSoC5/cyfitter_cfg.c **** 	if (timeout == 0u)
 350              		.loc 1 217 0 is_stmt 1
 351 009a 7B68     		ldr	r3, [r7, #4]
 352 009c 002B     		cmp	r3, #0
 353 009e 02D1     		bne	.L15
 218:.\Generated_Source\PSoC5/cyfitter_cfg.c **** 	{
 219:.\Generated_Source\PSoC5/cyfitter_cfg.c **** 		CyClockStartupError(CYCLOCKSTART_PLL_ERROR);
 354              		.loc 1 219 0
 355 00a0 0320     		movs	r0, #3
 356 00a2 FFF7FEFF 		bl	CyClockStartupError
 357              	.L15:
 220:.\Generated_Source\PSoC5/cyfitter_cfg.c **** 	}
 221:.\Generated_Source\PSoC5/cyfitter_cfg.c **** 
 222:.\Generated_Source\PSoC5/cyfitter_cfg.c **** 	/* Configure Bus/Master Clock based on settings from Clock DWR */
 223:.\Generated_Source\PSoC5/cyfitter_cfg.c **** 	CY_SET_XTND_REG16((void CYFAR *)(CYREG_CLKDIST_MSTR0), 0x0100u);
 358              		.loc 1 223 0
 359 00a6 1C4B     		ldr	r3, .L16+52
 360 00a8 4FF48072 		mov	r2, #256
 361 00ac 1A80     		strh	r2, [r3]	@ movhi
 224:.\Generated_Source\PSoC5/cyfitter_cfg.c **** 	CY_SET_XTND_REG8((void CYFAR *)(CYREG_CLKDIST_MSTR0), 0x07u);
 362              		.loc 1 224 0
 363 00ae 1A4B     		ldr	r3, .L16+52
 364 00b0 0722     		movs	r2, #7
 365 00b2 1A70     		strb	r2, [r3]
 225:.\Generated_Source\PSoC5/cyfitter_cfg.c **** 	CY_SET_XTND_REG8((void CYFAR *)(CYREG_CLKDIST_BCFG0), 0x00u);
 366              		.loc 1 225 0
 367 00b4 194B     		ldr	r3, .L16+56
 368 00b6 0022     		movs	r2, #0
 369 00b8 1A70     		strb	r2, [r3]
 226:.\Generated_Source\PSoC5/cyfitter_cfg.c **** 	CY_SET_XTND_REG8((void CYFAR *)(CYREG_CLKDIST_BCFG2), 0x48u);
 370              		.loc 1 226 0
 371 00ba 194B     		ldr	r3, .L16+60
 372 00bc 4822     		movs	r2, #72
 373 00be 1A70     		strb	r2, [r3]
 227:.\Generated_Source\PSoC5/cyfitter_cfg.c **** 	CY_SET_XTND_REG8((void CYFAR *)(CYREG_CLKDIST_MSTR0), 0x00u);
 374              		.loc 1 227 0
 375 00c0 154B     		ldr	r3, .L16+52
 376 00c2 0022     		movs	r2, #0
 377 00c4 1A70     		strb	r2, [r3]
 228:.\Generated_Source\PSoC5/cyfitter_cfg.c **** 	CY_SET_XTND_REG8((void CYFAR *)(CYREG_CLKDIST_LD), 0x02u);
 378              		.loc 1 228 0
 379 00c6 174B     		ldr	r3, .L16+64
 380 00c8 0222     		movs	r2, #2
 381 00ca 1A70     		strb	r2, [r3]
 229:.\Generated_Source\PSoC5/cyfitter_cfg.c **** 
 230:.\Generated_Source\PSoC5/cyfitter_cfg.c **** 	CY_SET_XTND_REG8((void CYFAR *)(CYREG_PM_ACT_CFG2), ((CY_GET_XTND_REG8((void CYFAR *)CYREG_PM_ACT_
 382              		.loc 1 230 0
 383 00cc 164B     		ldr	r3, .L16+68
 384 00ce 164A     		ldr	r2, .L16+68
 385 00d0 1278     		ldrb	r2, [r2]
 386 00d2 D2B2     		uxtb	r2, r2
 387 00d4 42F00702 		orr	r2, r2, #7
 388 00d8 D2B2     		uxtb	r2, r2
 389 00da 1A70     		strb	r2, [r3]
 231:.\Generated_Source\PSoC5/cyfitter_cfg.c **** }
 390              		.loc 1 231 0
 391 00dc 0837     		adds	r7, r7, #8
ARM GAS  C:\Users\khjtony\AppData\Local\Temp\ccGsdxSj.s 			page 12


 392 00de BD46     		mov	sp, r7
 393              		@ sp needed
 394 00e0 80BD     		pop	{r7, pc}
 395              	.L17:
 396 00e2 00BF     		.align	2
 397              	.L16:
 398 00e4 80400040 		.word	1073758336
 399 00e8 82400040 		.word	1073758338
 400 00ec 84400040 		.word	1073758340
 401 00f0 86400040 		.word	1073758342
 402 00f4 88400040 		.word	1073758344
 403 00f8 8A400040 		.word	1073758346
 404 00fc 00430040 		.word	1073758976
 405 0100 00420040 		.word	1073758720
 406 0104 A1460040 		.word	1073759905
 407 0108 08010049 		.word	1224737032
 408 010c 22420040 		.word	1073758754
 409 0110 20420040 		.word	1073758752
 410 0114 25420040 		.word	1073758757
 411 0118 04400040 		.word	1073758212
 412 011c 06400040 		.word	1073758214
 413 0120 08400040 		.word	1073758216
 414 0124 01400040 		.word	1073758209
 415 0128 A2430040 		.word	1073759138
 416              		.cfi_endproc
 417              	.LFE5:
 418              		.size	ClockSetup, .-ClockSetup
 419              		.section	.text.AnalogSetDefault,"ax",%progbits
 420              		.align	2
 421              		.thumb
 422              		.thumb_func
 423              		.type	AnalogSetDefault, %function
 424              	AnalogSetDefault:
 425              	.LFB6:
 232:.\Generated_Source\PSoC5/cyfitter_cfg.c **** 
 233:.\Generated_Source\PSoC5/cyfitter_cfg.c **** 
 234:.\Generated_Source\PSoC5/cyfitter_cfg.c **** /* Analog API Functions */
 235:.\Generated_Source\PSoC5/cyfitter_cfg.c **** 
 236:.\Generated_Source\PSoC5/cyfitter_cfg.c **** 
 237:.\Generated_Source\PSoC5/cyfitter_cfg.c **** /*******************************************************************************
 238:.\Generated_Source\PSoC5/cyfitter_cfg.c **** * Function Name: AnalogSetDefault
 239:.\Generated_Source\PSoC5/cyfitter_cfg.c **** ********************************************************************************
 240:.\Generated_Source\PSoC5/cyfitter_cfg.c **** *
 241:.\Generated_Source\PSoC5/cyfitter_cfg.c **** * Summary:
 242:.\Generated_Source\PSoC5/cyfitter_cfg.c **** *  Sets up the analog portions of the chip to default values based on chip
 243:.\Generated_Source\PSoC5/cyfitter_cfg.c **** *  configuration options from the project.
 244:.\Generated_Source\PSoC5/cyfitter_cfg.c **** *
 245:.\Generated_Source\PSoC5/cyfitter_cfg.c **** * Parameters:
 246:.\Generated_Source\PSoC5/cyfitter_cfg.c **** *  void
 247:.\Generated_Source\PSoC5/cyfitter_cfg.c **** *
 248:.\Generated_Source\PSoC5/cyfitter_cfg.c **** * Return:
 249:.\Generated_Source\PSoC5/cyfitter_cfg.c **** *  void
 250:.\Generated_Source\PSoC5/cyfitter_cfg.c **** *
 251:.\Generated_Source\PSoC5/cyfitter_cfg.c **** *******************************************************************************/
 252:.\Generated_Source\PSoC5/cyfitter_cfg.c **** static void AnalogSetDefault(void);
 253:.\Generated_Source\PSoC5/cyfitter_cfg.c **** static void AnalogSetDefault(void)
 254:.\Generated_Source\PSoC5/cyfitter_cfg.c **** {
ARM GAS  C:\Users\khjtony\AppData\Local\Temp\ccGsdxSj.s 			page 13


 426              		.loc 1 254 0
 427              		.cfi_startproc
 428              		@ args = 0, pretend = 0, frame = 8
 429              		@ frame_needed = 1, uses_anonymous_args = 0
 430              		@ link register save eliminated.
 431 0000 80B4     		push	{r7}
 432              		.cfi_def_cfa_offset 4
 433              		.cfi_offset 7, -4
 434 0002 83B0     		sub	sp, sp, #12
 435              		.cfi_def_cfa_offset 16
 436 0004 00AF     		add	r7, sp, #0
 437              		.cfi_def_cfa_register 7
 255:.\Generated_Source\PSoC5/cyfitter_cfg.c **** 	uint8 bg_xover_inl_trim = CY_GET_XTND_REG8((void CYFAR *)(CYREG_FLSHID_MFG_CFG_BG_XOVER_INL_TRIM +
 438              		.loc 1 255 0
 439 0006 0B4B     		ldr	r3, .L19
 440 0008 1B78     		ldrb	r3, [r3]
 441 000a FB71     		strb	r3, [r7, #7]
 256:.\Generated_Source\PSoC5/cyfitter_cfg.c **** 	CY_SET_XTND_REG8((void CYFAR *)(CYREG_BG_DFT0), (bg_xover_inl_trim & 0x07u));
 442              		.loc 1 256 0
 443 000c 0A4B     		ldr	r3, .L19+4
 444 000e FA79     		ldrb	r2, [r7, #7]
 445 0010 02F00702 		and	r2, r2, #7
 446 0014 D2B2     		uxtb	r2, r2
 447 0016 1A70     		strb	r2, [r3]
 257:.\Generated_Source\PSoC5/cyfitter_cfg.c **** 	CY_SET_XTND_REG8((void CYFAR *)(CYREG_BG_DFT1), ((bg_xover_inl_trim >> 4) & 0x0Fu));
 448              		.loc 1 257 0
 449 0018 084B     		ldr	r3, .L19+8
 450 001a FA79     		ldrb	r2, [r7, #7]	@ zero_extendqisi2
 451 001c 1209     		lsrs	r2, r2, #4
 452 001e D2B2     		uxtb	r2, r2
 453 0020 1A70     		strb	r2, [r3]
 258:.\Generated_Source\PSoC5/cyfitter_cfg.c **** 	CY_SET_XTND_REG8((void CYFAR *)CYREG_PUMP_CR0, 0x44u);
 454              		.loc 1 258 0
 455 0022 074B     		ldr	r3, .L19+12
 456 0024 4422     		movs	r2, #68
 457 0026 1A70     		strb	r2, [r3]
 259:.\Generated_Source\PSoC5/cyfitter_cfg.c **** }
 458              		.loc 1 259 0
 459 0028 0C37     		adds	r7, r7, #12
 460 002a BD46     		mov	sp, r7
 461              		@ sp needed
 462 002c 5DF8047B 		ldr	r7, [sp], #4
 463 0030 7047     		bx	lr
 464              	.L20:
 465 0032 00BF     		.align	2
 466              	.L19:
 467 0034 CF010049 		.word	1224737231
 468 0038 6E580040 		.word	1073764462
 469 003c 6F580040 		.word	1073764463
 470 0040 76580040 		.word	1073764470
 471              		.cfi_endproc
 472              	.LFE6:
 473              		.size	AnalogSetDefault, .-AnalogSetDefault
 474              		.section	.text.SetAnalogRoutingPumps,"ax",%progbits
 475              		.align	2
 476              		.global	SetAnalogRoutingPumps
 477              		.thumb
ARM GAS  C:\Users\khjtony\AppData\Local\Temp\ccGsdxSj.s 			page 14


 478              		.thumb_func
 479              		.type	SetAnalogRoutingPumps, %function
 480              	SetAnalogRoutingPumps:
 481              	.LFB7:
 260:.\Generated_Source\PSoC5/cyfitter_cfg.c **** 
 261:.\Generated_Source\PSoC5/cyfitter_cfg.c **** 
 262:.\Generated_Source\PSoC5/cyfitter_cfg.c **** /*******************************************************************************
 263:.\Generated_Source\PSoC5/cyfitter_cfg.c **** * Function Name: SetAnalogRoutingPumps
 264:.\Generated_Source\PSoC5/cyfitter_cfg.c **** ********************************************************************************
 265:.\Generated_Source\PSoC5/cyfitter_cfg.c **** *
 266:.\Generated_Source\PSoC5/cyfitter_cfg.c **** * Summary:
 267:.\Generated_Source\PSoC5/cyfitter_cfg.c **** * Enables or disables the analog pumps feeding analog routing switches.
 268:.\Generated_Source\PSoC5/cyfitter_cfg.c **** * Intended to be called at startup, based on the Vdda system configuration;
 269:.\Generated_Source\PSoC5/cyfitter_cfg.c **** * may be called during operation when the user informs us that the Vdda voltage
 270:.\Generated_Source\PSoC5/cyfitter_cfg.c **** * crossed the pump threshold.
 271:.\Generated_Source\PSoC5/cyfitter_cfg.c **** *
 272:.\Generated_Source\PSoC5/cyfitter_cfg.c **** * Parameters:
 273:.\Generated_Source\PSoC5/cyfitter_cfg.c **** *  enabled - 1 to enable the pumps, 0 to disable the pumps
 274:.\Generated_Source\PSoC5/cyfitter_cfg.c **** *
 275:.\Generated_Source\PSoC5/cyfitter_cfg.c **** * Return:
 276:.\Generated_Source\PSoC5/cyfitter_cfg.c **** *  void
 277:.\Generated_Source\PSoC5/cyfitter_cfg.c **** *
 278:.\Generated_Source\PSoC5/cyfitter_cfg.c **** *******************************************************************************/
 279:.\Generated_Source\PSoC5/cyfitter_cfg.c **** void SetAnalogRoutingPumps(uint8 enabled)
 280:.\Generated_Source\PSoC5/cyfitter_cfg.c **** {
 482              		.loc 1 280 0
 483              		.cfi_startproc
 484              		@ args = 0, pretend = 0, frame = 16
 485              		@ frame_needed = 1, uses_anonymous_args = 0
 486              		@ link register save eliminated.
 487 0000 80B4     		push	{r7}
 488              		.cfi_def_cfa_offset 4
 489              		.cfi_offset 7, -4
 490 0002 85B0     		sub	sp, sp, #20
 491              		.cfi_def_cfa_offset 24
 492 0004 00AF     		add	r7, sp, #0
 493              		.cfi_def_cfa_register 7
 494 0006 0346     		mov	r3, r0
 495 0008 FB71     		strb	r3, [r7, #7]
 281:.\Generated_Source\PSoC5/cyfitter_cfg.c **** 	uint8 regValue = CY_GET_XTND_REG8((void CYFAR *)CYREG_PUMP_CR0);
 496              		.loc 1 281 0
 497 000a 064B     		ldr	r3, .L24
 498 000c 1B78     		ldrb	r3, [r3]
 499 000e FB73     		strb	r3, [r7, #15]
 282:.\Generated_Source\PSoC5/cyfitter_cfg.c **** 	if (enabled != 0u)
 500              		.loc 1 282 0
 501 0010 FB79     		ldrb	r3, [r7, #7]	@ zero_extendqisi2
 502 0012 002B     		cmp	r3, #0
 283:.\Generated_Source\PSoC5/cyfitter_cfg.c **** 	{
 284:.\Generated_Source\PSoC5/cyfitter_cfg.c **** 		regValue |= 0x00u;
 285:.\Generated_Source\PSoC5/cyfitter_cfg.c **** 	}
 286:.\Generated_Source\PSoC5/cyfitter_cfg.c **** 	else
 287:.\Generated_Source\PSoC5/cyfitter_cfg.c **** 	{
 288:.\Generated_Source\PSoC5/cyfitter_cfg.c **** 		regValue &= (uint8)~0x00u;
 289:.\Generated_Source\PSoC5/cyfitter_cfg.c **** 	}
 290:.\Generated_Source\PSoC5/cyfitter_cfg.c **** 	CY_SET_XTND_REG8((void CYFAR *)CYREG_PUMP_CR0, regValue);
 503              		.loc 1 290 0
ARM GAS  C:\Users\khjtony\AppData\Local\Temp\ccGsdxSj.s 			page 15


 504 0014 034B     		ldr	r3, .L24
 505 0016 FA7B     		ldrb	r2, [r7, #15]
 506 0018 1A70     		strb	r2, [r3]
 291:.\Generated_Source\PSoC5/cyfitter_cfg.c **** }
 507              		.loc 1 291 0
 508 001a 1437     		adds	r7, r7, #20
 509 001c BD46     		mov	sp, r7
 510              		@ sp needed
 511 001e 5DF8047B 		ldr	r7, [sp], #4
 512 0022 7047     		bx	lr
 513              	.L25:
 514              		.align	2
 515              	.L24:
 516 0024 76580040 		.word	1073764470
 517              		.cfi_endproc
 518              	.LFE7:
 519              		.size	SetAnalogRoutingPumps, .-SetAnalogRoutingPumps
 520              		.section	.text.cyfitter_cfg,"ax",%progbits
 521              		.align	2
 522              		.global	cyfitter_cfg
 523              		.thumb
 524              		.thumb_func
 525              		.type	cyfitter_cfg, %function
 526              	cyfitter_cfg:
 527              	.LFB8:
 292:.\Generated_Source\PSoC5/cyfitter_cfg.c **** 
 293:.\Generated_Source\PSoC5/cyfitter_cfg.c **** #define CY_AMUX_UNUSED CYREG_BOOST_SR
 294:.\Generated_Source\PSoC5/cyfitter_cfg.c **** 
 295:.\Generated_Source\PSoC5/cyfitter_cfg.c **** 
 296:.\Generated_Source\PSoC5/cyfitter_cfg.c **** /*******************************************************************************
 297:.\Generated_Source\PSoC5/cyfitter_cfg.c **** * Function Name: cyfitter_cfg
 298:.\Generated_Source\PSoC5/cyfitter_cfg.c **** ********************************************************************************
 299:.\Generated_Source\PSoC5/cyfitter_cfg.c **** * Summary:
 300:.\Generated_Source\PSoC5/cyfitter_cfg.c **** *  This function is called by the start-up code for the selected device. It
 301:.\Generated_Source\PSoC5/cyfitter_cfg.c **** *  performs all of the necessary device configuration based on the design
 302:.\Generated_Source\PSoC5/cyfitter_cfg.c **** *  settings.  This includes settings from the Design Wide Resources (DWR) such
 303:.\Generated_Source\PSoC5/cyfitter_cfg.c **** *  as Clocks and Pins as well as any component configuration that is necessary.
 304:.\Generated_Source\PSoC5/cyfitter_cfg.c **** *
 305:.\Generated_Source\PSoC5/cyfitter_cfg.c **** * Parameters:  
 306:.\Generated_Source\PSoC5/cyfitter_cfg.c **** *   void
 307:.\Generated_Source\PSoC5/cyfitter_cfg.c **** *
 308:.\Generated_Source\PSoC5/cyfitter_cfg.c **** * Return:
 309:.\Generated_Source\PSoC5/cyfitter_cfg.c **** *   void
 310:.\Generated_Source\PSoC5/cyfitter_cfg.c **** *
 311:.\Generated_Source\PSoC5/cyfitter_cfg.c **** *******************************************************************************/
 312:.\Generated_Source\PSoC5/cyfitter_cfg.c **** 
 313:.\Generated_Source\PSoC5/cyfitter_cfg.c **** void cyfitter_cfg(void)
 314:.\Generated_Source\PSoC5/cyfitter_cfg.c **** {
 528              		.loc 1 314 0
 529              		.cfi_startproc
 530              		@ args = 0, pretend = 0, frame = 24
 531              		@ frame_needed = 1, uses_anonymous_args = 0
 532 0000 80B5     		push	{r7, lr}
 533              		.cfi_def_cfa_offset 8
 534              		.cfi_offset 7, -8
 535              		.cfi_offset 14, -4
 536 0002 86B0     		sub	sp, sp, #24
ARM GAS  C:\Users\khjtony\AppData\Local\Temp\ccGsdxSj.s 			page 16


 537              		.cfi_def_cfa_offset 32
 538 0004 00AF     		add	r7, sp, #0
 539              		.cfi_def_cfa_register 7
 315:.\Generated_Source\PSoC5/cyfitter_cfg.c **** 	/* IOPINS0_0 Address: CYREG_PRT0_DM0 Size (bytes): 8 */
 316:.\Generated_Source\PSoC5/cyfitter_cfg.c **** 	static const uint8 CYCODE BS_IOPINS0_0_VAL[] = {
 317:.\Generated_Source\PSoC5/cyfitter_cfg.c **** 		0x02u, 0x01u, 0x01u, 0x00u, 0x01u, 0x00u, 0x00u, 0x00u};
 318:.\Generated_Source\PSoC5/cyfitter_cfg.c **** 
 319:.\Generated_Source\PSoC5/cyfitter_cfg.c **** 	/* IOPINS0_2 Address: CYREG_PRT2_DM0 Size (bytes): 8 */
 320:.\Generated_Source\PSoC5/cyfitter_cfg.c **** 	static const uint8 CYCODE BS_IOPINS0_2_VAL[] = {
 321:.\Generated_Source\PSoC5/cyfitter_cfg.c **** 		0x00u, 0x7Fu, 0x7Fu, 0x00u, 0x00u, 0x00u, 0x00u, 0x00u};
 322:.\Generated_Source\PSoC5/cyfitter_cfg.c **** 
 323:.\Generated_Source\PSoC5/cyfitter_cfg.c **** 	/* IOPINS0_4 Address: CYREG_PRT4_DR Size (bytes): 10 */
 324:.\Generated_Source\PSoC5/cyfitter_cfg.c **** 	static const uint8 CYCODE BS_IOPINS0_4_VAL[] = {
 325:.\Generated_Source\PSoC5/cyfitter_cfg.c **** 		0x80u, 0x00u, 0x10u, 0xACu, 0x2Cu, 0x00u, 0x2Cu, 0x00u, 0x00u, 0x00u};
 326:.\Generated_Source\PSoC5/cyfitter_cfg.c **** 
 327:.\Generated_Source\PSoC5/cyfitter_cfg.c **** 	/* IOPINS0_5 Address: CYREG_PRT5_DM0 Size (bytes): 8 */
 328:.\Generated_Source\PSoC5/cyfitter_cfg.c **** 	static const uint8 CYCODE BS_IOPINS0_5_VAL[] = {
 329:.\Generated_Source\PSoC5/cyfitter_cfg.c **** 		0x01u, 0x00u, 0x00u, 0x00u, 0x00u, 0x00u, 0x00u, 0x00u};
 330:.\Generated_Source\PSoC5/cyfitter_cfg.c **** 
 331:.\Generated_Source\PSoC5/cyfitter_cfg.c **** 	/* IOPINS0_6 Address: CYREG_PRT6_DR Size (bytes): 10 */
 332:.\Generated_Source\PSoC5/cyfitter_cfg.c **** 	static const uint8 CYCODE BS_IOPINS0_6_VAL[] = {
 333:.\Generated_Source\PSoC5/cyfitter_cfg.c **** 		0x80u, 0x00u, 0x00u, 0x82u, 0x02u, 0x00u, 0x00u, 0x00u, 0x00u, 0x00u};
 334:.\Generated_Source\PSoC5/cyfitter_cfg.c **** 
 335:.\Generated_Source\PSoC5/cyfitter_cfg.c **** #ifdef CYGlobalIntDisable
 336:.\Generated_Source\PSoC5/cyfitter_cfg.c **** 	/* Disable interrupts by default. Let user enable if/when they want. */
 337:.\Generated_Source\PSoC5/cyfitter_cfg.c **** 	CYGlobalIntDisable
 540              		.loc 1 337 0
 541              	@ 337 ".\Generated_Source\PSoC5\cyfitter_cfg.c" 1
 542 0006 72B6     		CPSID   i
 543              	@ 0 "" 2
 338:.\Generated_Source\PSoC5/cyfitter_cfg.c **** #endif
 339:.\Generated_Source\PSoC5/cyfitter_cfg.c **** 
 340:.\Generated_Source\PSoC5/cyfitter_cfg.c **** 	/* Enable/Disable Debug functionality based on settings from System DWR */
 341:.\Generated_Source\PSoC5/cyfitter_cfg.c **** 	CY_SET_XTND_REG8((void CYFAR *)CYREG_MLOGIC_DEBUG, (CY_GET_XTND_REG8((void CYFAR *)CYREG_MLOGIC_DE
 544              		.loc 1 341 0
 545              		.thumb
 546 0008 4F4B     		ldr	r3, .L31
 547 000a 4F4A     		ldr	r2, .L31
 548 000c 1278     		ldrb	r2, [r2]
 549 000e D2B2     		uxtb	r2, r2
 550 0010 42F00402 		orr	r2, r2, #4
 551 0014 D2B2     		uxtb	r2, r2
 552 0016 1A70     		strb	r2, [r3]
 553              	.LBB3:
 342:.\Generated_Source\PSoC5/cyfitter_cfg.c **** 
 343:.\Generated_Source\PSoC5/cyfitter_cfg.c **** 	{
 344:.\Generated_Source\PSoC5/cyfitter_cfg.c **** 		static const uint32 CYCODE cy_cfg_addr_table[] = {
 345:.\Generated_Source\PSoC5/cyfitter_cfg.c **** 			0x40005206u, /* Base address: 0x40005200 Count: 6 */
 346:.\Generated_Source\PSoC5/cyfitter_cfg.c **** 			0x40006403u, /* Base address: 0x40006400 Count: 3 */
 347:.\Generated_Source\PSoC5/cyfitter_cfg.c **** 			0x40006501u, /* Base address: 0x40006500 Count: 1 */
 348:.\Generated_Source\PSoC5/cyfitter_cfg.c **** 			0x4001005Fu, /* Base address: 0x40010000 Count: 95 */
 349:.\Generated_Source\PSoC5/cyfitter_cfg.c **** 			0x4001012Bu, /* Base address: 0x40010100 Count: 43 */
 350:.\Generated_Source\PSoC5/cyfitter_cfg.c **** 			0x40010223u, /* Base address: 0x40010200 Count: 35 */
 351:.\Generated_Source\PSoC5/cyfitter_cfg.c **** 			0x4001034Au, /* Base address: 0x40010300 Count: 74 */
 352:.\Generated_Source\PSoC5/cyfitter_cfg.c **** 			0x40010446u, /* Base address: 0x40010400 Count: 70 */
 353:.\Generated_Source\PSoC5/cyfitter_cfg.c **** 			0x40010541u, /* Base address: 0x40010500 Count: 65 */
 354:.\Generated_Source\PSoC5/cyfitter_cfg.c **** 			0x40010702u, /* Base address: 0x40010700 Count: 2 */
ARM GAS  C:\Users\khjtony\AppData\Local\Temp\ccGsdxSj.s 			page 17


 355:.\Generated_Source\PSoC5/cyfitter_cfg.c **** 			0x40010903u, /* Base address: 0x40010900 Count: 3 */
 356:.\Generated_Source\PSoC5/cyfitter_cfg.c **** 			0x40010A15u, /* Base address: 0x40010A00 Count: 21 */
 357:.\Generated_Source\PSoC5/cyfitter_cfg.c **** 			0x40010B12u, /* Base address: 0x40010B00 Count: 18 */
 358:.\Generated_Source\PSoC5/cyfitter_cfg.c **** 			0x40010D02u, /* Base address: 0x40010D00 Count: 2 */
 359:.\Generated_Source\PSoC5/cyfitter_cfg.c **** 			0x40011433u, /* Base address: 0x40011400 Count: 51 */
 360:.\Generated_Source\PSoC5/cyfitter_cfg.c **** 			0x40011518u, /* Base address: 0x40011500 Count: 24 */
 361:.\Generated_Source\PSoC5/cyfitter_cfg.c **** 			0x40011901u, /* Base address: 0x40011900 Count: 1 */
 362:.\Generated_Source\PSoC5/cyfitter_cfg.c **** 			0x40011B03u, /* Base address: 0x40011B00 Count: 3 */
 363:.\Generated_Source\PSoC5/cyfitter_cfg.c **** 			0x40014010u, /* Base address: 0x40014000 Count: 16 */
 364:.\Generated_Source\PSoC5/cyfitter_cfg.c **** 			0x40014117u, /* Base address: 0x40014100 Count: 23 */
 365:.\Generated_Source\PSoC5/cyfitter_cfg.c **** 			0x40014206u, /* Base address: 0x40014200 Count: 6 */
 366:.\Generated_Source\PSoC5/cyfitter_cfg.c **** 			0x40014305u, /* Base address: 0x40014300 Count: 5 */
 367:.\Generated_Source\PSoC5/cyfitter_cfg.c **** 			0x40014402u, /* Base address: 0x40014400 Count: 2 */
 368:.\Generated_Source\PSoC5/cyfitter_cfg.c **** 			0x40014502u, /* Base address: 0x40014500 Count: 2 */
 369:.\Generated_Source\PSoC5/cyfitter_cfg.c **** 			0x40014603u, /* Base address: 0x40014600 Count: 3 */
 370:.\Generated_Source\PSoC5/cyfitter_cfg.c **** 			0x40014701u, /* Base address: 0x40014700 Count: 1 */
 371:.\Generated_Source\PSoC5/cyfitter_cfg.c **** 			0x40014801u, /* Base address: 0x40014800 Count: 1 */
 372:.\Generated_Source\PSoC5/cyfitter_cfg.c **** 			0x40014904u, /* Base address: 0x40014900 Count: 4 */
 373:.\Generated_Source\PSoC5/cyfitter_cfg.c **** 			0x40014C01u, /* Base address: 0x40014C00 Count: 1 */
 374:.\Generated_Source\PSoC5/cyfitter_cfg.c **** 			0x40014D0Au, /* Base address: 0x40014D00 Count: 10 */
 375:.\Generated_Source\PSoC5/cyfitter_cfg.c **** 			0x40015008u, /* Base address: 0x40015000 Count: 8 */
 376:.\Generated_Source\PSoC5/cyfitter_cfg.c **** 			0x40015102u, /* Base address: 0x40015100 Count: 2 */
 377:.\Generated_Source\PSoC5/cyfitter_cfg.c **** 		};
 378:.\Generated_Source\PSoC5/cyfitter_cfg.c **** 
 379:.\Generated_Source\PSoC5/cyfitter_cfg.c **** 		static const cy_cfg_addrvalue_t CYCODE cy_cfg_data_table[] = {
 380:.\Generated_Source\PSoC5/cyfitter_cfg.c **** 			{0x00u, 0x01u},
 381:.\Generated_Source\PSoC5/cyfitter_cfg.c **** 			{0x20u, 0x24u},
 382:.\Generated_Source\PSoC5/cyfitter_cfg.c **** 			{0x21u, 0x2Cu},
 383:.\Generated_Source\PSoC5/cyfitter_cfg.c **** 			{0x24u, 0x90u},
 384:.\Generated_Source\PSoC5/cyfitter_cfg.c **** 			{0x2Cu, 0x01u},
 385:.\Generated_Source\PSoC5/cyfitter_cfg.c **** 			{0x34u, 0x80u},
 386:.\Generated_Source\PSoC5/cyfitter_cfg.c **** 			{0x82u, 0x0Du},
 387:.\Generated_Source\PSoC5/cyfitter_cfg.c **** 			{0x83u, 0x0Fu},
 388:.\Generated_Source\PSoC5/cyfitter_cfg.c **** 			{0x85u, 0x0Du},
 389:.\Generated_Source\PSoC5/cyfitter_cfg.c **** 			{0x85u, 0x0Du},
 390:.\Generated_Source\PSoC5/cyfitter_cfg.c **** 			{0x00u, 0x84u},
 391:.\Generated_Source\PSoC5/cyfitter_cfg.c **** 			{0x04u, 0x80u},
 392:.\Generated_Source\PSoC5/cyfitter_cfg.c **** 			{0x05u, 0x04u},
 393:.\Generated_Source\PSoC5/cyfitter_cfg.c **** 			{0x06u, 0x04u},
 394:.\Generated_Source\PSoC5/cyfitter_cfg.c **** 			{0x08u, 0x01u},
 395:.\Generated_Source\PSoC5/cyfitter_cfg.c **** 			{0x09u, 0x01u},
 396:.\Generated_Source\PSoC5/cyfitter_cfg.c **** 			{0x0Bu, 0x06u},
 397:.\Generated_Source\PSoC5/cyfitter_cfg.c **** 			{0x0Cu, 0x60u},
 398:.\Generated_Source\PSoC5/cyfitter_cfg.c **** 			{0x0Du, 0x04u},
 399:.\Generated_Source\PSoC5/cyfitter_cfg.c **** 			{0x10u, 0x07u},
 400:.\Generated_Source\PSoC5/cyfitter_cfg.c **** 			{0x12u, 0x38u},
 401:.\Generated_Source\PSoC5/cyfitter_cfg.c **** 			{0x14u, 0x56u},
 402:.\Generated_Source\PSoC5/cyfitter_cfg.c **** 			{0x15u, 0x07u},
 403:.\Generated_Source\PSoC5/cyfitter_cfg.c **** 			{0x16u, 0x09u},
 404:.\Generated_Source\PSoC5/cyfitter_cfg.c **** 			{0x18u, 0x84u},
 405:.\Generated_Source\PSoC5/cyfitter_cfg.c **** 			{0x1Bu, 0x04u},
 406:.\Generated_Source\PSoC5/cyfitter_cfg.c **** 			{0x1Cu, 0x84u},
 407:.\Generated_Source\PSoC5/cyfitter_cfg.c **** 			{0x1Du, 0x04u},
 408:.\Generated_Source\PSoC5/cyfitter_cfg.c **** 			{0x22u, 0x80u},
 409:.\Generated_Source\PSoC5/cyfitter_cfg.c **** 			{0x24u, 0x04u},
 410:.\Generated_Source\PSoC5/cyfitter_cfg.c **** 			{0x25u, 0x01u},
 411:.\Generated_Source\PSoC5/cyfitter_cfg.c **** 			{0x27u, 0x06u},
ARM GAS  C:\Users\khjtony\AppData\Local\Temp\ccGsdxSj.s 			page 18


 412:.\Generated_Source\PSoC5/cyfitter_cfg.c **** 			{0x28u, 0x0Au},
 413:.\Generated_Source\PSoC5/cyfitter_cfg.c **** 			{0x2Au, 0x10u},
 414:.\Generated_Source\PSoC5/cyfitter_cfg.c **** 			{0x2Bu, 0x03u},
 415:.\Generated_Source\PSoC5/cyfitter_cfg.c **** 			{0x2Cu, 0x04u},
 416:.\Generated_Source\PSoC5/cyfitter_cfg.c **** 			{0x2Du, 0x04u},
 417:.\Generated_Source\PSoC5/cyfitter_cfg.c **** 			{0x2Eu, 0x80u},
 418:.\Generated_Source\PSoC5/cyfitter_cfg.c **** 			{0x32u, 0x7Fu},
 419:.\Generated_Source\PSoC5/cyfitter_cfg.c **** 			{0x34u, 0x80u},
 420:.\Generated_Source\PSoC5/cyfitter_cfg.c **** 			{0x35u, 0x07u},
 421:.\Generated_Source\PSoC5/cyfitter_cfg.c **** 			{0x38u, 0x08u},
 422:.\Generated_Source\PSoC5/cyfitter_cfg.c **** 			{0x3Bu, 0x20u},
 423:.\Generated_Source\PSoC5/cyfitter_cfg.c **** 			{0x3Eu, 0x10u},
 424:.\Generated_Source\PSoC5/cyfitter_cfg.c **** 			{0x40u, 0x41u},
 425:.\Generated_Source\PSoC5/cyfitter_cfg.c **** 			{0x49u, 0xFFu},
 426:.\Generated_Source\PSoC5/cyfitter_cfg.c **** 			{0x4Au, 0xFFu},
 427:.\Generated_Source\PSoC5/cyfitter_cfg.c **** 			{0x4Bu, 0xFFu},
 428:.\Generated_Source\PSoC5/cyfitter_cfg.c **** 			{0x4Fu, 0x01u},
 429:.\Generated_Source\PSoC5/cyfitter_cfg.c **** 			{0x50u, 0x18u},
 430:.\Generated_Source\PSoC5/cyfitter_cfg.c **** 			{0x54u, 0x40u},
 431:.\Generated_Source\PSoC5/cyfitter_cfg.c **** 			{0x56u, 0x04u},
 432:.\Generated_Source\PSoC5/cyfitter_cfg.c **** 			{0x58u, 0x04u},
 433:.\Generated_Source\PSoC5/cyfitter_cfg.c **** 			{0x59u, 0x04u},
 434:.\Generated_Source\PSoC5/cyfitter_cfg.c **** 			{0x5Au, 0x04u},
 435:.\Generated_Source\PSoC5/cyfitter_cfg.c **** 			{0x5Bu, 0x04u},
 436:.\Generated_Source\PSoC5/cyfitter_cfg.c **** 			{0x5Du, 0x09u},
 437:.\Generated_Source\PSoC5/cyfitter_cfg.c **** 			{0x5Fu, 0x01u},
 438:.\Generated_Source\PSoC5/cyfitter_cfg.c **** 			{0x60u, 0x40u},
 439:.\Generated_Source\PSoC5/cyfitter_cfg.c **** 			{0x62u, 0x40u},
 440:.\Generated_Source\PSoC5/cyfitter_cfg.c **** 			{0x64u, 0x40u},
 441:.\Generated_Source\PSoC5/cyfitter_cfg.c **** 			{0x65u, 0x40u},
 442:.\Generated_Source\PSoC5/cyfitter_cfg.c **** 			{0x66u, 0x80u},
 443:.\Generated_Source\PSoC5/cyfitter_cfg.c **** 			{0x68u, 0x80u},
 444:.\Generated_Source\PSoC5/cyfitter_cfg.c **** 			{0x6Au, 0x80u},
 445:.\Generated_Source\PSoC5/cyfitter_cfg.c **** 			{0x6Cu, 0x80u},
 446:.\Generated_Source\PSoC5/cyfitter_cfg.c **** 			{0x6Eu, 0x80u},
 447:.\Generated_Source\PSoC5/cyfitter_cfg.c **** 			{0x83u, 0x10u},
 448:.\Generated_Source\PSoC5/cyfitter_cfg.c **** 			{0x89u, 0x0Eu},
 449:.\Generated_Source\PSoC5/cyfitter_cfg.c **** 			{0x92u, 0x01u},
 450:.\Generated_Source\PSoC5/cyfitter_cfg.c **** 			{0x95u, 0x04u},
 451:.\Generated_Source\PSoC5/cyfitter_cfg.c **** 			{0x97u, 0x09u},
 452:.\Generated_Source\PSoC5/cyfitter_cfg.c **** 			{0x99u, 0x03u},
 453:.\Generated_Source\PSoC5/cyfitter_cfg.c **** 			{0x9Bu, 0x04u},
 454:.\Generated_Source\PSoC5/cyfitter_cfg.c **** 			{0xA9u, 0x05u},
 455:.\Generated_Source\PSoC5/cyfitter_cfg.c **** 			{0xABu, 0x0Au},
 456:.\Generated_Source\PSoC5/cyfitter_cfg.c **** 			{0xAFu, 0x10u},
 457:.\Generated_Source\PSoC5/cyfitter_cfg.c **** 			{0xB2u, 0x01u},
 458:.\Generated_Source\PSoC5/cyfitter_cfg.c **** 			{0xB5u, 0x0Fu},
 459:.\Generated_Source\PSoC5/cyfitter_cfg.c **** 			{0xB7u, 0x10u},
 460:.\Generated_Source\PSoC5/cyfitter_cfg.c **** 			{0xB9u, 0x20u},
 461:.\Generated_Source\PSoC5/cyfitter_cfg.c **** 			{0xBFu, 0x40u},
 462:.\Generated_Source\PSoC5/cyfitter_cfg.c **** 			{0xC0u, 0x41u},
 463:.\Generated_Source\PSoC5/cyfitter_cfg.c **** 			{0xC9u, 0xFFu},
 464:.\Generated_Source\PSoC5/cyfitter_cfg.c **** 			{0xCAu, 0xFFu},
 465:.\Generated_Source\PSoC5/cyfitter_cfg.c **** 			{0xCBu, 0xFFu},
 466:.\Generated_Source\PSoC5/cyfitter_cfg.c **** 			{0xCDu, 0x83u},
 467:.\Generated_Source\PSoC5/cyfitter_cfg.c **** 			{0xCEu, 0x03u},
 468:.\Generated_Source\PSoC5/cyfitter_cfg.c **** 			{0xCFu, 0x01u},
ARM GAS  C:\Users\khjtony\AppData\Local\Temp\ccGsdxSj.s 			page 19


 469:.\Generated_Source\PSoC5/cyfitter_cfg.c **** 			{0xD0u, 0x18u},
 470:.\Generated_Source\PSoC5/cyfitter_cfg.c **** 			{0xD8u, 0x04u},
 471:.\Generated_Source\PSoC5/cyfitter_cfg.c **** 			{0xD9u, 0x04u},
 472:.\Generated_Source\PSoC5/cyfitter_cfg.c **** 			{0xDAu, 0x04u},
 473:.\Generated_Source\PSoC5/cyfitter_cfg.c **** 			{0xDCu, 0x02u},
 474:.\Generated_Source\PSoC5/cyfitter_cfg.c **** 			{0xDDu, 0x09u},
 475:.\Generated_Source\PSoC5/cyfitter_cfg.c **** 			{0xDFu, 0x01u},
 476:.\Generated_Source\PSoC5/cyfitter_cfg.c **** 			{0xE0u, 0x40u},
 477:.\Generated_Source\PSoC5/cyfitter_cfg.c **** 			{0xE2u, 0x40u},
 478:.\Generated_Source\PSoC5/cyfitter_cfg.c **** 			{0xE4u, 0x40u},
 479:.\Generated_Source\PSoC5/cyfitter_cfg.c **** 			{0xE5u, 0x40u},
 480:.\Generated_Source\PSoC5/cyfitter_cfg.c **** 			{0xE6u, 0x80u},
 481:.\Generated_Source\PSoC5/cyfitter_cfg.c **** 			{0xE8u, 0x80u},
 482:.\Generated_Source\PSoC5/cyfitter_cfg.c **** 			{0xEAu, 0x80u},
 483:.\Generated_Source\PSoC5/cyfitter_cfg.c **** 			{0xECu, 0x80u},
 484:.\Generated_Source\PSoC5/cyfitter_cfg.c **** 			{0xEEu, 0x80u},
 485:.\Generated_Source\PSoC5/cyfitter_cfg.c **** 			{0x00u, 0x08u},
 486:.\Generated_Source\PSoC5/cyfitter_cfg.c **** 			{0x02u, 0x02u},
 487:.\Generated_Source\PSoC5/cyfitter_cfg.c **** 			{0x03u, 0x58u},
 488:.\Generated_Source\PSoC5/cyfitter_cfg.c **** 			{0x08u, 0x08u},
 489:.\Generated_Source\PSoC5/cyfitter_cfg.c **** 			{0x0Au, 0x85u},
 490:.\Generated_Source\PSoC5/cyfitter_cfg.c **** 			{0x0Fu, 0x80u},
 491:.\Generated_Source\PSoC5/cyfitter_cfg.c **** 			{0x10u, 0x13u},
 492:.\Generated_Source\PSoC5/cyfitter_cfg.c **** 			{0x11u, 0x10u},
 493:.\Generated_Source\PSoC5/cyfitter_cfg.c **** 			{0x12u, 0x40u},
 494:.\Generated_Source\PSoC5/cyfitter_cfg.c **** 			{0x13u, 0x04u},
 495:.\Generated_Source\PSoC5/cyfitter_cfg.c **** 			{0x1Bu, 0x18u},
 496:.\Generated_Source\PSoC5/cyfitter_cfg.c **** 			{0x1Eu, 0x10u},
 497:.\Generated_Source\PSoC5/cyfitter_cfg.c **** 			{0x22u, 0x10u},
 498:.\Generated_Source\PSoC5/cyfitter_cfg.c **** 			{0x23u, 0x04u},
 499:.\Generated_Source\PSoC5/cyfitter_cfg.c **** 			{0x25u, 0x10u},
 500:.\Generated_Source\PSoC5/cyfitter_cfg.c **** 			{0x26u, 0x40u},
 501:.\Generated_Source\PSoC5/cyfitter_cfg.c **** 			{0x28u, 0x11u},
 502:.\Generated_Source\PSoC5/cyfitter_cfg.c **** 			{0x29u, 0x20u},
 503:.\Generated_Source\PSoC5/cyfitter_cfg.c **** 			{0x2Eu, 0xA0u},
 504:.\Generated_Source\PSoC5/cyfitter_cfg.c **** 			{0x31u, 0x04u},
 505:.\Generated_Source\PSoC5/cyfitter_cfg.c **** 			{0x33u, 0x50u},
 506:.\Generated_Source\PSoC5/cyfitter_cfg.c **** 			{0x34u, 0x08u},
 507:.\Generated_Source\PSoC5/cyfitter_cfg.c **** 			{0x35u, 0x24u},
 508:.\Generated_Source\PSoC5/cyfitter_cfg.c **** 			{0x37u, 0x08u},
 509:.\Generated_Source\PSoC5/cyfitter_cfg.c **** 			{0x38u, 0x80u},
 510:.\Generated_Source\PSoC5/cyfitter_cfg.c **** 			{0x39u, 0x18u},
 511:.\Generated_Source\PSoC5/cyfitter_cfg.c **** 			{0x3Au, 0x20u},
 512:.\Generated_Source\PSoC5/cyfitter_cfg.c **** 			{0x3Du, 0x20u},
 513:.\Generated_Source\PSoC5/cyfitter_cfg.c **** 			{0x3Eu, 0x02u},
 514:.\Generated_Source\PSoC5/cyfitter_cfg.c **** 			{0x42u, 0x82u},
 515:.\Generated_Source\PSoC5/cyfitter_cfg.c **** 			{0x46u, 0x82u},
 516:.\Generated_Source\PSoC5/cyfitter_cfg.c **** 			{0x61u, 0x20u},
 517:.\Generated_Source\PSoC5/cyfitter_cfg.c **** 			{0x62u, 0x40u},
 518:.\Generated_Source\PSoC5/cyfitter_cfg.c **** 			{0x63u, 0x60u},
 519:.\Generated_Source\PSoC5/cyfitter_cfg.c **** 			{0x87u, 0x40u},
 520:.\Generated_Source\PSoC5/cyfitter_cfg.c **** 			{0xC0u, 0x0Fu},
 521:.\Generated_Source\PSoC5/cyfitter_cfg.c **** 			{0xC2u, 0x1Fu},
 522:.\Generated_Source\PSoC5/cyfitter_cfg.c **** 			{0xC4u, 0x0Fu},
 523:.\Generated_Source\PSoC5/cyfitter_cfg.c **** 			{0xCAu, 0x3Eu},
 524:.\Generated_Source\PSoC5/cyfitter_cfg.c **** 			{0xCCu, 0x6Eu},
 525:.\Generated_Source\PSoC5/cyfitter_cfg.c **** 			{0xCEu, 0xAEu},
ARM GAS  C:\Users\khjtony\AppData\Local\Temp\ccGsdxSj.s 			page 20


 526:.\Generated_Source\PSoC5/cyfitter_cfg.c **** 			{0xD0u, 0x99u},
 527:.\Generated_Source\PSoC5/cyfitter_cfg.c **** 			{0xD8u, 0x0Fu},
 528:.\Generated_Source\PSoC5/cyfitter_cfg.c **** 			{0x09u, 0x02u},
 529:.\Generated_Source\PSoC5/cyfitter_cfg.c **** 			{0x0Bu, 0x05u},
 530:.\Generated_Source\PSoC5/cyfitter_cfg.c **** 			{0x19u, 0x04u},
 531:.\Generated_Source\PSoC5/cyfitter_cfg.c **** 			{0x1Bu, 0x02u},
 532:.\Generated_Source\PSoC5/cyfitter_cfg.c **** 			{0x33u, 0x01u},
 533:.\Generated_Source\PSoC5/cyfitter_cfg.c **** 			{0x35u, 0x06u},
 534:.\Generated_Source\PSoC5/cyfitter_cfg.c **** 			{0x40u, 0x41u},
 535:.\Generated_Source\PSoC5/cyfitter_cfg.c **** 			{0x45u, 0xECu},
 536:.\Generated_Source\PSoC5/cyfitter_cfg.c **** 			{0x47u, 0x20u},
 537:.\Generated_Source\PSoC5/cyfitter_cfg.c **** 			{0x48u, 0x23u},
 538:.\Generated_Source\PSoC5/cyfitter_cfg.c **** 			{0x49u, 0xFFu},
 539:.\Generated_Source\PSoC5/cyfitter_cfg.c **** 			{0x4Au, 0xFFu},
 540:.\Generated_Source\PSoC5/cyfitter_cfg.c **** 			{0x4Bu, 0xFFu},
 541:.\Generated_Source\PSoC5/cyfitter_cfg.c **** 			{0x4Du, 0x83u},
 542:.\Generated_Source\PSoC5/cyfitter_cfg.c **** 			{0x4Eu, 0x03u},
 543:.\Generated_Source\PSoC5/cyfitter_cfg.c **** 			{0x4Fu, 0x01u},
 544:.\Generated_Source\PSoC5/cyfitter_cfg.c **** 			{0x50u, 0x18u},
 545:.\Generated_Source\PSoC5/cyfitter_cfg.c **** 			{0x52u, 0x80u},
 546:.\Generated_Source\PSoC5/cyfitter_cfg.c **** 			{0x54u, 0x01u},
 547:.\Generated_Source\PSoC5/cyfitter_cfg.c **** 			{0x56u, 0x04u},
 548:.\Generated_Source\PSoC5/cyfitter_cfg.c **** 			{0x59u, 0x04u},
 549:.\Generated_Source\PSoC5/cyfitter_cfg.c **** 			{0x5Au, 0x04u},
 550:.\Generated_Source\PSoC5/cyfitter_cfg.c **** 			{0x5Bu, 0x04u},
 551:.\Generated_Source\PSoC5/cyfitter_cfg.c **** 			{0x5Cu, 0x20u},
 552:.\Generated_Source\PSoC5/cyfitter_cfg.c **** 			{0x5Du, 0x99u},
 553:.\Generated_Source\PSoC5/cyfitter_cfg.c **** 			{0x5Fu, 0x01u},
 554:.\Generated_Source\PSoC5/cyfitter_cfg.c **** 			{0x60u, 0x40u},
 555:.\Generated_Source\PSoC5/cyfitter_cfg.c **** 			{0x62u, 0x40u},
 556:.\Generated_Source\PSoC5/cyfitter_cfg.c **** 			{0x64u, 0x40u},
 557:.\Generated_Source\PSoC5/cyfitter_cfg.c **** 			{0x65u, 0x40u},
 558:.\Generated_Source\PSoC5/cyfitter_cfg.c **** 			{0x66u, 0x80u},
 559:.\Generated_Source\PSoC5/cyfitter_cfg.c **** 			{0x68u, 0x80u},
 560:.\Generated_Source\PSoC5/cyfitter_cfg.c **** 			{0x6Au, 0x80u},
 561:.\Generated_Source\PSoC5/cyfitter_cfg.c **** 			{0x6Cu, 0x80u},
 562:.\Generated_Source\PSoC5/cyfitter_cfg.c **** 			{0x6Eu, 0x80u},
 563:.\Generated_Source\PSoC5/cyfitter_cfg.c **** 			{0x00u, 0x10u},
 564:.\Generated_Source\PSoC5/cyfitter_cfg.c **** 			{0x09u, 0x08u},
 565:.\Generated_Source\PSoC5/cyfitter_cfg.c **** 			{0x0Au, 0x80u},
 566:.\Generated_Source\PSoC5/cyfitter_cfg.c **** 			{0x13u, 0x08u},
 567:.\Generated_Source\PSoC5/cyfitter_cfg.c **** 			{0x18u, 0x10u},
 568:.\Generated_Source\PSoC5/cyfitter_cfg.c **** 			{0x20u, 0x04u},
 569:.\Generated_Source\PSoC5/cyfitter_cfg.c **** 			{0x21u, 0x08u},
 570:.\Generated_Source\PSoC5/cyfitter_cfg.c **** 			{0x22u, 0x40u},
 571:.\Generated_Source\PSoC5/cyfitter_cfg.c **** 			{0x23u, 0x08u},
 572:.\Generated_Source\PSoC5/cyfitter_cfg.c **** 			{0x24u, 0x08u},
 573:.\Generated_Source\PSoC5/cyfitter_cfg.c **** 			{0x27u, 0x20u},
 574:.\Generated_Source\PSoC5/cyfitter_cfg.c **** 			{0x28u, 0x69u},
 575:.\Generated_Source\PSoC5/cyfitter_cfg.c **** 			{0x2Au, 0x04u},
 576:.\Generated_Source\PSoC5/cyfitter_cfg.c **** 			{0x31u, 0x08u},
 577:.\Generated_Source\PSoC5/cyfitter_cfg.c **** 			{0x32u, 0x50u},
 578:.\Generated_Source\PSoC5/cyfitter_cfg.c **** 			{0x34u, 0x40u},
 579:.\Generated_Source\PSoC5/cyfitter_cfg.c **** 			{0x37u, 0x60u},
 580:.\Generated_Source\PSoC5/cyfitter_cfg.c **** 			{0x38u, 0x80u},
 581:.\Generated_Source\PSoC5/cyfitter_cfg.c **** 			{0x39u, 0x18u},
 582:.\Generated_Source\PSoC5/cyfitter_cfg.c **** 			{0x3Eu, 0x10u},
ARM GAS  C:\Users\khjtony\AppData\Local\Temp\ccGsdxSj.s 			page 21


 583:.\Generated_Source\PSoC5/cyfitter_cfg.c **** 			{0x40u, 0x0Cu},
 584:.\Generated_Source\PSoC5/cyfitter_cfg.c **** 			{0x41u, 0x0Au},
 585:.\Generated_Source\PSoC5/cyfitter_cfg.c **** 			{0x42u, 0x20u},
 586:.\Generated_Source\PSoC5/cyfitter_cfg.c **** 			{0x46u, 0x82u},
 587:.\Generated_Source\PSoC5/cyfitter_cfg.c **** 			{0x49u, 0xA8u},
 588:.\Generated_Source\PSoC5/cyfitter_cfg.c **** 			{0x4Du, 0x01u},
 589:.\Generated_Source\PSoC5/cyfitter_cfg.c **** 			{0x4Fu, 0x04u},
 590:.\Generated_Source\PSoC5/cyfitter_cfg.c **** 			{0x51u, 0x20u},
 591:.\Generated_Source\PSoC5/cyfitter_cfg.c **** 			{0x52u, 0x46u},
 592:.\Generated_Source\PSoC5/cyfitter_cfg.c **** 			{0x56u, 0x02u},
 593:.\Generated_Source\PSoC5/cyfitter_cfg.c **** 			{0x5Du, 0x01u},
 594:.\Generated_Source\PSoC5/cyfitter_cfg.c **** 			{0x5Eu, 0x80u},
 595:.\Generated_Source\PSoC5/cyfitter_cfg.c **** 			{0x5Fu, 0x04u},
 596:.\Generated_Source\PSoC5/cyfitter_cfg.c **** 			{0x60u, 0x10u},
 597:.\Generated_Source\PSoC5/cyfitter_cfg.c **** 			{0x66u, 0x01u},
 598:.\Generated_Source\PSoC5/cyfitter_cfg.c **** 			{0x68u, 0x06u},
 599:.\Generated_Source\PSoC5/cyfitter_cfg.c **** 			{0x69u, 0x18u},
 600:.\Generated_Source\PSoC5/cyfitter_cfg.c **** 			{0x6Au, 0x04u},
 601:.\Generated_Source\PSoC5/cyfitter_cfg.c **** 			{0x6Bu, 0x40u},
 602:.\Generated_Source\PSoC5/cyfitter_cfg.c **** 			{0x70u, 0x40u},
 603:.\Generated_Source\PSoC5/cyfitter_cfg.c **** 			{0x72u, 0x01u},
 604:.\Generated_Source\PSoC5/cyfitter_cfg.c **** 			{0x76u, 0x80u},
 605:.\Generated_Source\PSoC5/cyfitter_cfg.c **** 			{0x80u, 0x04u},
 606:.\Generated_Source\PSoC5/cyfitter_cfg.c **** 			{0x82u, 0x01u},
 607:.\Generated_Source\PSoC5/cyfitter_cfg.c **** 			{0x8Au, 0x80u},
 608:.\Generated_Source\PSoC5/cyfitter_cfg.c **** 			{0x92u, 0x30u},
 609:.\Generated_Source\PSoC5/cyfitter_cfg.c **** 			{0x94u, 0x80u},
 610:.\Generated_Source\PSoC5/cyfitter_cfg.c **** 			{0x95u, 0x08u},
 611:.\Generated_Source\PSoC5/cyfitter_cfg.c **** 			{0x96u, 0x85u},
 612:.\Generated_Source\PSoC5/cyfitter_cfg.c **** 			{0x98u, 0x01u},
 613:.\Generated_Source\PSoC5/cyfitter_cfg.c **** 			{0x99u, 0x80u},
 614:.\Generated_Source\PSoC5/cyfitter_cfg.c **** 			{0x9Du, 0x20u},
 615:.\Generated_Source\PSoC5/cyfitter_cfg.c **** 			{0x9Eu, 0xE2u},
 616:.\Generated_Source\PSoC5/cyfitter_cfg.c **** 			{0x9Fu, 0x48u},
 617:.\Generated_Source\PSoC5/cyfitter_cfg.c **** 			{0xA2u, 0x40u},
 618:.\Generated_Source\PSoC5/cyfitter_cfg.c **** 			{0xA4u, 0x06u},
 619:.\Generated_Source\PSoC5/cyfitter_cfg.c **** 			{0xA5u, 0x20u},
 620:.\Generated_Source\PSoC5/cyfitter_cfg.c **** 			{0xA6u, 0x02u},
 621:.\Generated_Source\PSoC5/cyfitter_cfg.c **** 			{0xA9u, 0x10u},
 622:.\Generated_Source\PSoC5/cyfitter_cfg.c **** 			{0xABu, 0x40u},
 623:.\Generated_Source\PSoC5/cyfitter_cfg.c **** 			{0xADu, 0x80u},
 624:.\Generated_Source\PSoC5/cyfitter_cfg.c **** 			{0xB3u, 0x08u},
 625:.\Generated_Source\PSoC5/cyfitter_cfg.c **** 			{0xC0u, 0x02u},
 626:.\Generated_Source\PSoC5/cyfitter_cfg.c **** 			{0xC2u, 0x0Cu},
 627:.\Generated_Source\PSoC5/cyfitter_cfg.c **** 			{0xC4u, 0x04u},
 628:.\Generated_Source\PSoC5/cyfitter_cfg.c **** 			{0xCAu, 0x0Fu},
 629:.\Generated_Source\PSoC5/cyfitter_cfg.c **** 			{0xCCu, 0x2Eu},
 630:.\Generated_Source\PSoC5/cyfitter_cfg.c **** 			{0xCEu, 0x2Eu},
 631:.\Generated_Source\PSoC5/cyfitter_cfg.c **** 			{0xD0u, 0x97u},
 632:.\Generated_Source\PSoC5/cyfitter_cfg.c **** 			{0xD2u, 0x0Cu},
 633:.\Generated_Source\PSoC5/cyfitter_cfg.c **** 			{0xD6u, 0xD0u},
 634:.\Generated_Source\PSoC5/cyfitter_cfg.c **** 			{0xD8u, 0x82u},
 635:.\Generated_Source\PSoC5/cyfitter_cfg.c **** 			{0xE2u, 0x80u},
 636:.\Generated_Source\PSoC5/cyfitter_cfg.c **** 			{0xEAu, 0x20u},
 637:.\Generated_Source\PSoC5/cyfitter_cfg.c **** 			{0x00u, 0x0Du},
 638:.\Generated_Source\PSoC5/cyfitter_cfg.c **** 			{0x04u, 0x0Du},
 639:.\Generated_Source\PSoC5/cyfitter_cfg.c **** 			{0x05u, 0x02u},
ARM GAS  C:\Users\khjtony\AppData\Local\Temp\ccGsdxSj.s 			page 22


 640:.\Generated_Source\PSoC5/cyfitter_cfg.c **** 			{0x08u, 0x02u},
 641:.\Generated_Source\PSoC5/cyfitter_cfg.c **** 			{0x09u, 0x02u},
 642:.\Generated_Source\PSoC5/cyfitter_cfg.c **** 			{0x0Au, 0x0Du},
 643:.\Generated_Source\PSoC5/cyfitter_cfg.c **** 			{0x0Cu, 0x0Du},
 644:.\Generated_Source\PSoC5/cyfitter_cfg.c **** 			{0x0Du, 0x02u},
 645:.\Generated_Source\PSoC5/cyfitter_cfg.c **** 			{0x10u, 0x01u},
 646:.\Generated_Source\PSoC5/cyfitter_cfg.c **** 			{0x12u, 0x12u},
 647:.\Generated_Source\PSoC5/cyfitter_cfg.c **** 			{0x13u, 0x02u},
 648:.\Generated_Source\PSoC5/cyfitter_cfg.c **** 			{0x14u, 0x12u},
 649:.\Generated_Source\PSoC5/cyfitter_cfg.c **** 			{0x15u, 0x01u},
 650:.\Generated_Source\PSoC5/cyfitter_cfg.c **** 			{0x16u, 0x04u},
 651:.\Generated_Source\PSoC5/cyfitter_cfg.c **** 			{0x18u, 0x0Du},
 652:.\Generated_Source\PSoC5/cyfitter_cfg.c **** 			{0x19u, 0x01u},
 653:.\Generated_Source\PSoC5/cyfitter_cfg.c **** 			{0x1Du, 0x02u},
 654:.\Generated_Source\PSoC5/cyfitter_cfg.c **** 			{0x24u, 0x02u},
 655:.\Generated_Source\PSoC5/cyfitter_cfg.c **** 			{0x26u, 0x18u},
 656:.\Generated_Source\PSoC5/cyfitter_cfg.c **** 			{0x29u, 0x01u},
 657:.\Generated_Source\PSoC5/cyfitter_cfg.c **** 			{0x2Cu, 0x0Du},
 658:.\Generated_Source\PSoC5/cyfitter_cfg.c **** 			{0x31u, 0x02u},
 659:.\Generated_Source\PSoC5/cyfitter_cfg.c **** 			{0x32u, 0x0Fu},
 660:.\Generated_Source\PSoC5/cyfitter_cfg.c **** 			{0x36u, 0x10u},
 661:.\Generated_Source\PSoC5/cyfitter_cfg.c **** 			{0x37u, 0x01u},
 662:.\Generated_Source\PSoC5/cyfitter_cfg.c **** 			{0x3Au, 0x08u},
 663:.\Generated_Source\PSoC5/cyfitter_cfg.c **** 			{0x3Eu, 0x40u},
 664:.\Generated_Source\PSoC5/cyfitter_cfg.c **** 			{0x3Fu, 0x41u},
 665:.\Generated_Source\PSoC5/cyfitter_cfg.c **** 			{0x54u, 0x09u},
 666:.\Generated_Source\PSoC5/cyfitter_cfg.c **** 			{0x56u, 0x04u},
 667:.\Generated_Source\PSoC5/cyfitter_cfg.c **** 			{0x58u, 0x04u},
 668:.\Generated_Source\PSoC5/cyfitter_cfg.c **** 			{0x59u, 0x04u},
 669:.\Generated_Source\PSoC5/cyfitter_cfg.c **** 			{0x5Bu, 0x04u},
 670:.\Generated_Source\PSoC5/cyfitter_cfg.c **** 			{0x5Fu, 0x01u},
 671:.\Generated_Source\PSoC5/cyfitter_cfg.c **** 			{0x82u, 0x01u},
 672:.\Generated_Source\PSoC5/cyfitter_cfg.c **** 			{0x96u, 0x01u},
 673:.\Generated_Source\PSoC5/cyfitter_cfg.c **** 			{0x9Bu, 0x03u},
 674:.\Generated_Source\PSoC5/cyfitter_cfg.c **** 			{0x9Fu, 0x02u},
 675:.\Generated_Source\PSoC5/cyfitter_cfg.c **** 			{0xA1u, 0x01u},
 676:.\Generated_Source\PSoC5/cyfitter_cfg.c **** 			{0xABu, 0x03u},
 677:.\Generated_Source\PSoC5/cyfitter_cfg.c **** 			{0xB0u, 0x01u},
 678:.\Generated_Source\PSoC5/cyfitter_cfg.c **** 			{0xB7u, 0x03u},
 679:.\Generated_Source\PSoC5/cyfitter_cfg.c **** 			{0xBEu, 0x01u},
 680:.\Generated_Source\PSoC5/cyfitter_cfg.c **** 			{0xC0u, 0x46u},
 681:.\Generated_Source\PSoC5/cyfitter_cfg.c **** 			{0xC5u, 0xECu},
 682:.\Generated_Source\PSoC5/cyfitter_cfg.c **** 			{0xC6u, 0x20u},
 683:.\Generated_Source\PSoC5/cyfitter_cfg.c **** 			{0xC8u, 0x0Bu},
 684:.\Generated_Source\PSoC5/cyfitter_cfg.c **** 			{0xC9u, 0xFFu},
 685:.\Generated_Source\PSoC5/cyfitter_cfg.c **** 			{0xCAu, 0xFFu},
 686:.\Generated_Source\PSoC5/cyfitter_cfg.c **** 			{0xCBu, 0xFFu},
 687:.\Generated_Source\PSoC5/cyfitter_cfg.c **** 			{0xCFu, 0x01u},
 688:.\Generated_Source\PSoC5/cyfitter_cfg.c **** 			{0xD0u, 0x18u},
 689:.\Generated_Source\PSoC5/cyfitter_cfg.c **** 			{0xD2u, 0x80u},
 690:.\Generated_Source\PSoC5/cyfitter_cfg.c **** 			{0xD4u, 0x01u},
 691:.\Generated_Source\PSoC5/cyfitter_cfg.c **** 			{0xD6u, 0x04u},
 692:.\Generated_Source\PSoC5/cyfitter_cfg.c **** 			{0xD8u, 0x04u},
 693:.\Generated_Source\PSoC5/cyfitter_cfg.c **** 			{0xD9u, 0x04u},
 694:.\Generated_Source\PSoC5/cyfitter_cfg.c **** 			{0xDAu, 0x04u},
 695:.\Generated_Source\PSoC5/cyfitter_cfg.c **** 			{0xDBu, 0x04u},
 696:.\Generated_Source\PSoC5/cyfitter_cfg.c **** 			{0xDDu, 0x11u},
ARM GAS  C:\Users\khjtony\AppData\Local\Temp\ccGsdxSj.s 			page 23


 697:.\Generated_Source\PSoC5/cyfitter_cfg.c **** 			{0xDFu, 0x01u},
 698:.\Generated_Source\PSoC5/cyfitter_cfg.c **** 			{0xE0u, 0x40u},
 699:.\Generated_Source\PSoC5/cyfitter_cfg.c **** 			{0xE2u, 0x40u},
 700:.\Generated_Source\PSoC5/cyfitter_cfg.c **** 			{0xE4u, 0x40u},
 701:.\Generated_Source\PSoC5/cyfitter_cfg.c **** 			{0xE5u, 0x40u},
 702:.\Generated_Source\PSoC5/cyfitter_cfg.c **** 			{0xE6u, 0x80u},
 703:.\Generated_Source\PSoC5/cyfitter_cfg.c **** 			{0xE8u, 0x80u},
 704:.\Generated_Source\PSoC5/cyfitter_cfg.c **** 			{0xEAu, 0x80u},
 705:.\Generated_Source\PSoC5/cyfitter_cfg.c **** 			{0xECu, 0x80u},
 706:.\Generated_Source\PSoC5/cyfitter_cfg.c **** 			{0xEEu, 0x80u},
 707:.\Generated_Source\PSoC5/cyfitter_cfg.c **** 			{0x00u, 0x58u},
 708:.\Generated_Source\PSoC5/cyfitter_cfg.c **** 			{0x03u, 0x40u},
 709:.\Generated_Source\PSoC5/cyfitter_cfg.c **** 			{0x06u, 0x80u},
 710:.\Generated_Source\PSoC5/cyfitter_cfg.c **** 			{0x09u, 0x08u},
 711:.\Generated_Source\PSoC5/cyfitter_cfg.c **** 			{0x0Au, 0x84u},
 712:.\Generated_Source\PSoC5/cyfitter_cfg.c **** 			{0x0Bu, 0x80u},
 713:.\Generated_Source\PSoC5/cyfitter_cfg.c **** 			{0x0Fu, 0x20u},
 714:.\Generated_Source\PSoC5/cyfitter_cfg.c **** 			{0x10u, 0x02u},
 715:.\Generated_Source\PSoC5/cyfitter_cfg.c **** 			{0x12u, 0x20u},
 716:.\Generated_Source\PSoC5/cyfitter_cfg.c **** 			{0x13u, 0x08u},
 717:.\Generated_Source\PSoC5/cyfitter_cfg.c **** 			{0x18u, 0x10u},
 718:.\Generated_Source\PSoC5/cyfitter_cfg.c **** 			{0x19u, 0x40u},
 719:.\Generated_Source\PSoC5/cyfitter_cfg.c **** 			{0x1Eu, 0x80u},
 720:.\Generated_Source\PSoC5/cyfitter_cfg.c **** 			{0x21u, 0x82u},
 721:.\Generated_Source\PSoC5/cyfitter_cfg.c **** 			{0x22u, 0x01u},
 722:.\Generated_Source\PSoC5/cyfitter_cfg.c **** 			{0x26u, 0x80u},
 723:.\Generated_Source\PSoC5/cyfitter_cfg.c **** 			{0x29u, 0x20u},
 724:.\Generated_Source\PSoC5/cyfitter_cfg.c **** 			{0x2Eu, 0x20u},
 725:.\Generated_Source\PSoC5/cyfitter_cfg.c **** 			{0x2Fu, 0x40u},
 726:.\Generated_Source\PSoC5/cyfitter_cfg.c **** 			{0x30u, 0x02u},
 727:.\Generated_Source\PSoC5/cyfitter_cfg.c **** 			{0x31u, 0x08u},
 728:.\Generated_Source\PSoC5/cyfitter_cfg.c **** 			{0x32u, 0x20u},
 729:.\Generated_Source\PSoC5/cyfitter_cfg.c **** 			{0x33u, 0x40u},
 730:.\Generated_Source\PSoC5/cyfitter_cfg.c **** 			{0x36u, 0xA0u},
 731:.\Generated_Source\PSoC5/cyfitter_cfg.c **** 			{0x38u, 0xC0u},
 732:.\Generated_Source\PSoC5/cyfitter_cfg.c **** 			{0x39u, 0x18u},
 733:.\Generated_Source\PSoC5/cyfitter_cfg.c **** 			{0x46u, 0x80u},
 734:.\Generated_Source\PSoC5/cyfitter_cfg.c **** 			{0x4Du, 0x05u},
 735:.\Generated_Source\PSoC5/cyfitter_cfg.c **** 			{0x4Fu, 0x20u},
 736:.\Generated_Source\PSoC5/cyfitter_cfg.c **** 			{0x57u, 0x10u},
 737:.\Generated_Source\PSoC5/cyfitter_cfg.c **** 			{0x58u, 0x20u},
 738:.\Generated_Source\PSoC5/cyfitter_cfg.c **** 			{0x59u, 0x48u},
 739:.\Generated_Source\PSoC5/cyfitter_cfg.c **** 			{0x5Au, 0x02u},
 740:.\Generated_Source\PSoC5/cyfitter_cfg.c **** 			{0x5Du, 0x05u},
 741:.\Generated_Source\PSoC5/cyfitter_cfg.c **** 			{0x5Eu, 0x80u},
 742:.\Generated_Source\PSoC5/cyfitter_cfg.c **** 			{0x61u, 0x80u},
 743:.\Generated_Source\PSoC5/cyfitter_cfg.c **** 			{0x63u, 0x40u},
 744:.\Generated_Source\PSoC5/cyfitter_cfg.c **** 			{0x65u, 0x02u},
 745:.\Generated_Source\PSoC5/cyfitter_cfg.c **** 			{0x76u, 0x80u},
 746:.\Generated_Source\PSoC5/cyfitter_cfg.c **** 			{0x85u, 0x02u},
 747:.\Generated_Source\PSoC5/cyfitter_cfg.c **** 			{0x87u, 0x40u},
 748:.\Generated_Source\PSoC5/cyfitter_cfg.c **** 			{0x90u, 0x80u},
 749:.\Generated_Source\PSoC5/cyfitter_cfg.c **** 			{0x91u, 0x18u},
 750:.\Generated_Source\PSoC5/cyfitter_cfg.c **** 			{0x92u, 0x84u},
 751:.\Generated_Source\PSoC5/cyfitter_cfg.c **** 			{0x98u, 0x20u},
 752:.\Generated_Source\PSoC5/cyfitter_cfg.c **** 			{0x99u, 0x28u},
 753:.\Generated_Source\PSoC5/cyfitter_cfg.c **** 			{0x9Au, 0x20u},
ARM GAS  C:\Users\khjtony\AppData\Local\Temp\ccGsdxSj.s 			page 24


 754:.\Generated_Source\PSoC5/cyfitter_cfg.c **** 			{0x9Bu, 0x48u},
 755:.\Generated_Source\PSoC5/cyfitter_cfg.c **** 			{0xA0u, 0x06u},
 756:.\Generated_Source\PSoC5/cyfitter_cfg.c **** 			{0xA1u, 0x08u},
 757:.\Generated_Source\PSoC5/cyfitter_cfg.c **** 			{0xA5u, 0x02u},
 758:.\Generated_Source\PSoC5/cyfitter_cfg.c **** 			{0xA6u, 0x80u},
 759:.\Generated_Source\PSoC5/cyfitter_cfg.c **** 			{0xB5u, 0x20u},
 760:.\Generated_Source\PSoC5/cyfitter_cfg.c **** 			{0xB6u, 0x40u},
 761:.\Generated_Source\PSoC5/cyfitter_cfg.c **** 			{0xC0u, 0x1Fu},
 762:.\Generated_Source\PSoC5/cyfitter_cfg.c **** 			{0xC2u, 0x2Eu},
 763:.\Generated_Source\PSoC5/cyfitter_cfg.c **** 			{0xC4u, 0x05u},
 764:.\Generated_Source\PSoC5/cyfitter_cfg.c **** 			{0xCAu, 0xA4u},
 765:.\Generated_Source\PSoC5/cyfitter_cfg.c **** 			{0xCCu, 0x3Fu},
 766:.\Generated_Source\PSoC5/cyfitter_cfg.c **** 			{0xCEu, 0x0Eu},
 767:.\Generated_Source\PSoC5/cyfitter_cfg.c **** 			{0xD0u, 0x80u},
 768:.\Generated_Source\PSoC5/cyfitter_cfg.c **** 			{0xD2u, 0x20u},
 769:.\Generated_Source\PSoC5/cyfitter_cfg.c **** 			{0xD6u, 0xDFu},
 770:.\Generated_Source\PSoC5/cyfitter_cfg.c **** 			{0xD8u, 0x89u},
 771:.\Generated_Source\PSoC5/cyfitter_cfg.c **** 			{0xE8u, 0x80u},
 772:.\Generated_Source\PSoC5/cyfitter_cfg.c **** 			{0xEAu, 0x01u},
 773:.\Generated_Source\PSoC5/cyfitter_cfg.c **** 			{0xEEu, 0x08u},
 774:.\Generated_Source\PSoC5/cyfitter_cfg.c **** 			{0x9Cu, 0x20u},
 775:.\Generated_Source\PSoC5/cyfitter_cfg.c **** 			{0xA8u, 0x01u},
 776:.\Generated_Source\PSoC5/cyfitter_cfg.c **** 			{0xAFu, 0x01u},
 777:.\Generated_Source\PSoC5/cyfitter_cfg.c **** 			{0x04u, 0x01u},
 778:.\Generated_Source\PSoC5/cyfitter_cfg.c **** 			{0x06u, 0x06u},
 779:.\Generated_Source\PSoC5/cyfitter_cfg.c **** 			{0x14u, 0x02u},
 780:.\Generated_Source\PSoC5/cyfitter_cfg.c **** 			{0x16u, 0x01u},
 781:.\Generated_Source\PSoC5/cyfitter_cfg.c **** 			{0x17u, 0x01u},
 782:.\Generated_Source\PSoC5/cyfitter_cfg.c **** 			{0x18u, 0x10u},
 783:.\Generated_Source\PSoC5/cyfitter_cfg.c **** 			{0x1Au, 0x20u},
 784:.\Generated_Source\PSoC5/cyfitter_cfg.c **** 			{0x24u, 0x20u},
 785:.\Generated_Source\PSoC5/cyfitter_cfg.c **** 			{0x26u, 0x10u},
 786:.\Generated_Source\PSoC5/cyfitter_cfg.c **** 			{0x27u, 0x02u},
 787:.\Generated_Source\PSoC5/cyfitter_cfg.c **** 			{0x2Eu, 0x08u},
 788:.\Generated_Source\PSoC5/cyfitter_cfg.c **** 			{0x30u, 0x03u},
 789:.\Generated_Source\PSoC5/cyfitter_cfg.c **** 			{0x32u, 0x04u},
 790:.\Generated_Source\PSoC5/cyfitter_cfg.c **** 			{0x33u, 0x02u},
 791:.\Generated_Source\PSoC5/cyfitter_cfg.c **** 			{0x34u, 0x08u},
 792:.\Generated_Source\PSoC5/cyfitter_cfg.c **** 			{0x35u, 0x01u},
 793:.\Generated_Source\PSoC5/cyfitter_cfg.c **** 			{0x36u, 0x30u},
 794:.\Generated_Source\PSoC5/cyfitter_cfg.c **** 			{0x58u, 0x04u},
 795:.\Generated_Source\PSoC5/cyfitter_cfg.c **** 			{0x59u, 0x04u},
 796:.\Generated_Source\PSoC5/cyfitter_cfg.c **** 			{0x5Cu, 0x22u},
 797:.\Generated_Source\PSoC5/cyfitter_cfg.c **** 			{0x5Fu, 0x01u},
 798:.\Generated_Source\PSoC5/cyfitter_cfg.c **** 			{0x03u, 0x20u},
 799:.\Generated_Source\PSoC5/cyfitter_cfg.c **** 			{0x0Au, 0x18u},
 800:.\Generated_Source\PSoC5/cyfitter_cfg.c **** 			{0x10u, 0x02u},
 801:.\Generated_Source\PSoC5/cyfitter_cfg.c **** 			{0x13u, 0x08u},
 802:.\Generated_Source\PSoC5/cyfitter_cfg.c **** 			{0x18u, 0x01u},
 803:.\Generated_Source\PSoC5/cyfitter_cfg.c **** 			{0x1Au, 0x10u},
 804:.\Generated_Source\PSoC5/cyfitter_cfg.c **** 			{0x1Bu, 0x21u},
 805:.\Generated_Source\PSoC5/cyfitter_cfg.c **** 			{0x22u, 0x04u},
 806:.\Generated_Source\PSoC5/cyfitter_cfg.c **** 			{0x23u, 0x08u},
 807:.\Generated_Source\PSoC5/cyfitter_cfg.c **** 			{0x28u, 0x20u},
 808:.\Generated_Source\PSoC5/cyfitter_cfg.c **** 			{0x32u, 0x04u},
 809:.\Generated_Source\PSoC5/cyfitter_cfg.c **** 			{0xA0u, 0x02u},
 810:.\Generated_Source\PSoC5/cyfitter_cfg.c **** 			{0xC0u, 0x04u},
ARM GAS  C:\Users\khjtony\AppData\Local\Temp\ccGsdxSj.s 			page 25


 811:.\Generated_Source\PSoC5/cyfitter_cfg.c **** 			{0xC2u, 0x06u},
 812:.\Generated_Source\PSoC5/cyfitter_cfg.c **** 			{0xC4u, 0x05u},
 813:.\Generated_Source\PSoC5/cyfitter_cfg.c **** 			{0xCAu, 0x02u},
 814:.\Generated_Source\PSoC5/cyfitter_cfg.c **** 			{0xCCu, 0x02u},
 815:.\Generated_Source\PSoC5/cyfitter_cfg.c **** 			{0xE8u, 0x80u},
 816:.\Generated_Source\PSoC5/cyfitter_cfg.c **** 			{0xA0u, 0x02u},
 817:.\Generated_Source\PSoC5/cyfitter_cfg.c **** 			{0xB0u, 0x02u},
 818:.\Generated_Source\PSoC5/cyfitter_cfg.c **** 			{0x40u, 0x41u},
 819:.\Generated_Source\PSoC5/cyfitter_cfg.c **** 			{0x49u, 0xFFu},
 820:.\Generated_Source\PSoC5/cyfitter_cfg.c **** 			{0x4Au, 0xFFu},
 821:.\Generated_Source\PSoC5/cyfitter_cfg.c **** 			{0x4Bu, 0xFFu},
 822:.\Generated_Source\PSoC5/cyfitter_cfg.c **** 			{0x4Fu, 0x01u},
 823:.\Generated_Source\PSoC5/cyfitter_cfg.c **** 			{0x50u, 0x18u},
 824:.\Generated_Source\PSoC5/cyfitter_cfg.c **** 			{0x52u, 0x80u},
 825:.\Generated_Source\PSoC5/cyfitter_cfg.c **** 			{0x5Au, 0x04u},
 826:.\Generated_Source\PSoC5/cyfitter_cfg.c **** 			{0x5Bu, 0x04u},
 827:.\Generated_Source\PSoC5/cyfitter_cfg.c **** 			{0x5Du, 0x11u},
 828:.\Generated_Source\PSoC5/cyfitter_cfg.c **** 			{0x5Fu, 0x01u},
 829:.\Generated_Source\PSoC5/cyfitter_cfg.c **** 			{0x60u, 0x40u},
 830:.\Generated_Source\PSoC5/cyfitter_cfg.c **** 			{0x62u, 0x40u},
 831:.\Generated_Source\PSoC5/cyfitter_cfg.c **** 			{0x64u, 0x40u},
 832:.\Generated_Source\PSoC5/cyfitter_cfg.c **** 			{0x65u, 0x40u},
 833:.\Generated_Source\PSoC5/cyfitter_cfg.c **** 			{0x66u, 0x80u},
 834:.\Generated_Source\PSoC5/cyfitter_cfg.c **** 			{0x68u, 0x80u},
 835:.\Generated_Source\PSoC5/cyfitter_cfg.c **** 			{0x6Au, 0x80u},
 836:.\Generated_Source\PSoC5/cyfitter_cfg.c **** 			{0x6Cu, 0x80u},
 837:.\Generated_Source\PSoC5/cyfitter_cfg.c **** 			{0x6Eu, 0x80u},
 838:.\Generated_Source\PSoC5/cyfitter_cfg.c **** 			{0x82u, 0x01u},
 839:.\Generated_Source\PSoC5/cyfitter_cfg.c **** 			{0x92u, 0x01u},
 840:.\Generated_Source\PSoC5/cyfitter_cfg.c **** 			{0xB0u, 0x01u},
 841:.\Generated_Source\PSoC5/cyfitter_cfg.c **** 			{0xBEu, 0x01u},
 842:.\Generated_Source\PSoC5/cyfitter_cfg.c **** 			{0xC0u, 0x14u},
 843:.\Generated_Source\PSoC5/cyfitter_cfg.c **** 			{0xC5u, 0xECu},
 844:.\Generated_Source\PSoC5/cyfitter_cfg.c **** 			{0xC6u, 0x02u},
 845:.\Generated_Source\PSoC5/cyfitter_cfg.c **** 			{0xC8u, 0x07u},
 846:.\Generated_Source\PSoC5/cyfitter_cfg.c **** 			{0xC9u, 0xFFu},
 847:.\Generated_Source\PSoC5/cyfitter_cfg.c **** 			{0xCAu, 0xFFu},
 848:.\Generated_Source\PSoC5/cyfitter_cfg.c **** 			{0xCBu, 0xFFu},
 849:.\Generated_Source\PSoC5/cyfitter_cfg.c **** 			{0xCDu, 0x83u},
 850:.\Generated_Source\PSoC5/cyfitter_cfg.c **** 			{0xCEu, 0x03u},
 851:.\Generated_Source\PSoC5/cyfitter_cfg.c **** 			{0xCFu, 0x01u},
 852:.\Generated_Source\PSoC5/cyfitter_cfg.c **** 			{0xD0u, 0x18u},
 853:.\Generated_Source\PSoC5/cyfitter_cfg.c **** 			{0xD4u, 0x01u},
 854:.\Generated_Source\PSoC5/cyfitter_cfg.c **** 			{0xD6u, 0x04u},
 855:.\Generated_Source\PSoC5/cyfitter_cfg.c **** 			{0xD8u, 0x04u},
 856:.\Generated_Source\PSoC5/cyfitter_cfg.c **** 			{0xDAu, 0x04u},
 857:.\Generated_Source\PSoC5/cyfitter_cfg.c **** 			{0xDBu, 0x04u},
 858:.\Generated_Source\PSoC5/cyfitter_cfg.c **** 			{0xDDu, 0x11u},
 859:.\Generated_Source\PSoC5/cyfitter_cfg.c **** 			{0xDFu, 0x01u},
 860:.\Generated_Source\PSoC5/cyfitter_cfg.c **** 			{0xE0u, 0x40u},
 861:.\Generated_Source\PSoC5/cyfitter_cfg.c **** 			{0xE2u, 0x40u},
 862:.\Generated_Source\PSoC5/cyfitter_cfg.c **** 			{0xE4u, 0x40u},
 863:.\Generated_Source\PSoC5/cyfitter_cfg.c **** 			{0xE5u, 0x40u},
 864:.\Generated_Source\PSoC5/cyfitter_cfg.c **** 			{0xE6u, 0x80u},
 865:.\Generated_Source\PSoC5/cyfitter_cfg.c **** 			{0xE8u, 0x80u},
 866:.\Generated_Source\PSoC5/cyfitter_cfg.c **** 			{0xEAu, 0x80u},
 867:.\Generated_Source\PSoC5/cyfitter_cfg.c **** 			{0xECu, 0x80u},
ARM GAS  C:\Users\khjtony\AppData\Local\Temp\ccGsdxSj.s 			page 26


 868:.\Generated_Source\PSoC5/cyfitter_cfg.c **** 			{0xEEu, 0x80u},
 869:.\Generated_Source\PSoC5/cyfitter_cfg.c **** 			{0x06u, 0x40u},
 870:.\Generated_Source\PSoC5/cyfitter_cfg.c **** 			{0x0Du, 0x02u},
 871:.\Generated_Source\PSoC5/cyfitter_cfg.c **** 			{0x1Eu, 0x80u},
 872:.\Generated_Source\PSoC5/cyfitter_cfg.c **** 			{0x41u, 0x02u},
 873:.\Generated_Source\PSoC5/cyfitter_cfg.c **** 			{0x43u, 0x80u},
 874:.\Generated_Source\PSoC5/cyfitter_cfg.c **** 			{0x46u, 0x40u},
 875:.\Generated_Source\PSoC5/cyfitter_cfg.c **** 			{0x47u, 0x80u},
 876:.\Generated_Source\PSoC5/cyfitter_cfg.c **** 			{0x4Du, 0x04u},
 877:.\Generated_Source\PSoC5/cyfitter_cfg.c **** 			{0x4Fu, 0x01u},
 878:.\Generated_Source\PSoC5/cyfitter_cfg.c **** 			{0x56u, 0x40u},
 879:.\Generated_Source\PSoC5/cyfitter_cfg.c **** 			{0x57u, 0x80u},
 880:.\Generated_Source\PSoC5/cyfitter_cfg.c **** 			{0x5Du, 0x04u},
 881:.\Generated_Source\PSoC5/cyfitter_cfg.c **** 			{0x5Eu, 0x80u},
 882:.\Generated_Source\PSoC5/cyfitter_cfg.c **** 			{0x5Fu, 0x01u},
 883:.\Generated_Source\PSoC5/cyfitter_cfg.c **** 			{0x67u, 0x80u},
 884:.\Generated_Source\PSoC5/cyfitter_cfg.c **** 			{0x71u, 0x02u},
 885:.\Generated_Source\PSoC5/cyfitter_cfg.c **** 			{0x73u, 0x80u},
 886:.\Generated_Source\PSoC5/cyfitter_cfg.c **** 			{0x87u, 0x40u},
 887:.\Generated_Source\PSoC5/cyfitter_cfg.c **** 			{0xC0u, 0x10u},
 888:.\Generated_Source\PSoC5/cyfitter_cfg.c **** 			{0xC2u, 0x10u},
 889:.\Generated_Source\PSoC5/cyfitter_cfg.c **** 			{0xD0u, 0x99u},
 890:.\Generated_Source\PSoC5/cyfitter_cfg.c **** 			{0xD6u, 0xD0u},
 891:.\Generated_Source\PSoC5/cyfitter_cfg.c **** 			{0xD8u, 0x80u},
 892:.\Generated_Source\PSoC5/cyfitter_cfg.c **** 			{0xE2u, 0x10u},
 893:.\Generated_Source\PSoC5/cyfitter_cfg.c **** 			{0x9Cu, 0x20u},
 894:.\Generated_Source\PSoC5/cyfitter_cfg.c **** 			{0x8Cu, 0x20u},
 895:.\Generated_Source\PSoC5/cyfitter_cfg.c **** 			{0x9Cu, 0x20u},
 896:.\Generated_Source\PSoC5/cyfitter_cfg.c **** 			{0xE2u, 0x10u},
 897:.\Generated_Source\PSoC5/cyfitter_cfg.c **** 			{0x0Bu, 0x10u},
 898:.\Generated_Source\PSoC5/cyfitter_cfg.c **** 			{0x0Du, 0x20u},
 899:.\Generated_Source\PSoC5/cyfitter_cfg.c **** 			{0x33u, 0x82u},
 900:.\Generated_Source\PSoC5/cyfitter_cfg.c **** 			{0x37u, 0x12u},
 901:.\Generated_Source\PSoC5/cyfitter_cfg.c **** 			{0x3Bu, 0x20u},
 902:.\Generated_Source\PSoC5/cyfitter_cfg.c **** 			{0x59u, 0x40u},
 903:.\Generated_Source\PSoC5/cyfitter_cfg.c **** 			{0x5Fu, 0x80u},
 904:.\Generated_Source\PSoC5/cyfitter_cfg.c **** 			{0x66u, 0x08u},
 905:.\Generated_Source\PSoC5/cyfitter_cfg.c **** 			{0x87u, 0x02u},
 906:.\Generated_Source\PSoC5/cyfitter_cfg.c **** 			{0xC2u, 0x90u},
 907:.\Generated_Source\PSoC5/cyfitter_cfg.c **** 			{0xCCu, 0xF0u},
 908:.\Generated_Source\PSoC5/cyfitter_cfg.c **** 			{0xCEu, 0x10u},
 909:.\Generated_Source\PSoC5/cyfitter_cfg.c **** 			{0xD4u, 0x80u},
 910:.\Generated_Source\PSoC5/cyfitter_cfg.c **** 			{0xD6u, 0x20u},
 911:.\Generated_Source\PSoC5/cyfitter_cfg.c **** 			{0xD8u, 0x80u},
 912:.\Generated_Source\PSoC5/cyfitter_cfg.c **** 			{0xE6u, 0x40u},
 913:.\Generated_Source\PSoC5/cyfitter_cfg.c **** 			{0x05u, 0x02u},
 914:.\Generated_Source\PSoC5/cyfitter_cfg.c **** 			{0x32u, 0x02u},
 915:.\Generated_Source\PSoC5/cyfitter_cfg.c **** 			{0x33u, 0x20u},
 916:.\Generated_Source\PSoC5/cyfitter_cfg.c **** 			{0x36u, 0x20u},
 917:.\Generated_Source\PSoC5/cyfitter_cfg.c **** 			{0x57u, 0x10u},
 918:.\Generated_Source\PSoC5/cyfitter_cfg.c **** 			{0x82u, 0x20u},
 919:.\Generated_Source\PSoC5/cyfitter_cfg.c **** 			{0x83u, 0x10u},
 920:.\Generated_Source\PSoC5/cyfitter_cfg.c **** 			{0x89u, 0x40u},
 921:.\Generated_Source\PSoC5/cyfitter_cfg.c **** 			{0x97u, 0x20u},
 922:.\Generated_Source\PSoC5/cyfitter_cfg.c **** 			{0x9Du, 0x40u},
 923:.\Generated_Source\PSoC5/cyfitter_cfg.c **** 			{0x9Fu, 0x10u},
 924:.\Generated_Source\PSoC5/cyfitter_cfg.c **** 			{0xA7u, 0x82u},
ARM GAS  C:\Users\khjtony\AppData\Local\Temp\ccGsdxSj.s 			page 27


 925:.\Generated_Source\PSoC5/cyfitter_cfg.c **** 			{0xA9u, 0x20u},
 926:.\Generated_Source\PSoC5/cyfitter_cfg.c **** 			{0xABu, 0x80u},
 927:.\Generated_Source\PSoC5/cyfitter_cfg.c **** 			{0xAFu, 0x10u},
 928:.\Generated_Source\PSoC5/cyfitter_cfg.c **** 			{0xB2u, 0x08u},
 929:.\Generated_Source\PSoC5/cyfitter_cfg.c **** 			{0xC0u, 0x20u},
 930:.\Generated_Source\PSoC5/cyfitter_cfg.c **** 			{0xCCu, 0x70u},
 931:.\Generated_Source\PSoC5/cyfitter_cfg.c **** 			{0xD4u, 0x40u},
 932:.\Generated_Source\PSoC5/cyfitter_cfg.c **** 			{0xE2u, 0x20u},
 933:.\Generated_Source\PSoC5/cyfitter_cfg.c **** 			{0xE6u, 0x80u},
 934:.\Generated_Source\PSoC5/cyfitter_cfg.c **** 			{0xE8u, 0x30u},
 935:.\Generated_Source\PSoC5/cyfitter_cfg.c **** 			{0xEAu, 0x80u},
 936:.\Generated_Source\PSoC5/cyfitter_cfg.c **** 			{0x87u, 0x90u},
 937:.\Generated_Source\PSoC5/cyfitter_cfg.c **** 			{0x97u, 0x20u},
 938:.\Generated_Source\PSoC5/cyfitter_cfg.c **** 			{0xA6u, 0x02u},
 939:.\Generated_Source\PSoC5/cyfitter_cfg.c **** 			{0xA7u, 0xB2u},
 940:.\Generated_Source\PSoC5/cyfitter_cfg.c **** 			{0xB1u, 0x02u},
 941:.\Generated_Source\PSoC5/cyfitter_cfg.c **** 			{0xE6u, 0x50u},
 942:.\Generated_Source\PSoC5/cyfitter_cfg.c **** 			{0xA7u, 0x12u},
 943:.\Generated_Source\PSoC5/cyfitter_cfg.c **** 			{0xAAu, 0x02u},
 944:.\Generated_Source\PSoC5/cyfitter_cfg.c **** 			{0xAFu, 0x20u},
 945:.\Generated_Source\PSoC5/cyfitter_cfg.c **** 			{0xEAu, 0x80u},
 946:.\Generated_Source\PSoC5/cyfitter_cfg.c **** 			{0xEEu, 0x10u},
 947:.\Generated_Source\PSoC5/cyfitter_cfg.c **** 			{0x0Cu, 0x80u},
 948:.\Generated_Source\PSoC5/cyfitter_cfg.c **** 			{0xC2u, 0x01u},
 949:.\Generated_Source\PSoC5/cyfitter_cfg.c **** 			{0xB0u, 0x80u},
 950:.\Generated_Source\PSoC5/cyfitter_cfg.c **** 			{0xEEu, 0x01u},
 951:.\Generated_Source\PSoC5/cyfitter_cfg.c **** 			{0x98u, 0x20u},
 952:.\Generated_Source\PSoC5/cyfitter_cfg.c **** 			{0xB0u, 0x20u},
 953:.\Generated_Source\PSoC5/cyfitter_cfg.c **** 			{0xE8u, 0x01u},
 954:.\Generated_Source\PSoC5/cyfitter_cfg.c **** 			{0x98u, 0x20u},
 955:.\Generated_Source\PSoC5/cyfitter_cfg.c **** 			{0xA7u, 0x12u},
 956:.\Generated_Source\PSoC5/cyfitter_cfg.c **** 			{0x87u, 0x02u},
 957:.\Generated_Source\PSoC5/cyfitter_cfg.c **** 			{0x8Fu, 0x10u},
 958:.\Generated_Source\PSoC5/cyfitter_cfg.c **** 			{0xA7u, 0x12u},
 959:.\Generated_Source\PSoC5/cyfitter_cfg.c **** 			{0xE2u, 0x10u},
 960:.\Generated_Source\PSoC5/cyfitter_cfg.c **** 			{0x98u, 0x20u},
 961:.\Generated_Source\PSoC5/cyfitter_cfg.c **** 			{0x01u, 0x02u},
 962:.\Generated_Source\PSoC5/cyfitter_cfg.c **** 			{0x18u, 0x10u},
 963:.\Generated_Source\PSoC5/cyfitter_cfg.c **** 			{0x78u, 0x20u},
 964:.\Generated_Source\PSoC5/cyfitter_cfg.c **** 			{0x8Cu, 0x10u},
 965:.\Generated_Source\PSoC5/cyfitter_cfg.c **** 			{0x8Du, 0x02u},
 966:.\Generated_Source\PSoC5/cyfitter_cfg.c **** 			{0x98u, 0x20u},
 967:.\Generated_Source\PSoC5/cyfitter_cfg.c **** 			{0xC0u, 0x08u},
 968:.\Generated_Source\PSoC5/cyfitter_cfg.c **** 			{0xC6u, 0x08u},
 969:.\Generated_Source\PSoC5/cyfitter_cfg.c **** 			{0xDEu, 0x02u},
 970:.\Generated_Source\PSoC5/cyfitter_cfg.c **** 			{0xE2u, 0x0Au},
 971:.\Generated_Source\PSoC5/cyfitter_cfg.c **** 			{0x00u, 0x07u},
 972:.\Generated_Source\PSoC5/cyfitter_cfg.c **** 			{0x01u, 0x01u},
 973:.\Generated_Source\PSoC5/cyfitter_cfg.c **** 			{0x08u, 0x05u},
 974:.\Generated_Source\PSoC5/cyfitter_cfg.c **** 			{0x09u, 0x01u},
 975:.\Generated_Source\PSoC5/cyfitter_cfg.c **** 			{0x0Au, 0x03u},
 976:.\Generated_Source\PSoC5/cyfitter_cfg.c **** 			{0x0Cu, 0x04u},
 977:.\Generated_Source\PSoC5/cyfitter_cfg.c **** 			{0x10u, 0x02u},
 978:.\Generated_Source\PSoC5/cyfitter_cfg.c **** 			{0x1Au, 0x02u},
 979:.\Generated_Source\PSoC5/cyfitter_cfg.c **** 			{0x00u, 0xFFu},
 980:.\Generated_Source\PSoC5/cyfitter_cfg.c **** 			{0x01u, 0xFFu},
 981:.\Generated_Source\PSoC5/cyfitter_cfg.c **** 		};
ARM GAS  C:\Users\khjtony\AppData\Local\Temp\ccGsdxSj.s 			page 28


 982:.\Generated_Source\PSoC5/cyfitter_cfg.c **** 
 983:.\Generated_Source\PSoC5/cyfitter_cfg.c **** 
 984:.\Generated_Source\PSoC5/cyfitter_cfg.c **** 
 985:.\Generated_Source\PSoC5/cyfitter_cfg.c **** 		CYPACKED typedef struct {
 986:.\Generated_Source\PSoC5/cyfitter_cfg.c **** 			void CYFAR *address;
 987:.\Generated_Source\PSoC5/cyfitter_cfg.c **** 			uint16 size;
 988:.\Generated_Source\PSoC5/cyfitter_cfg.c **** 		} CYPACKED_ATTR cfg_memset_t;
 989:.\Generated_Source\PSoC5/cyfitter_cfg.c **** 
 990:.\Generated_Source\PSoC5/cyfitter_cfg.c **** 
 991:.\Generated_Source\PSoC5/cyfitter_cfg.c **** 		CYPACKED typedef struct {
 992:.\Generated_Source\PSoC5/cyfitter_cfg.c **** 			void CYFAR *dest;
 993:.\Generated_Source\PSoC5/cyfitter_cfg.c **** 			const void CYCODE *src;
 994:.\Generated_Source\PSoC5/cyfitter_cfg.c **** 			uint16 size;
 995:.\Generated_Source\PSoC5/cyfitter_cfg.c **** 		} CYPACKED_ATTR cfg_memcpy_t;
 996:.\Generated_Source\PSoC5/cyfitter_cfg.c **** 
 997:.\Generated_Source\PSoC5/cyfitter_cfg.c **** 		static const cfg_memset_t CYCODE cfg_memset_list [] = {
 998:.\Generated_Source\PSoC5/cyfitter_cfg.c **** 			/* address, size */
 999:.\Generated_Source\PSoC5/cyfitter_cfg.c **** 			{(void CYFAR *)(CYREG_PRT1_DR), 16u},
1000:.\Generated_Source\PSoC5/cyfitter_cfg.c **** 			{(void CYFAR *)(CYREG_PRT3_DR), 16u},
1001:.\Generated_Source\PSoC5/cyfitter_cfg.c **** 			{(void CYFAR *)(CYREG_PRT12_DR), 16u},
1002:.\Generated_Source\PSoC5/cyfitter_cfg.c **** 			{(void CYFAR *)(CYREG_PRT15_DR), 16u},
1003:.\Generated_Source\PSoC5/cyfitter_cfg.c **** 			{(void CYFAR *)(CYDEV_UCFG_B0_P0_U0_BASE), 640u},
1004:.\Generated_Source\PSoC5/cyfitter_cfg.c **** 			{(void CYFAR *)(CYDEV_UCFG_B0_P1_ROUTE_BASE), 3328u},
1005:.\Generated_Source\PSoC5/cyfitter_cfg.c **** 			{(void CYFAR *)(CYDEV_UCFG_B1_P2_U0_BASE), 2048u},
1006:.\Generated_Source\PSoC5/cyfitter_cfg.c **** 			{(void CYFAR *)(CYDEV_UCFG_DSI0_BASE), 2560u},
1007:.\Generated_Source\PSoC5/cyfitter_cfg.c **** 			{(void CYFAR *)(CYDEV_UCFG_DSI12_BASE), 512u},
1008:.\Generated_Source\PSoC5/cyfitter_cfg.c **** 			{(void CYFAR *)(CYREG_BCTL0_MDCLK_EN), 32u},
1009:.\Generated_Source\PSoC5/cyfitter_cfg.c **** 		};
1010:.\Generated_Source\PSoC5/cyfitter_cfg.c **** 
1011:.\Generated_Source\PSoC5/cyfitter_cfg.c **** 		/* UDB_1_4_0_CONFIG Address: CYDEV_UCFG_B0_P1_U1_BASE Size (bytes): 128 */
1012:.\Generated_Source\PSoC5/cyfitter_cfg.c **** 		static const uint8 CYCODE BS_UDB_1_4_0_CONFIG_VAL[] = {
1013:.\Generated_Source\PSoC5/cyfitter_cfg.c **** 			0x00u, 0x00u, 0x00u, 0x00u, 0x00u, 0x18u, 0x00u, 0x02u, 0x02u, 0x02u, 0x0Du, 0x18u, 0x00u, 0x1Au
1014:.\Generated_Source\PSoC5/cyfitter_cfg.c **** 			0x03u, 0x00u, 0x0Cu, 0x00u, 0x05u, 0xC1u, 0x0Au, 0x38u, 0x00u, 0x18u, 0x00u, 0x00u, 0x00u, 0x33u
1015:.\Generated_Source\PSoC5/cyfitter_cfg.c **** 			0x00u, 0x1Au, 0x00u, 0x00u, 0x09u, 0x82u, 0x06u, 0x00u, 0x00u, 0x9Cu, 0x00u, 0x03u, 0x00u, 0x18u
1016:.\Generated_Source\PSoC5/cyfitter_cfg.c **** 			0x00u, 0x00u, 0x0Fu, 0x0Fu, 0x00u, 0xE0u, 0x00u, 0x13u, 0x00u, 0x00u, 0x08u, 0x28u, 0x00u, 0x00u
1017:.\Generated_Source\PSoC5/cyfitter_cfg.c **** 			0x32u, 0x06u, 0x40u, 0x00u, 0x05u, 0x0Eu, 0xFDu, 0xBCu, 0x3Du, 0xFFu, 0xFFu, 0xFFu, 0x22u, 0x00u
1018:.\Generated_Source\PSoC5/cyfitter_cfg.c **** 			0x04u, 0x00u, 0x00u, 0x00u, 0x00u, 0x00u, 0x02u, 0x28u, 0x04u, 0x04u, 0x04u, 0x04u, 0x00u, 0x00u
1019:.\Generated_Source\PSoC5/cyfitter_cfg.c **** 			0x00u, 0x00u, 0xC0u, 0x00u, 0x40u, 0x01u, 0x10u, 0x11u, 0xC0u, 0x01u, 0x00u, 0x11u, 0x40u, 0x01u
1020:.\Generated_Source\PSoC5/cyfitter_cfg.c **** 			0x00u, 0x00u, 0x00u, 0x00u, 0x00u, 0x00u, 0x00u, 0x00u, 0x00u, 0x00u, 0x00u, 0x00u, 0x00u, 0x00u
1021:.\Generated_Source\PSoC5/cyfitter_cfg.c **** 
1022:.\Generated_Source\PSoC5/cyfitter_cfg.c **** 		static const cfg_memcpy_t CYCODE cfg_memcpy_list [] = {
1023:.\Generated_Source\PSoC5/cyfitter_cfg.c **** 			/* dest, src, size */
1024:.\Generated_Source\PSoC5/cyfitter_cfg.c **** 			{(void CYFAR *)(CYDEV_UCFG_B0_P1_U1_BASE), BS_UDB_1_4_0_CONFIG_VAL, 128u},
1025:.\Generated_Source\PSoC5/cyfitter_cfg.c **** 		};
1026:.\Generated_Source\PSoC5/cyfitter_cfg.c **** 
1027:.\Generated_Source\PSoC5/cyfitter_cfg.c **** 		uint8 CYDATA i;
1028:.\Generated_Source\PSoC5/cyfitter_cfg.c **** 
1029:.\Generated_Source\PSoC5/cyfitter_cfg.c **** 		/* Zero out critical memory blocks before beginning configuration */
1030:.\Generated_Source\PSoC5/cyfitter_cfg.c **** 		for (i = 0u; i < (sizeof(cfg_memset_list)/sizeof(cfg_memset_list[0])); i++)
 554              		.loc 1 1030 0
 555 0018 0023     		movs	r3, #0
 556 001a FB75     		strb	r3, [r7, #23]
 557 001c 13E0     		b	.L27
 558              	.L28:
 559              	.LBB4:
1031:.\Generated_Source\PSoC5/cyfitter_cfg.c **** 		{
1032:.\Generated_Source\PSoC5/cyfitter_cfg.c **** 			const cfg_memset_t CYCODE * CYDATA ms = &cfg_memset_list[i];
ARM GAS  C:\Users\khjtony\AppData\Local\Temp\ccGsdxSj.s 			page 29


 560              		.loc 1 1032 0 discriminator 2
 561 001e FA7D     		ldrb	r2, [r7, #23]	@ zero_extendqisi2
 562 0020 1346     		mov	r3, r2
 563 0022 5B00     		lsls	r3, r3, #1
 564 0024 1344     		add	r3, r3, r2
 565 0026 5B00     		lsls	r3, r3, #1
 566 0028 484A     		ldr	r2, .L31+4
 567 002a 1344     		add	r3, r3, r2
 568 002c 3B61     		str	r3, [r7, #16]
1033:.\Generated_Source\PSoC5/cyfitter_cfg.c **** 			CYMEMZERO(ms->address, (size_t)(uint32)(ms->size));
 569              		.loc 1 1033 0 discriminator 2
 570 002e 3B69     		ldr	r3, [r7, #16]
 571 0030 1A68     		ldr	r2, [r3]	@ unaligned
 572 0032 3B69     		ldr	r3, [r7, #16]
 573 0034 9B88     		ldrh	r3, [r3, #4]	@ unaligned
 574 0036 9BB2     		uxth	r3, r3
 575 0038 1046     		mov	r0, r2
 576 003a 1946     		mov	r1, r3
 577 003c FFF7FEFF 		bl	CYMEMZERO
 578              	.LBE4:
1030:.\Generated_Source\PSoC5/cyfitter_cfg.c **** 		for (i = 0u; i < (sizeof(cfg_memset_list)/sizeof(cfg_memset_list[0])); i++)
 579              		.loc 1 1030 0 discriminator 2
 580 0040 FB7D     		ldrb	r3, [r7, #23]	@ zero_extendqisi2
 581 0042 0133     		adds	r3, r3, #1
 582 0044 FB75     		strb	r3, [r7, #23]
 583              	.L27:
1030:.\Generated_Source\PSoC5/cyfitter_cfg.c **** 		for (i = 0u; i < (sizeof(cfg_memset_list)/sizeof(cfg_memset_list[0])); i++)
 584              		.loc 1 1030 0 is_stmt 0 discriminator 1
 585 0046 FB7D     		ldrb	r3, [r7, #23]	@ zero_extendqisi2
 586 0048 092B     		cmp	r3, #9
 587 004a E8D9     		bls	.L28
1034:.\Generated_Source\PSoC5/cyfitter_cfg.c **** 		}
1035:.\Generated_Source\PSoC5/cyfitter_cfg.c **** 
1036:.\Generated_Source\PSoC5/cyfitter_cfg.c **** 		/* Copy device configuration data into registers */
1037:.\Generated_Source\PSoC5/cyfitter_cfg.c **** 		for (i = 0u; i < (sizeof(cfg_memcpy_list)/sizeof(cfg_memcpy_list[0])); i++)
 588              		.loc 1 1037 0 is_stmt 1
 589 004c 0023     		movs	r3, #0
 590 004e FB75     		strb	r3, [r7, #23]
 591 0050 1CE0     		b	.L29
 592              	.L30:
 593              	.LBB5:
1038:.\Generated_Source\PSoC5/cyfitter_cfg.c **** 		{
1039:.\Generated_Source\PSoC5/cyfitter_cfg.c **** 			const cfg_memcpy_t CYCODE * CYDATA mc = &cfg_memcpy_list[i];
 594              		.loc 1 1039 0 discriminator 2
 595 0052 FA7D     		ldrb	r2, [r7, #23]	@ zero_extendqisi2
 596 0054 1346     		mov	r3, r2
 597 0056 9B00     		lsls	r3, r3, #2
 598 0058 1344     		add	r3, r3, r2
 599 005a 5B00     		lsls	r3, r3, #1
 600 005c 3C4A     		ldr	r2, .L31+8
 601 005e 1344     		add	r3, r3, r2
 602 0060 FB60     		str	r3, [r7, #12]
1040:.\Generated_Source\PSoC5/cyfitter_cfg.c **** 			void * CYDATA destPtr = mc->dest;
 603              		.loc 1 1040 0 discriminator 2
 604 0062 FB68     		ldr	r3, [r7, #12]
 605 0064 1B68     		ldr	r3, [r3]	@ unaligned
 606 0066 BB60     		str	r3, [r7, #8]
ARM GAS  C:\Users\khjtony\AppData\Local\Temp\ccGsdxSj.s 			page 30


1041:.\Generated_Source\PSoC5/cyfitter_cfg.c **** 			const void CYCODE * CYDATA srcPtr = mc->src;
 607              		.loc 1 1041 0 discriminator 2
 608 0068 FB68     		ldr	r3, [r7, #12]
 609 006a 5B68     		ldr	r3, [r3, #4]	@ unaligned
 610 006c 7B60     		str	r3, [r7, #4]
1042:.\Generated_Source\PSoC5/cyfitter_cfg.c **** 			uint16 CYDATA numBytes = mc->size;
 611              		.loc 1 1042 0 discriminator 2
 612 006e FB68     		ldr	r3, [r7, #12]
 613 0070 1A7A     		ldrb	r2, [r3, #8]	@ zero_extendqisi2
 614 0072 5B7A     		ldrb	r3, [r3, #9]	@ zero_extendqisi2
 615 0074 1B02     		lsls	r3, r3, #8
 616 0076 1343     		orrs	r3, r3, r2
 617 0078 7B80     		strh	r3, [r7, #2]	@ movhi
1043:.\Generated_Source\PSoC5/cyfitter_cfg.c **** 			CYCONFIGCPYCODE(destPtr, srcPtr, numBytes);
 618              		.loc 1 1043 0 discriminator 2
 619 007a 7B88     		ldrh	r3, [r7, #2]
 620 007c B868     		ldr	r0, [r7, #8]
 621 007e 7968     		ldr	r1, [r7, #4]
 622 0080 1A46     		mov	r2, r3
 623 0082 FFF7FEFF 		bl	CYCONFIGCPYCODE
 624              	.LBE5:
1037:.\Generated_Source\PSoC5/cyfitter_cfg.c **** 		for (i = 0u; i < (sizeof(cfg_memcpy_list)/sizeof(cfg_memcpy_list[0])); i++)
 625              		.loc 1 1037 0 discriminator 2
 626 0086 FB7D     		ldrb	r3, [r7, #23]	@ zero_extendqisi2
 627 0088 0133     		adds	r3, r3, #1
 628 008a FB75     		strb	r3, [r7, #23]
 629              	.L29:
1037:.\Generated_Source\PSoC5/cyfitter_cfg.c **** 		for (i = 0u; i < (sizeof(cfg_memcpy_list)/sizeof(cfg_memcpy_list[0])); i++)
 630              		.loc 1 1037 0 is_stmt 0 discriminator 1
 631 008c FB7D     		ldrb	r3, [r7, #23]	@ zero_extendqisi2
 632 008e 002B     		cmp	r3, #0
 633 0090 DFD0     		beq	.L30
1044:.\Generated_Source\PSoC5/cyfitter_cfg.c **** 		}
1045:.\Generated_Source\PSoC5/cyfitter_cfg.c **** 
1046:.\Generated_Source\PSoC5/cyfitter_cfg.c **** 		cfg_write_bytes32(cy_cfg_addr_table, cy_cfg_data_table);
 634              		.loc 1 1046 0 is_stmt 1
 635 0092 3048     		ldr	r0, .L31+12
 636 0094 3049     		ldr	r1, .L31+16
 637 0096 FFF7FEFF 		bl	cfg_write_bytes32
1047:.\Generated_Source\PSoC5/cyfitter_cfg.c **** 
1048:.\Generated_Source\PSoC5/cyfitter_cfg.c **** 		/* Enable digital routing */
1049:.\Generated_Source\PSoC5/cyfitter_cfg.c **** 		CY_SET_XTND_REG8((void CYFAR *)CYREG_BCTL0_BANK_CTL, CY_GET_XTND_REG8((void CYFAR *)CYREG_BCTL0_B
 638              		.loc 1 1049 0
 639 009a 304B     		ldr	r3, .L31+20
 640 009c 2F4A     		ldr	r2, .L31+20
 641 009e 1278     		ldrb	r2, [r2]
 642 00a0 D2B2     		uxtb	r2, r2
 643 00a2 42F00202 		orr	r2, r2, #2
 644 00a6 D2B2     		uxtb	r2, r2
 645 00a8 1A70     		strb	r2, [r3]
1050:.\Generated_Source\PSoC5/cyfitter_cfg.c **** 		CY_SET_XTND_REG8((void CYFAR *)CYREG_BCTL1_BANK_CTL, CY_GET_XTND_REG8((void CYFAR *)CYREG_BCTL1_B
 646              		.loc 1 1050 0
 647 00aa 2D4B     		ldr	r3, .L31+24
 648 00ac 2C4A     		ldr	r2, .L31+24
 649 00ae 1278     		ldrb	r2, [r2]
 650 00b0 D2B2     		uxtb	r2, r2
 651 00b2 42F00202 		orr	r2, r2, #2
ARM GAS  C:\Users\khjtony\AppData\Local\Temp\ccGsdxSj.s 			page 31


 652 00b6 D2B2     		uxtb	r2, r2
 653 00b8 1A70     		strb	r2, [r3]
1051:.\Generated_Source\PSoC5/cyfitter_cfg.c **** 
1052:.\Generated_Source\PSoC5/cyfitter_cfg.c **** 		/* Enable UDB array */
1053:.\Generated_Source\PSoC5/cyfitter_cfg.c **** 		CY_SET_XTND_REG8((void CYFAR *)CYREG_PM_ACT_CFG0, CY_GET_XTND_REG8((void CYFAR *)CYREG_PM_ACT_CFG
 654              		.loc 1 1053 0
 655 00ba 2A4B     		ldr	r3, .L31+28
 656 00bc 294A     		ldr	r2, .L31+28
 657 00be 1278     		ldrb	r2, [r2]
 658 00c0 D2B2     		uxtb	r2, r2
 659 00c2 42F04002 		orr	r2, r2, #64
 660 00c6 D2B2     		uxtb	r2, r2
 661 00c8 1A70     		strb	r2, [r3]
1054:.\Generated_Source\PSoC5/cyfitter_cfg.c **** 		CY_SET_XTND_REG8((void CYFAR *)CYREG_PM_AVAIL_CR2, CY_GET_XTND_REG8((void CYFAR *)CYREG_PM_AVAIL_
 662              		.loc 1 1054 0
 663 00ca 274B     		ldr	r3, .L31+32
 664 00cc 264A     		ldr	r2, .L31+32
 665 00ce 1278     		ldrb	r2, [r2]
 666 00d0 D2B2     		uxtb	r2, r2
 667 00d2 42F01002 		orr	r2, r2, #16
 668 00d6 D2B2     		uxtb	r2, r2
 669 00d8 1A70     		strb	r2, [r3]
 670              	.LBE3:
1055:.\Generated_Source\PSoC5/cyfitter_cfg.c **** 	}
1056:.\Generated_Source\PSoC5/cyfitter_cfg.c **** 
1057:.\Generated_Source\PSoC5/cyfitter_cfg.c **** 
1058:.\Generated_Source\PSoC5/cyfitter_cfg.c **** 	/* Perform second pass device configuration. These items must be configured in specific order afte
1059:.\Generated_Source\PSoC5/cyfitter_cfg.c **** 	CYCONFIGCPYCODE((void CYFAR *)(CYREG_PRT0_DM0), (const void CYCODE *)(BS_IOPINS0_0_VAL), 8u);
 671              		.loc 1 1059 0
 672 00da 2448     		ldr	r0, .L31+36
 673 00dc 2449     		ldr	r1, .L31+40
 674 00de 0822     		movs	r2, #8
 675 00e0 FFF7FEFF 		bl	CYCONFIGCPYCODE
1060:.\Generated_Source\PSoC5/cyfitter_cfg.c **** 	CYCONFIGCPYCODE((void CYFAR *)(CYREG_PRT2_DM0), (const void CYCODE *)(BS_IOPINS0_2_VAL), 8u);
 676              		.loc 1 1060 0
 677 00e4 2348     		ldr	r0, .L31+44
 678 00e6 2449     		ldr	r1, .L31+48
 679 00e8 0822     		movs	r2, #8
 680 00ea FFF7FEFF 		bl	CYCONFIGCPYCODE
1061:.\Generated_Source\PSoC5/cyfitter_cfg.c **** 	CYCONFIGCPYCODE((void CYFAR *)(CYREG_PRT4_DR), (const void CYCODE *)(BS_IOPINS0_4_VAL), 10u);
 681              		.loc 1 1061 0
 682 00ee 2348     		ldr	r0, .L31+52
 683 00f0 2349     		ldr	r1, .L31+56
 684 00f2 0A22     		movs	r2, #10
 685 00f4 FFF7FEFF 		bl	CYCONFIGCPYCODE
1062:.\Generated_Source\PSoC5/cyfitter_cfg.c **** 	CYCONFIGCPYCODE((void CYFAR *)(CYREG_PRT5_DM0), (const void CYCODE *)(BS_IOPINS0_5_VAL), 8u);
 686              		.loc 1 1062 0
 687 00f8 2248     		ldr	r0, .L31+60
 688 00fa 2349     		ldr	r1, .L31+64
 689 00fc 0822     		movs	r2, #8
 690 00fe FFF7FEFF 		bl	CYCONFIGCPYCODE
1063:.\Generated_Source\PSoC5/cyfitter_cfg.c **** 	CYCONFIGCPYCODE((void CYFAR *)(CYREG_PRT6_DR), (const void CYCODE *)(BS_IOPINS0_6_VAL), 10u);
 691              		.loc 1 1063 0
 692 0102 2248     		ldr	r0, .L31+68
 693 0104 2249     		ldr	r1, .L31+72
 694 0106 0A22     		movs	r2, #10
 695 0108 FFF7FEFF 		bl	CYCONFIGCPYCODE
ARM GAS  C:\Users\khjtony\AppData\Local\Temp\ccGsdxSj.s 			page 32


1064:.\Generated_Source\PSoC5/cyfitter_cfg.c **** 	/* Switch Boost to the precision bandgap reference from its internal reference */
1065:.\Generated_Source\PSoC5/cyfitter_cfg.c **** 	CY_SET_REG8((void CYXDATA *)CYREG_BOOST_CR2, (CY_GET_REG8((void CYXDATA *)CYREG_BOOST_CR2) | 0x08u
 696              		.loc 1 1065 0
 697 010c 214B     		ldr	r3, .L31+76
 698 010e 214A     		ldr	r2, .L31+76
 699 0110 1278     		ldrb	r2, [r2]
 700 0112 D2B2     		uxtb	r2, r2
 701 0114 42F00802 		orr	r2, r2, #8
 702 0118 D2B2     		uxtb	r2, r2
 703 011a 1A70     		strb	r2, [r3]
1066:.\Generated_Source\PSoC5/cyfitter_cfg.c **** 
1067:.\Generated_Source\PSoC5/cyfitter_cfg.c **** 	/* Set Flash Cycles based on max possible frequency in case a glitch occurs during ClockSetup(). *
1068:.\Generated_Source\PSoC5/cyfitter_cfg.c **** 	CY_SET_XTND_REG8((void CYFAR *)(CYREG_CACHE_CC_CTL), (((CYDEV_INSTRUCT_CACHE_ENABLED) != 0) ? 0x01
 704              		.loc 1 1068 0
 705 011c 1E4B     		ldr	r3, .L31+80
 706 011e 0022     		movs	r2, #0
 707 0120 1A70     		strb	r2, [r3]
1069:.\Generated_Source\PSoC5/cyfitter_cfg.c **** 	/* Setup clocks based on selections from Clock DWR */
1070:.\Generated_Source\PSoC5/cyfitter_cfg.c **** 	ClockSetup();
 708              		.loc 1 1070 0
 709 0122 FFF7FEFF 		bl	ClockSetup
1071:.\Generated_Source\PSoC5/cyfitter_cfg.c **** 	/* Set Flash Cycles based on newly configured 24.00MHz Bus Clock. */
1072:.\Generated_Source\PSoC5/cyfitter_cfg.c **** 	CY_SET_XTND_REG8((void CYFAR *)(CYREG_CACHE_CC_CTL), (((CYDEV_INSTRUCT_CACHE_ENABLED) != 0) ? 0x81
 710              		.loc 1 1072 0
 711 0126 1C4B     		ldr	r3, .L31+80
 712 0128 8022     		movs	r2, #128
 713 012a 1A70     		strb	r2, [r3]
1073:.\Generated_Source\PSoC5/cyfitter_cfg.c **** 	CY_SET_XTND_REG8((void CYFAR *)(CYREG_PANTHER_WAITPIPE), 0x01u);
 714              		.loc 1 1073 0
 715 012c 1B4B     		ldr	r3, .L31+84
 716 012e 0122     		movs	r2, #1
 717 0130 1A70     		strb	r2, [r3]
1074:.\Generated_Source\PSoC5/cyfitter_cfg.c **** 
1075:.\Generated_Source\PSoC5/cyfitter_cfg.c **** 	/* Perform basic analog initialization to defaults */
1076:.\Generated_Source\PSoC5/cyfitter_cfg.c **** 	AnalogSetDefault();
 718              		.loc 1 1076 0
 719 0132 FFF7FEFF 		bl	AnalogSetDefault
1077:.\Generated_Source\PSoC5/cyfitter_cfg.c **** 
1078:.\Generated_Source\PSoC5/cyfitter_cfg.c **** 	/* Configure alternate active mode */
1079:.\Generated_Source\PSoC5/cyfitter_cfg.c **** 	CYCONFIGCPY((void CYFAR *)CYDEV_PM_STBY_BASE, (const void CYFAR *)CYDEV_PM_ACT_BASE, 14u);
 720              		.loc 1 1079 0
 721 0136 1A48     		ldr	r0, .L31+88
 722 0138 0A49     		ldr	r1, .L31+28
 723 013a 0E22     		movs	r2, #14
 724 013c FFF7FEFF 		bl	CYCONFIGCPY
1080:.\Generated_Source\PSoC5/cyfitter_cfg.c **** }
 725              		.loc 1 1080 0
 726 0140 1837     		adds	r7, r7, #24
 727 0142 BD46     		mov	sp, r7
 728              		@ sp needed
 729 0144 80BD     		pop	{r7, pc}
 730              	.L32:
 731 0146 00BF     		.align	2
 732              	.L31:
 733 0148 E8460040 		.word	1073759976
 734 014c 00000000 		.word	cfg_memset_list.4895
 735 0150 3C000000 		.word	cfg_memcpy_list.4897
ARM GAS  C:\Users\khjtony\AppData\Local\Temp\ccGsdxSj.s 			page 33


 736 0154 48000000 		.word	cy_cfg_addr_table.4884
 737 0158 C8000000 		.word	cy_cfg_data_table.4885
 738 015c 03500140 		.word	1073827843
 739 0160 13500140 		.word	1073827859
 740 0164 A0430040 		.word	1073759136
 741 0168 C2430040 		.word	1073759170
 742 016c 02510040 		.word	1073762562
 743 0170 7C050000 		.word	BS_IOPINS0_0_VAL.4879
 744 0174 22510040 		.word	1073762594
 745 0178 84050000 		.word	BS_IOPINS0_2_VAL.4880
 746 017c 40510040 		.word	1073762624
 747 0180 8C050000 		.word	BS_IOPINS0_4_VAL.4881
 748 0184 52510040 		.word	1073762642
 749 0188 98050000 		.word	BS_IOPINS0_5_VAL.4882
 750 018c 60510040 		.word	1073762656
 751 0190 A0050000 		.word	BS_IOPINS0_6_VAL.4883
 752 0194 22430040 		.word	1073759010
 753 0198 00480040 		.word	1073760256
 754 019c 04000840 		.word	1074266116
 755 01a0 B0430040 		.word	1073759152
 756              		.cfi_endproc
 757              	.LFE8:
 758              		.size	cyfitter_cfg, .-cyfitter_cfg
 759              		.section	.rodata
 760              		.align	2
 761              		.type	cfg_memset_list.4895, %object
 762              		.size	cfg_memset_list.4895, 60
 763              	cfg_memset_list.4895:
 764 0000 10510040 		.word	1073762576
 765 0004 1000     		.short	16
 766 0006 30510040 		.4byte	1073762608
 767 000a 1000     		.short	16
 768 000c C0510040 		.word	1073762752
 769 0010 1000     		.short	16
 770 0012 F0510040 		.4byte	1073762800
 771 0016 1000     		.short	16
 772 0018 00000140 		.word	1073807360
 773 001c 8002     		.short	640
 774 001e 00030140 		.4byte	1073808128
 775 0022 000D     		.short	3328
 776 0024 00140140 		.word	1073812480
 777 0028 0008     		.short	2048
 778 002a 00400140 		.4byte	1073823744
 779 002e 000A     		.short	2560
 780 0030 004C0140 		.word	1073826816
 781 0034 0002     		.short	512
 782 0036 00500140 		.4byte	1073827840
 783 003a 2000     		.short	32
 784              		.align	2
 785              		.type	cfg_memcpy_list.4897, %object
 786              		.size	cfg_memcpy_list.4897, 10
 787              	cfg_memcpy_list.4897:
 788 003c 80020140 		.word	1073808000
 789 0040 AC050000 		.word	BS_UDB_1_4_0_CONFIG_VAL.4896
 790 0044 8000     		.short	128
 791 0046 0000     		.align	2
 792              		.type	cy_cfg_addr_table.4884, %object
ARM GAS  C:\Users\khjtony\AppData\Local\Temp\ccGsdxSj.s 			page 34


 793              		.size	cy_cfg_addr_table.4884, 128
 794              	cy_cfg_addr_table.4884:
 795 0048 06520040 		.word	1073762822
 796 004c 03640040 		.word	1073767427
 797 0050 01650040 		.word	1073767681
 798 0054 5F000140 		.word	1073807455
 799 0058 2B010140 		.word	1073807659
 800 005c 23020140 		.word	1073807907
 801 0060 4A030140 		.word	1073808202
 802 0064 46040140 		.word	1073808454
 803 0068 41050140 		.word	1073808705
 804 006c 02070140 		.word	1073809154
 805 0070 03090140 		.word	1073809667
 806 0074 150A0140 		.word	1073809941
 807 0078 120B0140 		.word	1073810194
 808 007c 020D0140 		.word	1073810690
 809 0080 33140140 		.word	1073812531
 810 0084 18150140 		.word	1073812760
 811 0088 01190140 		.word	1073813761
 812 008c 031B0140 		.word	1073814275
 813 0090 10400140 		.word	1073823760
 814 0094 17410140 		.word	1073824023
 815 0098 06420140 		.word	1073824262
 816 009c 05430140 		.word	1073824517
 817 00a0 02440140 		.word	1073824770
 818 00a4 02450140 		.word	1073825026
 819 00a8 03460140 		.word	1073825283
 820 00ac 01470140 		.word	1073825537
 821 00b0 01480140 		.word	1073825793
 822 00b4 04490140 		.word	1073826052
 823 00b8 014C0140 		.word	1073826817
 824 00bc 0A4D0140 		.word	1073827082
 825 00c0 08500140 		.word	1073827848
 826 00c4 02510140 		.word	1073828098
 827              		.align	2
 828              		.type	cy_cfg_data_table.4885, %object
 829              		.size	cy_cfg_data_table.4885, 1202
 830              	cy_cfg_data_table.4885:
 831 00c8 00       		.byte	0
 832 00c9 01       		.byte	1
 833 00ca 20       		.byte	32
 834 00cb 24       		.byte	36
 835 00cc 21       		.byte	33
 836 00cd 2C       		.byte	44
 837 00ce 24       		.byte	36
 838 00cf 90       		.byte	-112
 839 00d0 2C       		.byte	44
 840 00d1 01       		.byte	1
 841 00d2 34       		.byte	52
 842 00d3 80       		.byte	-128
 843 00d4 82       		.byte	-126
 844 00d5 0D       		.byte	13
 845 00d6 83       		.byte	-125
 846 00d7 0F       		.byte	15
 847 00d8 85       		.byte	-123
 848 00d9 0D       		.byte	13
 849 00da 85       		.byte	-123
ARM GAS  C:\Users\khjtony\AppData\Local\Temp\ccGsdxSj.s 			page 35


 850 00db 0D       		.byte	13
 851 00dc 00       		.byte	0
 852 00dd 84       		.byte	-124
 853 00de 04       		.byte	4
 854 00df 80       		.byte	-128
 855 00e0 05       		.byte	5
 856 00e1 04       		.byte	4
 857 00e2 06       		.byte	6
 858 00e3 04       		.byte	4
 859 00e4 08       		.byte	8
 860 00e5 01       		.byte	1
 861 00e6 09       		.byte	9
 862 00e7 01       		.byte	1
 863 00e8 0B       		.byte	11
 864 00e9 06       		.byte	6
 865 00ea 0C       		.byte	12
 866 00eb 60       		.byte	96
 867 00ec 0D       		.byte	13
 868 00ed 04       		.byte	4
 869 00ee 10       		.byte	16
 870 00ef 07       		.byte	7
 871 00f0 12       		.byte	18
 872 00f1 38       		.byte	56
 873 00f2 14       		.byte	20
 874 00f3 56       		.byte	86
 875 00f4 15       		.byte	21
 876 00f5 07       		.byte	7
 877 00f6 16       		.byte	22
 878 00f7 09       		.byte	9
 879 00f8 18       		.byte	24
 880 00f9 84       		.byte	-124
 881 00fa 1B       		.byte	27
 882 00fb 04       		.byte	4
 883 00fc 1C       		.byte	28
 884 00fd 84       		.byte	-124
 885 00fe 1D       		.byte	29
 886 00ff 04       		.byte	4
 887 0100 22       		.byte	34
 888 0101 80       		.byte	-128
 889 0102 24       		.byte	36
 890 0103 04       		.byte	4
 891 0104 25       		.byte	37
 892 0105 01       		.byte	1
 893 0106 27       		.byte	39
 894 0107 06       		.byte	6
 895 0108 28       		.byte	40
 896 0109 0A       		.byte	10
 897 010a 2A       		.byte	42
 898 010b 10       		.byte	16
 899 010c 2B       		.byte	43
 900 010d 03       		.byte	3
 901 010e 2C       		.byte	44
 902 010f 04       		.byte	4
 903 0110 2D       		.byte	45
 904 0111 04       		.byte	4
 905 0112 2E       		.byte	46
 906 0113 80       		.byte	-128
ARM GAS  C:\Users\khjtony\AppData\Local\Temp\ccGsdxSj.s 			page 36


 907 0114 32       		.byte	50
 908 0115 7F       		.byte	127
 909 0116 34       		.byte	52
 910 0117 80       		.byte	-128
 911 0118 35       		.byte	53
 912 0119 07       		.byte	7
 913 011a 38       		.byte	56
 914 011b 08       		.byte	8
 915 011c 3B       		.byte	59
 916 011d 20       		.byte	32
 917 011e 3E       		.byte	62
 918 011f 10       		.byte	16
 919 0120 40       		.byte	64
 920 0121 41       		.byte	65
 921 0122 49       		.byte	73
 922 0123 FF       		.byte	-1
 923 0124 4A       		.byte	74
 924 0125 FF       		.byte	-1
 925 0126 4B       		.byte	75
 926 0127 FF       		.byte	-1
 927 0128 4F       		.byte	79
 928 0129 01       		.byte	1
 929 012a 50       		.byte	80
 930 012b 18       		.byte	24
 931 012c 54       		.byte	84
 932 012d 40       		.byte	64
 933 012e 56       		.byte	86
 934 012f 04       		.byte	4
 935 0130 58       		.byte	88
 936 0131 04       		.byte	4
 937 0132 59       		.byte	89
 938 0133 04       		.byte	4
 939 0134 5A       		.byte	90
 940 0135 04       		.byte	4
 941 0136 5B       		.byte	91
 942 0137 04       		.byte	4
 943 0138 5D       		.byte	93
 944 0139 09       		.byte	9
 945 013a 5F       		.byte	95
 946 013b 01       		.byte	1
 947 013c 60       		.byte	96
 948 013d 40       		.byte	64
 949 013e 62       		.byte	98
 950 013f 40       		.byte	64
 951 0140 64       		.byte	100
 952 0141 40       		.byte	64
 953 0142 65       		.byte	101
 954 0143 40       		.byte	64
 955 0144 66       		.byte	102
 956 0145 80       		.byte	-128
 957 0146 68       		.byte	104
 958 0147 80       		.byte	-128
 959 0148 6A       		.byte	106
 960 0149 80       		.byte	-128
 961 014a 6C       		.byte	108
 962 014b 80       		.byte	-128
 963 014c 6E       		.byte	110
ARM GAS  C:\Users\khjtony\AppData\Local\Temp\ccGsdxSj.s 			page 37


 964 014d 80       		.byte	-128
 965 014e 83       		.byte	-125
 966 014f 10       		.byte	16
 967 0150 89       		.byte	-119
 968 0151 0E       		.byte	14
 969 0152 92       		.byte	-110
 970 0153 01       		.byte	1
 971 0154 95       		.byte	-107
 972 0155 04       		.byte	4
 973 0156 97       		.byte	-105
 974 0157 09       		.byte	9
 975 0158 99       		.byte	-103
 976 0159 03       		.byte	3
 977 015a 9B       		.byte	-101
 978 015b 04       		.byte	4
 979 015c A9       		.byte	-87
 980 015d 05       		.byte	5
 981 015e AB       		.byte	-85
 982 015f 0A       		.byte	10
 983 0160 AF       		.byte	-81
 984 0161 10       		.byte	16
 985 0162 B2       		.byte	-78
 986 0163 01       		.byte	1
 987 0164 B5       		.byte	-75
 988 0165 0F       		.byte	15
 989 0166 B7       		.byte	-73
 990 0167 10       		.byte	16
 991 0168 B9       		.byte	-71
 992 0169 20       		.byte	32
 993 016a BF       		.byte	-65
 994 016b 40       		.byte	64
 995 016c C0       		.byte	-64
 996 016d 41       		.byte	65
 997 016e C9       		.byte	-55
 998 016f FF       		.byte	-1
 999 0170 CA       		.byte	-54
 1000 0171 FF       		.byte	-1
 1001 0172 CB       		.byte	-53
 1002 0173 FF       		.byte	-1
 1003 0174 CD       		.byte	-51
 1004 0175 83       		.byte	-125
 1005 0176 CE       		.byte	-50
 1006 0177 03       		.byte	3
 1007 0178 CF       		.byte	-49
 1008 0179 01       		.byte	1
 1009 017a D0       		.byte	-48
 1010 017b 18       		.byte	24
 1011 017c D8       		.byte	-40
 1012 017d 04       		.byte	4
 1013 017e D9       		.byte	-39
 1014 017f 04       		.byte	4
 1015 0180 DA       		.byte	-38
 1016 0181 04       		.byte	4
 1017 0182 DC       		.byte	-36
 1018 0183 02       		.byte	2
 1019 0184 DD       		.byte	-35
 1020 0185 09       		.byte	9
ARM GAS  C:\Users\khjtony\AppData\Local\Temp\ccGsdxSj.s 			page 38


 1021 0186 DF       		.byte	-33
 1022 0187 01       		.byte	1
 1023 0188 E0       		.byte	-32
 1024 0189 40       		.byte	64
 1025 018a E2       		.byte	-30
 1026 018b 40       		.byte	64
 1027 018c E4       		.byte	-28
 1028 018d 40       		.byte	64
 1029 018e E5       		.byte	-27
 1030 018f 40       		.byte	64
 1031 0190 E6       		.byte	-26
 1032 0191 80       		.byte	-128
 1033 0192 E8       		.byte	-24
 1034 0193 80       		.byte	-128
 1035 0194 EA       		.byte	-22
 1036 0195 80       		.byte	-128
 1037 0196 EC       		.byte	-20
 1038 0197 80       		.byte	-128
 1039 0198 EE       		.byte	-18
 1040 0199 80       		.byte	-128
 1041 019a 00       		.byte	0
 1042 019b 08       		.byte	8
 1043 019c 02       		.byte	2
 1044 019d 02       		.byte	2
 1045 019e 03       		.byte	3
 1046 019f 58       		.byte	88
 1047 01a0 08       		.byte	8
 1048 01a1 08       		.byte	8
 1049 01a2 0A       		.byte	10
 1050 01a3 85       		.byte	-123
 1051 01a4 0F       		.byte	15
 1052 01a5 80       		.byte	-128
 1053 01a6 10       		.byte	16
 1054 01a7 13       		.byte	19
 1055 01a8 11       		.byte	17
 1056 01a9 10       		.byte	16
 1057 01aa 12       		.byte	18
 1058 01ab 40       		.byte	64
 1059 01ac 13       		.byte	19
 1060 01ad 04       		.byte	4
 1061 01ae 1B       		.byte	27
 1062 01af 18       		.byte	24
 1063 01b0 1E       		.byte	30
 1064 01b1 10       		.byte	16
 1065 01b2 22       		.byte	34
 1066 01b3 10       		.byte	16
 1067 01b4 23       		.byte	35
 1068 01b5 04       		.byte	4
 1069 01b6 25       		.byte	37
 1070 01b7 10       		.byte	16
 1071 01b8 26       		.byte	38
 1072 01b9 40       		.byte	64
 1073 01ba 28       		.byte	40
 1074 01bb 11       		.byte	17
 1075 01bc 29       		.byte	41
 1076 01bd 20       		.byte	32
 1077 01be 2E       		.byte	46
ARM GAS  C:\Users\khjtony\AppData\Local\Temp\ccGsdxSj.s 			page 39


 1078 01bf A0       		.byte	-96
 1079 01c0 31       		.byte	49
 1080 01c1 04       		.byte	4
 1081 01c2 33       		.byte	51
 1082 01c3 50       		.byte	80
 1083 01c4 34       		.byte	52
 1084 01c5 08       		.byte	8
 1085 01c6 35       		.byte	53
 1086 01c7 24       		.byte	36
 1087 01c8 37       		.byte	55
 1088 01c9 08       		.byte	8
 1089 01ca 38       		.byte	56
 1090 01cb 80       		.byte	-128
 1091 01cc 39       		.byte	57
 1092 01cd 18       		.byte	24
 1093 01ce 3A       		.byte	58
 1094 01cf 20       		.byte	32
 1095 01d0 3D       		.byte	61
 1096 01d1 20       		.byte	32
 1097 01d2 3E       		.byte	62
 1098 01d3 02       		.byte	2
 1099 01d4 42       		.byte	66
 1100 01d5 82       		.byte	-126
 1101 01d6 46       		.byte	70
 1102 01d7 82       		.byte	-126
 1103 01d8 61       		.byte	97
 1104 01d9 20       		.byte	32
 1105 01da 62       		.byte	98
 1106 01db 40       		.byte	64
 1107 01dc 63       		.byte	99
 1108 01dd 60       		.byte	96
 1109 01de 87       		.byte	-121
 1110 01df 40       		.byte	64
 1111 01e0 C0       		.byte	-64
 1112 01e1 0F       		.byte	15
 1113 01e2 C2       		.byte	-62
 1114 01e3 1F       		.byte	31
 1115 01e4 C4       		.byte	-60
 1116 01e5 0F       		.byte	15
 1117 01e6 CA       		.byte	-54
 1118 01e7 3E       		.byte	62
 1119 01e8 CC       		.byte	-52
 1120 01e9 6E       		.byte	110
 1121 01ea CE       		.byte	-50
 1122 01eb AE       		.byte	-82
 1123 01ec D0       		.byte	-48
 1124 01ed 99       		.byte	-103
 1125 01ee D8       		.byte	-40
 1126 01ef 0F       		.byte	15
 1127 01f0 09       		.byte	9
 1128 01f1 02       		.byte	2
 1129 01f2 0B       		.byte	11
 1130 01f3 05       		.byte	5
 1131 01f4 19       		.byte	25
 1132 01f5 04       		.byte	4
 1133 01f6 1B       		.byte	27
 1134 01f7 02       		.byte	2
ARM GAS  C:\Users\khjtony\AppData\Local\Temp\ccGsdxSj.s 			page 40


 1135 01f8 33       		.byte	51
 1136 01f9 01       		.byte	1
 1137 01fa 35       		.byte	53
 1138 01fb 06       		.byte	6
 1139 01fc 40       		.byte	64
 1140 01fd 41       		.byte	65
 1141 01fe 45       		.byte	69
 1142 01ff EC       		.byte	-20
 1143 0200 47       		.byte	71
 1144 0201 20       		.byte	32
 1145 0202 48       		.byte	72
 1146 0203 23       		.byte	35
 1147 0204 49       		.byte	73
 1148 0205 FF       		.byte	-1
 1149 0206 4A       		.byte	74
 1150 0207 FF       		.byte	-1
 1151 0208 4B       		.byte	75
 1152 0209 FF       		.byte	-1
 1153 020a 4D       		.byte	77
 1154 020b 83       		.byte	-125
 1155 020c 4E       		.byte	78
 1156 020d 03       		.byte	3
 1157 020e 4F       		.byte	79
 1158 020f 01       		.byte	1
 1159 0210 50       		.byte	80
 1160 0211 18       		.byte	24
 1161 0212 52       		.byte	82
 1162 0213 80       		.byte	-128
 1163 0214 54       		.byte	84
 1164 0215 01       		.byte	1
 1165 0216 56       		.byte	86
 1166 0217 04       		.byte	4
 1167 0218 59       		.byte	89
 1168 0219 04       		.byte	4
 1169 021a 5A       		.byte	90
 1170 021b 04       		.byte	4
 1171 021c 5B       		.byte	91
 1172 021d 04       		.byte	4
 1173 021e 5C       		.byte	92
 1174 021f 20       		.byte	32
 1175 0220 5D       		.byte	93
 1176 0221 99       		.byte	-103
 1177 0222 5F       		.byte	95
 1178 0223 01       		.byte	1
 1179 0224 60       		.byte	96
 1180 0225 40       		.byte	64
 1181 0226 62       		.byte	98
 1182 0227 40       		.byte	64
 1183 0228 64       		.byte	100
 1184 0229 40       		.byte	64
 1185 022a 65       		.byte	101
 1186 022b 40       		.byte	64
 1187 022c 66       		.byte	102
 1188 022d 80       		.byte	-128
 1189 022e 68       		.byte	104
 1190 022f 80       		.byte	-128
 1191 0230 6A       		.byte	106
ARM GAS  C:\Users\khjtony\AppData\Local\Temp\ccGsdxSj.s 			page 41


 1192 0231 80       		.byte	-128
 1193 0232 6C       		.byte	108
 1194 0233 80       		.byte	-128
 1195 0234 6E       		.byte	110
 1196 0235 80       		.byte	-128
 1197 0236 00       		.byte	0
 1198 0237 10       		.byte	16
 1199 0238 09       		.byte	9
 1200 0239 08       		.byte	8
 1201 023a 0A       		.byte	10
 1202 023b 80       		.byte	-128
 1203 023c 13       		.byte	19
 1204 023d 08       		.byte	8
 1205 023e 18       		.byte	24
 1206 023f 10       		.byte	16
 1207 0240 20       		.byte	32
 1208 0241 04       		.byte	4
 1209 0242 21       		.byte	33
 1210 0243 08       		.byte	8
 1211 0244 22       		.byte	34
 1212 0245 40       		.byte	64
 1213 0246 23       		.byte	35
 1214 0247 08       		.byte	8
 1215 0248 24       		.byte	36
 1216 0249 08       		.byte	8
 1217 024a 27       		.byte	39
 1218 024b 20       		.byte	32
 1219 024c 28       		.byte	40
 1220 024d 69       		.byte	105
 1221 024e 2A       		.byte	42
 1222 024f 04       		.byte	4
 1223 0250 31       		.byte	49
 1224 0251 08       		.byte	8
 1225 0252 32       		.byte	50
 1226 0253 50       		.byte	80
 1227 0254 34       		.byte	52
 1228 0255 40       		.byte	64
 1229 0256 37       		.byte	55
 1230 0257 60       		.byte	96
 1231 0258 38       		.byte	56
 1232 0259 80       		.byte	-128
 1233 025a 39       		.byte	57
 1234 025b 18       		.byte	24
 1235 025c 3E       		.byte	62
 1236 025d 10       		.byte	16
 1237 025e 40       		.byte	64
 1238 025f 0C       		.byte	12
 1239 0260 41       		.byte	65
 1240 0261 0A       		.byte	10
 1241 0262 42       		.byte	66
 1242 0263 20       		.byte	32
 1243 0264 46       		.byte	70
 1244 0265 82       		.byte	-126
 1245 0266 49       		.byte	73
 1246 0267 A8       		.byte	-88
 1247 0268 4D       		.byte	77
 1248 0269 01       		.byte	1
ARM GAS  C:\Users\khjtony\AppData\Local\Temp\ccGsdxSj.s 			page 42


 1249 026a 4F       		.byte	79
 1250 026b 04       		.byte	4
 1251 026c 51       		.byte	81
 1252 026d 20       		.byte	32
 1253 026e 52       		.byte	82
 1254 026f 46       		.byte	70
 1255 0270 56       		.byte	86
 1256 0271 02       		.byte	2
 1257 0272 5D       		.byte	93
 1258 0273 01       		.byte	1
 1259 0274 5E       		.byte	94
 1260 0275 80       		.byte	-128
 1261 0276 5F       		.byte	95
 1262 0277 04       		.byte	4
 1263 0278 60       		.byte	96
 1264 0279 10       		.byte	16
 1265 027a 66       		.byte	102
 1266 027b 01       		.byte	1
 1267 027c 68       		.byte	104
 1268 027d 06       		.byte	6
 1269 027e 69       		.byte	105
 1270 027f 18       		.byte	24
 1271 0280 6A       		.byte	106
 1272 0281 04       		.byte	4
 1273 0282 6B       		.byte	107
 1274 0283 40       		.byte	64
 1275 0284 70       		.byte	112
 1276 0285 40       		.byte	64
 1277 0286 72       		.byte	114
 1278 0287 01       		.byte	1
 1279 0288 76       		.byte	118
 1280 0289 80       		.byte	-128
 1281 028a 80       		.byte	-128
 1282 028b 04       		.byte	4
 1283 028c 82       		.byte	-126
 1284 028d 01       		.byte	1
 1285 028e 8A       		.byte	-118
 1286 028f 80       		.byte	-128
 1287 0290 92       		.byte	-110
 1288 0291 30       		.byte	48
 1289 0292 94       		.byte	-108
 1290 0293 80       		.byte	-128
 1291 0294 95       		.byte	-107
 1292 0295 08       		.byte	8
 1293 0296 96       		.byte	-106
 1294 0297 85       		.byte	-123
 1295 0298 98       		.byte	-104
 1296 0299 01       		.byte	1
 1297 029a 99       		.byte	-103
 1298 029b 80       		.byte	-128
 1299 029c 9D       		.byte	-99
 1300 029d 20       		.byte	32
 1301 029e 9E       		.byte	-98
 1302 029f E2       		.byte	-30
 1303 02a0 9F       		.byte	-97
 1304 02a1 48       		.byte	72
 1305 02a2 A2       		.byte	-94
ARM GAS  C:\Users\khjtony\AppData\Local\Temp\ccGsdxSj.s 			page 43


 1306 02a3 40       		.byte	64
 1307 02a4 A4       		.byte	-92
 1308 02a5 06       		.byte	6
 1309 02a6 A5       		.byte	-91
 1310 02a7 20       		.byte	32
 1311 02a8 A6       		.byte	-90
 1312 02a9 02       		.byte	2
 1313 02aa A9       		.byte	-87
 1314 02ab 10       		.byte	16
 1315 02ac AB       		.byte	-85
 1316 02ad 40       		.byte	64
 1317 02ae AD       		.byte	-83
 1318 02af 80       		.byte	-128
 1319 02b0 B3       		.byte	-77
 1320 02b1 08       		.byte	8
 1321 02b2 C0       		.byte	-64
 1322 02b3 02       		.byte	2
 1323 02b4 C2       		.byte	-62
 1324 02b5 0C       		.byte	12
 1325 02b6 C4       		.byte	-60
 1326 02b7 04       		.byte	4
 1327 02b8 CA       		.byte	-54
 1328 02b9 0F       		.byte	15
 1329 02ba CC       		.byte	-52
 1330 02bb 2E       		.byte	46
 1331 02bc CE       		.byte	-50
 1332 02bd 2E       		.byte	46
 1333 02be D0       		.byte	-48
 1334 02bf 97       		.byte	-105
 1335 02c0 D2       		.byte	-46
 1336 02c1 0C       		.byte	12
 1337 02c2 D6       		.byte	-42
 1338 02c3 D0       		.byte	-48
 1339 02c4 D8       		.byte	-40
 1340 02c5 82       		.byte	-126
 1341 02c6 E2       		.byte	-30
 1342 02c7 80       		.byte	-128
 1343 02c8 EA       		.byte	-22
 1344 02c9 20       		.byte	32
 1345 02ca 00       		.byte	0
 1346 02cb 0D       		.byte	13
 1347 02cc 04       		.byte	4
 1348 02cd 0D       		.byte	13
 1349 02ce 05       		.byte	5
 1350 02cf 02       		.byte	2
 1351 02d0 08       		.byte	8
 1352 02d1 02       		.byte	2
 1353 02d2 09       		.byte	9
 1354 02d3 02       		.byte	2
 1355 02d4 0A       		.byte	10
 1356 02d5 0D       		.byte	13
 1357 02d6 0C       		.byte	12
 1358 02d7 0D       		.byte	13
 1359 02d8 0D       		.byte	13
 1360 02d9 02       		.byte	2
 1361 02da 10       		.byte	16
 1362 02db 01       		.byte	1
ARM GAS  C:\Users\khjtony\AppData\Local\Temp\ccGsdxSj.s 			page 44


 1363 02dc 12       		.byte	18
 1364 02dd 12       		.byte	18
 1365 02de 13       		.byte	19
 1366 02df 02       		.byte	2
 1367 02e0 14       		.byte	20
 1368 02e1 12       		.byte	18
 1369 02e2 15       		.byte	21
 1370 02e3 01       		.byte	1
 1371 02e4 16       		.byte	22
 1372 02e5 04       		.byte	4
 1373 02e6 18       		.byte	24
 1374 02e7 0D       		.byte	13
 1375 02e8 19       		.byte	25
 1376 02e9 01       		.byte	1
 1377 02ea 1D       		.byte	29
 1378 02eb 02       		.byte	2
 1379 02ec 24       		.byte	36
 1380 02ed 02       		.byte	2
 1381 02ee 26       		.byte	38
 1382 02ef 18       		.byte	24
 1383 02f0 29       		.byte	41
 1384 02f1 01       		.byte	1
 1385 02f2 2C       		.byte	44
 1386 02f3 0D       		.byte	13
 1387 02f4 31       		.byte	49
 1388 02f5 02       		.byte	2
 1389 02f6 32       		.byte	50
 1390 02f7 0F       		.byte	15
 1391 02f8 36       		.byte	54
 1392 02f9 10       		.byte	16
 1393 02fa 37       		.byte	55
 1394 02fb 01       		.byte	1
 1395 02fc 3A       		.byte	58
 1396 02fd 08       		.byte	8
 1397 02fe 3E       		.byte	62
 1398 02ff 40       		.byte	64
 1399 0300 3F       		.byte	63
 1400 0301 41       		.byte	65
 1401 0302 54       		.byte	84
 1402 0303 09       		.byte	9
 1403 0304 56       		.byte	86
 1404 0305 04       		.byte	4
 1405 0306 58       		.byte	88
 1406 0307 04       		.byte	4
 1407 0308 59       		.byte	89
 1408 0309 04       		.byte	4
 1409 030a 5B       		.byte	91
 1410 030b 04       		.byte	4
 1411 030c 5F       		.byte	95
 1412 030d 01       		.byte	1
 1413 030e 82       		.byte	-126
 1414 030f 01       		.byte	1
 1415 0310 96       		.byte	-106
 1416 0311 01       		.byte	1
 1417 0312 9B       		.byte	-101
 1418 0313 03       		.byte	3
 1419 0314 9F       		.byte	-97
ARM GAS  C:\Users\khjtony\AppData\Local\Temp\ccGsdxSj.s 			page 45


 1420 0315 02       		.byte	2
 1421 0316 A1       		.byte	-95
 1422 0317 01       		.byte	1
 1423 0318 AB       		.byte	-85
 1424 0319 03       		.byte	3
 1425 031a B0       		.byte	-80
 1426 031b 01       		.byte	1
 1427 031c B7       		.byte	-73
 1428 031d 03       		.byte	3
 1429 031e BE       		.byte	-66
 1430 031f 01       		.byte	1
 1431 0320 C0       		.byte	-64
 1432 0321 46       		.byte	70
 1433 0322 C5       		.byte	-59
 1434 0323 EC       		.byte	-20
 1435 0324 C6       		.byte	-58
 1436 0325 20       		.byte	32
 1437 0326 C8       		.byte	-56
 1438 0327 0B       		.byte	11
 1439 0328 C9       		.byte	-55
 1440 0329 FF       		.byte	-1
 1441 032a CA       		.byte	-54
 1442 032b FF       		.byte	-1
 1443 032c CB       		.byte	-53
 1444 032d FF       		.byte	-1
 1445 032e CF       		.byte	-49
 1446 032f 01       		.byte	1
 1447 0330 D0       		.byte	-48
 1448 0331 18       		.byte	24
 1449 0332 D2       		.byte	-46
 1450 0333 80       		.byte	-128
 1451 0334 D4       		.byte	-44
 1452 0335 01       		.byte	1
 1453 0336 D6       		.byte	-42
 1454 0337 04       		.byte	4
 1455 0338 D8       		.byte	-40
 1456 0339 04       		.byte	4
 1457 033a D9       		.byte	-39
 1458 033b 04       		.byte	4
 1459 033c DA       		.byte	-38
 1460 033d 04       		.byte	4
 1461 033e DB       		.byte	-37
 1462 033f 04       		.byte	4
 1463 0340 DD       		.byte	-35
 1464 0341 11       		.byte	17
 1465 0342 DF       		.byte	-33
 1466 0343 01       		.byte	1
 1467 0344 E0       		.byte	-32
 1468 0345 40       		.byte	64
 1469 0346 E2       		.byte	-30
 1470 0347 40       		.byte	64
 1471 0348 E4       		.byte	-28
 1472 0349 40       		.byte	64
 1473 034a E5       		.byte	-27
 1474 034b 40       		.byte	64
 1475 034c E6       		.byte	-26
 1476 034d 80       		.byte	-128
ARM GAS  C:\Users\khjtony\AppData\Local\Temp\ccGsdxSj.s 			page 46


 1477 034e E8       		.byte	-24
 1478 034f 80       		.byte	-128
 1479 0350 EA       		.byte	-22
 1480 0351 80       		.byte	-128
 1481 0352 EC       		.byte	-20
 1482 0353 80       		.byte	-128
 1483 0354 EE       		.byte	-18
 1484 0355 80       		.byte	-128
 1485 0356 00       		.byte	0
 1486 0357 58       		.byte	88
 1487 0358 03       		.byte	3
 1488 0359 40       		.byte	64
 1489 035a 06       		.byte	6
 1490 035b 80       		.byte	-128
 1491 035c 09       		.byte	9
 1492 035d 08       		.byte	8
 1493 035e 0A       		.byte	10
 1494 035f 84       		.byte	-124
 1495 0360 0B       		.byte	11
 1496 0361 80       		.byte	-128
 1497 0362 0F       		.byte	15
 1498 0363 20       		.byte	32
 1499 0364 10       		.byte	16
 1500 0365 02       		.byte	2
 1501 0366 12       		.byte	18
 1502 0367 20       		.byte	32
 1503 0368 13       		.byte	19
 1504 0369 08       		.byte	8
 1505 036a 18       		.byte	24
 1506 036b 10       		.byte	16
 1507 036c 19       		.byte	25
 1508 036d 40       		.byte	64
 1509 036e 1E       		.byte	30
 1510 036f 80       		.byte	-128
 1511 0370 21       		.byte	33
 1512 0371 82       		.byte	-126
 1513 0372 22       		.byte	34
 1514 0373 01       		.byte	1
 1515 0374 26       		.byte	38
 1516 0375 80       		.byte	-128
 1517 0376 29       		.byte	41
 1518 0377 20       		.byte	32
 1519 0378 2E       		.byte	46
 1520 0379 20       		.byte	32
 1521 037a 2F       		.byte	47
 1522 037b 40       		.byte	64
 1523 037c 30       		.byte	48
 1524 037d 02       		.byte	2
 1525 037e 31       		.byte	49
 1526 037f 08       		.byte	8
 1527 0380 32       		.byte	50
 1528 0381 20       		.byte	32
 1529 0382 33       		.byte	51
 1530 0383 40       		.byte	64
 1531 0384 36       		.byte	54
 1532 0385 A0       		.byte	-96
 1533 0386 38       		.byte	56
ARM GAS  C:\Users\khjtony\AppData\Local\Temp\ccGsdxSj.s 			page 47


 1534 0387 C0       		.byte	-64
 1535 0388 39       		.byte	57
 1536 0389 18       		.byte	24
 1537 038a 46       		.byte	70
 1538 038b 80       		.byte	-128
 1539 038c 4D       		.byte	77
 1540 038d 05       		.byte	5
 1541 038e 4F       		.byte	79
 1542 038f 20       		.byte	32
 1543 0390 57       		.byte	87
 1544 0391 10       		.byte	16
 1545 0392 58       		.byte	88
 1546 0393 20       		.byte	32
 1547 0394 59       		.byte	89
 1548 0395 48       		.byte	72
 1549 0396 5A       		.byte	90
 1550 0397 02       		.byte	2
 1551 0398 5D       		.byte	93
 1552 0399 05       		.byte	5
 1553 039a 5E       		.byte	94
 1554 039b 80       		.byte	-128
 1555 039c 61       		.byte	97
 1556 039d 80       		.byte	-128
 1557 039e 63       		.byte	99
 1558 039f 40       		.byte	64
 1559 03a0 65       		.byte	101
 1560 03a1 02       		.byte	2
 1561 03a2 76       		.byte	118
 1562 03a3 80       		.byte	-128
 1563 03a4 85       		.byte	-123
 1564 03a5 02       		.byte	2
 1565 03a6 87       		.byte	-121
 1566 03a7 40       		.byte	64
 1567 03a8 90       		.byte	-112
 1568 03a9 80       		.byte	-128
 1569 03aa 91       		.byte	-111
 1570 03ab 18       		.byte	24
 1571 03ac 92       		.byte	-110
 1572 03ad 84       		.byte	-124
 1573 03ae 98       		.byte	-104
 1574 03af 20       		.byte	32
 1575 03b0 99       		.byte	-103
 1576 03b1 28       		.byte	40
 1577 03b2 9A       		.byte	-102
 1578 03b3 20       		.byte	32
 1579 03b4 9B       		.byte	-101
 1580 03b5 48       		.byte	72
 1581 03b6 A0       		.byte	-96
 1582 03b7 06       		.byte	6
 1583 03b8 A1       		.byte	-95
 1584 03b9 08       		.byte	8
 1585 03ba A5       		.byte	-91
 1586 03bb 02       		.byte	2
 1587 03bc A6       		.byte	-90
 1588 03bd 80       		.byte	-128
 1589 03be B5       		.byte	-75
 1590 03bf 20       		.byte	32
ARM GAS  C:\Users\khjtony\AppData\Local\Temp\ccGsdxSj.s 			page 48


 1591 03c0 B6       		.byte	-74
 1592 03c1 40       		.byte	64
 1593 03c2 C0       		.byte	-64
 1594 03c3 1F       		.byte	31
 1595 03c4 C2       		.byte	-62
 1596 03c5 2E       		.byte	46
 1597 03c6 C4       		.byte	-60
 1598 03c7 05       		.byte	5
 1599 03c8 CA       		.byte	-54
 1600 03c9 A4       		.byte	-92
 1601 03ca CC       		.byte	-52
 1602 03cb 3F       		.byte	63
 1603 03cc CE       		.byte	-50
 1604 03cd 0E       		.byte	14
 1605 03ce D0       		.byte	-48
 1606 03cf 80       		.byte	-128
 1607 03d0 D2       		.byte	-46
 1608 03d1 20       		.byte	32
 1609 03d2 D6       		.byte	-42
 1610 03d3 DF       		.byte	-33
 1611 03d4 D8       		.byte	-40
 1612 03d5 89       		.byte	-119
 1613 03d6 E8       		.byte	-24
 1614 03d7 80       		.byte	-128
 1615 03d8 EA       		.byte	-22
 1616 03d9 01       		.byte	1
 1617 03da EE       		.byte	-18
 1618 03db 08       		.byte	8
 1619 03dc 9C       		.byte	-100
 1620 03dd 20       		.byte	32
 1621 03de A8       		.byte	-88
 1622 03df 01       		.byte	1
 1623 03e0 AF       		.byte	-81
 1624 03e1 01       		.byte	1
 1625 03e2 04       		.byte	4
 1626 03e3 01       		.byte	1
 1627 03e4 06       		.byte	6
 1628 03e5 06       		.byte	6
 1629 03e6 14       		.byte	20
 1630 03e7 02       		.byte	2
 1631 03e8 16       		.byte	22
 1632 03e9 01       		.byte	1
 1633 03ea 17       		.byte	23
 1634 03eb 01       		.byte	1
 1635 03ec 18       		.byte	24
 1636 03ed 10       		.byte	16
 1637 03ee 1A       		.byte	26
 1638 03ef 20       		.byte	32
 1639 03f0 24       		.byte	36
 1640 03f1 20       		.byte	32
 1641 03f2 26       		.byte	38
 1642 03f3 10       		.byte	16
 1643 03f4 27       		.byte	39
 1644 03f5 02       		.byte	2
 1645 03f6 2E       		.byte	46
 1646 03f7 08       		.byte	8
 1647 03f8 30       		.byte	48
ARM GAS  C:\Users\khjtony\AppData\Local\Temp\ccGsdxSj.s 			page 49


 1648 03f9 03       		.byte	3
 1649 03fa 32       		.byte	50
 1650 03fb 04       		.byte	4
 1651 03fc 33       		.byte	51
 1652 03fd 02       		.byte	2
 1653 03fe 34       		.byte	52
 1654 03ff 08       		.byte	8
 1655 0400 35       		.byte	53
 1656 0401 01       		.byte	1
 1657 0402 36       		.byte	54
 1658 0403 30       		.byte	48
 1659 0404 58       		.byte	88
 1660 0405 04       		.byte	4
 1661 0406 59       		.byte	89
 1662 0407 04       		.byte	4
 1663 0408 5C       		.byte	92
 1664 0409 22       		.byte	34
 1665 040a 5F       		.byte	95
 1666 040b 01       		.byte	1
 1667 040c 03       		.byte	3
 1668 040d 20       		.byte	32
 1669 040e 0A       		.byte	10
 1670 040f 18       		.byte	24
 1671 0410 10       		.byte	16
 1672 0411 02       		.byte	2
 1673 0412 13       		.byte	19
 1674 0413 08       		.byte	8
 1675 0414 18       		.byte	24
 1676 0415 01       		.byte	1
 1677 0416 1A       		.byte	26
 1678 0417 10       		.byte	16
 1679 0418 1B       		.byte	27
 1680 0419 21       		.byte	33
 1681 041a 22       		.byte	34
 1682 041b 04       		.byte	4
 1683 041c 23       		.byte	35
 1684 041d 08       		.byte	8
 1685 041e 28       		.byte	40
 1686 041f 20       		.byte	32
 1687 0420 32       		.byte	50
 1688 0421 04       		.byte	4
 1689 0422 A0       		.byte	-96
 1690 0423 02       		.byte	2
 1691 0424 C0       		.byte	-64
 1692 0425 04       		.byte	4
 1693 0426 C2       		.byte	-62
 1694 0427 06       		.byte	6
 1695 0428 C4       		.byte	-60
 1696 0429 05       		.byte	5
 1697 042a CA       		.byte	-54
 1698 042b 02       		.byte	2
 1699 042c CC       		.byte	-52
 1700 042d 02       		.byte	2
 1701 042e E8       		.byte	-24
 1702 042f 80       		.byte	-128
 1703 0430 A0       		.byte	-96
 1704 0431 02       		.byte	2
ARM GAS  C:\Users\khjtony\AppData\Local\Temp\ccGsdxSj.s 			page 50


 1705 0432 B0       		.byte	-80
 1706 0433 02       		.byte	2
 1707 0434 40       		.byte	64
 1708 0435 41       		.byte	65
 1709 0436 49       		.byte	73
 1710 0437 FF       		.byte	-1
 1711 0438 4A       		.byte	74
 1712 0439 FF       		.byte	-1
 1713 043a 4B       		.byte	75
 1714 043b FF       		.byte	-1
 1715 043c 4F       		.byte	79
 1716 043d 01       		.byte	1
 1717 043e 50       		.byte	80
 1718 043f 18       		.byte	24
 1719 0440 52       		.byte	82
 1720 0441 80       		.byte	-128
 1721 0442 5A       		.byte	90
 1722 0443 04       		.byte	4
 1723 0444 5B       		.byte	91
 1724 0445 04       		.byte	4
 1725 0446 5D       		.byte	93
 1726 0447 11       		.byte	17
 1727 0448 5F       		.byte	95
 1728 0449 01       		.byte	1
 1729 044a 60       		.byte	96
 1730 044b 40       		.byte	64
 1731 044c 62       		.byte	98
 1732 044d 40       		.byte	64
 1733 044e 64       		.byte	100
 1734 044f 40       		.byte	64
 1735 0450 65       		.byte	101
 1736 0451 40       		.byte	64
 1737 0452 66       		.byte	102
 1738 0453 80       		.byte	-128
 1739 0454 68       		.byte	104
 1740 0455 80       		.byte	-128
 1741 0456 6A       		.byte	106
 1742 0457 80       		.byte	-128
 1743 0458 6C       		.byte	108
 1744 0459 80       		.byte	-128
 1745 045a 6E       		.byte	110
 1746 045b 80       		.byte	-128
 1747 045c 82       		.byte	-126
 1748 045d 01       		.byte	1
 1749 045e 92       		.byte	-110
 1750 045f 01       		.byte	1
 1751 0460 B0       		.byte	-80
 1752 0461 01       		.byte	1
 1753 0462 BE       		.byte	-66
 1754 0463 01       		.byte	1
 1755 0464 C0       		.byte	-64
 1756 0465 14       		.byte	20
 1757 0466 C5       		.byte	-59
 1758 0467 EC       		.byte	-20
 1759 0468 C6       		.byte	-58
 1760 0469 02       		.byte	2
 1761 046a C8       		.byte	-56
ARM GAS  C:\Users\khjtony\AppData\Local\Temp\ccGsdxSj.s 			page 51


 1762 046b 07       		.byte	7
 1763 046c C9       		.byte	-55
 1764 046d FF       		.byte	-1
 1765 046e CA       		.byte	-54
 1766 046f FF       		.byte	-1
 1767 0470 CB       		.byte	-53
 1768 0471 FF       		.byte	-1
 1769 0472 CD       		.byte	-51
 1770 0473 83       		.byte	-125
 1771 0474 CE       		.byte	-50
 1772 0475 03       		.byte	3
 1773 0476 CF       		.byte	-49
 1774 0477 01       		.byte	1
 1775 0478 D0       		.byte	-48
 1776 0479 18       		.byte	24
 1777 047a D4       		.byte	-44
 1778 047b 01       		.byte	1
 1779 047c D6       		.byte	-42
 1780 047d 04       		.byte	4
 1781 047e D8       		.byte	-40
 1782 047f 04       		.byte	4
 1783 0480 DA       		.byte	-38
 1784 0481 04       		.byte	4
 1785 0482 DB       		.byte	-37
 1786 0483 04       		.byte	4
 1787 0484 DD       		.byte	-35
 1788 0485 11       		.byte	17
 1789 0486 DF       		.byte	-33
 1790 0487 01       		.byte	1
 1791 0488 E0       		.byte	-32
 1792 0489 40       		.byte	64
 1793 048a E2       		.byte	-30
 1794 048b 40       		.byte	64
 1795 048c E4       		.byte	-28
 1796 048d 40       		.byte	64
 1797 048e E5       		.byte	-27
 1798 048f 40       		.byte	64
 1799 0490 E6       		.byte	-26
 1800 0491 80       		.byte	-128
 1801 0492 E8       		.byte	-24
 1802 0493 80       		.byte	-128
 1803 0494 EA       		.byte	-22
 1804 0495 80       		.byte	-128
 1805 0496 EC       		.byte	-20
 1806 0497 80       		.byte	-128
 1807 0498 EE       		.byte	-18
 1808 0499 80       		.byte	-128
 1809 049a 06       		.byte	6
 1810 049b 40       		.byte	64
 1811 049c 0D       		.byte	13
 1812 049d 02       		.byte	2
 1813 049e 1E       		.byte	30
 1814 049f 80       		.byte	-128
 1815 04a0 41       		.byte	65
 1816 04a1 02       		.byte	2
 1817 04a2 43       		.byte	67
 1818 04a3 80       		.byte	-128
ARM GAS  C:\Users\khjtony\AppData\Local\Temp\ccGsdxSj.s 			page 52


 1819 04a4 46       		.byte	70
 1820 04a5 40       		.byte	64
 1821 04a6 47       		.byte	71
 1822 04a7 80       		.byte	-128
 1823 04a8 4D       		.byte	77
 1824 04a9 04       		.byte	4
 1825 04aa 4F       		.byte	79
 1826 04ab 01       		.byte	1
 1827 04ac 56       		.byte	86
 1828 04ad 40       		.byte	64
 1829 04ae 57       		.byte	87
 1830 04af 80       		.byte	-128
 1831 04b0 5D       		.byte	93
 1832 04b1 04       		.byte	4
 1833 04b2 5E       		.byte	94
 1834 04b3 80       		.byte	-128
 1835 04b4 5F       		.byte	95
 1836 04b5 01       		.byte	1
 1837 04b6 67       		.byte	103
 1838 04b7 80       		.byte	-128
 1839 04b8 71       		.byte	113
 1840 04b9 02       		.byte	2
 1841 04ba 73       		.byte	115
 1842 04bb 80       		.byte	-128
 1843 04bc 87       		.byte	-121
 1844 04bd 40       		.byte	64
 1845 04be C0       		.byte	-64
 1846 04bf 10       		.byte	16
 1847 04c0 C2       		.byte	-62
 1848 04c1 10       		.byte	16
 1849 04c2 D0       		.byte	-48
 1850 04c3 99       		.byte	-103
 1851 04c4 D6       		.byte	-42
 1852 04c5 D0       		.byte	-48
 1853 04c6 D8       		.byte	-40
 1854 04c7 80       		.byte	-128
 1855 04c8 E2       		.byte	-30
 1856 04c9 10       		.byte	16
 1857 04ca 9C       		.byte	-100
 1858 04cb 20       		.byte	32
 1859 04cc 8C       		.byte	-116
 1860 04cd 20       		.byte	32
 1861 04ce 9C       		.byte	-100
 1862 04cf 20       		.byte	32
 1863 04d0 E2       		.byte	-30
 1864 04d1 10       		.byte	16
 1865 04d2 0B       		.byte	11
 1866 04d3 10       		.byte	16
 1867 04d4 0D       		.byte	13
 1868 04d5 20       		.byte	32
 1869 04d6 33       		.byte	51
 1870 04d7 82       		.byte	-126
 1871 04d8 37       		.byte	55
 1872 04d9 12       		.byte	18
 1873 04da 3B       		.byte	59
 1874 04db 20       		.byte	32
 1875 04dc 59       		.byte	89
ARM GAS  C:\Users\khjtony\AppData\Local\Temp\ccGsdxSj.s 			page 53


 1876 04dd 40       		.byte	64
 1877 04de 5F       		.byte	95
 1878 04df 80       		.byte	-128
 1879 04e0 66       		.byte	102
 1880 04e1 08       		.byte	8
 1881 04e2 87       		.byte	-121
 1882 04e3 02       		.byte	2
 1883 04e4 C2       		.byte	-62
 1884 04e5 90       		.byte	-112
 1885 04e6 CC       		.byte	-52
 1886 04e7 F0       		.byte	-16
 1887 04e8 CE       		.byte	-50
 1888 04e9 10       		.byte	16
 1889 04ea D4       		.byte	-44
 1890 04eb 80       		.byte	-128
 1891 04ec D6       		.byte	-42
 1892 04ed 20       		.byte	32
 1893 04ee D8       		.byte	-40
 1894 04ef 80       		.byte	-128
 1895 04f0 E6       		.byte	-26
 1896 04f1 40       		.byte	64
 1897 04f2 05       		.byte	5
 1898 04f3 02       		.byte	2
 1899 04f4 32       		.byte	50
 1900 04f5 02       		.byte	2
 1901 04f6 33       		.byte	51
 1902 04f7 20       		.byte	32
 1903 04f8 36       		.byte	54
 1904 04f9 20       		.byte	32
 1905 04fa 57       		.byte	87
 1906 04fb 10       		.byte	16
 1907 04fc 82       		.byte	-126
 1908 04fd 20       		.byte	32
 1909 04fe 83       		.byte	-125
 1910 04ff 10       		.byte	16
 1911 0500 89       		.byte	-119
 1912 0501 40       		.byte	64
 1913 0502 97       		.byte	-105
 1914 0503 20       		.byte	32
 1915 0504 9D       		.byte	-99
 1916 0505 40       		.byte	64
 1917 0506 9F       		.byte	-97
 1918 0507 10       		.byte	16
 1919 0508 A7       		.byte	-89
 1920 0509 82       		.byte	-126
 1921 050a A9       		.byte	-87
 1922 050b 20       		.byte	32
 1923 050c AB       		.byte	-85
 1924 050d 80       		.byte	-128
 1925 050e AF       		.byte	-81
 1926 050f 10       		.byte	16
 1927 0510 B2       		.byte	-78
 1928 0511 08       		.byte	8
 1929 0512 C0       		.byte	-64
 1930 0513 20       		.byte	32
 1931 0514 CC       		.byte	-52
 1932 0515 70       		.byte	112
ARM GAS  C:\Users\khjtony\AppData\Local\Temp\ccGsdxSj.s 			page 54


 1933 0516 D4       		.byte	-44
 1934 0517 40       		.byte	64
 1935 0518 E2       		.byte	-30
 1936 0519 20       		.byte	32
 1937 051a E6       		.byte	-26
 1938 051b 80       		.byte	-128
 1939 051c E8       		.byte	-24
 1940 051d 30       		.byte	48
 1941 051e EA       		.byte	-22
 1942 051f 80       		.byte	-128
 1943 0520 87       		.byte	-121
 1944 0521 90       		.byte	-112
 1945 0522 97       		.byte	-105
 1946 0523 20       		.byte	32
 1947 0524 A6       		.byte	-90
 1948 0525 02       		.byte	2
 1949 0526 A7       		.byte	-89
 1950 0527 B2       		.byte	-78
 1951 0528 B1       		.byte	-79
 1952 0529 02       		.byte	2
 1953 052a E6       		.byte	-26
 1954 052b 50       		.byte	80
 1955 052c A7       		.byte	-89
 1956 052d 12       		.byte	18
 1957 052e AA       		.byte	-86
 1958 052f 02       		.byte	2
 1959 0530 AF       		.byte	-81
 1960 0531 20       		.byte	32
 1961 0532 EA       		.byte	-22
 1962 0533 80       		.byte	-128
 1963 0534 EE       		.byte	-18
 1964 0535 10       		.byte	16
 1965 0536 0C       		.byte	12
 1966 0537 80       		.byte	-128
 1967 0538 C2       		.byte	-62
 1968 0539 01       		.byte	1
 1969 053a B0       		.byte	-80
 1970 053b 80       		.byte	-128
 1971 053c EE       		.byte	-18
 1972 053d 01       		.byte	1
 1973 053e 98       		.byte	-104
 1974 053f 20       		.byte	32
 1975 0540 B0       		.byte	-80
 1976 0541 20       		.byte	32
 1977 0542 E8       		.byte	-24
 1978 0543 01       		.byte	1
 1979 0544 98       		.byte	-104
 1980 0545 20       		.byte	32
 1981 0546 A7       		.byte	-89
 1982 0547 12       		.byte	18
 1983 0548 87       		.byte	-121
 1984 0549 02       		.byte	2
 1985 054a 8F       		.byte	-113
 1986 054b 10       		.byte	16
 1987 054c A7       		.byte	-89
 1988 054d 12       		.byte	18
 1989 054e E2       		.byte	-30
ARM GAS  C:\Users\khjtony\AppData\Local\Temp\ccGsdxSj.s 			page 55


 1990 054f 10       		.byte	16
 1991 0550 98       		.byte	-104
 1992 0551 20       		.byte	32
 1993 0552 01       		.byte	1
 1994 0553 02       		.byte	2
 1995 0554 18       		.byte	24
 1996 0555 10       		.byte	16
 1997 0556 78       		.byte	120
 1998 0557 20       		.byte	32
 1999 0558 8C       		.byte	-116
 2000 0559 10       		.byte	16
 2001 055a 8D       		.byte	-115
 2002 055b 02       		.byte	2
 2003 055c 98       		.byte	-104
 2004 055d 20       		.byte	32
 2005 055e C0       		.byte	-64
 2006 055f 08       		.byte	8
 2007 0560 C6       		.byte	-58
 2008 0561 08       		.byte	8
 2009 0562 DE       		.byte	-34
 2010 0563 02       		.byte	2
 2011 0564 E2       		.byte	-30
 2012 0565 0A       		.byte	10
 2013 0566 00       		.byte	0
 2014 0567 07       		.byte	7
 2015 0568 01       		.byte	1
 2016 0569 01       		.byte	1
 2017 056a 08       		.byte	8
 2018 056b 05       		.byte	5
 2019 056c 09       		.byte	9
 2020 056d 01       		.byte	1
 2021 056e 0A       		.byte	10
 2022 056f 03       		.byte	3
 2023 0570 0C       		.byte	12
 2024 0571 04       		.byte	4
 2025 0572 10       		.byte	16
 2026 0573 02       		.byte	2
 2027 0574 1A       		.byte	26
 2028 0575 02       		.byte	2
 2029 0576 00       		.byte	0
 2030 0577 FF       		.byte	-1
 2031 0578 01       		.byte	1
 2032 0579 FF       		.byte	-1
 2033 057a 0000     		.align	2
 2034              		.type	BS_IOPINS0_0_VAL.4879, %object
 2035              		.size	BS_IOPINS0_0_VAL.4879, 8
 2036              	BS_IOPINS0_0_VAL.4879:
 2037 057c 02       		.byte	2
 2038 057d 01       		.byte	1
 2039 057e 01       		.byte	1
 2040 057f 00       		.byte	0
 2041 0580 01       		.byte	1
 2042 0581 00       		.byte	0
 2043 0582 00       		.byte	0
 2044 0583 00       		.byte	0
 2045              		.align	2
 2046              		.type	BS_IOPINS0_2_VAL.4880, %object
ARM GAS  C:\Users\khjtony\AppData\Local\Temp\ccGsdxSj.s 			page 56


 2047              		.size	BS_IOPINS0_2_VAL.4880, 8
 2048              	BS_IOPINS0_2_VAL.4880:
 2049 0584 00       		.byte	0
 2050 0585 7F       		.byte	127
 2051 0586 7F       		.byte	127
 2052 0587 00       		.byte	0
 2053 0588 00       		.byte	0
 2054 0589 00       		.byte	0
 2055 058a 00       		.byte	0
 2056 058b 00       		.byte	0
 2057              		.align	2
 2058              		.type	BS_IOPINS0_4_VAL.4881, %object
 2059              		.size	BS_IOPINS0_4_VAL.4881, 10
 2060              	BS_IOPINS0_4_VAL.4881:
 2061 058c 80       		.byte	-128
 2062 058d 00       		.byte	0
 2063 058e 10       		.byte	16
 2064 058f AC       		.byte	-84
 2065 0590 2C       		.byte	44
 2066 0591 00       		.byte	0
 2067 0592 2C       		.byte	44
 2068 0593 00       		.byte	0
 2069 0594 00       		.byte	0
 2070 0595 00       		.byte	0
 2071 0596 0000     		.align	2
 2072              		.type	BS_IOPINS0_5_VAL.4882, %object
 2073              		.size	BS_IOPINS0_5_VAL.4882, 8
 2074              	BS_IOPINS0_5_VAL.4882:
 2075 0598 01       		.byte	1
 2076 0599 00       		.byte	0
 2077 059a 00       		.byte	0
 2078 059b 00       		.byte	0
 2079 059c 00       		.byte	0
 2080 059d 00       		.byte	0
 2081 059e 00       		.byte	0
 2082 059f 00       		.byte	0
 2083              		.align	2
 2084              		.type	BS_IOPINS0_6_VAL.4883, %object
 2085              		.size	BS_IOPINS0_6_VAL.4883, 10
 2086              	BS_IOPINS0_6_VAL.4883:
 2087 05a0 80       		.byte	-128
 2088 05a1 00       		.byte	0
 2089 05a2 00       		.byte	0
 2090 05a3 82       		.byte	-126
 2091 05a4 02       		.byte	2
 2092 05a5 00       		.byte	0
 2093 05a6 00       		.byte	0
 2094 05a7 00       		.byte	0
 2095 05a8 00       		.byte	0
 2096 05a9 00       		.byte	0
 2097 05aa 0000     		.align	2
 2098              		.type	BS_UDB_1_4_0_CONFIG_VAL.4896, %object
 2099              		.size	BS_UDB_1_4_0_CONFIG_VAL.4896, 128
 2100              	BS_UDB_1_4_0_CONFIG_VAL.4896:
 2101 05ac 00       		.byte	0
 2102 05ad 00       		.byte	0
 2103 05ae 00       		.byte	0
ARM GAS  C:\Users\khjtony\AppData\Local\Temp\ccGsdxSj.s 			page 57


 2104 05af 00       		.byte	0
 2105 05b0 00       		.byte	0
 2106 05b1 18       		.byte	24
 2107 05b2 00       		.byte	0
 2108 05b3 02       		.byte	2
 2109 05b4 02       		.byte	2
 2110 05b5 02       		.byte	2
 2111 05b6 0D       		.byte	13
 2112 05b7 18       		.byte	24
 2113 05b8 00       		.byte	0
 2114 05b9 1A       		.byte	26
 2115 05ba 00       		.byte	0
 2116 05bb 00       		.byte	0
 2117 05bc 03       		.byte	3
 2118 05bd 00       		.byte	0
 2119 05be 0C       		.byte	12
 2120 05bf 00       		.byte	0
 2121 05c0 05       		.byte	5
 2122 05c1 C1       		.byte	-63
 2123 05c2 0A       		.byte	10
 2124 05c3 38       		.byte	56
 2125 05c4 00       		.byte	0
 2126 05c5 18       		.byte	24
 2127 05c6 00       		.byte	0
 2128 05c7 00       		.byte	0
 2129 05c8 00       		.byte	0
 2130 05c9 33       		.byte	51
 2131 05ca 00       		.byte	0
 2132 05cb 44       		.byte	68
 2133 05cc 00       		.byte	0
 2134 05cd 1A       		.byte	26
 2135 05ce 00       		.byte	0
 2136 05cf 00       		.byte	0
 2137 05d0 09       		.byte	9
 2138 05d1 82       		.byte	-126
 2139 05d2 06       		.byte	6
 2140 05d3 00       		.byte	0
 2141 05d4 00       		.byte	0
 2142 05d5 9C       		.byte	-100
 2143 05d6 00       		.byte	0
 2144 05d7 03       		.byte	3
 2145 05d8 00       		.byte	0
 2146 05d9 18       		.byte	24
 2147 05da 00       		.byte	0
 2148 05db 02       		.byte	2
 2149 05dc 00       		.byte	0
 2150 05dd 00       		.byte	0
 2151 05de 0F       		.byte	15
 2152 05df 0F       		.byte	15
 2153 05e0 00       		.byte	0
 2154 05e1 E0       		.byte	-32
 2155 05e2 00       		.byte	0
 2156 05e3 13       		.byte	19
 2157 05e4 00       		.byte	0
 2158 05e5 00       		.byte	0
 2159 05e6 08       		.byte	8
 2160 05e7 28       		.byte	40
ARM GAS  C:\Users\khjtony\AppData\Local\Temp\ccGsdxSj.s 			page 58


 2161 05e8 00       		.byte	0
 2162 05e9 00       		.byte	0
 2163 05ea 00       		.byte	0
 2164 05eb 00       		.byte	0
 2165 05ec 32       		.byte	50
 2166 05ed 06       		.byte	6
 2167 05ee 40       		.byte	64
 2168 05ef 00       		.byte	0
 2169 05f0 05       		.byte	5
 2170 05f1 0E       		.byte	14
 2171 05f2 FD       		.byte	-3
 2172 05f3 BC       		.byte	-68
 2173 05f4 3D       		.byte	61
 2174 05f5 FF       		.byte	-1
 2175 05f6 FF       		.byte	-1
 2176 05f7 FF       		.byte	-1
 2177 05f8 22       		.byte	34
 2178 05f9 00       		.byte	0
 2179 05fa F0       		.byte	-16
 2180 05fb 08       		.byte	8
 2181 05fc 04       		.byte	4
 2182 05fd 00       		.byte	0
 2183 05fe 00       		.byte	0
 2184 05ff 00       		.byte	0
 2185 0600 00       		.byte	0
 2186 0601 00       		.byte	0
 2187 0602 02       		.byte	2
 2188 0603 28       		.byte	40
 2189 0604 04       		.byte	4
 2190 0605 04       		.byte	4
 2191 0606 04       		.byte	4
 2192 0607 04       		.byte	4
 2193 0608 00       		.byte	0
 2194 0609 00       		.byte	0
 2195 060a 00       		.byte	0
 2196 060b 01       		.byte	1
 2197 060c 00       		.byte	0
 2198 060d 00       		.byte	0
 2199 060e C0       		.byte	-64
 2200 060f 00       		.byte	0
 2201 0610 40       		.byte	64
 2202 0611 01       		.byte	1
 2203 0612 10       		.byte	16
 2204 0613 11       		.byte	17
 2205 0614 C0       		.byte	-64
 2206 0615 01       		.byte	1
 2207 0616 00       		.byte	0
 2208 0617 11       		.byte	17
 2209 0618 40       		.byte	64
 2210 0619 01       		.byte	1
 2211 061a 40       		.byte	64
 2212 061b 01       		.byte	1
 2213 061c 00       		.byte	0
 2214 061d 00       		.byte	0
 2215 061e 00       		.byte	0
 2216 061f 00       		.byte	0
 2217 0620 00       		.byte	0
ARM GAS  C:\Users\khjtony\AppData\Local\Temp\ccGsdxSj.s 			page 59


 2218 0621 00       		.byte	0
 2219 0622 00       		.byte	0
 2220 0623 00       		.byte	0
 2221 0624 00       		.byte	0
 2222 0625 00       		.byte	0
 2223 0626 00       		.byte	0
 2224 0627 00       		.byte	0
 2225 0628 00       		.byte	0
 2226 0629 00       		.byte	0
 2227 062a 00       		.byte	0
 2228 062b 00       		.byte	0
 2229              		.text
 2230              	.Letext0:
 2231              		.file 2 "c:\\program files (x86)\\cypress\\psoc creator\\3.2\\psoc creator\\import\\gnu\\arm\\4.8.
 2232              		.file 3 ".\\Generated_Source\\PSoC5\\cytypes.h"