ARM GAS  C:\Users\khjtony\AppData\Local\Temp\ccW9FgfY.s 			page 1


   1              		.syntax unified
   2              		.cpu cortex-m3
   3              		.fpu softvfp
   4              		.eabi_attribute 20, 1
   5              		.eabi_attribute 21, 1
   6              		.eabi_attribute 23, 3
   7              		.eabi_attribute 24, 1
   8              		.eabi_attribute 25, 1
   9              		.eabi_attribute 26, 1
  10              		.eabi_attribute 30, 6
  11              		.eabi_attribute 34, 1
  12              		.eabi_attribute 18, 4
  13              		.thumb
  14              		.file	"CySpc.c"
  15              		.text
  16              	.Ltext0:
  17              		.cfi_sections	.debug_frame
  18              		.global	SpcLockState
  19              		.bss
  20              		.type	SpcLockState, %object
  21              		.size	SpcLockState, 1
  22              	SpcLockState:
  23 0000 00       		.space	1
  24 0001 000000   		.align	2
  25              	spcWaitPipeBypass:
  26 0004 00000000 		.space	4
  27              		.section	.text.CySpcStart,"ax",%progbits
  28              		.align	2
  29              		.global	CySpcStart
  30              		.thumb
  31              		.thumb_func
  32              		.type	CySpcStart, %function
  33              	CySpcStart:
  34              	.LFB0:
  35              		.file 1 ".\\Generated_Source\\PSoC5\\CySpc.c"
   1:.\Generated_Source\PSoC5/CySpc.c **** /*******************************************************************************
   2:.\Generated_Source\PSoC5/CySpc.c **** * File Name: CySpc.c
   3:.\Generated_Source\PSoC5/CySpc.c **** * Version 4.20
   4:.\Generated_Source\PSoC5/CySpc.c **** *
   5:.\Generated_Source\PSoC5/CySpc.c **** *  Description:
   6:.\Generated_Source\PSoC5/CySpc.c **** *   Provides an API for the System Performance Component.
   7:.\Generated_Source\PSoC5/CySpc.c **** *   The SPC functions are not meant to be called directly by the user
   8:.\Generated_Source\PSoC5/CySpc.c **** *   application.
   9:.\Generated_Source\PSoC5/CySpc.c **** *
  10:.\Generated_Source\PSoC5/CySpc.c **** ********************************************************************************
  11:.\Generated_Source\PSoC5/CySpc.c **** * Copyright 2008-2014, Cypress Semiconductor Corporation.  All rights reserved.
  12:.\Generated_Source\PSoC5/CySpc.c **** * You may use this file only in accordance with the license, terms, conditions,
  13:.\Generated_Source\PSoC5/CySpc.c **** * disclaimers, and limitations in the end user license agreement accompanying
  14:.\Generated_Source\PSoC5/CySpc.c **** * the software package with which this file was provided.
  15:.\Generated_Source\PSoC5/CySpc.c **** *******************************************************************************/
  16:.\Generated_Source\PSoC5/CySpc.c **** 
  17:.\Generated_Source\PSoC5/CySpc.c **** #include "CySpc.h"
  18:.\Generated_Source\PSoC5/CySpc.c **** 
  19:.\Generated_Source\PSoC5/CySpc.c **** #define CY_SPC_KEY_ONE                      (0xB6u)
  20:.\Generated_Source\PSoC5/CySpc.c **** #define CY_SPC_KEY_TWO(x)                   ((uint8) (((uint16) 0xD3u) + ((uint16) (x))))
  21:.\Generated_Source\PSoC5/CySpc.c **** 
  22:.\Generated_Source\PSoC5/CySpc.c **** /* Command Codes */
ARM GAS  C:\Users\khjtony\AppData\Local\Temp\ccW9FgfY.s 			page 2


  23:.\Generated_Source\PSoC5/CySpc.c **** #define CY_SPC_CMD_LD_BYTE                  (0x00u)
  24:.\Generated_Source\PSoC5/CySpc.c **** #define CY_SPC_CMD_LD_MULTI_BYTE            (0x01u)
  25:.\Generated_Source\PSoC5/CySpc.c **** #define CY_SPC_CMD_LD_ROW                   (0x02u)
  26:.\Generated_Source\PSoC5/CySpc.c **** #define CY_SPC_CMD_RD_BYTE                  (0x03u)
  27:.\Generated_Source\PSoC5/CySpc.c **** #define CY_SPC_CMD_RD_MULTI_BYTE            (0x04u)
  28:.\Generated_Source\PSoC5/CySpc.c **** #define CY_SPC_CMD_WR_ROW                   (0x05u)
  29:.\Generated_Source\PSoC5/CySpc.c **** #define CY_SPC_CMD_WR_USER_NVL              (0x06u)
  30:.\Generated_Source\PSoC5/CySpc.c **** #define CY_SPC_CMD_PRG_ROW                  (0x07u)
  31:.\Generated_Source\PSoC5/CySpc.c **** #define CY_SPC_CMD_ER_SECTOR                (0x08u)
  32:.\Generated_Source\PSoC5/CySpc.c **** #define CY_SPC_CMD_ER_ALL                   (0x09u)
  33:.\Generated_Source\PSoC5/CySpc.c **** #define CY_SPC_CMD_RD_HIDDEN                (0x0Au)
  34:.\Generated_Source\PSoC5/CySpc.c **** #define CY_SPC_CMD_PRG_PROTECT              (0x0Bu)
  35:.\Generated_Source\PSoC5/CySpc.c **** #define CY_SPC_CMD_CHECKSUM                 (0x0Cu)
  36:.\Generated_Source\PSoC5/CySpc.c **** #define CY_SPC_CMD_DWNLD_ALGORITHM          (0x0Du)
  37:.\Generated_Source\PSoC5/CySpc.c **** #define CY_SPC_CMD_GET_TEMP                 (0x0Eu)
  38:.\Generated_Source\PSoC5/CySpc.c **** #define CY_SPC_CMD_GET_ADC                  (0x0Fu)
  39:.\Generated_Source\PSoC5/CySpc.c **** #define CY_SPC_CMD_RD_NVL_VOLATILE          (0x10u)
  40:.\Generated_Source\PSoC5/CySpc.c **** #define CY_SPC_CMD_SETUP_TS                 (0x11u)
  41:.\Generated_Source\PSoC5/CySpc.c **** #define CY_SPC_CMD_DISABLE_TS               (0x12u)
  42:.\Generated_Source\PSoC5/CySpc.c **** #define CY_SPC_CMD_ER_ROW                   (0x13u)
  43:.\Generated_Source\PSoC5/CySpc.c **** 
  44:.\Generated_Source\PSoC5/CySpc.c **** /* Enable bit in Active and Alternate Active mode templates */
  45:.\Generated_Source\PSoC5/CySpc.c **** #define PM_SPC_PM_EN                        (0x08u)
  46:.\Generated_Source\PSoC5/CySpc.c **** 
  47:.\Generated_Source\PSoC5/CySpc.c **** /* Gate calls to the SPC. */
  48:.\Generated_Source\PSoC5/CySpc.c **** uint8 SpcLockState = CY_SPC_UNLOCKED;
  49:.\Generated_Source\PSoC5/CySpc.c **** 
  50:.\Generated_Source\PSoC5/CySpc.c **** 
  51:.\Generated_Source\PSoC5/CySpc.c **** #if(CY_PSOC5)
  52:.\Generated_Source\PSoC5/CySpc.c **** 
  53:.\Generated_Source\PSoC5/CySpc.c ****     /***************************************************************************
  54:.\Generated_Source\PSoC5/CySpc.c ****     * The wait-state pipeline must be enabled prior to accessing the SPC
  55:.\Generated_Source\PSoC5/CySpc.c ****     * register interface regardless of CPU frequency. The CySpcLock() saves
  56:.\Generated_Source\PSoC5/CySpc.c ****     * current wait-state pipeline state and enables it. The CySpcUnlock()
  57:.\Generated_Source\PSoC5/CySpc.c ****     * function, which must be called after SPC transaction, restores original
  58:.\Generated_Source\PSoC5/CySpc.c ****     * state.
  59:.\Generated_Source\PSoC5/CySpc.c ****     ***************************************************************************/
  60:.\Generated_Source\PSoC5/CySpc.c ****     static uint32 spcWaitPipeBypass = 0u;
  61:.\Generated_Source\PSoC5/CySpc.c **** 
  62:.\Generated_Source\PSoC5/CySpc.c **** #endif  /* (CY_PSOC5) */
  63:.\Generated_Source\PSoC5/CySpc.c **** 
  64:.\Generated_Source\PSoC5/CySpc.c **** 
  65:.\Generated_Source\PSoC5/CySpc.c **** /*******************************************************************************
  66:.\Generated_Source\PSoC5/CySpc.c **** * Function Name: CySpcStart
  67:.\Generated_Source\PSoC5/CySpc.c **** ********************************************************************************
  68:.\Generated_Source\PSoC5/CySpc.c **** * Summary:
  69:.\Generated_Source\PSoC5/CySpc.c **** *  Starts the SPC.
  70:.\Generated_Source\PSoC5/CySpc.c **** *
  71:.\Generated_Source\PSoC5/CySpc.c **** * Parameters:
  72:.\Generated_Source\PSoC5/CySpc.c **** *  None
  73:.\Generated_Source\PSoC5/CySpc.c **** *
  74:.\Generated_Source\PSoC5/CySpc.c **** * Return:
  75:.\Generated_Source\PSoC5/CySpc.c **** *  None
  76:.\Generated_Source\PSoC5/CySpc.c **** *
  77:.\Generated_Source\PSoC5/CySpc.c **** *******************************************************************************/
  78:.\Generated_Source\PSoC5/CySpc.c **** void CySpcStart(void) 
  79:.\Generated_Source\PSoC5/CySpc.c **** {
ARM GAS  C:\Users\khjtony\AppData\Local\Temp\ccW9FgfY.s 			page 3


  36              		.loc 1 79 0
  37              		.cfi_startproc
  38              		@ args = 0, pretend = 0, frame = 8
  39              		@ frame_needed = 1, uses_anonymous_args = 0
  40 0000 80B5     		push	{r7, lr}
  41              		.cfi_def_cfa_offset 8
  42              		.cfi_offset 7, -8
  43              		.cfi_offset 14, -4
  44 0002 82B0     		sub	sp, sp, #8
  45              		.cfi_def_cfa_offset 16
  46 0004 00AF     		add	r7, sp, #0
  47              		.cfi_def_cfa_register 7
  80:.\Generated_Source\PSoC5/CySpc.c ****     /* Save current global interrupt enable and disable it */
  81:.\Generated_Source\PSoC5/CySpc.c ****     uint8 interruptState = CyEnterCriticalSection();
  48              		.loc 1 81 0
  49 0006 FFF7FEFF 		bl	CyEnterCriticalSection
  50 000a 0346     		mov	r3, r0
  51 000c FB71     		strb	r3, [r7, #7]
  82:.\Generated_Source\PSoC5/CySpc.c **** 
  83:.\Generated_Source\PSoC5/CySpc.c ****     CY_SPC_PM_ACT_REG  |= PM_SPC_PM_EN;
  52              		.loc 1 83 0
  53 000e 0B4B     		ldr	r3, .L2
  54 0010 0A4A     		ldr	r2, .L2
  55 0012 1278     		ldrb	r2, [r2]
  56 0014 D2B2     		uxtb	r2, r2
  57 0016 42F00802 		orr	r2, r2, #8
  58 001a D2B2     		uxtb	r2, r2
  59 001c 1A70     		strb	r2, [r3]
  84:.\Generated_Source\PSoC5/CySpc.c ****     CY_SPC_PM_STBY_REG |= PM_SPC_PM_EN;
  60              		.loc 1 84 0
  61 001e 084B     		ldr	r3, .L2+4
  62 0020 074A     		ldr	r2, .L2+4
  63 0022 1278     		ldrb	r2, [r2]
  64 0024 D2B2     		uxtb	r2, r2
  65 0026 42F00802 		orr	r2, r2, #8
  66 002a D2B2     		uxtb	r2, r2
  67 002c 1A70     		strb	r2, [r3]
  85:.\Generated_Source\PSoC5/CySpc.c **** 
  86:.\Generated_Source\PSoC5/CySpc.c ****     /* Restore global interrupt enable state */
  87:.\Generated_Source\PSoC5/CySpc.c ****     CyExitCriticalSection(interruptState);
  68              		.loc 1 87 0
  69 002e FB79     		ldrb	r3, [r7, #7]	@ zero_extendqisi2
  70 0030 1846     		mov	r0, r3
  71 0032 FFF7FEFF 		bl	CyExitCriticalSection
  88:.\Generated_Source\PSoC5/CySpc.c **** }
  72              		.loc 1 88 0
  73 0036 0837     		adds	r7, r7, #8
  74 0038 BD46     		mov	sp, r7
  75              		@ sp needed
  76 003a 80BD     		pop	{r7, pc}
  77              	.L3:
  78              		.align	2
  79              	.L2:
  80 003c A0430040 		.word	1073759136
  81 0040 B0430040 		.word	1073759152
  82              		.cfi_endproc
  83              	.LFE0:
ARM GAS  C:\Users\khjtony\AppData\Local\Temp\ccW9FgfY.s 			page 4


  84              		.size	CySpcStart, .-CySpcStart
  85              		.section	.text.CySpcStop,"ax",%progbits
  86              		.align	2
  87              		.global	CySpcStop
  88              		.thumb
  89              		.thumb_func
  90              		.type	CySpcStop, %function
  91              	CySpcStop:
  92              	.LFB1:
  89:.\Generated_Source\PSoC5/CySpc.c **** 
  90:.\Generated_Source\PSoC5/CySpc.c **** 
  91:.\Generated_Source\PSoC5/CySpc.c **** /*******************************************************************************
  92:.\Generated_Source\PSoC5/CySpc.c **** * Function Name: CySpcStop
  93:.\Generated_Source\PSoC5/CySpc.c **** ********************************************************************************
  94:.\Generated_Source\PSoC5/CySpc.c **** * Summary:
  95:.\Generated_Source\PSoC5/CySpc.c **** *  Stops the SPC.
  96:.\Generated_Source\PSoC5/CySpc.c **** *
  97:.\Generated_Source\PSoC5/CySpc.c **** * Parameters:
  98:.\Generated_Source\PSoC5/CySpc.c **** *  None
  99:.\Generated_Source\PSoC5/CySpc.c **** *
 100:.\Generated_Source\PSoC5/CySpc.c **** * Return:
 101:.\Generated_Source\PSoC5/CySpc.c **** *  None
 102:.\Generated_Source\PSoC5/CySpc.c **** *
 103:.\Generated_Source\PSoC5/CySpc.c **** *******************************************************************************/
 104:.\Generated_Source\PSoC5/CySpc.c **** void CySpcStop(void) 
 105:.\Generated_Source\PSoC5/CySpc.c **** {
  93              		.loc 1 105 0
  94              		.cfi_startproc
  95              		@ args = 0, pretend = 0, frame = 8
  96              		@ frame_needed = 1, uses_anonymous_args = 0
  97 0000 80B5     		push	{r7, lr}
  98              		.cfi_def_cfa_offset 8
  99              		.cfi_offset 7, -8
 100              		.cfi_offset 14, -4
 101 0002 82B0     		sub	sp, sp, #8
 102              		.cfi_def_cfa_offset 16
 103 0004 00AF     		add	r7, sp, #0
 104              		.cfi_def_cfa_register 7
 106:.\Generated_Source\PSoC5/CySpc.c ****     /* Save current global interrupt enable and disable it */
 107:.\Generated_Source\PSoC5/CySpc.c ****     uint8 interruptState = CyEnterCriticalSection();
 105              		.loc 1 107 0
 106 0006 FFF7FEFF 		bl	CyEnterCriticalSection
 107 000a 0346     		mov	r3, r0
 108 000c FB71     		strb	r3, [r7, #7]
 108:.\Generated_Source\PSoC5/CySpc.c **** 
 109:.\Generated_Source\PSoC5/CySpc.c ****     CY_SPC_PM_ACT_REG  &= ((uint8)(~PM_SPC_PM_EN));
 109              		.loc 1 109 0
 110 000e 0B4B     		ldr	r3, .L5
 111 0010 0A4A     		ldr	r2, .L5
 112 0012 1278     		ldrb	r2, [r2]
 113 0014 D2B2     		uxtb	r2, r2
 114 0016 22F00802 		bic	r2, r2, #8
 115 001a D2B2     		uxtb	r2, r2
 116 001c 1A70     		strb	r2, [r3]
 110:.\Generated_Source\PSoC5/CySpc.c ****     CY_SPC_PM_STBY_REG &= ((uint8)(~PM_SPC_PM_EN));
 117              		.loc 1 110 0
 118 001e 084B     		ldr	r3, .L5+4
ARM GAS  C:\Users\khjtony\AppData\Local\Temp\ccW9FgfY.s 			page 5


 119 0020 074A     		ldr	r2, .L5+4
 120 0022 1278     		ldrb	r2, [r2]
 121 0024 D2B2     		uxtb	r2, r2
 122 0026 22F00802 		bic	r2, r2, #8
 123 002a D2B2     		uxtb	r2, r2
 124 002c 1A70     		strb	r2, [r3]
 111:.\Generated_Source\PSoC5/CySpc.c **** 
 112:.\Generated_Source\PSoC5/CySpc.c ****     /* Restore global interrupt enable state */
 113:.\Generated_Source\PSoC5/CySpc.c ****     CyExitCriticalSection(interruptState);
 125              		.loc 1 113 0
 126 002e FB79     		ldrb	r3, [r7, #7]	@ zero_extendqisi2
 127 0030 1846     		mov	r0, r3
 128 0032 FFF7FEFF 		bl	CyExitCriticalSection
 114:.\Generated_Source\PSoC5/CySpc.c **** }
 129              		.loc 1 114 0
 130 0036 0837     		adds	r7, r7, #8
 131 0038 BD46     		mov	sp, r7
 132              		@ sp needed
 133 003a 80BD     		pop	{r7, pc}
 134              	.L6:
 135              		.align	2
 136              	.L5:
 137 003c A0430040 		.word	1073759136
 138 0040 B0430040 		.word	1073759152
 139              		.cfi_endproc
 140              	.LFE1:
 141              		.size	CySpcStop, .-CySpcStop
 142              		.section	.text.CySpcReadData,"ax",%progbits
 143              		.align	2
 144              		.global	CySpcReadData
 145              		.thumb
 146              		.thumb_func
 147              		.type	CySpcReadData, %function
 148              	CySpcReadData:
 149              	.LFB2:
 115:.\Generated_Source\PSoC5/CySpc.c **** 
 116:.\Generated_Source\PSoC5/CySpc.c **** 
 117:.\Generated_Source\PSoC5/CySpc.c **** /*******************************************************************************
 118:.\Generated_Source\PSoC5/CySpc.c **** * Function Name: CySpcReadData
 119:.\Generated_Source\PSoC5/CySpc.c **** ********************************************************************************
 120:.\Generated_Source\PSoC5/CySpc.c **** * Summary:
 121:.\Generated_Source\PSoC5/CySpc.c **** *  Reads data from the SPC.
 122:.\Generated_Source\PSoC5/CySpc.c **** *
 123:.\Generated_Source\PSoC5/CySpc.c **** * Parameters:
 124:.\Generated_Source\PSoC5/CySpc.c **** *  uint8 buffer:
 125:.\Generated_Source\PSoC5/CySpc.c **** *   Address to store data read.
 126:.\Generated_Source\PSoC5/CySpc.c **** *
 127:.\Generated_Source\PSoC5/CySpc.c **** *  uint8 size:
 128:.\Generated_Source\PSoC5/CySpc.c **** *   Number of bytes to read from the SPC.
 129:.\Generated_Source\PSoC5/CySpc.c **** *
 130:.\Generated_Source\PSoC5/CySpc.c **** * Return:
 131:.\Generated_Source\PSoC5/CySpc.c **** *  uint8:
 132:.\Generated_Source\PSoC5/CySpc.c **** *   The number of bytes read from the SPC.
 133:.\Generated_Source\PSoC5/CySpc.c **** *
 134:.\Generated_Source\PSoC5/CySpc.c **** *******************************************************************************/
 135:.\Generated_Source\PSoC5/CySpc.c **** uint8 CySpcReadData(uint8 buffer[], uint8 size) 
 136:.\Generated_Source\PSoC5/CySpc.c **** {
ARM GAS  C:\Users\khjtony\AppData\Local\Temp\ccW9FgfY.s 			page 6


 150              		.loc 1 136 0
 151              		.cfi_startproc
 152              		@ args = 0, pretend = 0, frame = 16
 153              		@ frame_needed = 1, uses_anonymous_args = 0
 154 0000 80B5     		push	{r7, lr}
 155              		.cfi_def_cfa_offset 8
 156              		.cfi_offset 7, -8
 157              		.cfi_offset 14, -4
 158 0002 84B0     		sub	sp, sp, #16
 159              		.cfi_def_cfa_offset 24
 160 0004 00AF     		add	r7, sp, #0
 161              		.cfi_def_cfa_register 7
 162 0006 7860     		str	r0, [r7, #4]
 163 0008 0B46     		mov	r3, r1
 164 000a FB70     		strb	r3, [r7, #3]
 137:.\Generated_Source\PSoC5/CySpc.c ****     uint8 i;
 138:.\Generated_Source\PSoC5/CySpc.c **** 
 139:.\Generated_Source\PSoC5/CySpc.c ****     for(i = 0u; i < size; i++)
 165              		.loc 1 139 0
 166 000c 0023     		movs	r3, #0
 167 000e FB73     		strb	r3, [r7, #15]
 168 0010 14E0     		b	.L8
 169              	.L11:
 140:.\Generated_Source\PSoC5/CySpc.c ****     {
 141:.\Generated_Source\PSoC5/CySpc.c ****         while(!CY_SPC_DATA_READY)
 170              		.loc 1 141 0
 171 0012 02E0     		b	.L9
 172              	.L10:
 142:.\Generated_Source\PSoC5/CySpc.c ****         {
 143:.\Generated_Source\PSoC5/CySpc.c ****             CyDelayUs(1u);
 173              		.loc 1 143 0
 174 0014 0120     		movs	r0, #1
 175 0016 FFF7FEFF 		bl	CyDelayUs
 176              	.L9:
 141:.\Generated_Source\PSoC5/CySpc.c ****         while(!CY_SPC_DATA_READY)
 177              		.loc 1 141 0 discriminator 1
 178 001a 0D4B     		ldr	r3, .L13
 179 001c 1B78     		ldrb	r3, [r3]
 180 001e DBB2     		uxtb	r3, r3
 181 0020 03F00103 		and	r3, r3, #1
 182 0024 002B     		cmp	r3, #0
 183 0026 F5D0     		beq	.L10
 144:.\Generated_Source\PSoC5/CySpc.c ****         }
 145:.\Generated_Source\PSoC5/CySpc.c ****         buffer[i] = CY_SPC_CPU_DATA_REG;
 184              		.loc 1 145 0
 185 0028 FB7B     		ldrb	r3, [r7, #15]	@ zero_extendqisi2
 186 002a 7A68     		ldr	r2, [r7, #4]
 187 002c 1344     		add	r3, r3, r2
 188 002e 094A     		ldr	r2, .L13+4
 189 0030 1278     		ldrb	r2, [r2]
 190 0032 D2B2     		uxtb	r2, r2
 191 0034 1A70     		strb	r2, [r3]
 139:.\Generated_Source\PSoC5/CySpc.c ****     for(i = 0u; i < size; i++)
 192              		.loc 1 139 0
 193 0036 FB7B     		ldrb	r3, [r7, #15]	@ zero_extendqisi2
 194 0038 0133     		adds	r3, r3, #1
 195 003a FB73     		strb	r3, [r7, #15]
ARM GAS  C:\Users\khjtony\AppData\Local\Temp\ccW9FgfY.s 			page 7


 196              	.L8:
 139:.\Generated_Source\PSoC5/CySpc.c ****     for(i = 0u; i < size; i++)
 197              		.loc 1 139 0 is_stmt 0 discriminator 1
 198 003c FA7B     		ldrb	r2, [r7, #15]	@ zero_extendqisi2
 199 003e FB78     		ldrb	r3, [r7, #3]	@ zero_extendqisi2
 200 0040 9A42     		cmp	r2, r3
 201 0042 E6D3     		bcc	.L11
 146:.\Generated_Source\PSoC5/CySpc.c ****     }
 147:.\Generated_Source\PSoC5/CySpc.c **** 
 148:.\Generated_Source\PSoC5/CySpc.c ****     return(i);
 202              		.loc 1 148 0 is_stmt 1
 203 0044 FB7B     		ldrb	r3, [r7, #15]	@ zero_extendqisi2
 149:.\Generated_Source\PSoC5/CySpc.c **** }
 204              		.loc 1 149 0
 205 0046 1846     		mov	r0, r3
 206 0048 1037     		adds	r7, r7, #16
 207 004a BD46     		mov	sp, r7
 208              		@ sp needed
 209 004c 80BD     		pop	{r7, pc}
 210              	.L14:
 211 004e 00BF     		.align	2
 212              	.L13:
 213 0050 22470040 		.word	1073760034
 214 0054 20470040 		.word	1073760032
 215              		.cfi_endproc
 216              	.LFE2:
 217              		.size	CySpcReadData, .-CySpcReadData
 218              		.section	.text.CySpcLoadMultiByte,"ax",%progbits
 219              		.align	2
 220              		.global	CySpcLoadMultiByte
 221              		.thumb
 222              		.thumb_func
 223              		.type	CySpcLoadMultiByte, %function
 224              	CySpcLoadMultiByte:
 225              	.LFB3:
 150:.\Generated_Source\PSoC5/CySpc.c **** 
 151:.\Generated_Source\PSoC5/CySpc.c **** 
 152:.\Generated_Source\PSoC5/CySpc.c **** /*******************************************************************************
 153:.\Generated_Source\PSoC5/CySpc.c **** * Function Name: CySpcLoadMultiByte
 154:.\Generated_Source\PSoC5/CySpc.c **** ********************************************************************************
 155:.\Generated_Source\PSoC5/CySpc.c **** * Summary:
 156:.\Generated_Source\PSoC5/CySpc.c **** *  Loads 1 to 32 bytes of data into the row latch of a Flash/EEPROM array.
 157:.\Generated_Source\PSoC5/CySpc.c **** *
 158:.\Generated_Source\PSoC5/CySpc.c **** * Parameters:
 159:.\Generated_Source\PSoC5/CySpc.c **** *  uint8 array:
 160:.\Generated_Source\PSoC5/CySpc.c **** *   Id of the array.
 161:.\Generated_Source\PSoC5/CySpc.c **** *
 162:.\Generated_Source\PSoC5/CySpc.c **** *  uint16 address:
 163:.\Generated_Source\PSoC5/CySpc.c **** *   Flash/eeprom addrress
 164:.\Generated_Source\PSoC5/CySpc.c **** *
 165:.\Generated_Source\PSoC5/CySpc.c **** *  uint8* buffer:
 166:.\Generated_Source\PSoC5/CySpc.c **** *   Data to load to the row latch
 167:.\Generated_Source\PSoC5/CySpc.c **** *
 168:.\Generated_Source\PSoC5/CySpc.c **** *  uint16 number:
 169:.\Generated_Source\PSoC5/CySpc.c **** *   Number bytes to load.
 170:.\Generated_Source\PSoC5/CySpc.c **** *
 171:.\Generated_Source\PSoC5/CySpc.c **** * Return:
ARM GAS  C:\Users\khjtony\AppData\Local\Temp\ccW9FgfY.s 			page 8


 172:.\Generated_Source\PSoC5/CySpc.c **** *  CYRET_STARTED
 173:.\Generated_Source\PSoC5/CySpc.c **** *  CYRET_CANCELED
 174:.\Generated_Source\PSoC5/CySpc.c **** *  CYRET_LOCKED
 175:.\Generated_Source\PSoC5/CySpc.c **** *  CYRET_BAD_PARAM
 176:.\Generated_Source\PSoC5/CySpc.c **** *
 177:.\Generated_Source\PSoC5/CySpc.c **** *******************************************************************************/
 178:.\Generated_Source\PSoC5/CySpc.c **** cystatus CySpcLoadMultiByte(uint8 array, uint16 address, const uint8 buffer[], uint8 size)\
 179:.\Generated_Source\PSoC5/CySpc.c **** 
 180:.\Generated_Source\PSoC5/CySpc.c **** {
 226              		.loc 1 180 0
 227              		.cfi_startproc
 228              		@ args = 0, pretend = 0, frame = 16
 229              		@ frame_needed = 1, uses_anonymous_args = 0
 230              		@ link register save eliminated.
 231 0000 80B4     		push	{r7}
 232              		.cfi_def_cfa_offset 4
 233              		.cfi_offset 7, -4
 234 0002 85B0     		sub	sp, sp, #20
 235              		.cfi_def_cfa_offset 24
 236 0004 00AF     		add	r7, sp, #0
 237              		.cfi_def_cfa_register 7
 238 0006 3A60     		str	r2, [r7]
 239 0008 0246     		mov	r2, r0
 240 000a FA71     		strb	r2, [r7, #7]
 241 000c 0A46     		mov	r2, r1	@ movhi
 242 000e BA80     		strh	r2, [r7, #4]	@ movhi
 243 0010 BB71     		strb	r3, [r7, #6]
 181:.\Generated_Source\PSoC5/CySpc.c ****     cystatus status = CYRET_STARTED;
 244              		.loc 1 181 0
 245 0012 0723     		movs	r3, #7
 246 0014 FB60     		str	r3, [r7, #12]
 182:.\Generated_Source\PSoC5/CySpc.c ****     uint8 i;
 183:.\Generated_Source\PSoC5/CySpc.c **** 
 184:.\Generated_Source\PSoC5/CySpc.c ****     /***************************************************************************
 185:.\Generated_Source\PSoC5/CySpc.c ****     * Check if number is correct for array. Number must be less than
 186:.\Generated_Source\PSoC5/CySpc.c ****     * 32 for Flash or less than 16 for EEPROM.
 187:.\Generated_Source\PSoC5/CySpc.c ****     ***************************************************************************/
 188:.\Generated_Source\PSoC5/CySpc.c ****     if(((array < CY_SPC_LAST_FLASH_ARRAYID) && (size < 32u)) ||
 247              		.loc 1 188 0
 248 0016 FB79     		ldrb	r3, [r7, #7]	@ zero_extendqisi2
 249 0018 3E2B     		cmp	r3, #62
 250 001a 02D8     		bhi	.L16
 251              		.loc 1 188 0 is_stmt 0 discriminator 1
 252 001c BB79     		ldrb	r3, [r7, #6]	@ zero_extendqisi2
 253 001e 1F2B     		cmp	r3, #31
 254 0020 05D9     		bls	.L17
 255              	.L16:
 256              		.loc 1 188 0 discriminator 2
 257 0022 FB79     		ldrb	r3, [r7, #7]	@ zero_extendqisi2
 258 0024 3F2B     		cmp	r3, #63
 259 0026 46D9     		bls	.L18
 189:.\Generated_Source\PSoC5/CySpc.c ****        ((array > CY_SPC_LAST_FLASH_ARRAYID) && (size < 16u)))
 260              		.loc 1 189 0 is_stmt 1
 261 0028 BB79     		ldrb	r3, [r7, #6]	@ zero_extendqisi2
 262 002a 0F2B     		cmp	r3, #15
 263 002c 43D8     		bhi	.L18
 264              	.L17:
ARM GAS  C:\Users\khjtony\AppData\Local\Temp\ccW9FgfY.s 			page 9


 190:.\Generated_Source\PSoC5/CySpc.c ****     {
 191:.\Generated_Source\PSoC5/CySpc.c ****         if(CY_SPC_IDLE)
 265              		.loc 1 191 0
 266 002e 264B     		ldr	r3, .L28
 267 0030 1B78     		ldrb	r3, [r3]
 268 0032 DBB2     		uxtb	r3, r3
 269 0034 03F00203 		and	r3, r3, #2
 270 0038 002B     		cmp	r3, #0
 271 003a 38D0     		beq	.L19
 192:.\Generated_Source\PSoC5/CySpc.c ****         {
 193:.\Generated_Source\PSoC5/CySpc.c ****             CY_SPC_CPU_DATA_REG = CY_SPC_KEY_ONE;
 272              		.loc 1 193 0
 273 003c 234B     		ldr	r3, .L28+4
 274 003e B622     		movs	r2, #182
 275 0040 1A70     		strb	r2, [r3]
 194:.\Generated_Source\PSoC5/CySpc.c ****             CY_SPC_CPU_DATA_REG = CY_SPC_KEY_TWO(CY_SPC_CMD_LD_MULTI_BYTE);
 276              		.loc 1 194 0
 277 0042 224B     		ldr	r3, .L28+4
 278 0044 D422     		movs	r2, #212
 279 0046 1A70     		strb	r2, [r3]
 195:.\Generated_Source\PSoC5/CySpc.c ****             CY_SPC_CPU_DATA_REG = CY_SPC_CMD_LD_MULTI_BYTE;
 280              		.loc 1 195 0
 281 0048 204B     		ldr	r3, .L28+4
 282 004a 0122     		movs	r2, #1
 283 004c 1A70     		strb	r2, [r3]
 196:.\Generated_Source\PSoC5/CySpc.c **** 
 197:.\Generated_Source\PSoC5/CySpc.c ****             if(CY_SPC_BUSY)
 284              		.loc 1 197 0
 285 004e 1E4B     		ldr	r3, .L28
 286 0050 1B78     		ldrb	r3, [r3]
 287 0052 DBB2     		uxtb	r3, r3
 288 0054 03F00203 		and	r3, r3, #2
 289 0058 002B     		cmp	r3, #0
 290 005a 25D1     		bne	.L20
 198:.\Generated_Source\PSoC5/CySpc.c ****             {
 199:.\Generated_Source\PSoC5/CySpc.c ****                 CY_SPC_CPU_DATA_REG = array;
 291              		.loc 1 199 0
 292 005c 1B4B     		ldr	r3, .L28+4
 293 005e FA79     		ldrb	r2, [r7, #7]
 294 0060 1A70     		strb	r2, [r3]
 200:.\Generated_Source\PSoC5/CySpc.c ****                 CY_SPC_CPU_DATA_REG = 1u & HI8(address);
 295              		.loc 1 200 0
 296 0062 1A4B     		ldr	r3, .L28+4
 297 0064 BA88     		ldrh	r2, [r7, #4]
 298 0066 120A     		lsrs	r2, r2, #8
 299 0068 92B2     		uxth	r2, r2
 300 006a D2B2     		uxtb	r2, r2
 301 006c 02F00102 		and	r2, r2, #1
 302 0070 D2B2     		uxtb	r2, r2
 303 0072 1A70     		strb	r2, [r3]
 201:.\Generated_Source\PSoC5/CySpc.c ****                 CY_SPC_CPU_DATA_REG = LO8(address);
 304              		.loc 1 201 0
 305 0074 154B     		ldr	r3, .L28+4
 306 0076 BA88     		ldrh	r2, [r7, #4]	@ movhi
 307 0078 D2B2     		uxtb	r2, r2
 308 007a 1A70     		strb	r2, [r3]
 202:.\Generated_Source\PSoC5/CySpc.c ****                 CY_SPC_CPU_DATA_REG = ((uint8)(size - 1u));
ARM GAS  C:\Users\khjtony\AppData\Local\Temp\ccW9FgfY.s 			page 10


 309              		.loc 1 202 0
 310 007c 134B     		ldr	r3, .L28+4
 311 007e BA79     		ldrb	r2, [r7, #6]
 312 0080 013A     		subs	r2, r2, #1
 313 0082 D2B2     		uxtb	r2, r2
 314 0084 1A70     		strb	r2, [r3]
 203:.\Generated_Source\PSoC5/CySpc.c **** 
 204:.\Generated_Source\PSoC5/CySpc.c ****                 for(i = 0u; i < size; i++)
 315              		.loc 1 204 0
 316 0086 0023     		movs	r3, #0
 317 0088 FB72     		strb	r3, [r7, #11]
 318 008a 08E0     		b	.L21
 319              	.L22:
 205:.\Generated_Source\PSoC5/CySpc.c ****                 {
 206:.\Generated_Source\PSoC5/CySpc.c ****                     CY_SPC_CPU_DATA_REG = buffer[i];
 320              		.loc 1 206 0 discriminator 2
 321 008c 0F4B     		ldr	r3, .L28+4
 322 008e FA7A     		ldrb	r2, [r7, #11]	@ zero_extendqisi2
 323 0090 3968     		ldr	r1, [r7]
 324 0092 0A44     		add	r2, r2, r1
 325 0094 1278     		ldrb	r2, [r2]	@ zero_extendqisi2
 326 0096 1A70     		strb	r2, [r3]
 204:.\Generated_Source\PSoC5/CySpc.c ****                 for(i = 0u; i < size; i++)
 327              		.loc 1 204 0 discriminator 2
 328 0098 FB7A     		ldrb	r3, [r7, #11]	@ zero_extendqisi2
 329 009a 0133     		adds	r3, r3, #1
 330 009c FB72     		strb	r3, [r7, #11]
 331              	.L21:
 204:.\Generated_Source\PSoC5/CySpc.c ****                 for(i = 0u; i < size; i++)
 332              		.loc 1 204 0 is_stmt 0 discriminator 1
 333 009e FA7A     		ldrb	r2, [r7, #11]	@ zero_extendqisi2
 334 00a0 BB79     		ldrb	r3, [r7, #6]	@ zero_extendqisi2
 335 00a2 9A42     		cmp	r2, r3
 336 00a4 F2D3     		bcc	.L22
 337 00a6 05E0     		b	.L27
 338              	.L20:
 207:.\Generated_Source\PSoC5/CySpc.c ****                 }
 208:.\Generated_Source\PSoC5/CySpc.c ****             }
 209:.\Generated_Source\PSoC5/CySpc.c ****             else
 210:.\Generated_Source\PSoC5/CySpc.c ****             {
 211:.\Generated_Source\PSoC5/CySpc.c ****                 status = CYRET_CANCELED;
 339              		.loc 1 211 0 is_stmt 1
 340 00a8 0923     		movs	r3, #9
 341 00aa FB60     		str	r3, [r7, #12]
 191:.\Generated_Source\PSoC5/CySpc.c ****         if(CY_SPC_IDLE)
 342              		.loc 1 191 0
 343 00ac 05E0     		b	.L25
 344              	.L19:
 212:.\Generated_Source\PSoC5/CySpc.c ****             }
 213:.\Generated_Source\PSoC5/CySpc.c ****         }
 214:.\Generated_Source\PSoC5/CySpc.c ****         else
 215:.\Generated_Source\PSoC5/CySpc.c ****         {
 216:.\Generated_Source\PSoC5/CySpc.c ****             status = CYRET_LOCKED;
 345              		.loc 1 216 0
 346 00ae 0423     		movs	r3, #4
 347 00b0 FB60     		str	r3, [r7, #12]
 191:.\Generated_Source\PSoC5/CySpc.c ****         if(CY_SPC_IDLE)
ARM GAS  C:\Users\khjtony\AppData\Local\Temp\ccW9FgfY.s 			page 11


 348              		.loc 1 191 0
 349 00b2 02E0     		b	.L25
 350              	.L27:
 351 00b4 01E0     		b	.L25
 352              	.L18:
 217:.\Generated_Source\PSoC5/CySpc.c ****         }
 218:.\Generated_Source\PSoC5/CySpc.c ****     }
 219:.\Generated_Source\PSoC5/CySpc.c ****     else
 220:.\Generated_Source\PSoC5/CySpc.c ****     {
 221:.\Generated_Source\PSoC5/CySpc.c ****         status = CYRET_BAD_PARAM;
 353              		.loc 1 221 0
 354 00b6 0123     		movs	r3, #1
 355 00b8 FB60     		str	r3, [r7, #12]
 356              	.L25:
 222:.\Generated_Source\PSoC5/CySpc.c ****     }
 223:.\Generated_Source\PSoC5/CySpc.c **** 
 224:.\Generated_Source\PSoC5/CySpc.c ****     return(status);
 357              		.loc 1 224 0
 358 00ba FB68     		ldr	r3, [r7, #12]
 225:.\Generated_Source\PSoC5/CySpc.c **** }
 359              		.loc 1 225 0
 360 00bc 1846     		mov	r0, r3
 361 00be 1437     		adds	r7, r7, #20
 362 00c0 BD46     		mov	sp, r7
 363              		@ sp needed
 364 00c2 5DF8047B 		ldr	r7, [sp], #4
 365 00c6 7047     		bx	lr
 366              	.L29:
 367              		.align	2
 368              	.L28:
 369 00c8 22470040 		.word	1073760034
 370 00cc 20470040 		.word	1073760032
 371              		.cfi_endproc
 372              	.LFE3:
 373              		.size	CySpcLoadMultiByte, .-CySpcLoadMultiByte
 374              		.section	.text.CySpcLoadRow,"ax",%progbits
 375              		.align	2
 376              		.global	CySpcLoadRow
 377              		.thumb
 378              		.thumb_func
 379              		.type	CySpcLoadRow, %function
 380              	CySpcLoadRow:
 381              	.LFB4:
 226:.\Generated_Source\PSoC5/CySpc.c **** 
 227:.\Generated_Source\PSoC5/CySpc.c **** 
 228:.\Generated_Source\PSoC5/CySpc.c **** /*******************************************************************************
 229:.\Generated_Source\PSoC5/CySpc.c **** * Function Name: CySpcLoadRow
 230:.\Generated_Source\PSoC5/CySpc.c **** ********************************************************************************
 231:.\Generated_Source\PSoC5/CySpc.c **** * Summary:
 232:.\Generated_Source\PSoC5/CySpc.c **** *  Loads a row of data into the row latch of a Flash/EEPROM array.
 233:.\Generated_Source\PSoC5/CySpc.c **** *
 234:.\Generated_Source\PSoC5/CySpc.c **** *  The buffer pointer should point to the data that should be written to the
 235:.\Generated_Source\PSoC5/CySpc.c **** *  flash row directly (no data in ECC/flash will be preserved). It is Flash API
 236:.\Generated_Source\PSoC5/CySpc.c **** *  responsibility to prepare data: the preserved data are copied from flash into
 237:.\Generated_Source\PSoC5/CySpc.c **** *  array with the modified data.
 238:.\Generated_Source\PSoC5/CySpc.c **** *
 239:.\Generated_Source\PSoC5/CySpc.c **** * Parameters:
ARM GAS  C:\Users\khjtony\AppData\Local\Temp\ccW9FgfY.s 			page 12


 240:.\Generated_Source\PSoC5/CySpc.c **** *  uint8 array:
 241:.\Generated_Source\PSoC5/CySpc.c **** *   Id of the array.
 242:.\Generated_Source\PSoC5/CySpc.c **** *
 243:.\Generated_Source\PSoC5/CySpc.c **** *  uint8* buffer:
 244:.\Generated_Source\PSoC5/CySpc.c **** *   Data to be loaded to the row latch
 245:.\Generated_Source\PSoC5/CySpc.c **** *
 246:.\Generated_Source\PSoC5/CySpc.c **** *  uint8 size:
 247:.\Generated_Source\PSoC5/CySpc.c **** *   The number of data bytes that the SPC expects to be written. Depends on the
 248:.\Generated_Source\PSoC5/CySpc.c **** *   type of the array and, if the array is Flash, whether ECC is being enabled
 249:.\Generated_Source\PSoC5/CySpc.c **** *   or not. There are following values: flash row latch size with ECC enabled,
 250:.\Generated_Source\PSoC5/CySpc.c **** *   flash row latch size with ECC disabled and EEPROM row latch size.
 251:.\Generated_Source\PSoC5/CySpc.c **** *
 252:.\Generated_Source\PSoC5/CySpc.c **** * Return:
 253:.\Generated_Source\PSoC5/CySpc.c **** *  CYRET_STARTED
 254:.\Generated_Source\PSoC5/CySpc.c **** *  CYRET_CANCELED
 255:.\Generated_Source\PSoC5/CySpc.c **** *  CYRET_LOCKED
 256:.\Generated_Source\PSoC5/CySpc.c **** *
 257:.\Generated_Source\PSoC5/CySpc.c **** *******************************************************************************/
 258:.\Generated_Source\PSoC5/CySpc.c **** cystatus CySpcLoadRow(uint8 array, const uint8 buffer[], uint16 size)
 259:.\Generated_Source\PSoC5/CySpc.c **** {
 382              		.loc 1 259 0
 383              		.cfi_startproc
 384              		@ args = 0, pretend = 0, frame = 16
 385              		@ frame_needed = 1, uses_anonymous_args = 0
 386              		@ link register save eliminated.
 387 0000 80B4     		push	{r7}
 388              		.cfi_def_cfa_offset 4
 389              		.cfi_offset 7, -4
 390 0002 85B0     		sub	sp, sp, #20
 391              		.cfi_def_cfa_offset 24
 392 0004 00AF     		add	r7, sp, #0
 393              		.cfi_def_cfa_register 7
 394 0006 3960     		str	r1, [r7]
 395 0008 1346     		mov	r3, r2
 396 000a 0246     		mov	r2, r0
 397 000c FA71     		strb	r2, [r7, #7]
 398 000e BB80     		strh	r3, [r7, #4]	@ movhi
 260:.\Generated_Source\PSoC5/CySpc.c ****     cystatus status = CYRET_STARTED;
 399              		.loc 1 260 0
 400 0010 0723     		movs	r3, #7
 401 0012 FB60     		str	r3, [r7, #12]
 261:.\Generated_Source\PSoC5/CySpc.c ****     uint16 i;
 262:.\Generated_Source\PSoC5/CySpc.c **** 
 263:.\Generated_Source\PSoC5/CySpc.c ****     /* Make sure the SPC is ready to accept command */
 264:.\Generated_Source\PSoC5/CySpc.c ****     if(CY_SPC_IDLE)
 402              		.loc 1 264 0
 403 0014 1B4B     		ldr	r3, .L38
 404 0016 1B78     		ldrb	r3, [r3]
 405 0018 DBB2     		uxtb	r3, r3
 406 001a 03F00203 		and	r3, r3, #2
 407 001e 002B     		cmp	r3, #0
 408 0020 26D0     		beq	.L31
 265:.\Generated_Source\PSoC5/CySpc.c ****     {
 266:.\Generated_Source\PSoC5/CySpc.c ****         CY_SPC_CPU_DATA_REG = CY_SPC_KEY_ONE;
 409              		.loc 1 266 0
 410 0022 194B     		ldr	r3, .L38+4
 411 0024 B622     		movs	r2, #182
ARM GAS  C:\Users\khjtony\AppData\Local\Temp\ccW9FgfY.s 			page 13


 412 0026 1A70     		strb	r2, [r3]
 267:.\Generated_Source\PSoC5/CySpc.c ****         CY_SPC_CPU_DATA_REG = CY_SPC_KEY_TWO(CY_SPC_CMD_LD_ROW);
 413              		.loc 1 267 0
 414 0028 174B     		ldr	r3, .L38+4
 415 002a D522     		movs	r2, #213
 416 002c 1A70     		strb	r2, [r3]
 268:.\Generated_Source\PSoC5/CySpc.c ****         CY_SPC_CPU_DATA_REG = CY_SPC_CMD_LD_ROW;
 417              		.loc 1 268 0
 418 002e 164B     		ldr	r3, .L38+4
 419 0030 0222     		movs	r2, #2
 420 0032 1A70     		strb	r2, [r3]
 269:.\Generated_Source\PSoC5/CySpc.c **** 
 270:.\Generated_Source\PSoC5/CySpc.c ****         /* Make sure the command was accepted */
 271:.\Generated_Source\PSoC5/CySpc.c ****         if(CY_SPC_BUSY)
 421              		.loc 1 271 0
 422 0034 134B     		ldr	r3, .L38
 423 0036 1B78     		ldrb	r3, [r3]
 424 0038 DBB2     		uxtb	r3, r3
 425 003a 03F00203 		and	r3, r3, #2
 426 003e 002B     		cmp	r3, #0
 427 0040 13D1     		bne	.L32
 272:.\Generated_Source\PSoC5/CySpc.c ****         {
 273:.\Generated_Source\PSoC5/CySpc.c ****             CY_SPC_CPU_DATA_REG = array;
 428              		.loc 1 273 0
 429 0042 114B     		ldr	r3, .L38+4
 430 0044 FA79     		ldrb	r2, [r7, #7]
 431 0046 1A70     		strb	r2, [r3]
 274:.\Generated_Source\PSoC5/CySpc.c **** 
 275:.\Generated_Source\PSoC5/CySpc.c ****             for(i = 0u; i < size; i++)
 432              		.loc 1 275 0
 433 0048 0023     		movs	r3, #0
 434 004a 7B81     		strh	r3, [r7, #10]	@ movhi
 435 004c 08E0     		b	.L33
 436              	.L34:
 276:.\Generated_Source\PSoC5/CySpc.c ****             {
 277:.\Generated_Source\PSoC5/CySpc.c ****                 CY_SPC_CPU_DATA_REG = buffer[i];
 437              		.loc 1 277 0 discriminator 2
 438 004e 0E4B     		ldr	r3, .L38+4
 439 0050 7A89     		ldrh	r2, [r7, #10]
 440 0052 3968     		ldr	r1, [r7]
 441 0054 0A44     		add	r2, r2, r1
 442 0056 1278     		ldrb	r2, [r2]	@ zero_extendqisi2
 443 0058 1A70     		strb	r2, [r3]
 275:.\Generated_Source\PSoC5/CySpc.c ****             for(i = 0u; i < size; i++)
 444              		.loc 1 275 0 discriminator 2
 445 005a 7B89     		ldrh	r3, [r7, #10]
 446 005c 0133     		adds	r3, r3, #1
 447 005e 7B81     		strh	r3, [r7, #10]	@ movhi
 448              	.L33:
 275:.\Generated_Source\PSoC5/CySpc.c ****             for(i = 0u; i < size; i++)
 449              		.loc 1 275 0 is_stmt 0 discriminator 1
 450 0060 7A89     		ldrh	r2, [r7, #10]
 451 0062 BB88     		ldrh	r3, [r7, #4]
 452 0064 9A42     		cmp	r2, r3
 453 0066 F2D3     		bcc	.L34
 454 0068 04E0     		b	.L36
 455              	.L32:
ARM GAS  C:\Users\khjtony\AppData\Local\Temp\ccW9FgfY.s 			page 14


 278:.\Generated_Source\PSoC5/CySpc.c ****             }
 279:.\Generated_Source\PSoC5/CySpc.c ****         }
 280:.\Generated_Source\PSoC5/CySpc.c ****         else
 281:.\Generated_Source\PSoC5/CySpc.c ****         {
 282:.\Generated_Source\PSoC5/CySpc.c ****             status = CYRET_CANCELED;
 456              		.loc 1 282 0 is_stmt 1
 457 006a 0923     		movs	r3, #9
 458 006c FB60     		str	r3, [r7, #12]
 459 006e 01E0     		b	.L36
 460              	.L31:
 283:.\Generated_Source\PSoC5/CySpc.c ****         }
 284:.\Generated_Source\PSoC5/CySpc.c ****     }
 285:.\Generated_Source\PSoC5/CySpc.c ****     else
 286:.\Generated_Source\PSoC5/CySpc.c ****     {
 287:.\Generated_Source\PSoC5/CySpc.c ****         status = CYRET_LOCKED;
 461              		.loc 1 287 0
 462 0070 0423     		movs	r3, #4
 463 0072 FB60     		str	r3, [r7, #12]
 464              	.L36:
 288:.\Generated_Source\PSoC5/CySpc.c ****     }
 289:.\Generated_Source\PSoC5/CySpc.c **** 
 290:.\Generated_Source\PSoC5/CySpc.c ****     return(status);
 465              		.loc 1 290 0
 466 0074 FB68     		ldr	r3, [r7, #12]
 291:.\Generated_Source\PSoC5/CySpc.c **** }
 467              		.loc 1 291 0
 468 0076 1846     		mov	r0, r3
 469 0078 1437     		adds	r7, r7, #20
 470 007a BD46     		mov	sp, r7
 471              		@ sp needed
 472 007c 5DF8047B 		ldr	r7, [sp], #4
 473 0080 7047     		bx	lr
 474              	.L39:
 475 0082 00BF     		.align	2
 476              	.L38:
 477 0084 22470040 		.word	1073760034
 478 0088 20470040 		.word	1073760032
 479              		.cfi_endproc
 480              	.LFE4:
 481              		.size	CySpcLoadRow, .-CySpcLoadRow
 482              		.section	.text.CySpcLoadRowFull,"ax",%progbits
 483              		.align	2
 484              		.global	CySpcLoadRowFull
 485              		.thumb
 486              		.thumb_func
 487              		.type	CySpcLoadRowFull, %function
 488              	CySpcLoadRowFull:
 489              	.LFB5:
 292:.\Generated_Source\PSoC5/CySpc.c **** 
 293:.\Generated_Source\PSoC5/CySpc.c **** 
 294:.\Generated_Source\PSoC5/CySpc.c **** /*******************************************************************************
 295:.\Generated_Source\PSoC5/CySpc.c **** * Function Name: CySpcLoadRowFull
 296:.\Generated_Source\PSoC5/CySpc.c **** ********************************************************************************
 297:.\Generated_Source\PSoC5/CySpc.c **** * Summary:
 298:.\Generated_Source\PSoC5/CySpc.c **** *  Loads a row of data into the row latch of a Flash/EEPROM array.
 299:.\Generated_Source\PSoC5/CySpc.c **** *
 300:.\Generated_Source\PSoC5/CySpc.c **** *  The only data that are going to be changed should be passed. The function
ARM GAS  C:\Users\khjtony\AppData\Local\Temp\ccW9FgfY.s 			page 15


 301:.\Generated_Source\PSoC5/CySpc.c **** *  will handle unmodified data preservation based on DWR settings and input
 302:.\Generated_Source\PSoC5/CySpc.c **** *  parameters.
 303:.\Generated_Source\PSoC5/CySpc.c **** *
 304:.\Generated_Source\PSoC5/CySpc.c **** * Parameters:
 305:.\Generated_Source\PSoC5/CySpc.c **** *  uint8 array:
 306:.\Generated_Source\PSoC5/CySpc.c **** *   Id of the array.
 307:.\Generated_Source\PSoC5/CySpc.c **** *
 308:.\Generated_Source\PSoC5/CySpc.c **** *  uint16 row:
 309:.\Generated_Source\PSoC5/CySpc.c **** *   Flash row number to be loaded.
 310:.\Generated_Source\PSoC5/CySpc.c **** *
 311:.\Generated_Source\PSoC5/CySpc.c **** *  uint8* buffer:
 312:.\Generated_Source\PSoC5/CySpc.c **** *   Data to be loaded to the row latch
 313:.\Generated_Source\PSoC5/CySpc.c **** *
 314:.\Generated_Source\PSoC5/CySpc.c **** *  uint8 size:
 315:.\Generated_Source\PSoC5/CySpc.c **** *   The number of data bytes that the SPC expects to be written. Depends on the
 316:.\Generated_Source\PSoC5/CySpc.c **** *   type of the array and, if the array is Flash, whether ECC is being enabled
 317:.\Generated_Source\PSoC5/CySpc.c **** *   or not. There are following values: flash row latch size with ECC enabled,
 318:.\Generated_Source\PSoC5/CySpc.c **** *   flash row latch size with ECC disabled and EEPROM row latch size.
 319:.\Generated_Source\PSoC5/CySpc.c **** *
 320:.\Generated_Source\PSoC5/CySpc.c **** * Return:
 321:.\Generated_Source\PSoC5/CySpc.c **** *  CYRET_STARTED
 322:.\Generated_Source\PSoC5/CySpc.c **** *  CYRET_CANCELED
 323:.\Generated_Source\PSoC5/CySpc.c **** *  CYRET_LOCKED
 324:.\Generated_Source\PSoC5/CySpc.c **** *
 325:.\Generated_Source\PSoC5/CySpc.c **** *******************************************************************************/
 326:.\Generated_Source\PSoC5/CySpc.c **** cystatus CySpcLoadRowFull(uint8 array, uint16 row, const uint8 buffer[], uint16 size)\
 327:.\Generated_Source\PSoC5/CySpc.c **** 
 328:.\Generated_Source\PSoC5/CySpc.c **** {
 490              		.loc 1 328 0
 491              		.cfi_startproc
 492              		@ args = 0, pretend = 0, frame = 32
 493              		@ frame_needed = 1, uses_anonymous_args = 0
 494              		@ link register save eliminated.
 495 0000 80B4     		push	{r7}
 496              		.cfi_def_cfa_offset 4
 497              		.cfi_offset 7, -4
 498 0002 89B0     		sub	sp, sp, #36
 499              		.cfi_def_cfa_offset 40
 500 0004 00AF     		add	r7, sp, #0
 501              		.cfi_def_cfa_register 7
 502 0006 BA60     		str	r2, [r7, #8]
 503 0008 0246     		mov	r2, r0
 504 000a FA73     		strb	r2, [r7, #15]
 505 000c 0A46     		mov	r2, r1	@ movhi
 506 000e BA81     		strh	r2, [r7, #12]	@ movhi
 507 0010 FB80     		strh	r3, [r7, #6]	@ movhi
 329:.\Generated_Source\PSoC5/CySpc.c ****     cystatus status = CYRET_STARTED;
 508              		.loc 1 329 0
 509 0012 0723     		movs	r3, #7
 510 0014 FB61     		str	r3, [r7, #28]
 330:.\Generated_Source\PSoC5/CySpc.c ****     uint16 i;
 331:.\Generated_Source\PSoC5/CySpc.c **** 
 332:.\Generated_Source\PSoC5/CySpc.c ****     #if (CYDEV_ECC_ENABLE == 0)
 333:.\Generated_Source\PSoC5/CySpc.c ****         uint32 offset;
 334:.\Generated_Source\PSoC5/CySpc.c ****     #endif /* (CYDEV_ECC_ENABLE == 0) */
 335:.\Generated_Source\PSoC5/CySpc.c **** 
 336:.\Generated_Source\PSoC5/CySpc.c ****     /* Make sure the SPC is ready to accept command */
ARM GAS  C:\Users\khjtony\AppData\Local\Temp\ccW9FgfY.s 			page 16


 337:.\Generated_Source\PSoC5/CySpc.c ****     if(CY_SPC_IDLE)
 511              		.loc 1 337 0
 512 0016 394B     		ldr	r3, .L53
 513 0018 1B78     		ldrb	r3, [r3]
 514 001a DBB2     		uxtb	r3, r3
 515 001c 03F00203 		and	r3, r3, #2
 516 0020 002B     		cmp	r3, #0
 517 0022 61D0     		beq	.L41
 338:.\Generated_Source\PSoC5/CySpc.c ****     {
 339:.\Generated_Source\PSoC5/CySpc.c ****         CY_SPC_CPU_DATA_REG = CY_SPC_KEY_ONE;
 518              		.loc 1 339 0
 519 0024 364B     		ldr	r3, .L53+4
 520 0026 B622     		movs	r2, #182
 521 0028 1A70     		strb	r2, [r3]
 340:.\Generated_Source\PSoC5/CySpc.c ****         CY_SPC_CPU_DATA_REG = CY_SPC_KEY_TWO(CY_SPC_CMD_LD_ROW);
 522              		.loc 1 340 0
 523 002a 354B     		ldr	r3, .L53+4
 524 002c D522     		movs	r2, #213
 525 002e 1A70     		strb	r2, [r3]
 341:.\Generated_Source\PSoC5/CySpc.c ****         CY_SPC_CPU_DATA_REG = CY_SPC_CMD_LD_ROW;
 526              		.loc 1 341 0
 527 0030 334B     		ldr	r3, .L53+4
 528 0032 0222     		movs	r2, #2
 529 0034 1A70     		strb	r2, [r3]
 342:.\Generated_Source\PSoC5/CySpc.c **** 
 343:.\Generated_Source\PSoC5/CySpc.c ****         /* Make sure the command was accepted */
 344:.\Generated_Source\PSoC5/CySpc.c ****         if(CY_SPC_BUSY)
 530              		.loc 1 344 0
 531 0036 314B     		ldr	r3, .L53
 532 0038 1B78     		ldrb	r3, [r3]
 533 003a DBB2     		uxtb	r3, r3
 534 003c 03F00203 		and	r3, r3, #2
 535 0040 002B     		cmp	r3, #0
 536 0042 4ED1     		bne	.L42
 345:.\Generated_Source\PSoC5/CySpc.c ****         {
 346:.\Generated_Source\PSoC5/CySpc.c ****             CY_SPC_CPU_DATA_REG = array;
 537              		.loc 1 346 0
 538 0044 2E4B     		ldr	r3, .L53+4
 539 0046 FA7B     		ldrb	r2, [r7, #15]
 540 0048 1A70     		strb	r2, [r3]
 347:.\Generated_Source\PSoC5/CySpc.c **** 
 348:.\Generated_Source\PSoC5/CySpc.c ****             /*******************************************************************
 349:.\Generated_Source\PSoC5/CySpc.c ****             * If "Enable Error Correcting Code (ECC)" and "Store Configuration
 350:.\Generated_Source\PSoC5/CySpc.c ****             * Data in ECC" DWR options are disabled, ECC section is available
 351:.\Generated_Source\PSoC5/CySpc.c ****             * for user data.
 352:.\Generated_Source\PSoC5/CySpc.c ****             *******************************************************************/
 353:.\Generated_Source\PSoC5/CySpc.c ****             #if ((CYDEV_ECC_ENABLE == 0u) && (CYDEV_CONFIGURATION_ECC == 0u))
 354:.\Generated_Source\PSoC5/CySpc.c **** 
 355:.\Generated_Source\PSoC5/CySpc.c ****                 /*******************************************************************
 356:.\Generated_Source\PSoC5/CySpc.c ****                 * If size parameter equals size of the ECC row and selected array
 357:.\Generated_Source\PSoC5/CySpc.c ****                 * identification corresponds to the flash array (but not to EEPROM
 358:.\Generated_Source\PSoC5/CySpc.c ****                 * array) then data are going to be written to the ECC section.
 359:.\Generated_Source\PSoC5/CySpc.c ****                 * In this case flash data must be preserved. The flash data copied
 360:.\Generated_Source\PSoC5/CySpc.c ****                 * from flash data section to the SPC data register.
 361:.\Generated_Source\PSoC5/CySpc.c ****                 *******************************************************************/
 362:.\Generated_Source\PSoC5/CySpc.c ****                 if ((size == CYDEV_ECC_ROW_SIZE) && (array <= CY_SPC_LAST_FLASH_ARRAYID))
 541              		.loc 1 362 0
ARM GAS  C:\Users\khjtony\AppData\Local\Temp\ccW9FgfY.s 			page 17


 542 004a FB88     		ldrh	r3, [r7, #6]
 543 004c 202B     		cmp	r3, #32
 544 004e 18D1     		bne	.L43
 545              		.loc 1 362 0 is_stmt 0 discriminator 1
 546 0050 FB7B     		ldrb	r3, [r7, #15]	@ zero_extendqisi2
 547 0052 3F2B     		cmp	r3, #63
 548 0054 15D8     		bhi	.L43
 363:.\Generated_Source\PSoC5/CySpc.c ****                 {
 364:.\Generated_Source\PSoC5/CySpc.c ****                     offset = CYDEV_FLS_BASE +
 365:.\Generated_Source\PSoC5/CySpc.c ****                              ((uint32) array * CYDEV_FLS_SECTOR_SIZE) +
 549              		.loc 1 365 0 is_stmt 1
 550 0056 FB7B     		ldrb	r3, [r7, #15]	@ zero_extendqisi2
 551 0058 1A02     		lsls	r2, r3, #8
 366:.\Generated_Source\PSoC5/CySpc.c ****                              ((uint32)   row * CYDEV_FLS_ROW_SIZE   );
 552              		.loc 1 366 0
 553 005a BB89     		ldrh	r3, [r7, #12]
 365:.\Generated_Source\PSoC5/CySpc.c ****                              ((uint32) array * CYDEV_FLS_SECTOR_SIZE) +
 554              		.loc 1 365 0
 555 005c 1344     		add	r3, r3, r2
 364:.\Generated_Source\PSoC5/CySpc.c ****                     offset = CYDEV_FLS_BASE +
 556              		.loc 1 364 0
 557 005e 1B02     		lsls	r3, r3, #8
 558 0060 7B61     		str	r3, [r7, #20]
 367:.\Generated_Source\PSoC5/CySpc.c **** 
 368:.\Generated_Source\PSoC5/CySpc.c ****                     for (i = 0u; i < CYDEV_FLS_ROW_SIZE; i++)
 559              		.loc 1 368 0
 560 0062 0023     		movs	r3, #0
 561 0064 7B83     		strh	r3, [r7, #26]	@ movhi
 562 0066 09E0     		b	.L44
 563              	.L45:
 369:.\Generated_Source\PSoC5/CySpc.c ****                     {
 370:.\Generated_Source\PSoC5/CySpc.c ****                         CY_SPC_CPU_DATA_REG = CY_GET_XTND_REG8((void CYFAR *)(offset + i));
 564              		.loc 1 370 0 discriminator 2
 565 0068 254B     		ldr	r3, .L53+4
 566 006a 798B     		ldrh	r1, [r7, #26]
 567 006c 7A69     		ldr	r2, [r7, #20]
 568 006e 0A44     		add	r2, r2, r1
 569 0070 1278     		ldrb	r2, [r2]
 570 0072 D2B2     		uxtb	r2, r2
 571 0074 1A70     		strb	r2, [r3]
 368:.\Generated_Source\PSoC5/CySpc.c ****                     for (i = 0u; i < CYDEV_FLS_ROW_SIZE; i++)
 572              		.loc 1 368 0 discriminator 2
 573 0076 7B8B     		ldrh	r3, [r7, #26]
 574 0078 0133     		adds	r3, r3, #1
 575 007a 7B83     		strh	r3, [r7, #26]	@ movhi
 576              	.L44:
 368:.\Generated_Source\PSoC5/CySpc.c ****                     for (i = 0u; i < CYDEV_FLS_ROW_SIZE; i++)
 577              		.loc 1 368 0 is_stmt 0 discriminator 1
 578 007c 7B8B     		ldrh	r3, [r7, #26]
 579 007e FF2B     		cmp	r3, #255
 580 0080 F2D9     		bls	.L45
 581              	.L43:
 371:.\Generated_Source\PSoC5/CySpc.c ****                     }
 372:.\Generated_Source\PSoC5/CySpc.c ****                 }
 373:.\Generated_Source\PSoC5/CySpc.c **** 
 374:.\Generated_Source\PSoC5/CySpc.c ****             #endif /* ((CYDEV_ECC_ENABLE == 0u) && (CYDEV_CONFIGURATION_ECC == 0u)) */
 375:.\Generated_Source\PSoC5/CySpc.c **** 
ARM GAS  C:\Users\khjtony\AppData\Local\Temp\ccW9FgfY.s 			page 18


 376:.\Generated_Source\PSoC5/CySpc.c **** 
 377:.\Generated_Source\PSoC5/CySpc.c ****             for(i = 0u; i < size; i++)
 582              		.loc 1 377 0 is_stmt 1
 583 0082 0023     		movs	r3, #0
 584 0084 7B83     		strh	r3, [r7, #26]	@ movhi
 585 0086 08E0     		b	.L46
 586              	.L47:
 378:.\Generated_Source\PSoC5/CySpc.c ****             {
 379:.\Generated_Source\PSoC5/CySpc.c ****                 CY_SPC_CPU_DATA_REG = buffer[i];
 587              		.loc 1 379 0 discriminator 2
 588 0088 1D4B     		ldr	r3, .L53+4
 589 008a 7A8B     		ldrh	r2, [r7, #26]
 590 008c B968     		ldr	r1, [r7, #8]
 591 008e 0A44     		add	r2, r2, r1
 592 0090 1278     		ldrb	r2, [r2]	@ zero_extendqisi2
 593 0092 1A70     		strb	r2, [r3]
 377:.\Generated_Source\PSoC5/CySpc.c ****             for(i = 0u; i < size; i++)
 594              		.loc 1 377 0 discriminator 2
 595 0094 7B8B     		ldrh	r3, [r7, #26]
 596 0096 0133     		adds	r3, r3, #1
 597 0098 7B83     		strh	r3, [r7, #26]	@ movhi
 598              	.L46:
 377:.\Generated_Source\PSoC5/CySpc.c ****             for(i = 0u; i < size; i++)
 599              		.loc 1 377 0 is_stmt 0 discriminator 1
 600 009a 7A8B     		ldrh	r2, [r7, #26]
 601 009c FB88     		ldrh	r3, [r7, #6]
 602 009e 9A42     		cmp	r2, r3
 603 00a0 F2D3     		bcc	.L47
 380:.\Generated_Source\PSoC5/CySpc.c ****             }
 381:.\Generated_Source\PSoC5/CySpc.c **** 
 382:.\Generated_Source\PSoC5/CySpc.c **** 
 383:.\Generated_Source\PSoC5/CySpc.c ****             /*******************************************************************
 384:.\Generated_Source\PSoC5/CySpc.c ****             * If "Enable Error Correcting Code (ECC)" DWR option is disabled,
 385:.\Generated_Source\PSoC5/CySpc.c ****             * ECC section can be used for storing device configuration data
 386:.\Generated_Source\PSoC5/CySpc.c ****             * ("Store Configuration Data in ECC" DWR option is enabled) or for
 387:.\Generated_Source\PSoC5/CySpc.c ****             * storing user data in the ECC section ("Store Configuration Data in
 388:.\Generated_Source\PSoC5/CySpc.c ****             * ECC" DWR option is enabled). In both cases, the data in the ECC
 389:.\Generated_Source\PSoC5/CySpc.c ****             * section must be preserved if flash data is written.
 390:.\Generated_Source\PSoC5/CySpc.c ****             *******************************************************************/
 391:.\Generated_Source\PSoC5/CySpc.c ****             #if (CYDEV_ECC_ENABLE == 0)
 392:.\Generated_Source\PSoC5/CySpc.c **** 
 393:.\Generated_Source\PSoC5/CySpc.c **** 
 394:.\Generated_Source\PSoC5/CySpc.c ****                 /*******************************************************************
 395:.\Generated_Source\PSoC5/CySpc.c ****                 * If size parameter equals size of the flash row and selected array
 396:.\Generated_Source\PSoC5/CySpc.c ****                 * identification corresponds to the flash array (but not to EEPROM
 397:.\Generated_Source\PSoC5/CySpc.c ****                 * array) then data are going to be written to the flash data
 398:.\Generated_Source\PSoC5/CySpc.c ****                 * section. In this case, ECC section data must be preserved.
 399:.\Generated_Source\PSoC5/CySpc.c ****                 * The ECC section data copied from ECC section to the SPC data
 400:.\Generated_Source\PSoC5/CySpc.c ****                 * register.
 401:.\Generated_Source\PSoC5/CySpc.c ****                 *******************************************************************/
 402:.\Generated_Source\PSoC5/CySpc.c ****                 if ((size == CYDEV_FLS_ROW_SIZE) && (array <= CY_SPC_LAST_FLASH_ARRAYID))
 604              		.loc 1 402 0 is_stmt 1
 605 00a2 FB88     		ldrh	r3, [r7, #6]
 606 00a4 B3F5807F 		cmp	r3, #256
 607 00a8 20D1     		bne	.L51
 608              		.loc 1 402 0 is_stmt 0 discriminator 1
 609 00aa FB7B     		ldrb	r3, [r7, #15]	@ zero_extendqisi2
ARM GAS  C:\Users\khjtony\AppData\Local\Temp\ccW9FgfY.s 			page 19


 610 00ac 3F2B     		cmp	r3, #63
 611 00ae 1DD8     		bhi	.L51
 403:.\Generated_Source\PSoC5/CySpc.c ****                 {
 404:.\Generated_Source\PSoC5/CySpc.c ****                     offset = CYDEV_ECC_BASE +
 405:.\Generated_Source\PSoC5/CySpc.c ****                             ((uint32) array * CYDEV_ECC_SECTOR_SIZE) +
 612              		.loc 1 405 0 is_stmt 1
 613 00b0 FB7B     		ldrb	r3, [r7, #15]	@ zero_extendqisi2
 614 00b2 03F51033 		add	r3, r3, #147456
 615 00b6 1A02     		lsls	r2, r3, #8
 406:.\Generated_Source\PSoC5/CySpc.c ****                             ((uint32) row   * CYDEV_ECC_ROW_SIZE   );
 616              		.loc 1 406 0
 617 00b8 BB89     		ldrh	r3, [r7, #12]
 405:.\Generated_Source\PSoC5/CySpc.c ****                             ((uint32) array * CYDEV_ECC_SECTOR_SIZE) +
 618              		.loc 1 405 0
 619 00ba 1344     		add	r3, r3, r2
 404:.\Generated_Source\PSoC5/CySpc.c ****                     offset = CYDEV_ECC_BASE +
 620              		.loc 1 404 0
 621 00bc 5B01     		lsls	r3, r3, #5
 622 00be 7B61     		str	r3, [r7, #20]
 407:.\Generated_Source\PSoC5/CySpc.c **** 
 408:.\Generated_Source\PSoC5/CySpc.c ****                     for (i = 0u; i < CYDEV_ECC_ROW_SIZE; i++)
 623              		.loc 1 408 0
 624 00c0 0023     		movs	r3, #0
 625 00c2 7B83     		strh	r3, [r7, #26]	@ movhi
 626 00c4 09E0     		b	.L49
 627              	.L50:
 409:.\Generated_Source\PSoC5/CySpc.c ****                     {
 410:.\Generated_Source\PSoC5/CySpc.c ****                         CY_SPC_CPU_DATA_REG = CY_GET_XTND_REG8((void CYFAR *)(offset + i));
 628              		.loc 1 410 0 discriminator 2
 629 00c6 0E4B     		ldr	r3, .L53+4
 630 00c8 798B     		ldrh	r1, [r7, #26]
 631 00ca 7A69     		ldr	r2, [r7, #20]
 632 00cc 0A44     		add	r2, r2, r1
 633 00ce 1278     		ldrb	r2, [r2]
 634 00d0 D2B2     		uxtb	r2, r2
 635 00d2 1A70     		strb	r2, [r3]
 408:.\Generated_Source\PSoC5/CySpc.c ****                     for (i = 0u; i < CYDEV_ECC_ROW_SIZE; i++)
 636              		.loc 1 408 0 discriminator 2
 637 00d4 7B8B     		ldrh	r3, [r7, #26]
 638 00d6 0133     		adds	r3, r3, #1
 639 00d8 7B83     		strh	r3, [r7, #26]	@ movhi
 640              	.L49:
 408:.\Generated_Source\PSoC5/CySpc.c ****                     for (i = 0u; i < CYDEV_ECC_ROW_SIZE; i++)
 641              		.loc 1 408 0 is_stmt 0 discriminator 1
 642 00da 7B8B     		ldrh	r3, [r7, #26]
 643 00dc 1F2B     		cmp	r3, #31
 644 00de F2D9     		bls	.L50
 645 00e0 04E0     		b	.L51
 646              	.L42:
 411:.\Generated_Source\PSoC5/CySpc.c ****                     }
 412:.\Generated_Source\PSoC5/CySpc.c ****                 }
 413:.\Generated_Source\PSoC5/CySpc.c **** 
 414:.\Generated_Source\PSoC5/CySpc.c ****             #else
 415:.\Generated_Source\PSoC5/CySpc.c **** 
 416:.\Generated_Source\PSoC5/CySpc.c ****                 if(0u != row)
 417:.\Generated_Source\PSoC5/CySpc.c ****                 {
 418:.\Generated_Source\PSoC5/CySpc.c ****                     /* To remove unreferenced local variable warning */
ARM GAS  C:\Users\khjtony\AppData\Local\Temp\ccW9FgfY.s 			page 20


 419:.\Generated_Source\PSoC5/CySpc.c ****                 }
 420:.\Generated_Source\PSoC5/CySpc.c **** 
 421:.\Generated_Source\PSoC5/CySpc.c ****             #endif /* (CYDEV_ECC_ENABLE == 0) */
 422:.\Generated_Source\PSoC5/CySpc.c ****         }
 423:.\Generated_Source\PSoC5/CySpc.c ****         else
 424:.\Generated_Source\PSoC5/CySpc.c ****         {
 425:.\Generated_Source\PSoC5/CySpc.c ****             status = CYRET_CANCELED;
 647              		.loc 1 425 0 is_stmt 1
 648 00e2 0923     		movs	r3, #9
 649 00e4 FB61     		str	r3, [r7, #28]
 650 00e6 01E0     		b	.L51
 651              	.L41:
 426:.\Generated_Source\PSoC5/CySpc.c ****         }
 427:.\Generated_Source\PSoC5/CySpc.c ****     }
 428:.\Generated_Source\PSoC5/CySpc.c ****     else
 429:.\Generated_Source\PSoC5/CySpc.c ****     {
 430:.\Generated_Source\PSoC5/CySpc.c ****         status = CYRET_LOCKED;
 652              		.loc 1 430 0
 653 00e8 0423     		movs	r3, #4
 654 00ea FB61     		str	r3, [r7, #28]
 655              	.L51:
 431:.\Generated_Source\PSoC5/CySpc.c ****     }
 432:.\Generated_Source\PSoC5/CySpc.c **** 
 433:.\Generated_Source\PSoC5/CySpc.c ****     return(status);
 656              		.loc 1 433 0
 657 00ec FB69     		ldr	r3, [r7, #28]
 434:.\Generated_Source\PSoC5/CySpc.c **** }
 658              		.loc 1 434 0
 659 00ee 1846     		mov	r0, r3
 660 00f0 2437     		adds	r7, r7, #36
 661 00f2 BD46     		mov	sp, r7
 662              		@ sp needed
 663 00f4 5DF8047B 		ldr	r7, [sp], #4
 664 00f8 7047     		bx	lr
 665              	.L54:
 666 00fa 00BF     		.align	2
 667              	.L53:
 668 00fc 22470040 		.word	1073760034
 669 0100 20470040 		.word	1073760032
 670              		.cfi_endproc
 671              	.LFE5:
 672              		.size	CySpcLoadRowFull, .-CySpcLoadRowFull
 673              		.section	.text.CySpcWriteRow,"ax",%progbits
 674              		.align	2
 675              		.global	CySpcWriteRow
 676              		.thumb
 677              		.thumb_func
 678              		.type	CySpcWriteRow, %function
 679              	CySpcWriteRow:
 680              	.LFB6:
 435:.\Generated_Source\PSoC5/CySpc.c **** 
 436:.\Generated_Source\PSoC5/CySpc.c **** 
 437:.\Generated_Source\PSoC5/CySpc.c **** /*******************************************************************************
 438:.\Generated_Source\PSoC5/CySpc.c **** * Function Name: CySpcWriteRow
 439:.\Generated_Source\PSoC5/CySpc.c **** ********************************************************************************
 440:.\Generated_Source\PSoC5/CySpc.c **** * Summary:
 441:.\Generated_Source\PSoC5/CySpc.c **** *  Erases then programs a row in Flash/EEPROM with data in row latch.
ARM GAS  C:\Users\khjtony\AppData\Local\Temp\ccW9FgfY.s 			page 21


 442:.\Generated_Source\PSoC5/CySpc.c **** *
 443:.\Generated_Source\PSoC5/CySpc.c **** * Parameters:
 444:.\Generated_Source\PSoC5/CySpc.c **** *  uint8 array:
 445:.\Generated_Source\PSoC5/CySpc.c **** *   Id of the array.
 446:.\Generated_Source\PSoC5/CySpc.c **** *
 447:.\Generated_Source\PSoC5/CySpc.c **** *  uint16 address:
 448:.\Generated_Source\PSoC5/CySpc.c **** *   flash/eeprom addrress
 449:.\Generated_Source\PSoC5/CySpc.c **** *
 450:.\Generated_Source\PSoC5/CySpc.c **** *  uint8 tempPolarity:
 451:.\Generated_Source\PSoC5/CySpc.c **** *   temperature polarity.
 452:.\Generated_Source\PSoC5/CySpc.c **** *   1: the Temp Magnitude is interpreted as a positive value
 453:.\Generated_Source\PSoC5/CySpc.c **** *   0: the Temp Magnitude is interpreted as a negative value
 454:.\Generated_Source\PSoC5/CySpc.c **** *
 455:.\Generated_Source\PSoC5/CySpc.c **** *  uint8 tempMagnitude:
 456:.\Generated_Source\PSoC5/CySpc.c **** *   temperature magnitude.
 457:.\Generated_Source\PSoC5/CySpc.c **** *
 458:.\Generated_Source\PSoC5/CySpc.c **** * Return:
 459:.\Generated_Source\PSoC5/CySpc.c **** *  CYRET_STARTED
 460:.\Generated_Source\PSoC5/CySpc.c **** *  CYRET_CANCELED
 461:.\Generated_Source\PSoC5/CySpc.c **** *  CYRET_LOCKED
 462:.\Generated_Source\PSoC5/CySpc.c **** *
 463:.\Generated_Source\PSoC5/CySpc.c **** *******************************************************************************/
 464:.\Generated_Source\PSoC5/CySpc.c **** cystatus CySpcWriteRow(uint8 array, uint16 address, uint8 tempPolarity, uint8 tempMagnitude)\
 465:.\Generated_Source\PSoC5/CySpc.c **** 
 466:.\Generated_Source\PSoC5/CySpc.c **** {
 681              		.loc 1 466 0
 682              		.cfi_startproc
 683              		@ args = 0, pretend = 0, frame = 16
 684              		@ frame_needed = 1, uses_anonymous_args = 0
 685              		@ link register save eliminated.
 686 0000 80B4     		push	{r7}
 687              		.cfi_def_cfa_offset 4
 688              		.cfi_offset 7, -4
 689 0002 85B0     		sub	sp, sp, #20
 690              		.cfi_def_cfa_offset 24
 691 0004 00AF     		add	r7, sp, #0
 692              		.cfi_def_cfa_register 7
 693 0006 F871     		strb	r0, [r7, #7]
 694 0008 B980     		strh	r1, [r7, #4]	@ movhi
 695 000a BA71     		strb	r2, [r7, #6]
 696 000c FB70     		strb	r3, [r7, #3]
 467:.\Generated_Source\PSoC5/CySpc.c ****     cystatus status = CYRET_STARTED;
 697              		.loc 1 467 0
 698 000e 0723     		movs	r3, #7
 699 0010 FB60     		str	r3, [r7, #12]
 468:.\Generated_Source\PSoC5/CySpc.c **** 
 469:.\Generated_Source\PSoC5/CySpc.c ****     /* Make sure the SPC is ready to accept command */
 470:.\Generated_Source\PSoC5/CySpc.c ****     if(CY_SPC_IDLE)
 700              		.loc 1 470 0
 701 0012 1B4B     		ldr	r3, .L61
 702 0014 1B78     		ldrb	r3, [r3]
 703 0016 DBB2     		uxtb	r3, r3
 704 0018 03F00203 		and	r3, r3, #2
 705 001c 002B     		cmp	r3, #0
 706 001e 26D0     		beq	.L56
 471:.\Generated_Source\PSoC5/CySpc.c ****     {
 472:.\Generated_Source\PSoC5/CySpc.c ****         CY_SPC_CPU_DATA_REG = CY_SPC_KEY_ONE;
ARM GAS  C:\Users\khjtony\AppData\Local\Temp\ccW9FgfY.s 			page 22


 707              		.loc 1 472 0
 708 0020 184B     		ldr	r3, .L61+4
 709 0022 B622     		movs	r2, #182
 710 0024 1A70     		strb	r2, [r3]
 473:.\Generated_Source\PSoC5/CySpc.c ****         CY_SPC_CPU_DATA_REG = CY_SPC_KEY_TWO(CY_SPC_CMD_WR_ROW);
 711              		.loc 1 473 0
 712 0026 174B     		ldr	r3, .L61+4
 713 0028 D822     		movs	r2, #216
 714 002a 1A70     		strb	r2, [r3]
 474:.\Generated_Source\PSoC5/CySpc.c ****         CY_SPC_CPU_DATA_REG = CY_SPC_CMD_WR_ROW;
 715              		.loc 1 474 0
 716 002c 154B     		ldr	r3, .L61+4
 717 002e 0522     		movs	r2, #5
 718 0030 1A70     		strb	r2, [r3]
 475:.\Generated_Source\PSoC5/CySpc.c **** 
 476:.\Generated_Source\PSoC5/CySpc.c ****         /* Make sure the command was accepted */
 477:.\Generated_Source\PSoC5/CySpc.c ****         if(CY_SPC_BUSY)
 719              		.loc 1 477 0
 720 0032 134B     		ldr	r3, .L61
 721 0034 1B78     		ldrb	r3, [r3]
 722 0036 DBB2     		uxtb	r3, r3
 723 0038 03F00203 		and	r3, r3, #2
 724 003c 002B     		cmp	r3, #0
 725 003e 13D1     		bne	.L57
 478:.\Generated_Source\PSoC5/CySpc.c ****         {
 479:.\Generated_Source\PSoC5/CySpc.c ****             CY_SPC_CPU_DATA_REG = array;
 726              		.loc 1 479 0
 727 0040 104B     		ldr	r3, .L61+4
 728 0042 FA79     		ldrb	r2, [r7, #7]
 729 0044 1A70     		strb	r2, [r3]
 480:.\Generated_Source\PSoC5/CySpc.c ****             CY_SPC_CPU_DATA_REG = HI8(address);
 730              		.loc 1 480 0
 731 0046 0F4B     		ldr	r3, .L61+4
 732 0048 BA88     		ldrh	r2, [r7, #4]
 733 004a 120A     		lsrs	r2, r2, #8
 734 004c 92B2     		uxth	r2, r2
 735 004e D2B2     		uxtb	r2, r2
 736 0050 1A70     		strb	r2, [r3]
 481:.\Generated_Source\PSoC5/CySpc.c ****             CY_SPC_CPU_DATA_REG = LO8(address);
 737              		.loc 1 481 0
 738 0052 0C4B     		ldr	r3, .L61+4
 739 0054 BA88     		ldrh	r2, [r7, #4]	@ movhi
 740 0056 D2B2     		uxtb	r2, r2
 741 0058 1A70     		strb	r2, [r3]
 482:.\Generated_Source\PSoC5/CySpc.c ****             CY_SPC_CPU_DATA_REG = tempPolarity;
 742              		.loc 1 482 0
 743 005a 0A4B     		ldr	r3, .L61+4
 744 005c BA79     		ldrb	r2, [r7, #6]
 745 005e 1A70     		strb	r2, [r3]
 483:.\Generated_Source\PSoC5/CySpc.c ****             CY_SPC_CPU_DATA_REG = tempMagnitude;
 746              		.loc 1 483 0
 747 0060 084B     		ldr	r3, .L61+4
 748 0062 FA78     		ldrb	r2, [r7, #3]
 749 0064 1A70     		strb	r2, [r3]
 750 0066 04E0     		b	.L59
 751              	.L57:
 484:.\Generated_Source\PSoC5/CySpc.c ****         }
ARM GAS  C:\Users\khjtony\AppData\Local\Temp\ccW9FgfY.s 			page 23


 485:.\Generated_Source\PSoC5/CySpc.c ****         else
 486:.\Generated_Source\PSoC5/CySpc.c ****         {
 487:.\Generated_Source\PSoC5/CySpc.c ****             status = CYRET_CANCELED;
 752              		.loc 1 487 0
 753 0068 0923     		movs	r3, #9
 754 006a FB60     		str	r3, [r7, #12]
 755 006c 01E0     		b	.L59
 756              	.L56:
 488:.\Generated_Source\PSoC5/CySpc.c ****         }
 489:.\Generated_Source\PSoC5/CySpc.c ****     }
 490:.\Generated_Source\PSoC5/CySpc.c ****     else
 491:.\Generated_Source\PSoC5/CySpc.c ****     {
 492:.\Generated_Source\PSoC5/CySpc.c ****         status = CYRET_LOCKED;
 757              		.loc 1 492 0
 758 006e 0423     		movs	r3, #4
 759 0070 FB60     		str	r3, [r7, #12]
 760              	.L59:
 493:.\Generated_Source\PSoC5/CySpc.c ****     }
 494:.\Generated_Source\PSoC5/CySpc.c **** 
 495:.\Generated_Source\PSoC5/CySpc.c ****     return(status);
 761              		.loc 1 495 0
 762 0072 FB68     		ldr	r3, [r7, #12]
 496:.\Generated_Source\PSoC5/CySpc.c **** }
 763              		.loc 1 496 0
 764 0074 1846     		mov	r0, r3
 765 0076 1437     		adds	r7, r7, #20
 766 0078 BD46     		mov	sp, r7
 767              		@ sp needed
 768 007a 5DF8047B 		ldr	r7, [sp], #4
 769 007e 7047     		bx	lr
 770              	.L62:
 771              		.align	2
 772              	.L61:
 773 0080 22470040 		.word	1073760034
 774 0084 20470040 		.word	1073760032
 775              		.cfi_endproc
 776              	.LFE6:
 777              		.size	CySpcWriteRow, .-CySpcWriteRow
 778              		.section	.text.CySpcEraseSector,"ax",%progbits
 779              		.align	2
 780              		.global	CySpcEraseSector
 781              		.thumb
 782              		.thumb_func
 783              		.type	CySpcEraseSector, %function
 784              	CySpcEraseSector:
 785              	.LFB7:
 497:.\Generated_Source\PSoC5/CySpc.c **** 
 498:.\Generated_Source\PSoC5/CySpc.c **** 
 499:.\Generated_Source\PSoC5/CySpc.c **** /*******************************************************************************
 500:.\Generated_Source\PSoC5/CySpc.c **** * Function Name: CySpcEraseSector
 501:.\Generated_Source\PSoC5/CySpc.c **** ********************************************************************************
 502:.\Generated_Source\PSoC5/CySpc.c **** * Summary:
 503:.\Generated_Source\PSoC5/CySpc.c **** *  Erases all data in the addressed sector (block of 64 rows).
 504:.\Generated_Source\PSoC5/CySpc.c **** *
 505:.\Generated_Source\PSoC5/CySpc.c **** * Parameters:
 506:.\Generated_Source\PSoC5/CySpc.c **** *  uint8 array:
 507:.\Generated_Source\PSoC5/CySpc.c **** *   Id of the array.
ARM GAS  C:\Users\khjtony\AppData\Local\Temp\ccW9FgfY.s 			page 24


 508:.\Generated_Source\PSoC5/CySpc.c **** *
 509:.\Generated_Source\PSoC5/CySpc.c **** *  uint8 sectorNumber:
 510:.\Generated_Source\PSoC5/CySpc.c **** *   Zero based sector number within Flash/EEPROM array
 511:.\Generated_Source\PSoC5/CySpc.c **** *
 512:.\Generated_Source\PSoC5/CySpc.c **** * Return:
 513:.\Generated_Source\PSoC5/CySpc.c **** *  CYRET_STARTED
 514:.\Generated_Source\PSoC5/CySpc.c **** *  CYRET_CANCELED
 515:.\Generated_Source\PSoC5/CySpc.c **** *  CYRET_LOCKED
 516:.\Generated_Source\PSoC5/CySpc.c **** *
 517:.\Generated_Source\PSoC5/CySpc.c **** *******************************************************************************/
 518:.\Generated_Source\PSoC5/CySpc.c **** cystatus CySpcEraseSector(uint8 array, uint8 sectorNumber)
 519:.\Generated_Source\PSoC5/CySpc.c **** {
 786              		.loc 1 519 0
 787              		.cfi_startproc
 788              		@ args = 0, pretend = 0, frame = 16
 789              		@ frame_needed = 1, uses_anonymous_args = 0
 790              		@ link register save eliminated.
 791 0000 80B4     		push	{r7}
 792              		.cfi_def_cfa_offset 4
 793              		.cfi_offset 7, -4
 794 0002 85B0     		sub	sp, sp, #20
 795              		.cfi_def_cfa_offset 24
 796 0004 00AF     		add	r7, sp, #0
 797              		.cfi_def_cfa_register 7
 798 0006 0246     		mov	r2, r0
 799 0008 0B46     		mov	r3, r1
 800 000a FA71     		strb	r2, [r7, #7]
 801 000c BB71     		strb	r3, [r7, #6]
 520:.\Generated_Source\PSoC5/CySpc.c ****     cystatus status = CYRET_STARTED;
 802              		.loc 1 520 0
 803 000e 0723     		movs	r3, #7
 804 0010 FB60     		str	r3, [r7, #12]
 521:.\Generated_Source\PSoC5/CySpc.c **** 
 522:.\Generated_Source\PSoC5/CySpc.c ****     /* Make sure the SPC is ready to accept command */
 523:.\Generated_Source\PSoC5/CySpc.c ****     if(CY_SPC_IDLE)
 805              		.loc 1 523 0
 806 0012 154B     		ldr	r3, .L69
 807 0014 1B78     		ldrb	r3, [r3]
 808 0016 DBB2     		uxtb	r3, r3
 809 0018 03F00203 		and	r3, r3, #2
 810 001c 002B     		cmp	r3, #0
 811 001e 19D0     		beq	.L64
 524:.\Generated_Source\PSoC5/CySpc.c ****     {
 525:.\Generated_Source\PSoC5/CySpc.c ****         CY_SPC_CPU_DATA_REG = CY_SPC_KEY_ONE;
 812              		.loc 1 525 0
 813 0020 124B     		ldr	r3, .L69+4
 814 0022 B622     		movs	r2, #182
 815 0024 1A70     		strb	r2, [r3]
 526:.\Generated_Source\PSoC5/CySpc.c ****         CY_SPC_CPU_DATA_REG = CY_SPC_KEY_TWO(CY_SPC_CMD_ER_SECTOR);
 816              		.loc 1 526 0
 817 0026 114B     		ldr	r3, .L69+4
 818 0028 DB22     		movs	r2, #219
 819 002a 1A70     		strb	r2, [r3]
 527:.\Generated_Source\PSoC5/CySpc.c ****         CY_SPC_CPU_DATA_REG = CY_SPC_CMD_ER_SECTOR;
 820              		.loc 1 527 0
 821 002c 0F4B     		ldr	r3, .L69+4
 822 002e 0822     		movs	r2, #8
ARM GAS  C:\Users\khjtony\AppData\Local\Temp\ccW9FgfY.s 			page 25


 823 0030 1A70     		strb	r2, [r3]
 528:.\Generated_Source\PSoC5/CySpc.c **** 
 529:.\Generated_Source\PSoC5/CySpc.c ****         /* Make sure the command was accepted */
 530:.\Generated_Source\PSoC5/CySpc.c ****         if(CY_SPC_BUSY)
 824              		.loc 1 530 0
 825 0032 0D4B     		ldr	r3, .L69
 826 0034 1B78     		ldrb	r3, [r3]
 827 0036 DBB2     		uxtb	r3, r3
 828 0038 03F00203 		and	r3, r3, #2
 829 003c 002B     		cmp	r3, #0
 830 003e 06D1     		bne	.L65
 531:.\Generated_Source\PSoC5/CySpc.c ****         {
 532:.\Generated_Source\PSoC5/CySpc.c ****             CY_SPC_CPU_DATA_REG = array;
 831              		.loc 1 532 0
 832 0040 0A4B     		ldr	r3, .L69+4
 833 0042 FA79     		ldrb	r2, [r7, #7]
 834 0044 1A70     		strb	r2, [r3]
 533:.\Generated_Source\PSoC5/CySpc.c ****             CY_SPC_CPU_DATA_REG = sectorNumber;
 835              		.loc 1 533 0
 836 0046 094B     		ldr	r3, .L69+4
 837 0048 BA79     		ldrb	r2, [r7, #6]
 838 004a 1A70     		strb	r2, [r3]
 839 004c 04E0     		b	.L67
 840              	.L65:
 534:.\Generated_Source\PSoC5/CySpc.c ****         }
 535:.\Generated_Source\PSoC5/CySpc.c ****         else
 536:.\Generated_Source\PSoC5/CySpc.c ****         {
 537:.\Generated_Source\PSoC5/CySpc.c ****             status = CYRET_CANCELED;
 841              		.loc 1 537 0
 842 004e 0923     		movs	r3, #9
 843 0050 FB60     		str	r3, [r7, #12]
 844 0052 01E0     		b	.L67
 845              	.L64:
 538:.\Generated_Source\PSoC5/CySpc.c ****         }
 539:.\Generated_Source\PSoC5/CySpc.c ****     }
 540:.\Generated_Source\PSoC5/CySpc.c ****     else
 541:.\Generated_Source\PSoC5/CySpc.c ****     {
 542:.\Generated_Source\PSoC5/CySpc.c ****         status = CYRET_LOCKED;
 846              		.loc 1 542 0
 847 0054 0423     		movs	r3, #4
 848 0056 FB60     		str	r3, [r7, #12]
 849              	.L67:
 543:.\Generated_Source\PSoC5/CySpc.c ****     }
 544:.\Generated_Source\PSoC5/CySpc.c **** 
 545:.\Generated_Source\PSoC5/CySpc.c ****     return(status);
 850              		.loc 1 545 0
 851 0058 FB68     		ldr	r3, [r7, #12]
 546:.\Generated_Source\PSoC5/CySpc.c **** }
 852              		.loc 1 546 0
 853 005a 1846     		mov	r0, r3
 854 005c 1437     		adds	r7, r7, #20
 855 005e BD46     		mov	sp, r7
 856              		@ sp needed
 857 0060 5DF8047B 		ldr	r7, [sp], #4
 858 0064 7047     		bx	lr
 859              	.L70:
 860 0066 00BF     		.align	2
ARM GAS  C:\Users\khjtony\AppData\Local\Temp\ccW9FgfY.s 			page 26


 861              	.L69:
 862 0068 22470040 		.word	1073760034
 863 006c 20470040 		.word	1073760032
 864              		.cfi_endproc
 865              	.LFE7:
 866              		.size	CySpcEraseSector, .-CySpcEraseSector
 867              		.section	.text.CySpcGetTemp,"ax",%progbits
 868              		.align	2
 869              		.global	CySpcGetTemp
 870              		.thumb
 871              		.thumb_func
 872              		.type	CySpcGetTemp, %function
 873              	CySpcGetTemp:
 874              	.LFB8:
 547:.\Generated_Source\PSoC5/CySpc.c **** 
 548:.\Generated_Source\PSoC5/CySpc.c **** 
 549:.\Generated_Source\PSoC5/CySpc.c **** /*******************************************************************************
 550:.\Generated_Source\PSoC5/CySpc.c **** * Function Name: CySpcGetTemp
 551:.\Generated_Source\PSoC5/CySpc.c **** ********************************************************************************
 552:.\Generated_Source\PSoC5/CySpc.c **** * Summary:
 553:.\Generated_Source\PSoC5/CySpc.c **** *  Returns the internal die temperature
 554:.\Generated_Source\PSoC5/CySpc.c **** *
 555:.\Generated_Source\PSoC5/CySpc.c **** * Parameters:
 556:.\Generated_Source\PSoC5/CySpc.c **** *  uint8 numSamples:
 557:.\Generated_Source\PSoC5/CySpc.c **** *   Number of samples. Valid values are 1-5, resulting in 2 - 32 samples
 558:.\Generated_Source\PSoC5/CySpc.c **** *   respectively.
 559:.\Generated_Source\PSoC5/CySpc.c **** *
 560:.\Generated_Source\PSoC5/CySpc.c **** * uint16 timerPeriod:
 561:.\Generated_Source\PSoC5/CySpc.c **** *   Number of ADC ACLK cycles. A valid 14 bit value is accepted, higher 2 bits
 562:.\Generated_Source\PSoC5/CySpc.c **** *   of 16 bit values are ignored.
 563:.\Generated_Source\PSoC5/CySpc.c **** *
 564:.\Generated_Source\PSoC5/CySpc.c **** * uint8 clkDivSelect:
 565:.\Generated_Source\PSoC5/CySpc.c **** *   ADC ACLK clock divide value. Valid values are 2 - 225.
 566:.\Generated_Source\PSoC5/CySpc.c **** *
 567:.\Generated_Source\PSoC5/CySpc.c **** * Return:
 568:.\Generated_Source\PSoC5/CySpc.c **** *  CYRET_STARTED
 569:.\Generated_Source\PSoC5/CySpc.c **** *  CYRET_CANCELED
 570:.\Generated_Source\PSoC5/CySpc.c **** *  CYRET_LOCKED
 571:.\Generated_Source\PSoC5/CySpc.c **** *
 572:.\Generated_Source\PSoC5/CySpc.c **** *******************************************************************************/
 573:.\Generated_Source\PSoC5/CySpc.c **** cystatus CySpcGetTemp(uint8 numSamples)
 574:.\Generated_Source\PSoC5/CySpc.c **** {
 875              		.loc 1 574 0
 876              		.cfi_startproc
 877              		@ args = 0, pretend = 0, frame = 16
 878              		@ frame_needed = 1, uses_anonymous_args = 0
 879              		@ link register save eliminated.
 880 0000 80B4     		push	{r7}
 881              		.cfi_def_cfa_offset 4
 882              		.cfi_offset 7, -4
 883 0002 85B0     		sub	sp, sp, #20
 884              		.cfi_def_cfa_offset 24
 885 0004 00AF     		add	r7, sp, #0
 886              		.cfi_def_cfa_register 7
 887 0006 0346     		mov	r3, r0
 888 0008 FB71     		strb	r3, [r7, #7]
 575:.\Generated_Source\PSoC5/CySpc.c ****     cystatus status = CYRET_STARTED;
ARM GAS  C:\Users\khjtony\AppData\Local\Temp\ccW9FgfY.s 			page 27


 889              		.loc 1 575 0
 890 000a 0723     		movs	r3, #7
 891 000c FB60     		str	r3, [r7, #12]
 576:.\Generated_Source\PSoC5/CySpc.c **** 
 577:.\Generated_Source\PSoC5/CySpc.c ****     /* Make sure the SPC is ready to accept command */
 578:.\Generated_Source\PSoC5/CySpc.c ****     if(CY_SPC_IDLE)
 892              		.loc 1 578 0
 893 000e 134B     		ldr	r3, .L77
 894 0010 1B78     		ldrb	r3, [r3]
 895 0012 DBB2     		uxtb	r3, r3
 896 0014 03F00203 		and	r3, r3, #2
 897 0018 002B     		cmp	r3, #0
 898 001a 16D0     		beq	.L72
 579:.\Generated_Source\PSoC5/CySpc.c ****     {
 580:.\Generated_Source\PSoC5/CySpc.c ****         CY_SPC_CPU_DATA_REG = CY_SPC_KEY_ONE;
 899              		.loc 1 580 0
 900 001c 104B     		ldr	r3, .L77+4
 901 001e B622     		movs	r2, #182
 902 0020 1A70     		strb	r2, [r3]
 581:.\Generated_Source\PSoC5/CySpc.c ****         CY_SPC_CPU_DATA_REG = CY_SPC_KEY_TWO(CY_SPC_CMD_GET_TEMP);
 903              		.loc 1 581 0
 904 0022 0F4B     		ldr	r3, .L77+4
 905 0024 E122     		movs	r2, #225
 906 0026 1A70     		strb	r2, [r3]
 582:.\Generated_Source\PSoC5/CySpc.c ****         CY_SPC_CPU_DATA_REG = CY_SPC_CMD_GET_TEMP;
 907              		.loc 1 582 0
 908 0028 0D4B     		ldr	r3, .L77+4
 909 002a 0E22     		movs	r2, #14
 910 002c 1A70     		strb	r2, [r3]
 583:.\Generated_Source\PSoC5/CySpc.c **** 
 584:.\Generated_Source\PSoC5/CySpc.c ****         /* Make sure the command was accepted */
 585:.\Generated_Source\PSoC5/CySpc.c ****         if(CY_SPC_BUSY)
 911              		.loc 1 585 0
 912 002e 0B4B     		ldr	r3, .L77
 913 0030 1B78     		ldrb	r3, [r3]
 914 0032 DBB2     		uxtb	r3, r3
 915 0034 03F00203 		and	r3, r3, #2
 916 0038 002B     		cmp	r3, #0
 917 003a 03D1     		bne	.L73
 586:.\Generated_Source\PSoC5/CySpc.c ****         {
 587:.\Generated_Source\PSoC5/CySpc.c ****             CY_SPC_CPU_DATA_REG = numSamples;
 918              		.loc 1 587 0
 919 003c 084B     		ldr	r3, .L77+4
 920 003e FA79     		ldrb	r2, [r7, #7]
 921 0040 1A70     		strb	r2, [r3]
 922 0042 04E0     		b	.L75
 923              	.L73:
 588:.\Generated_Source\PSoC5/CySpc.c ****         }
 589:.\Generated_Source\PSoC5/CySpc.c ****         else
 590:.\Generated_Source\PSoC5/CySpc.c ****         {
 591:.\Generated_Source\PSoC5/CySpc.c ****             status = CYRET_CANCELED;
 924              		.loc 1 591 0
 925 0044 0923     		movs	r3, #9
 926 0046 FB60     		str	r3, [r7, #12]
 927 0048 01E0     		b	.L75
 928              	.L72:
 592:.\Generated_Source\PSoC5/CySpc.c ****         }
ARM GAS  C:\Users\khjtony\AppData\Local\Temp\ccW9FgfY.s 			page 28


 593:.\Generated_Source\PSoC5/CySpc.c ****     }
 594:.\Generated_Source\PSoC5/CySpc.c ****     else
 595:.\Generated_Source\PSoC5/CySpc.c ****     {
 596:.\Generated_Source\PSoC5/CySpc.c ****         status = CYRET_LOCKED;
 929              		.loc 1 596 0
 930 004a 0423     		movs	r3, #4
 931 004c FB60     		str	r3, [r7, #12]
 932              	.L75:
 597:.\Generated_Source\PSoC5/CySpc.c ****     }
 598:.\Generated_Source\PSoC5/CySpc.c **** 
 599:.\Generated_Source\PSoC5/CySpc.c ****     return(status);
 933              		.loc 1 599 0
 934 004e FB68     		ldr	r3, [r7, #12]
 600:.\Generated_Source\PSoC5/CySpc.c **** }
 935              		.loc 1 600 0
 936 0050 1846     		mov	r0, r3
 937 0052 1437     		adds	r7, r7, #20
 938 0054 BD46     		mov	sp, r7
 939              		@ sp needed
 940 0056 5DF8047B 		ldr	r7, [sp], #4
 941 005a 7047     		bx	lr
 942              	.L78:
 943              		.align	2
 944              	.L77:
 945 005c 22470040 		.word	1073760034
 946 0060 20470040 		.word	1073760032
 947              		.cfi_endproc
 948              	.LFE8:
 949              		.size	CySpcGetTemp, .-CySpcGetTemp
 950              		.section	.text.CySpcLock,"ax",%progbits
 951              		.align	2
 952              		.global	CySpcLock
 953              		.thumb
 954              		.thumb_func
 955              		.type	CySpcLock, %function
 956              	CySpcLock:
 957              	.LFB9:
 601:.\Generated_Source\PSoC5/CySpc.c **** 
 602:.\Generated_Source\PSoC5/CySpc.c **** 
 603:.\Generated_Source\PSoC5/CySpc.c **** /*******************************************************************************
 604:.\Generated_Source\PSoC5/CySpc.c **** * Function Name: CySpcLock
 605:.\Generated_Source\PSoC5/CySpc.c **** ********************************************************************************
 606:.\Generated_Source\PSoC5/CySpc.c **** * Summary:
 607:.\Generated_Source\PSoC5/CySpc.c **** *  Locks the SPC so it can not be used by someone else:
 608:.\Generated_Source\PSoC5/CySpc.c **** *   - Saves wait-pipeline enable state and enable pipeline (PSoC5)
 609:.\Generated_Source\PSoC5/CySpc.c **** *
 610:.\Generated_Source\PSoC5/CySpc.c **** * Parameters:
 611:.\Generated_Source\PSoC5/CySpc.c **** *  Note
 612:.\Generated_Source\PSoC5/CySpc.c **** *
 613:.\Generated_Source\PSoC5/CySpc.c **** * Return:
 614:.\Generated_Source\PSoC5/CySpc.c **** *  CYRET_SUCCESS - if the resource was free.
 615:.\Generated_Source\PSoC5/CySpc.c **** *  CYRET_LOCKED  - if the SPC is in use.
 616:.\Generated_Source\PSoC5/CySpc.c **** *
 617:.\Generated_Source\PSoC5/CySpc.c **** *******************************************************************************/
 618:.\Generated_Source\PSoC5/CySpc.c **** cystatus CySpcLock(void)
 619:.\Generated_Source\PSoC5/CySpc.c **** {
 958              		.loc 1 619 0
ARM GAS  C:\Users\khjtony\AppData\Local\Temp\ccW9FgfY.s 			page 29


 959              		.cfi_startproc
 960              		@ args = 0, pretend = 0, frame = 8
 961              		@ frame_needed = 1, uses_anonymous_args = 0
 962 0000 80B5     		push	{r7, lr}
 963              		.cfi_def_cfa_offset 8
 964              		.cfi_offset 7, -8
 965              		.cfi_offset 14, -4
 966 0002 82B0     		sub	sp, sp, #8
 967              		.cfi_def_cfa_offset 16
 968 0004 00AF     		add	r7, sp, #0
 969              		.cfi_def_cfa_register 7
 620:.\Generated_Source\PSoC5/CySpc.c ****     cystatus status = CYRET_LOCKED;
 970              		.loc 1 620 0
 971 0006 0423     		movs	r3, #4
 972 0008 7B60     		str	r3, [r7, #4]
 621:.\Generated_Source\PSoC5/CySpc.c ****     uint8 interruptState;
 622:.\Generated_Source\PSoC5/CySpc.c **** 
 623:.\Generated_Source\PSoC5/CySpc.c ****     /* Enter critical section */
 624:.\Generated_Source\PSoC5/CySpc.c ****     interruptState = CyEnterCriticalSection();
 973              		.loc 1 624 0
 974 000a FFF7FEFF 		bl	CyEnterCriticalSection
 975 000e 0346     		mov	r3, r0
 976 0010 FB70     		strb	r3, [r7, #3]
 625:.\Generated_Source\PSoC5/CySpc.c **** 
 626:.\Generated_Source\PSoC5/CySpc.c ****     if(CY_SPC_UNLOCKED == SpcLockState)
 977              		.loc 1 626 0
 978 0012 124B     		ldr	r3, .L82
 979 0014 1B78     		ldrb	r3, [r3]	@ zero_extendqisi2
 980 0016 002B     		cmp	r3, #0
 981 0018 16D1     		bne	.L80
 627:.\Generated_Source\PSoC5/CySpc.c ****     {
 628:.\Generated_Source\PSoC5/CySpc.c ****         SpcLockState = CY_SPC_LOCKED;
 982              		.loc 1 628 0
 983 001a 104B     		ldr	r3, .L82
 984 001c 0122     		movs	r2, #1
 985 001e 1A70     		strb	r2, [r3]
 629:.\Generated_Source\PSoC5/CySpc.c ****         status = CYRET_SUCCESS;
 986              		.loc 1 629 0
 987 0020 0023     		movs	r3, #0
 988 0022 7B60     		str	r3, [r7, #4]
 630:.\Generated_Source\PSoC5/CySpc.c **** 
 631:.\Generated_Source\PSoC5/CySpc.c ****         #if(CY_PSOC5)
 632:.\Generated_Source\PSoC5/CySpc.c **** 
 633:.\Generated_Source\PSoC5/CySpc.c ****             if(0u != (CY_SPC_CPU_WAITPIPE_REG & CY_SPC_CPU_WAITPIPE_BYPASS))
 989              		.loc 1 633 0
 990 0024 0E4B     		ldr	r3, .L82+4
 991 0026 1B68     		ldr	r3, [r3]
 992 0028 03F00103 		and	r3, r3, #1
 993 002c 002B     		cmp	r3, #0
 994 002e 0BD0     		beq	.L80
 634:.\Generated_Source\PSoC5/CySpc.c ****             {
 635:.\Generated_Source\PSoC5/CySpc.c ****                 /* Enable pipeline registers */
 636:.\Generated_Source\PSoC5/CySpc.c ****                 CY_SPC_CPU_WAITPIPE_REG &= ((uint32)(~CY_SPC_CPU_WAITPIPE_BYPASS));
 995              		.loc 1 636 0
 996 0030 0B4B     		ldr	r3, .L82+4
 997 0032 0B4A     		ldr	r2, .L82+4
 998 0034 1268     		ldr	r2, [r2]
ARM GAS  C:\Users\khjtony\AppData\Local\Temp\ccW9FgfY.s 			page 30


 999 0036 22F00102 		bic	r2, r2, #1
 1000 003a 1A60     		str	r2, [r3]
 637:.\Generated_Source\PSoC5/CySpc.c **** 
 638:.\Generated_Source\PSoC5/CySpc.c ****                 /* At least 2 NOP instructions are recommended */
 639:.\Generated_Source\PSoC5/CySpc.c ****                 CY_NOP;
 1001              		.loc 1 639 0
 1002              	@ 639 ".\Generated_Source\PSoC5\CySpc.c" 1
 1003 003c 00BF     		NOP
 1004              	
 1005              	@ 0 "" 2
 640:.\Generated_Source\PSoC5/CySpc.c ****                 CY_NOP;
 1006              		.loc 1 640 0
 1007              	@ 640 ".\Generated_Source\PSoC5\CySpc.c" 1
 1008 003e 00BF     		NOP
 1009              	
 1010              	@ 0 "" 2
 641:.\Generated_Source\PSoC5/CySpc.c ****                 CY_NOP;
 1011              		.loc 1 641 0
 1012              	@ 641 ".\Generated_Source\PSoC5\CySpc.c" 1
 1013 0040 00BF     		NOP
 1014              	
 1015              	@ 0 "" 2
 642:.\Generated_Source\PSoC5/CySpc.c **** 
 643:.\Generated_Source\PSoC5/CySpc.c ****                 spcWaitPipeBypass = CY_SPC_CPU_WAITPIPE_BYPASS;
 1016              		.loc 1 643 0
 1017              		.thumb
 1018 0042 084B     		ldr	r3, .L82+8
 1019 0044 0122     		movs	r2, #1
 1020 0046 1A60     		str	r2, [r3]
 1021              	.L80:
 644:.\Generated_Source\PSoC5/CySpc.c ****             }
 645:.\Generated_Source\PSoC5/CySpc.c **** 
 646:.\Generated_Source\PSoC5/CySpc.c ****         #endif  /* (CY_PSOC5) */
 647:.\Generated_Source\PSoC5/CySpc.c ****     }
 648:.\Generated_Source\PSoC5/CySpc.c **** 
 649:.\Generated_Source\PSoC5/CySpc.c ****     /* Exit critical section */
 650:.\Generated_Source\PSoC5/CySpc.c ****     CyExitCriticalSection(interruptState);
 1022              		.loc 1 650 0
 1023 0048 FB78     		ldrb	r3, [r7, #3]	@ zero_extendqisi2
 1024 004a 1846     		mov	r0, r3
 1025 004c FFF7FEFF 		bl	CyExitCriticalSection
 651:.\Generated_Source\PSoC5/CySpc.c **** 
 652:.\Generated_Source\PSoC5/CySpc.c ****     return(status);
 1026              		.loc 1 652 0
 1027 0050 7B68     		ldr	r3, [r7, #4]
 653:.\Generated_Source\PSoC5/CySpc.c **** }
 1028              		.loc 1 653 0
 1029 0052 1846     		mov	r0, r3
 1030 0054 0837     		adds	r7, r7, #8
 1031 0056 BD46     		mov	sp, r7
 1032              		@ sp needed
 1033 0058 80BD     		pop	{r7, pc}
 1034              	.L83:
 1035 005a 00BF     		.align	2
 1036              	.L82:
 1037 005c 00000000 		.word	SpcLockState
 1038 0060 04000840 		.word	1074266116
ARM GAS  C:\Users\khjtony\AppData\Local\Temp\ccW9FgfY.s 			page 31


 1039 0064 04000000 		.word	spcWaitPipeBypass
 1040              		.cfi_endproc
 1041              	.LFE9:
 1042              		.size	CySpcLock, .-CySpcLock
 1043              		.section	.text.CySpcUnlock,"ax",%progbits
 1044              		.align	2
 1045              		.global	CySpcUnlock
 1046              		.thumb
 1047              		.thumb_func
 1048              		.type	CySpcUnlock, %function
 1049              	CySpcUnlock:
 1050              	.LFB10:
 654:.\Generated_Source\PSoC5/CySpc.c **** 
 655:.\Generated_Source\PSoC5/CySpc.c **** 
 656:.\Generated_Source\PSoC5/CySpc.c **** /*******************************************************************************
 657:.\Generated_Source\PSoC5/CySpc.c **** * Function Name: CySpcUnlock
 658:.\Generated_Source\PSoC5/CySpc.c **** ********************************************************************************
 659:.\Generated_Source\PSoC5/CySpc.c **** * Summary:
 660:.\Generated_Source\PSoC5/CySpc.c **** *  Unlocks the SPC so it can be used by someone else:
 661:.\Generated_Source\PSoC5/CySpc.c **** *   - Restores wait-pipeline enable state (PSoC5)
 662:.\Generated_Source\PSoC5/CySpc.c **** *
 663:.\Generated_Source\PSoC5/CySpc.c **** * Parameters:
 664:.\Generated_Source\PSoC5/CySpc.c **** *  None
 665:.\Generated_Source\PSoC5/CySpc.c **** *
 666:.\Generated_Source\PSoC5/CySpc.c **** * Return:
 667:.\Generated_Source\PSoC5/CySpc.c **** *  None
 668:.\Generated_Source\PSoC5/CySpc.c **** *
 669:.\Generated_Source\PSoC5/CySpc.c **** *******************************************************************************/
 670:.\Generated_Source\PSoC5/CySpc.c **** void CySpcUnlock(void)
 671:.\Generated_Source\PSoC5/CySpc.c **** {
 1051              		.loc 1 671 0
 1052              		.cfi_startproc
 1053              		@ args = 0, pretend = 0, frame = 8
 1054              		@ frame_needed = 1, uses_anonymous_args = 0
 1055 0000 80B5     		push	{r7, lr}
 1056              		.cfi_def_cfa_offset 8
 1057              		.cfi_offset 7, -8
 1058              		.cfi_offset 14, -4
 1059 0002 82B0     		sub	sp, sp, #8
 1060              		.cfi_def_cfa_offset 16
 1061 0004 00AF     		add	r7, sp, #0
 1062              		.cfi_def_cfa_register 7
 672:.\Generated_Source\PSoC5/CySpc.c ****     uint8 interruptState;
 673:.\Generated_Source\PSoC5/CySpc.c **** 
 674:.\Generated_Source\PSoC5/CySpc.c ****     /* Enter critical section */
 675:.\Generated_Source\PSoC5/CySpc.c ****     interruptState = CyEnterCriticalSection();
 1063              		.loc 1 675 0
 1064 0006 FFF7FEFF 		bl	CyEnterCriticalSection
 1065 000a 0346     		mov	r3, r0
 1066 000c FB71     		strb	r3, [r7, #7]
 676:.\Generated_Source\PSoC5/CySpc.c **** 
 677:.\Generated_Source\PSoC5/CySpc.c ****     /* Release the SPC object */
 678:.\Generated_Source\PSoC5/CySpc.c ****     SpcLockState = CY_SPC_UNLOCKED;
 1067              		.loc 1 678 0
 1068 000e 0D4B     		ldr	r3, .L86
 1069 0010 0022     		movs	r2, #0
 1070 0012 1A70     		strb	r2, [r3]
ARM GAS  C:\Users\khjtony\AppData\Local\Temp\ccW9FgfY.s 			page 32


 679:.\Generated_Source\PSoC5/CySpc.c **** 
 680:.\Generated_Source\PSoC5/CySpc.c ****     #if(CY_PSOC5)
 681:.\Generated_Source\PSoC5/CySpc.c **** 
 682:.\Generated_Source\PSoC5/CySpc.c ****         if(CY_SPC_CPU_WAITPIPE_BYPASS == spcWaitPipeBypass)
 1071              		.loc 1 682 0
 1072 0014 0C4B     		ldr	r3, .L86+4
 1073 0016 1B68     		ldr	r3, [r3]
 1074 0018 012B     		cmp	r3, #1
 1075 001a 0BD1     		bne	.L85
 683:.\Generated_Source\PSoC5/CySpc.c ****         {
 684:.\Generated_Source\PSoC5/CySpc.c ****             /* Force to bypass pipeline registers */
 685:.\Generated_Source\PSoC5/CySpc.c ****             CY_SPC_CPU_WAITPIPE_REG |= CY_SPC_CPU_WAITPIPE_BYPASS;
 1076              		.loc 1 685 0
 1077 001c 0B4B     		ldr	r3, .L86+8
 1078 001e 0B4A     		ldr	r2, .L86+8
 1079 0020 1268     		ldr	r2, [r2]
 1080 0022 42F00102 		orr	r2, r2, #1
 1081 0026 1A60     		str	r2, [r3]
 686:.\Generated_Source\PSoC5/CySpc.c **** 
 687:.\Generated_Source\PSoC5/CySpc.c ****             /* At least 2 NOP instructions are recommended */
 688:.\Generated_Source\PSoC5/CySpc.c ****             CY_NOP;
 1082              		.loc 1 688 0
 1083              	@ 688 ".\Generated_Source\PSoC5\CySpc.c" 1
 1084 0028 00BF     		NOP
 1085              	
 1086              	@ 0 "" 2
 689:.\Generated_Source\PSoC5/CySpc.c ****             CY_NOP;
 1087              		.loc 1 689 0
 1088              	@ 689 ".\Generated_Source\PSoC5\CySpc.c" 1
 1089 002a 00BF     		NOP
 1090              	
 1091              	@ 0 "" 2
 690:.\Generated_Source\PSoC5/CySpc.c ****             CY_NOP;
 1092              		.loc 1 690 0
 1093              	@ 690 ".\Generated_Source\PSoC5\CySpc.c" 1
 1094 002c 00BF     		NOP
 1095              	
 1096              	@ 0 "" 2
 691:.\Generated_Source\PSoC5/CySpc.c **** 
 692:.\Generated_Source\PSoC5/CySpc.c ****             spcWaitPipeBypass = 0u;
 1097              		.loc 1 692 0
 1098              		.thumb
 1099 002e 064B     		ldr	r3, .L86+4
 1100 0030 0022     		movs	r2, #0
 1101 0032 1A60     		str	r2, [r3]
 1102              	.L85:
 693:.\Generated_Source\PSoC5/CySpc.c ****         }
 694:.\Generated_Source\PSoC5/CySpc.c **** 
 695:.\Generated_Source\PSoC5/CySpc.c ****     #endif  /* (CY_PSOC5) */
 696:.\Generated_Source\PSoC5/CySpc.c **** 
 697:.\Generated_Source\PSoC5/CySpc.c ****     /* Exit critical section */
 698:.\Generated_Source\PSoC5/CySpc.c ****     CyExitCriticalSection(interruptState);
 1103              		.loc 1 698 0
 1104 0034 FB79     		ldrb	r3, [r7, #7]	@ zero_extendqisi2
 1105 0036 1846     		mov	r0, r3
 1106 0038 FFF7FEFF 		bl	CyExitCriticalSection
 699:.\Generated_Source\PSoC5/CySpc.c **** }
ARM GAS  C:\Users\khjtony\AppData\Local\Temp\ccW9FgfY.s 			page 33


 1107              		.loc 1 699 0
 1108 003c 0837     		adds	r7, r7, #8
 1109 003e BD46     		mov	sp, r7
 1110              		@ sp needed
 1111 0040 80BD     		pop	{r7, pc}
 1112              	.L87:
 1113 0042 00BF     		.align	2
 1114              	.L86:
 1115 0044 00000000 		.word	SpcLockState
 1116 0048 04000000 		.word	spcWaitPipeBypass
 1117 004c 04000840 		.word	1074266116
 1118              		.cfi_endproc
 1119              	.LFE10:
 1120              		.size	CySpcUnlock, .-CySpcUnlock
 1121              		.section	.text.CySpcGetAlgorithm,"ax",%progbits
 1122              		.align	2
 1123              		.global	CySpcGetAlgorithm
 1124              		.thumb
 1125              		.thumb_func
 1126              		.type	CySpcGetAlgorithm, %function
 1127              	CySpcGetAlgorithm:
 1128              	.LFB11:
 700:.\Generated_Source\PSoC5/CySpc.c **** 
 701:.\Generated_Source\PSoC5/CySpc.c **** 
 702:.\Generated_Source\PSoC5/CySpc.c **** /*******************************************************************************
 703:.\Generated_Source\PSoC5/CySpc.c **** * Function Name: CySpcGetAlgorithm
 704:.\Generated_Source\PSoC5/CySpc.c **** ********************************************************************************
 705:.\Generated_Source\PSoC5/CySpc.c **** * Summary:
 706:.\Generated_Source\PSoC5/CySpc.c **** *  Downloads SPC algorithm from SPC SROM into SRAM.
 707:.\Generated_Source\PSoC5/CySpc.c **** *
 708:.\Generated_Source\PSoC5/CySpc.c **** * Parameters:
 709:.\Generated_Source\PSoC5/CySpc.c **** *  None
 710:.\Generated_Source\PSoC5/CySpc.c **** *
 711:.\Generated_Source\PSoC5/CySpc.c **** * Return:
 712:.\Generated_Source\PSoC5/CySpc.c **** *  CYRET_STARTED
 713:.\Generated_Source\PSoC5/CySpc.c **** *  CYRET_LOCKED
 714:.\Generated_Source\PSoC5/CySpc.c **** *
 715:.\Generated_Source\PSoC5/CySpc.c **** *******************************************************************************/
 716:.\Generated_Source\PSoC5/CySpc.c **** cystatus CySpcGetAlgorithm(void)
 717:.\Generated_Source\PSoC5/CySpc.c **** {
 1129              		.loc 1 717 0
 1130              		.cfi_startproc
 1131              		@ args = 0, pretend = 0, frame = 8
 1132              		@ frame_needed = 1, uses_anonymous_args = 0
 1133              		@ link register save eliminated.
 1134 0000 80B4     		push	{r7}
 1135              		.cfi_def_cfa_offset 4
 1136              		.cfi_offset 7, -4
 1137 0002 83B0     		sub	sp, sp, #12
 1138              		.cfi_def_cfa_offset 16
 1139 0004 00AF     		add	r7, sp, #0
 1140              		.cfi_def_cfa_register 7
 718:.\Generated_Source\PSoC5/CySpc.c ****     cystatus status = CYRET_STARTED;
 1141              		.loc 1 718 0
 1142 0006 0723     		movs	r3, #7
 1143 0008 7B60     		str	r3, [r7, #4]
 719:.\Generated_Source\PSoC5/CySpc.c **** 
ARM GAS  C:\Users\khjtony\AppData\Local\Temp\ccW9FgfY.s 			page 34


 720:.\Generated_Source\PSoC5/CySpc.c ****     /* Make sure the SPC is ready to accept command */
 721:.\Generated_Source\PSoC5/CySpc.c ****     if(CY_SPC_IDLE)
 1144              		.loc 1 721 0
 1145 000a 0D4B     		ldr	r3, .L92
 1146 000c 1B78     		ldrb	r3, [r3]
 1147 000e DBB2     		uxtb	r3, r3
 1148 0010 03F00203 		and	r3, r3, #2
 1149 0014 002B     		cmp	r3, #0
 1150 0016 09D0     		beq	.L89
 722:.\Generated_Source\PSoC5/CySpc.c ****     {
 723:.\Generated_Source\PSoC5/CySpc.c ****         CY_SPC_CPU_DATA_REG = CY_SPC_KEY_ONE;
 1151              		.loc 1 723 0
 1152 0018 0A4B     		ldr	r3, .L92+4
 1153 001a B622     		movs	r2, #182
 1154 001c 1A70     		strb	r2, [r3]
 724:.\Generated_Source\PSoC5/CySpc.c ****         CY_SPC_CPU_DATA_REG = CY_SPC_KEY_TWO(CY_SPC_CMD_DWNLD_ALGORITHM);
 1155              		.loc 1 724 0
 1156 001e 094B     		ldr	r3, .L92+4
 1157 0020 E022     		movs	r2, #224
 1158 0022 1A70     		strb	r2, [r3]
 725:.\Generated_Source\PSoC5/CySpc.c ****         CY_SPC_CPU_DATA_REG = CY_SPC_CMD_DWNLD_ALGORITHM;
 1159              		.loc 1 725 0
 1160 0024 074B     		ldr	r3, .L92+4
 1161 0026 0D22     		movs	r2, #13
 1162 0028 1A70     		strb	r2, [r3]
 1163 002a 01E0     		b	.L90
 1164              	.L89:
 726:.\Generated_Source\PSoC5/CySpc.c ****     }
 727:.\Generated_Source\PSoC5/CySpc.c ****     else
 728:.\Generated_Source\PSoC5/CySpc.c ****     {
 729:.\Generated_Source\PSoC5/CySpc.c ****         status = CYRET_LOCKED;
 1165              		.loc 1 729 0
 1166 002c 0423     		movs	r3, #4
 1167 002e 7B60     		str	r3, [r7, #4]
 1168              	.L90:
 730:.\Generated_Source\PSoC5/CySpc.c ****     }
 731:.\Generated_Source\PSoC5/CySpc.c **** 
 732:.\Generated_Source\PSoC5/CySpc.c ****     return(status);
 1169              		.loc 1 732 0
 1170 0030 7B68     		ldr	r3, [r7, #4]
 733:.\Generated_Source\PSoC5/CySpc.c **** }
 1171              		.loc 1 733 0
 1172 0032 1846     		mov	r0, r3
 1173 0034 0C37     		adds	r7, r7, #12
 1174 0036 BD46     		mov	sp, r7
 1175              		@ sp needed
 1176 0038 5DF8047B 		ldr	r7, [sp], #4
 1177 003c 7047     		bx	lr
 1178              	.L93:
 1179 003e 00BF     		.align	2
 1180              	.L92:
 1181 0040 22470040 		.word	1073760034
 1182 0044 20470040 		.word	1073760032
 1183              		.cfi_endproc
 1184              	.LFE11:
 1185              		.size	CySpcGetAlgorithm, .-CySpcGetAlgorithm
 1186              		.text
ARM GAS  C:\Users\khjtony\AppData\Local\Temp\ccW9FgfY.s 			page 35


 1187              	.Letext0:
 1188              		.file 2 ".\\Generated_Source\\PSoC5\\cytypes.h"