ARM GAS  C:\Users\khjtony\AppData\Local\Temp\cceed41x.s 			page 1


   1              		.syntax unified
   2              		.cpu cortex-m3
   3              		.fpu softvfp
   4              		.eabi_attribute 20, 1
   5              		.eabi_attribute 21, 1
   6              		.eabi_attribute 23, 3
   7              		.eabi_attribute 24, 1
   8              		.eabi_attribute 25, 1
   9              		.eabi_attribute 26, 1
  10              		.eabi_attribute 30, 6
  11              		.eabi_attribute 34, 1
  12              		.eabi_attribute 18, 4
  13              		.thumb
  14              		.file	"dash_board.c"
  15              		.text
  16              	.Ltext0:
  17              		.cfi_sections	.debug_frame
  18              		.global	STARTING_FRAME
  19              		.bss
  20              		.align	2
  21              		.type	STARTING_FRAME, %object
  22              		.size	STARTING_FRAME, 4
  23              	STARTING_FRAME:
  24 0000 00000000 		.space	4
  25              		.global	ENDING_FRAME
  26              		.data
  27              		.align	2
  28              		.type	ENDING_FRAME, %object
  29              		.size	ENDING_FRAME, 4
  30              	ENDING_FRAME:
  31 0000 FF       		.byte	-1
  32 0001 FF       		.byte	-1
  33 0002 FF       		.byte	-1
  34 0003 FF       		.byte	-1
  35              		.section	.rodata
  36              		.align	2
  37              	.LC0:
  38 0000 4D41494E 		.ascii	"MAIN: \000"
  38      3A2000
  39 0007 00       		.align	2
  40              	.LC1:
  41 0008 494E464F 		.ascii	"INFO:\000"
  41      3A00
  42 000e 0000     		.align	2
  43              	.LC2:
  44 0010 4572723A 		.ascii	"Err: \000"
  44      2000
  45              		.section	.text.Dash_display_Mode,"ax",%progbits
  46              		.align	2
  47              		.global	Dash_display_Mode
  48              		.thumb
  49              		.thumb_func
  50              		.type	Dash_display_Mode, %function
  51              	Dash_display_Mode:
  52              	.LFB56:
  53              		.file 1 ".\\dash_board.c"
   1:.\dash_board.c **** /* ========================================
ARM GAS  C:\Users\khjtony\AppData\Local\Temp\cceed41x.s 			page 2


   2:.\dash_board.c ****  *
   3:.\dash_board.c ****  * Copyright YOUR COMPANY, THE YEAR
   4:.\dash_board.c ****  * All Rights Reserved
   5:.\dash_board.c ****  * UNPUBLISHED, LICENSED SOFTWARE.
   6:.\dash_board.c ****  *
   7:.\dash_board.c ****  * CONFIDENTIAL AND PROPRIETARY INFORMATION
   8:.\dash_board.c ****  * WHICH IS THE PROPERTY OF your company.
   9:.\dash_board.c ****  *
  10:.\dash_board.c ****  * ========================================
  11:.\dash_board.c **** */
  12:.\dash_board.c **** #include "dash_board.h"
  13:.\dash_board.c **** #include "can_manager.h"
  14:.\dash_board.c **** #include "LCD_Bar.h"
  15:.\dash_board.c **** 
  16:.\dash_board.c **** uint8_t STARTING_FRAME[4]={0x00,0x00,0x00,0x00};
  17:.\dash_board.c **** uint8_t ENDING_FRAME[4]={0xff,0xff,0xff,0xff};
  18:.\dash_board.c **** 
  19:.\dash_board.c **** void _dash_state_drive(uint8_t);
  20:.\dash_board.c **** void _dash_state_charging(uint8_t);
  21:.\dash_board.c **** extern volatile Dash_Mode mode;
  22:.\dash_board.c **** 
  23:.\dash_board.c **** 
  24:.\dash_board.c **** extern uint32_t info_battery_voltage;
  25:.\dash_board.c **** extern uint16_t info_battery_current;
  26:.\dash_board.c **** extern uint16_t info_battery_temp;
  27:.\dash_board.c **** extern uint16_t info_battery_status;
  28:.\dash_board.c **** extern uint16_t info_car_speed;
  29:.\dash_board.c **** extern uint16_t info_common_time;
  30:.\dash_board.c **** extern uint8_t error_battery;
  31:.\dash_board.c **** extern uint8_t error_padel;
  32:.\dash_board.c **** extern uint8_t wdt_battery;
  33:.\dash_board.c **** extern uint8_t wdt_padel;
  34:.\dash_board.c **** 
  35:.\dash_board.c **** 
  36:.\dash_board.c **** 
  37:.\dash_board.c **** 
  38:.\dash_board.c **** 
  39:.\dash_board.c **** 
  40:.\dash_board.c **** 
  41:.\dash_board.c **** 
  42:.\dash_board.c **** void Dash_display_Mode(Dash_Mode mode){
  54              		.loc 1 42 0
  55              		.cfi_startproc
  56              		@ args = 0, pretend = 0, frame = 8
  57              		@ frame_needed = 1, uses_anonymous_args = 0
  58 0000 80B5     		push	{r7, lr}
  59              		.cfi_def_cfa_offset 8
  60              		.cfi_offset 7, -8
  61              		.cfi_offset 14, -4
  62 0002 82B0     		sub	sp, sp, #8
  63              		.cfi_def_cfa_offset 16
  64 0004 00AF     		add	r7, sp, #0
  65              		.cfi_def_cfa_register 7
  66 0006 0346     		mov	r3, r0
  67 0008 FB71     		strb	r3, [r7, #7]
  43:.\dash_board.c ****     LCD_Position(0u,0u);
  68              		.loc 1 43 0
ARM GAS  C:\Users\khjtony\AppData\Local\Temp\cceed41x.s 			page 3


  69 000a 0020     		movs	r0, #0
  70 000c 0021     		movs	r1, #0
  71 000e FFF7FEFF 		bl	LCD_Position
  44:.\dash_board.c ****     switch(mode){
  72              		.loc 1 44 0
  73 0012 FB79     		ldrb	r3, [r7, #7]	@ zero_extendqisi2
  74 0014 002B     		cmp	r3, #0
  75 0016 02D0     		beq	.L3
  76 0018 012B     		cmp	r3, #1
  77 001a 04D0     		beq	.L4
  78 001c 07E0     		b	.L6
  79              	.L3:
  45:.\dash_board.c ****         case COMMON:
  46:.\dash_board.c ****             LCD_PrintString("MAIN: "); 
  80              		.loc 1 46 0
  81 001e 0748     		ldr	r0, .L7
  82 0020 FFF7FEFF 		bl	LCD_PrintString
  47:.\dash_board.c ****             break;
  83              		.loc 1 47 0
  84 0024 07E0     		b	.L1
  85              	.L4:
  48:.\dash_board.c **** 	    case INFO:
  49:.\dash_board.c ****             LCD_PrintString("INFO:"); 
  86              		.loc 1 49 0
  87 0026 0648     		ldr	r0, .L7+4
  88 0028 FFF7FEFF 		bl	LCD_PrintString
  50:.\dash_board.c ****             break;
  89              		.loc 1 50 0
  90 002c 03E0     		b	.L1
  91              	.L6:
  51:.\dash_board.c **** 	    default:
  52:.\dash_board.c ****             LCD_PrintString("Err: "); 
  92              		.loc 1 52 0
  93 002e 0548     		ldr	r0, .L7+8
  94 0030 FFF7FEFF 		bl	LCD_PrintString
  53:.\dash_board.c ****             break;
  95              		.loc 1 53 0
  96 0034 00BF     		nop
  97              	.L1:
  54:.\dash_board.c ****     }
  55:.\dash_board.c **** }
  98              		.loc 1 55 0
  99 0036 0837     		adds	r7, r7, #8
 100 0038 BD46     		mov	sp, r7
 101              		@ sp needed
 102 003a 80BD     		pop	{r7, pc}
 103              	.L8:
 104              		.align	2
 105              	.L7:
 106 003c 00000000 		.word	.LC0
 107 0040 08000000 		.word	.LC1
 108 0044 10000000 		.word	.LC2
 109              		.cfi_endproc
 110              	.LFE56:
 111              		.size	Dash_display_Mode, .-Dash_display_Mode
 112              		.section	.rodata
 113 0016 0000     		.align	2
ARM GAS  C:\Users\khjtony\AppData\Local\Temp\cceed41x.s 			page 4


 114              	.LC3:
 115 0018 53544152 		.ascii	"START UP\000"
 115      54205550 
 115      00
 116 0021 000000   		.align	2
 117              	.LC4:
 118 0024 4E455554 		.ascii	"NEUTRAL\000"
 118      52414C00 
 119              		.align	2
 120              	.LC5:
 121 002c 44524956 		.ascii	"DRIVING\000"
 121      494E4700 
 122              		.align	2
 123              	.LC6:
 124 0034 50524543 		.ascii	"PRECHARGE\000"
 124      48415247 
 124      4500
 125 003e 0000     		.align	2
 126              	.LC7:
 127 0040 43484152 		.ascii	"CHARGING\000"
 127      47494E47 
 127      00
 128 0049 000000   		.align	2
 129              	.LC8:
 130 004c 534F4654 		.ascii	"SOFT FAULT\000"
 130      20464155 
 130      4C5400
 131 0057 00       		.align	2
 132              	.LC9:
 133 0058 48415244 		.ascii	"HARD FAULT\000"
 133      20464155 
 133      4C5400
 134 0063 00       		.align	2
 135              	.LC10:
 136 0064 4552523A 		.ascii	"ERR:\000"
 136      00
 137              		.section	.text.Dash_display_State,"ax",%progbits
 138              		.align	2
 139              		.global	Dash_display_State
 140              		.thumb
 141              		.thumb_func
 142              		.type	Dash_display_State, %function
 143              	Dash_display_State:
 144              	.LFB57:
  56:.\dash_board.c **** 
  57:.\dash_board.c **** void Dash_display_State(States newState){
 145              		.loc 1 57 0
 146              		.cfi_startproc
 147              		@ args = 0, pretend = 0, frame = 8
 148              		@ frame_needed = 1, uses_anonymous_args = 0
 149 0000 80B5     		push	{r7, lr}
 150              		.cfi_def_cfa_offset 8
 151              		.cfi_offset 7, -8
 152              		.cfi_offset 14, -4
 153 0002 82B0     		sub	sp, sp, #8
 154              		.cfi_def_cfa_offset 16
 155 0004 00AF     		add	r7, sp, #0
ARM GAS  C:\Users\khjtony\AppData\Local\Temp\cceed41x.s 			page 5


 156              		.cfi_def_cfa_register 7
 157 0006 0346     		mov	r3, r0
 158 0008 FB71     		strb	r3, [r7, #7]
  58:.\dash_board.c ****     LCD_Position(0u,0u);
 159              		.loc 1 58 0
 160 000a 0020     		movs	r0, #0
 161 000c 0021     		movs	r1, #0
 162 000e FFF7FEFF 		bl	LCD_Position
  59:.\dash_board.c ****     switch(newState){
 163              		.loc 1 59 0
 164 0012 FB79     		ldrb	r3, [r7, #7]	@ zero_extendqisi2
 165 0014 062B     		cmp	r3, #6
 166 0016 2DD8     		bhi	.L10
 167 0018 01A2     		adr	r2, .L12
 168 001a 52F823F0 		ldr	pc, [r2, r3, lsl #2]
 169 001e 00BF     		.p2align 2
 170              	.L12:
 171 0020 3D000000 		.word	.L11+1
 172 0024 45000000 		.word	.L13+1
 173 0028 4D000000 		.word	.L14+1
 174 002c 55000000 		.word	.L15+1
 175 0030 5D000000 		.word	.L16+1
 176 0034 65000000 		.word	.L17+1
 177 0038 6D000000 		.word	.L18+1
 178              		.p2align 1
 179              	.L11:
  60:.\dash_board.c ****         case STARTUP:
  61:.\dash_board.c ****             LCD_PrintString("START UP"); 
 180              		.loc 1 61 0
 181 003c 1D48     		ldr	r0, .L22
 182 003e FFF7FEFF 		bl	LCD_PrintString
  62:.\dash_board.c ****             break;
 183              		.loc 1 62 0
 184 0042 17E0     		b	.L10
 185              	.L13:
  63:.\dash_board.c **** 	    case NEUTRAL:
  64:.\dash_board.c ****             LCD_PrintString("NEUTRAL"); 
 186              		.loc 1 64 0
 187 0044 1C48     		ldr	r0, .L22+4
 188 0046 FFF7FEFF 		bl	LCD_PrintString
  65:.\dash_board.c ****             break;
 189              		.loc 1 65 0
 190 004a 13E0     		b	.L10
 191              	.L14:
  66:.\dash_board.c **** 	    case DRIVE:
  67:.\dash_board.c ****             LCD_PrintString("DRIVING"); 
 192              		.loc 1 67 0
 193 004c 1B48     		ldr	r0, .L22+8
 194 004e FFF7FEFF 		bl	LCD_PrintString
  68:.\dash_board.c ****             break;
 195              		.loc 1 68 0
 196 0052 0FE0     		b	.L10
 197              	.L15:
  69:.\dash_board.c **** 	    case PRECHARGE:
  70:.\dash_board.c ****             LCD_PrintString("PRECHARGE"); 
 198              		.loc 1 70 0
 199 0054 1A48     		ldr	r0, .L22+12
ARM GAS  C:\Users\khjtony\AppData\Local\Temp\cceed41x.s 			page 6


 200 0056 FFF7FEFF 		bl	LCD_PrintString
  71:.\dash_board.c ****             break;
 201              		.loc 1 71 0
 202 005a 0BE0     		b	.L10
 203              	.L16:
  72:.\dash_board.c **** 	    case CHARGING:
  73:.\dash_board.c ****             LCD_PrintString("CHARGING"); 
 204              		.loc 1 73 0
 205 005c 1948     		ldr	r0, .L22+16
 206 005e FFF7FEFF 		bl	LCD_PrintString
  74:.\dash_board.c ****             break;
 207              		.loc 1 74 0
 208 0062 07E0     		b	.L10
 209              	.L17:
  75:.\dash_board.c **** 	    case SOFT_FAULT:
  76:.\dash_board.c ****             LCD_PrintString("SOFT FAULT"); 
 210              		.loc 1 76 0
 211 0064 1848     		ldr	r0, .L22+20
 212 0066 FFF7FEFF 		bl	LCD_PrintString
  77:.\dash_board.c ****             break;
 213              		.loc 1 77 0
 214 006a 03E0     		b	.L10
 215              	.L18:
  78:.\dash_board.c ****         case HARD_FAULT:
  79:.\dash_board.c ****             LCD_PrintString("HARD FAULT"); 
 216              		.loc 1 79 0
 217 006c 1748     		ldr	r0, .L22+24
 218 006e FFF7FEFF 		bl	LCD_PrintString
  80:.\dash_board.c ****             break;
 219              		.loc 1 80 0
 220 0072 00BF     		nop
 221              	.L10:
  81:.\dash_board.c ****     }
  82:.\dash_board.c ****     
  83:.\dash_board.c ****     if (error_battery || error_padel){
 222              		.loc 1 83 0
 223 0074 164B     		ldr	r3, .L22+28
 224 0076 1B78     		ldrb	r3, [r3]	@ zero_extendqisi2
 225 0078 002B     		cmp	r3, #0
 226 007a 03D1     		bne	.L19
 227              		.loc 1 83 0 is_stmt 0 discriminator 1
 228 007c 154B     		ldr	r3, .L22+32
 229 007e 1B78     		ldrb	r3, [r3]	@ zero_extendqisi2
 230 0080 002B     		cmp	r3, #0
 231 0082 12D0     		beq	.L20
 232              	.L19:
  84:.\dash_board.c ****         LCD_Position(0u,8u);
 233              		.loc 1 84 0 is_stmt 1
 234 0084 0020     		movs	r0, #0
 235 0086 0821     		movs	r1, #8
 236 0088 FFF7FEFF 		bl	LCD_Position
  85:.\dash_board.c ****         LCD_PrintString("ERR:");
 237              		.loc 1 85 0
 238 008c 1248     		ldr	r0, .L22+36
 239 008e FFF7FEFF 		bl	LCD_PrintString
  86:.\dash_board.c ****         LCD_PrintHexUint16(error_battery<<8 | error_padel);
 240              		.loc 1 86 0
ARM GAS  C:\Users\khjtony\AppData\Local\Temp\cceed41x.s 			page 7


 241 0092 0F4B     		ldr	r3, .L22+28
 242 0094 1B78     		ldrb	r3, [r3]	@ zero_extendqisi2
 243 0096 1B02     		lsls	r3, r3, #8
 244 0098 9AB2     		uxth	r2, r3
 245 009a 0E4B     		ldr	r3, .L22+32
 246 009c 1B78     		ldrb	r3, [r3]	@ zero_extendqisi2
 247 009e 1343     		orrs	r3, r3, r2
 248 00a0 9BB2     		uxth	r3, r3
 249 00a2 9BB2     		uxth	r3, r3
 250 00a4 1846     		mov	r0, r3
 251 00a6 FFF7FEFF 		bl	LCD_PrintInt16
 252              	.L20:
  87:.\dash_board.c ****     }
  88:.\dash_board.c ****     return;
 253              		.loc 1 88 0
 254 00aa 00BF     		nop
  89:.\dash_board.c **** }
 255              		.loc 1 89 0
 256 00ac 0837     		adds	r7, r7, #8
 257 00ae BD46     		mov	sp, r7
 258              		@ sp needed
 259 00b0 80BD     		pop	{r7, pc}
 260              	.L23:
 261 00b2 00BF     		.align	2
 262              	.L22:
 263 00b4 18000000 		.word	.LC3
 264 00b8 24000000 		.word	.LC4
 265 00bc 2C000000 		.word	.LC5
 266 00c0 34000000 		.word	.LC6
 267 00c4 40000000 		.word	.LC7
 268 00c8 4C000000 		.word	.LC8
 269 00cc 58000000 		.word	.LC9
 270 00d0 00000000 		.word	error_battery
 271 00d4 00000000 		.word	error_padel
 272 00d8 64000000 		.word	.LC10
 273              		.cfi_endproc
 274              	.LFE57:
 275              		.size	Dash_display_State, .-Dash_display_State
 276              		.section	.text.Dash_display_Event,"ax",%progbits
 277              		.align	2
 278              		.global	Dash_display_Event
 279              		.thumb
 280              		.thumb_func
 281              		.type	Dash_display_Event, %function
 282              	Dash_display_Event:
 283              	.LFB58:
  90:.\dash_board.c **** 
  91:.\dash_board.c **** 
  92:.\dash_board.c **** void Dash_display_Event(Events newEvent){
 284              		.loc 1 92 0
 285              		.cfi_startproc
 286              		@ args = 0, pretend = 0, frame = 8
 287              		@ frame_needed = 1, uses_anonymous_args = 0
 288              		@ link register save eliminated.
 289 0000 80B4     		push	{r7}
 290              		.cfi_def_cfa_offset 4
 291              		.cfi_offset 7, -4
ARM GAS  C:\Users\khjtony\AppData\Local\Temp\cceed41x.s 			page 8


 292 0002 83B0     		sub	sp, sp, #12
 293              		.cfi_def_cfa_offset 16
 294 0004 00AF     		add	r7, sp, #0
 295              		.cfi_def_cfa_register 7
 296 0006 0346     		mov	r3, r0
 297 0008 FB71     		strb	r3, [r7, #7]
  93:.\dash_board.c ****     switch(newEvent){
 298              		.loc 1 93 0
 299 000a FB79     		ldrb	r3, [r7, #7]	@ zero_extendqisi2
 300 000c 092B     		cmp	r3, #9
 301 000e 19D8     		bhi	.L38
 302 0010 01A2     		adr	r2, .L27
 303 0012 52F823F0 		ldr	pc, [r2, r3, lsl #2]
 304 0016 00BF     		.p2align 2
 305              	.L27:
 306 0018 41000000 		.word	.L39+1
 307 001c 41000000 		.word	.L39+1
 308 0020 41000000 		.word	.L39+1
 309 0024 41000000 		.word	.L39+1
 310 0028 41000000 		.word	.L39+1
 311 002c 41000000 		.word	.L39+1
 312 0030 41000000 		.word	.L39+1
 313 0034 41000000 		.word	.L39+1
 314 0038 41000000 		.word	.L39+1
 315 003c 41000000 		.word	.L39+1
 316              		.p2align 1
 317              	.L39:
  94:.\dash_board.c ****         case HV_UP:
  95:.\dash_board.c ****             break;
 318              		.loc 1 95 0
 319 0040 00BF     		nop
  96:.\dash_board.c **** 	    case DRIVE_UP:
  97:.\dash_board.c ****             break;
  98:.\dash_board.c **** 	    case NEUTRAL_UP:
  99:.\dash_board.c ****             break;
 100:.\dash_board.c **** 	    case CHARGE_UP:
 101:.\dash_board.c ****             break;
 102:.\dash_board.c **** 	    case PRECHARGE_DONE:
 103:.\dash_board.c ****             break;
 104:.\dash_board.c **** 	    case CHARGE_DOWN:
 105:.\dash_board.c ****             break;
 106:.\dash_board.c ****         case SOFT_FAULT_SIG:
 107:.\dash_board.c ****             break;
 108:.\dash_board.c ****         case SOFT_FAULT_REMEDIED:
 109:.\dash_board.c ****             break;
 110:.\dash_board.c ****         case HARD_FAULT_SIG:
 111:.\dash_board.c ****             break;
 112:.\dash_board.c ****         case NONE:
 113:.\dash_board.c ****             break;
 114:.\dash_board.c ****     }
 115:.\dash_board.c ****     return;
 320              		.loc 1 115 0
 321 0042 00BF     		nop
 322              	.L38:
 323 0044 00BF     		nop
 116:.\dash_board.c **** }
 324              		.loc 1 116 0
ARM GAS  C:\Users\khjtony\AppData\Local\Temp\cceed41x.s 			page 9


 325 0046 0C37     		adds	r7, r7, #12
 326 0048 BD46     		mov	sp, r7
 327              		@ sp needed
 328 004a 5DF8047B 		ldr	r7, [sp], #4
 329 004e 7047     		bx	lr
 330              		.cfi_endproc
 331              	.LFE58:
 332              		.size	Dash_display_Event, .-Dash_display_Event
 333              		.section	.rodata
 334 0069 000000   		.align	2
 335              	.LC11:
 336 006c 6D5600   		.ascii	"mV\000"
 337 006f 00       		.align	2
 338              	.LC12:
 339 0070 6D4100   		.ascii	"mA\000"
 340 0073 00       		.section	.text.Dash_display_Value,"ax",%progbits
 341              		.align	2
 342              		.global	Dash_display_Value
 343              		.thumb
 344              		.thumb_func
 345              		.type	Dash_display_Value, %function
 346              	Dash_display_Value:
 347              	.LFB59:
 117:.\dash_board.c **** 
 118:.\dash_board.c **** void Dash_display_Value(){
 348              		.loc 1 118 0
 349              		.cfi_startproc
 350              		@ args = 0, pretend = 0, frame = 0
 351              		@ frame_needed = 1, uses_anonymous_args = 0
 352 0000 80B5     		push	{r7, lr}
 353              		.cfi_def_cfa_offset 8
 354              		.cfi_offset 7, -8
 355              		.cfi_offset 14, -4
 356 0002 00AF     		add	r7, sp, #0
 357              		.cfi_def_cfa_register 7
 119:.\dash_board.c ****     //display two values, msg, or err_msg
 120:.\dash_board.c ****     if (mode == COMMON){
 358              		.loc 1 120 0
 359 0004 134B     		ldr	r3, .L42
 360 0006 1B78     		ldrb	r3, [r3]
 361 0008 DBB2     		uxtb	r3, r3
 362 000a 002B     		cmp	r3, #0
 363 000c 20D1     		bne	.L40
 121:.\dash_board.c ****         //left voltage right current
 122:.\dash_board.c ****         LCD_Position(1u,0u);
 364              		.loc 1 122 0
 365 000e 0120     		movs	r0, #1
 366 0010 0021     		movs	r1, #0
 367 0012 FFF7FEFF 		bl	LCD_Position
 123:.\dash_board.c ****         LCD_PrintNumber(info_battery_voltage);
 368              		.loc 1 123 0
 369 0016 104B     		ldr	r3, .L42+4
 370 0018 1B68     		ldr	r3, [r3]
 371 001a 9BB2     		uxth	r3, r3
 372 001c 1846     		mov	r0, r3
 373 001e FFF7FEFF 		bl	LCD_PrintU32Number
 124:.\dash_board.c ****         LCD_Position(1u,6u);
ARM GAS  C:\Users\khjtony\AppData\Local\Temp\cceed41x.s 			page 10


 374              		.loc 1 124 0
 375 0022 0120     		movs	r0, #1
 376 0024 0621     		movs	r1, #6
 377 0026 FFF7FEFF 		bl	LCD_Position
 125:.\dash_board.c ****         LCD_PrintString("mV");
 378              		.loc 1 125 0
 379 002a 0C48     		ldr	r0, .L42+8
 380 002c FFF7FEFF 		bl	LCD_PrintString
 126:.\dash_board.c ****         LCD_Position(1u,8u);
 381              		.loc 1 126 0
 382 0030 0120     		movs	r0, #1
 383 0032 0821     		movs	r1, #8
 384 0034 FFF7FEFF 		bl	LCD_Position
 127:.\dash_board.c ****         LCD_PrintNumber(info_battery_current);
 385              		.loc 1 127 0
 386 0038 094B     		ldr	r3, .L42+12
 387 003a 1B88     		ldrh	r3, [r3]
 388 003c 1846     		mov	r0, r3
 389 003e FFF7FEFF 		bl	LCD_PrintU32Number
 128:.\dash_board.c ****         LCD_Position(1u,14u);
 390              		.loc 1 128 0
 391 0042 0120     		movs	r0, #1
 392 0044 0E21     		movs	r1, #14
 393 0046 FFF7FEFF 		bl	LCD_Position
 129:.\dash_board.c ****         LCD_PrintString("mA");
 394              		.loc 1 129 0
 395 004a 0648     		ldr	r0, .L42+16
 396 004c FFF7FEFF 		bl	LCD_PrintString
 397              	.L40:
 130:.\dash_board.c ****     }
 131:.\dash_board.c **** 
 132:.\dash_board.c **** }
 398              		.loc 1 132 0
 399 0050 80BD     		pop	{r7, pc}
 400              	.L43:
 401 0052 00BF     		.align	2
 402              	.L42:
 403 0054 00000000 		.word	mode
 404 0058 00000000 		.word	info_battery_voltage
 405 005c 6C000000 		.word	.LC11
 406 0060 00000000 		.word	info_battery_current
 407 0064 70000000 		.word	.LC12
 408              		.cfi_endproc
 409              	.LFE59:
 410              		.size	Dash_display_Value, .-Dash_display_Value
 411              		.section	.text.LED_update,"ax",%progbits
 412              		.align	2
 413              		.global	LED_update
 414              		.thumb
 415              		.thumb_func
 416              		.type	LED_update, %function
 417              	LED_update:
 418              	.LFB60:
 133:.\dash_board.c **** 
 134:.\dash_board.c **** void LED_update(RGB LED_rgb,uint8_t LED_len){
 419              		.loc 1 134 0
 420              		.cfi_startproc
ARM GAS  C:\Users\khjtony\AppData\Local\Temp\cceed41x.s 			page 11


 421              		@ args = 0, pretend = 0, frame = 16
 422              		@ frame_needed = 1, uses_anonymous_args = 0
 423 0000 80B5     		push	{r7, lr}
 424              		.cfi_def_cfa_offset 8
 425              		.cfi_offset 7, -8
 426              		.cfi_offset 14, -4
 427 0002 84B0     		sub	sp, sp, #16
 428              		.cfi_def_cfa_offset 24
 429 0004 00AF     		add	r7, sp, #0
 430              		.cfi_def_cfa_register 7
 431 0006 7860     		str	r0, [r7, #4]
 432 0008 0B46     		mov	r3, r1
 433 000a FB70     		strb	r3, [r7, #3]
 135:.\dash_board.c ****     uint8_t i=0;
 434              		.loc 1 135 0
 435 000c 0023     		movs	r3, #0
 436 000e FB73     		strb	r3, [r7, #15]
 136:.\dash_board.c ****     uint8_t single_frame[4];
 137:.\dash_board.c ****     //send starting frame
 138:.\dash_board.c ****     LED_Strip_PutArray(STARTING_FRAME,4);
 437              		.loc 1 138 0
 438 0010 1148     		ldr	r0, .L47
 439 0012 0421     		movs	r1, #4
 440 0014 FFF7FEFF 		bl	LED_Strip_PutArray
 139:.\dash_board.c ****     //send N LED frame
 140:.\dash_board.c ****     single_frame[0]=0xff;
 441              		.loc 1 140 0
 442 0018 FF23     		movs	r3, #255
 443 001a 3B72     		strb	r3, [r7, #8]
 141:.\dash_board.c ****     single_frame[1]=LED_rgb.B;
 444              		.loc 1 141 0
 445 001c BB79     		ldrb	r3, [r7, #6]	@ zero_extendqisi2
 446 001e 7B72     		strb	r3, [r7, #9]
 142:.\dash_board.c ****     single_frame[2]=LED_rgb.G;
 447              		.loc 1 142 0
 448 0020 7B79     		ldrb	r3, [r7, #5]	@ zero_extendqisi2
 449 0022 BB72     		strb	r3, [r7, #10]
 143:.\dash_board.c ****     single_frame[3]=LED_rgb.R;
 450              		.loc 1 143 0
 451 0024 3B79     		ldrb	r3, [r7, #4]	@ zero_extendqisi2
 452 0026 FB72     		strb	r3, [r7, #11]
 144:.\dash_board.c ****     for (i=0;i<LED_len;i++){
 453              		.loc 1 144 0
 454 0028 0023     		movs	r3, #0
 455 002a FB73     		strb	r3, [r7, #15]
 456 002c 08E0     		b	.L45
 457              	.L46:
 145:.\dash_board.c ****         LED_Strip_PutArray(single_frame,4);
 458              		.loc 1 145 0 discriminator 2
 459 002e 07F10803 		add	r3, r7, #8
 460 0032 1846     		mov	r0, r3
 461 0034 0421     		movs	r1, #4
 462 0036 FFF7FEFF 		bl	LED_Strip_PutArray
 144:.\dash_board.c ****     for (i=0;i<LED_len;i++){
 463              		.loc 1 144 0 discriminator 2
 464 003a FB7B     		ldrb	r3, [r7, #15]	@ zero_extendqisi2
 465 003c 0133     		adds	r3, r3, #1
ARM GAS  C:\Users\khjtony\AppData\Local\Temp\cceed41x.s 			page 12


 466 003e FB73     		strb	r3, [r7, #15]
 467              	.L45:
 144:.\dash_board.c ****     for (i=0;i<LED_len;i++){
 468              		.loc 1 144 0 is_stmt 0 discriminator 1
 469 0040 FA7B     		ldrb	r2, [r7, #15]	@ zero_extendqisi2
 470 0042 FB78     		ldrb	r3, [r7, #3]	@ zero_extendqisi2
 471 0044 9A42     		cmp	r2, r3
 472 0046 F2D3     		bcc	.L46
 146:.\dash_board.c ****     }
 147:.\dash_board.c ****     //send ending frame
 148:.\dash_board.c ****     LED_Strip_PutArray(ENDING_FRAME,4);
 473              		.loc 1 148 0 is_stmt 1
 474 0048 0448     		ldr	r0, .L47+4
 475 004a 0421     		movs	r1, #4
 476 004c FFF7FEFF 		bl	LED_Strip_PutArray
 149:.\dash_board.c **** }
 477              		.loc 1 149 0
 478 0050 1037     		adds	r7, r7, #16
 479 0052 BD46     		mov	sp, r7
 480              		@ sp needed
 481 0054 80BD     		pop	{r7, pc}
 482              	.L48:
 483 0056 00BF     		.align	2
 484              	.L47:
 485 0058 00000000 		.word	STARTING_FRAME
 486 005c 00000000 		.word	ENDING_FRAME
 487              		.cfi_endproc
 488              	.LFE60:
 489              		.size	LED_update, .-LED_update
 490              		.text
 491              	.Letext0:
 492              		.file 2 "c:\\program files (x86)\\cypress\\psoc creator\\3.2\\psoc creator\\import\\gnu\\arm\\4.8.
 493              		.file 3 "c:\\program files (x86)\\cypress\\psoc creator\\3.2\\psoc creator\\import\\gnu\\arm\\4.8.
 494              		.file 4 "Generated_Source\\PSoC5/cytypes.h"
 495              		.file 5 ".\\state_event.h"
 496              		.file 6 ".\\dash_board.h"
 497              		.file 7 "Generated_Source\\PSoC5/core_cm3.h"