ARM GAS  C:\Users\khjtony\AppData\Local\Temp\ccFxoGLD.s 			page 1


   1              		.syntax unified
   2              		.cpu cortex-m3
   3              		.fpu softvfp
   4              		.eabi_attribute 20, 1
   5              		.eabi_attribute 21, 1
   6              		.eabi_attribute 23, 3
   7              		.eabi_attribute 24, 1
   8              		.eabi_attribute 25, 1
   9              		.eabi_attribute 26, 1
  10              		.eabi_attribute 30, 6
  11              		.eabi_attribute 34, 1
  12              		.eabi_attribute 18, 4
  13              		.thumb
  14              		.file	"LCD.c"
  15              		.text
  16              	.Ltext0:
  17              		.cfi_sections	.debug_frame
  18              		.global	LCD_enableState
  19              		.bss
  20              		.type	LCD_enableState, %object
  21              		.size	LCD_enableState, 1
  22              	LCD_enableState:
  23 0000 00       		.space	1
  24              		.global	LCD_initVar
  25              		.type	LCD_initVar, %object
  26              		.size	LCD_initVar, 1
  27              	LCD_initVar:
  28 0001 00       		.space	1
  29              		.section	.text.LCD_Init,"ax",%progbits
  30              		.align	2
  31              		.global	LCD_Init
  32              		.thumb
  33              		.thumb_func
  34              		.type	LCD_Init, %function
  35              	LCD_Init:
  36              	.LFB0:
  37              		.file 1 ".\\Generated_Source\\PSoC5\\LCD.c"
   1:.\Generated_Source\PSoC5/LCD.c **** /*******************************************************************************
   2:.\Generated_Source\PSoC5/LCD.c **** * File Name: LCD.c
   3:.\Generated_Source\PSoC5/LCD.c **** * Version 2.10
   4:.\Generated_Source\PSoC5/LCD.c **** *
   5:.\Generated_Source\PSoC5/LCD.c **** * Description:
   6:.\Generated_Source\PSoC5/LCD.c **** *  This file provides source code for the Character LCD component's API.
   7:.\Generated_Source\PSoC5/LCD.c **** *
   8:.\Generated_Source\PSoC5/LCD.c **** * Note:
   9:.\Generated_Source\PSoC5/LCD.c **** *
  10:.\Generated_Source\PSoC5/LCD.c **** ********************************************************************************
  11:.\Generated_Source\PSoC5/LCD.c **** * Copyright 2008-2014, Cypress Semiconductor Corporation.  All rights reserved.
  12:.\Generated_Source\PSoC5/LCD.c **** * You may use this file only in accordance with the license, terms, conditions,
  13:.\Generated_Source\PSoC5/LCD.c **** * disclaimers, and limitations in the end user license agreement accompanying
  14:.\Generated_Source\PSoC5/LCD.c **** * the software package with which this file was provided.
  15:.\Generated_Source\PSoC5/LCD.c **** *******************************************************************************/
  16:.\Generated_Source\PSoC5/LCD.c **** 
  17:.\Generated_Source\PSoC5/LCD.c **** #include "CyLib.h"
  18:.\Generated_Source\PSoC5/LCD.c **** #include "LCD.h"
  19:.\Generated_Source\PSoC5/LCD.c **** 
  20:.\Generated_Source\PSoC5/LCD.c **** 
ARM GAS  C:\Users\khjtony\AppData\Local\Temp\ccFxoGLD.s 			page 2


  21:.\Generated_Source\PSoC5/LCD.c **** static void LCD_WrDatNib(uint8 nibble) ;
  22:.\Generated_Source\PSoC5/LCD.c **** static void LCD_WrCntrlNib(uint8 nibble) ;
  23:.\Generated_Source\PSoC5/LCD.c **** 
  24:.\Generated_Source\PSoC5/LCD.c **** /* Stores state of component. Indicates whether component is or not
  25:.\Generated_Source\PSoC5/LCD.c **** * in enable state.
  26:.\Generated_Source\PSoC5/LCD.c **** */
  27:.\Generated_Source\PSoC5/LCD.c **** uint8 LCD_enableState = 0u;
  28:.\Generated_Source\PSoC5/LCD.c **** 
  29:.\Generated_Source\PSoC5/LCD.c **** uint8 LCD_initVar = 0u;
  30:.\Generated_Source\PSoC5/LCD.c **** 
  31:.\Generated_Source\PSoC5/LCD.c **** 
  32:.\Generated_Source\PSoC5/LCD.c **** /*******************************************************************************
  33:.\Generated_Source\PSoC5/LCD.c **** * Function Name: LCD_Init
  34:.\Generated_Source\PSoC5/LCD.c **** ********************************************************************************
  35:.\Generated_Source\PSoC5/LCD.c **** *
  36:.\Generated_Source\PSoC5/LCD.c **** * Summary:
  37:.\Generated_Source\PSoC5/LCD.c **** *  Performs initialization required for the components normal work.
  38:.\Generated_Source\PSoC5/LCD.c **** *  This function initializes the LCD hardware module as follows:
  39:.\Generated_Source\PSoC5/LCD.c **** *        Enables a 4-bit interface
  40:.\Generated_Source\PSoC5/LCD.c **** *        Clears the display
  41:.\Generated_Source\PSoC5/LCD.c **** *        Enables the auto cursor increment
  42:.\Generated_Source\PSoC5/LCD.c **** *        Resets the cursor to start position
  43:.\Generated_Source\PSoC5/LCD.c **** *  Also, it loads a custom character set to the LCD if it was defined in the customizer.
  44:.\Generated_Source\PSoC5/LCD.c **** *
  45:.\Generated_Source\PSoC5/LCD.c **** * Parameters:
  46:.\Generated_Source\PSoC5/LCD.c **** *  None.
  47:.\Generated_Source\PSoC5/LCD.c **** *
  48:.\Generated_Source\PSoC5/LCD.c **** * Return:
  49:.\Generated_Source\PSoC5/LCD.c **** *  None.
  50:.\Generated_Source\PSoC5/LCD.c **** *
  51:.\Generated_Source\PSoC5/LCD.c **** * Reentrant:
  52:.\Generated_Source\PSoC5/LCD.c **** *  No.
  53:.\Generated_Source\PSoC5/LCD.c **** *
  54:.\Generated_Source\PSoC5/LCD.c **** *******************************************************************************/
  55:.\Generated_Source\PSoC5/LCD.c **** void LCD_Init(void) 
  56:.\Generated_Source\PSoC5/LCD.c **** {
  38              		.loc 1 56 0
  39              		.cfi_startproc
  40              		@ args = 0, pretend = 0, frame = 0
  41              		@ frame_needed = 1, uses_anonymous_args = 0
  42 0000 80B5     		push	{r7, lr}
  43              		.cfi_def_cfa_offset 8
  44              		.cfi_offset 7, -8
  45              		.cfi_offset 14, -4
  46 0002 00AF     		add	r7, sp, #0
  47              		.cfi_def_cfa_register 7
  57:.\Generated_Source\PSoC5/LCD.c ****     /* INIT CODE */
  58:.\Generated_Source\PSoC5/LCD.c ****     CyDelay(40u);                                                        /* Delay 40 ms */
  48              		.loc 1 58 0
  49 0004 2820     		movs	r0, #40
  50 0006 FFF7FEFF 		bl	CyDelay
  59:.\Generated_Source\PSoC5/LCD.c ****     LCD_WrCntrlNib(LCD_DISPLAY_8_BIT_INIT);    /* Selects 8-bit mode */
  51              		.loc 1 59 0
  52 000a 0320     		movs	r0, #3
  53 000c FFF7FEFF 		bl	LCD_WrCntrlNib
  60:.\Generated_Source\PSoC5/LCD.c ****     CyDelay(5u);                                                         /* Delay 5 ms */
  54              		.loc 1 60 0
ARM GAS  C:\Users\khjtony\AppData\Local\Temp\ccFxoGLD.s 			page 3


  55 0010 0520     		movs	r0, #5
  56 0012 FFF7FEFF 		bl	CyDelay
  61:.\Generated_Source\PSoC5/LCD.c ****     LCD_WrCntrlNib(LCD_DISPLAY_8_BIT_INIT);    /* Selects 8-bit mode */
  57              		.loc 1 61 0
  58 0016 0320     		movs	r0, #3
  59 0018 FFF7FEFF 		bl	LCD_WrCntrlNib
  62:.\Generated_Source\PSoC5/LCD.c ****     CyDelay(15u);                                                        /* Delay 15 ms */
  60              		.loc 1 62 0
  61 001c 0F20     		movs	r0, #15
  62 001e FFF7FEFF 		bl	CyDelay
  63:.\Generated_Source\PSoC5/LCD.c ****     LCD_WrCntrlNib(LCD_DISPLAY_8_BIT_INIT);    /* Selects 8-bit mode */
  63              		.loc 1 63 0
  64 0022 0320     		movs	r0, #3
  65 0024 FFF7FEFF 		bl	LCD_WrCntrlNib
  64:.\Generated_Source\PSoC5/LCD.c ****     CyDelay(1u);                                                         /* Delay 1 ms */
  66              		.loc 1 64 0
  67 0028 0120     		movs	r0, #1
  68 002a FFF7FEFF 		bl	CyDelay
  65:.\Generated_Source\PSoC5/LCD.c ****     LCD_WrCntrlNib(LCD_DISPLAY_4_BIT_INIT);    /* Selects 4-bit mode */
  69              		.loc 1 65 0
  70 002e 0220     		movs	r0, #2
  71 0030 FFF7FEFF 		bl	LCD_WrCntrlNib
  66:.\Generated_Source\PSoC5/LCD.c ****     CyDelay(5u);                                                         /* Delay 5 ms */
  72              		.loc 1 66 0
  73 0034 0520     		movs	r0, #5
  74 0036 FFF7FEFF 		bl	CyDelay
  67:.\Generated_Source\PSoC5/LCD.c **** 
  68:.\Generated_Source\PSoC5/LCD.c ****     LCD_WriteControl(LCD_CURSOR_AUTO_INCR_ON);    /* Incr Cursor After Writes */
  75              		.loc 1 68 0
  76 003a 0620     		movs	r0, #6
  77 003c FFF7FEFF 		bl	LCD_WriteControl
  69:.\Generated_Source\PSoC5/LCD.c ****     LCD_WriteControl(LCD_DISPLAY_CURSOR_ON);      /* Turn Display, Cursor ON */
  78              		.loc 1 69 0
  79 0040 0E20     		movs	r0, #14
  80 0042 FFF7FEFF 		bl	LCD_WriteControl
  70:.\Generated_Source\PSoC5/LCD.c ****     LCD_WriteControl(LCD_DISPLAY_2_LINES_5x10);   /* 2 Lines by 5x10 Characters */
  81              		.loc 1 70 0
  82 0046 2C20     		movs	r0, #44
  83 0048 FFF7FEFF 		bl	LCD_WriteControl
  71:.\Generated_Source\PSoC5/LCD.c ****     LCD_WriteControl(LCD_DISPLAY_CURSOR_OFF);     /* Turn Display, Cursor OFF */
  84              		.loc 1 71 0
  85 004c 0820     		movs	r0, #8
  86 004e FFF7FEFF 		bl	LCD_WriteControl
  72:.\Generated_Source\PSoC5/LCD.c ****     LCD_WriteControl(LCD_CLEAR_DISPLAY);          /* Clear LCD Screen */
  87              		.loc 1 72 0
  88 0052 0120     		movs	r0, #1
  89 0054 FFF7FEFF 		bl	LCD_WriteControl
  73:.\Generated_Source\PSoC5/LCD.c ****     LCD_WriteControl(LCD_DISPLAY_ON_CURSOR_OFF);  /* Turn Display ON, Cursor OFF */
  90              		.loc 1 73 0
  91 0058 0C20     		movs	r0, #12
  92 005a FFF7FEFF 		bl	LCD_WriteControl
  74:.\Generated_Source\PSoC5/LCD.c ****     LCD_WriteControl(LCD_RESET_CURSOR_POSITION);  /* Set Cursor to 0,0 */
  93              		.loc 1 74 0
  94 005e 0320     		movs	r0, #3
  95 0060 FFF7FEFF 		bl	LCD_WriteControl
  75:.\Generated_Source\PSoC5/LCD.c ****     CyDelay(5u);
  96              		.loc 1 75 0
ARM GAS  C:\Users\khjtony\AppData\Local\Temp\ccFxoGLD.s 			page 4


  97 0064 0520     		movs	r0, #5
  98 0066 FFF7FEFF 		bl	CyDelay
  76:.\Generated_Source\PSoC5/LCD.c **** 
  77:.\Generated_Source\PSoC5/LCD.c ****     #if(LCD_CUSTOM_CHAR_SET != LCD_NONE)
  78:.\Generated_Source\PSoC5/LCD.c ****         LCD_LoadCustomFonts(LCD_customFonts);
  79:.\Generated_Source\PSoC5/LCD.c ****     #endif /* LCD_CUSTOM_CHAR_SET != LCD_NONE */
  80:.\Generated_Source\PSoC5/LCD.c **** }
  99              		.loc 1 80 0
 100 006a 80BD     		pop	{r7, pc}
 101              		.cfi_endproc
 102              	.LFE0:
 103              		.size	LCD_Init, .-LCD_Init
 104              		.section	.text.LCD_Enable,"ax",%progbits
 105              		.align	2
 106              		.global	LCD_Enable
 107              		.thumb
 108              		.thumb_func
 109              		.type	LCD_Enable, %function
 110              	LCD_Enable:
 111              	.LFB1:
  81:.\Generated_Source\PSoC5/LCD.c **** 
  82:.\Generated_Source\PSoC5/LCD.c **** 
  83:.\Generated_Source\PSoC5/LCD.c **** /*******************************************************************************
  84:.\Generated_Source\PSoC5/LCD.c **** * Function Name: LCD_Enable
  85:.\Generated_Source\PSoC5/LCD.c **** ********************************************************************************
  86:.\Generated_Source\PSoC5/LCD.c **** *
  87:.\Generated_Source\PSoC5/LCD.c **** * Summary:
  88:.\Generated_Source\PSoC5/LCD.c **** *  Turns on the display.
  89:.\Generated_Source\PSoC5/LCD.c **** *
  90:.\Generated_Source\PSoC5/LCD.c **** * Parameters:
  91:.\Generated_Source\PSoC5/LCD.c **** *  None.
  92:.\Generated_Source\PSoC5/LCD.c **** *
  93:.\Generated_Source\PSoC5/LCD.c **** * Return:
  94:.\Generated_Source\PSoC5/LCD.c **** *  None.
  95:.\Generated_Source\PSoC5/LCD.c **** *
  96:.\Generated_Source\PSoC5/LCD.c **** * Reentrant:
  97:.\Generated_Source\PSoC5/LCD.c **** *  No.
  98:.\Generated_Source\PSoC5/LCD.c **** *
  99:.\Generated_Source\PSoC5/LCD.c **** * Theory:
 100:.\Generated_Source\PSoC5/LCD.c **** *  This function has no effect when it is called the first time as
 101:.\Generated_Source\PSoC5/LCD.c **** *  LCD_Init() turns on the LCD.
 102:.\Generated_Source\PSoC5/LCD.c **** *
 103:.\Generated_Source\PSoC5/LCD.c **** *******************************************************************************/
 104:.\Generated_Source\PSoC5/LCD.c **** void LCD_Enable(void) 
 105:.\Generated_Source\PSoC5/LCD.c **** {
 112              		.loc 1 105 0
 113              		.cfi_startproc
 114              		@ args = 0, pretend = 0, frame = 0
 115              		@ frame_needed = 1, uses_anonymous_args = 0
 116 0000 80B5     		push	{r7, lr}
 117              		.cfi_def_cfa_offset 8
 118              		.cfi_offset 7, -8
 119              		.cfi_offset 14, -4
 120 0002 00AF     		add	r7, sp, #0
 121              		.cfi_def_cfa_register 7
 106:.\Generated_Source\PSoC5/LCD.c ****     LCD_DisplayOn();
 122              		.loc 1 106 0
ARM GAS  C:\Users\khjtony\AppData\Local\Temp\ccFxoGLD.s 			page 5


 123 0004 0C20     		movs	r0, #12
 124 0006 FFF7FEFF 		bl	LCD_WriteControl
 107:.\Generated_Source\PSoC5/LCD.c ****     LCD_enableState = 1u;
 125              		.loc 1 107 0
 126 000a 024B     		ldr	r3, .L3
 127 000c 0122     		movs	r2, #1
 128 000e 1A70     		strb	r2, [r3]
 108:.\Generated_Source\PSoC5/LCD.c **** }
 129              		.loc 1 108 0
 130 0010 80BD     		pop	{r7, pc}
 131              	.L4:
 132 0012 00BF     		.align	2
 133              	.L3:
 134 0014 00000000 		.word	LCD_enableState
 135              		.cfi_endproc
 136              	.LFE1:
 137              		.size	LCD_Enable, .-LCD_Enable
 138              		.section	.text.LCD_Start,"ax",%progbits
 139              		.align	2
 140              		.global	LCD_Start
 141              		.thumb
 142              		.thumb_func
 143              		.type	LCD_Start, %function
 144              	LCD_Start:
 145              	.LFB2:
 109:.\Generated_Source\PSoC5/LCD.c **** 
 110:.\Generated_Source\PSoC5/LCD.c **** 
 111:.\Generated_Source\PSoC5/LCD.c **** /*******************************************************************************
 112:.\Generated_Source\PSoC5/LCD.c **** * Function Name: LCD_Start
 113:.\Generated_Source\PSoC5/LCD.c **** ********************************************************************************
 114:.\Generated_Source\PSoC5/LCD.c **** *
 115:.\Generated_Source\PSoC5/LCD.c **** * Summary:
 116:.\Generated_Source\PSoC5/LCD.c **** *  Performs initialization required for the components normal work.
 117:.\Generated_Source\PSoC5/LCD.c **** *  This function initializes the LCD hardware module as follows:
 118:.\Generated_Source\PSoC5/LCD.c **** *        Enables 4-bit interface
 119:.\Generated_Source\PSoC5/LCD.c **** *        Clears the display
 120:.\Generated_Source\PSoC5/LCD.c **** *        Enables auto cursor increment
 121:.\Generated_Source\PSoC5/LCD.c **** *        Resets the cursor to start position
 122:.\Generated_Source\PSoC5/LCD.c **** *  Also, it loads a custom character set to the LCD if it was defined in the customizer.
 123:.\Generated_Source\PSoC5/LCD.c **** *  If it was not the first call in this project, then it just turns on the
 124:.\Generated_Source\PSoC5/LCD.c **** *  display
 125:.\Generated_Source\PSoC5/LCD.c **** *
 126:.\Generated_Source\PSoC5/LCD.c **** *
 127:.\Generated_Source\PSoC5/LCD.c **** * Parameters:
 128:.\Generated_Source\PSoC5/LCD.c **** *  LCD_initVar - global variable.
 129:.\Generated_Source\PSoC5/LCD.c **** *
 130:.\Generated_Source\PSoC5/LCD.c **** * Return:
 131:.\Generated_Source\PSoC5/LCD.c **** *  LCD_initVar - global variable.
 132:.\Generated_Source\PSoC5/LCD.c **** *
 133:.\Generated_Source\PSoC5/LCD.c **** * Reentrant:
 134:.\Generated_Source\PSoC5/LCD.c **** *  No.
 135:.\Generated_Source\PSoC5/LCD.c **** *
 136:.\Generated_Source\PSoC5/LCD.c **** *******************************************************************************/
 137:.\Generated_Source\PSoC5/LCD.c **** void LCD_Start(void) 
 138:.\Generated_Source\PSoC5/LCD.c **** {
 146              		.loc 1 138 0
 147              		.cfi_startproc
ARM GAS  C:\Users\khjtony\AppData\Local\Temp\ccFxoGLD.s 			page 6


 148              		@ args = 0, pretend = 0, frame = 0
 149              		@ frame_needed = 1, uses_anonymous_args = 0
 150 0000 80B5     		push	{r7, lr}
 151              		.cfi_def_cfa_offset 8
 152              		.cfi_offset 7, -8
 153              		.cfi_offset 14, -4
 154 0002 00AF     		add	r7, sp, #0
 155              		.cfi_def_cfa_register 7
 139:.\Generated_Source\PSoC5/LCD.c ****     /* If not initialized, perform initialization */
 140:.\Generated_Source\PSoC5/LCD.c ****     if(LCD_initVar == 0u)
 156              		.loc 1 140 0
 157 0004 054B     		ldr	r3, .L7
 158 0006 1B78     		ldrb	r3, [r3]	@ zero_extendqisi2
 159 0008 002B     		cmp	r3, #0
 160 000a 04D1     		bne	.L6
 141:.\Generated_Source\PSoC5/LCD.c ****     {
 142:.\Generated_Source\PSoC5/LCD.c ****         LCD_Init();
 161              		.loc 1 142 0
 162 000c FFF7FEFF 		bl	LCD_Init
 143:.\Generated_Source\PSoC5/LCD.c ****         LCD_initVar = 1u;
 163              		.loc 1 143 0
 164 0010 024B     		ldr	r3, .L7
 165 0012 0122     		movs	r2, #1
 166 0014 1A70     		strb	r2, [r3]
 167              	.L6:
 144:.\Generated_Source\PSoC5/LCD.c ****     }
 145:.\Generated_Source\PSoC5/LCD.c **** 
 146:.\Generated_Source\PSoC5/LCD.c ****     /* Turn on the LCD */
 147:.\Generated_Source\PSoC5/LCD.c ****     LCD_Enable();
 168              		.loc 1 147 0
 169 0016 FFF7FEFF 		bl	LCD_Enable
 148:.\Generated_Source\PSoC5/LCD.c **** }
 170              		.loc 1 148 0
 171 001a 80BD     		pop	{r7, pc}
 172              	.L8:
 173              		.align	2
 174              	.L7:
 175 001c 00000000 		.word	LCD_initVar
 176              		.cfi_endproc
 177              	.LFE2:
 178              		.size	LCD_Start, .-LCD_Start
 179              		.section	.text.LCD_Stop,"ax",%progbits
 180              		.align	2
 181              		.global	LCD_Stop
 182              		.thumb
 183              		.thumb_func
 184              		.type	LCD_Stop, %function
 185              	LCD_Stop:
 186              	.LFB3:
 149:.\Generated_Source\PSoC5/LCD.c **** 
 150:.\Generated_Source\PSoC5/LCD.c **** 
 151:.\Generated_Source\PSoC5/LCD.c **** /*******************************************************************************
 152:.\Generated_Source\PSoC5/LCD.c **** * Function Name: LCD_Stop
 153:.\Generated_Source\PSoC5/LCD.c **** ********************************************************************************
 154:.\Generated_Source\PSoC5/LCD.c **** *
 155:.\Generated_Source\PSoC5/LCD.c **** * Summary:
 156:.\Generated_Source\PSoC5/LCD.c **** *  Turns off the display of the LCD screen.
ARM GAS  C:\Users\khjtony\AppData\Local\Temp\ccFxoGLD.s 			page 7


 157:.\Generated_Source\PSoC5/LCD.c **** *
 158:.\Generated_Source\PSoC5/LCD.c **** * Parameters:
 159:.\Generated_Source\PSoC5/LCD.c **** *  None.
 160:.\Generated_Source\PSoC5/LCD.c **** *
 161:.\Generated_Source\PSoC5/LCD.c **** * Return:
 162:.\Generated_Source\PSoC5/LCD.c **** *  None.
 163:.\Generated_Source\PSoC5/LCD.c **** *
 164:.\Generated_Source\PSoC5/LCD.c **** * Reentrant:
 165:.\Generated_Source\PSoC5/LCD.c **** *  No.
 166:.\Generated_Source\PSoC5/LCD.c **** *
 167:.\Generated_Source\PSoC5/LCD.c **** *******************************************************************************/
 168:.\Generated_Source\PSoC5/LCD.c **** void LCD_Stop(void) 
 169:.\Generated_Source\PSoC5/LCD.c **** {
 187              		.loc 1 169 0
 188              		.cfi_startproc
 189              		@ args = 0, pretend = 0, frame = 0
 190              		@ frame_needed = 1, uses_anonymous_args = 0
 191 0000 80B5     		push	{r7, lr}
 192              		.cfi_def_cfa_offset 8
 193              		.cfi_offset 7, -8
 194              		.cfi_offset 14, -4
 195 0002 00AF     		add	r7, sp, #0
 196              		.cfi_def_cfa_register 7
 170:.\Generated_Source\PSoC5/LCD.c ****     /* Calls LCD Off Macro */
 171:.\Generated_Source\PSoC5/LCD.c ****     LCD_DisplayOff();
 197              		.loc 1 171 0
 198 0004 0820     		movs	r0, #8
 199 0006 FFF7FEFF 		bl	LCD_WriteControl
 172:.\Generated_Source\PSoC5/LCD.c ****     LCD_enableState = 0u;
 200              		.loc 1 172 0
 201 000a 024B     		ldr	r3, .L10
 202 000c 0022     		movs	r2, #0
 203 000e 1A70     		strb	r2, [r3]
 173:.\Generated_Source\PSoC5/LCD.c **** }
 204              		.loc 1 173 0
 205 0010 80BD     		pop	{r7, pc}
 206              	.L11:
 207 0012 00BF     		.align	2
 208              	.L10:
 209 0014 00000000 		.word	LCD_enableState
 210              		.cfi_endproc
 211              	.LFE3:
 212              		.size	LCD_Stop, .-LCD_Stop
 213              		.section	.text.LCD_Position,"ax",%progbits
 214              		.align	2
 215              		.global	LCD_Position
 216              		.thumb
 217              		.thumb_func
 218              		.type	LCD_Position, %function
 219              	LCD_Position:
 220              	.LFB4:
 174:.\Generated_Source\PSoC5/LCD.c **** 
 175:.\Generated_Source\PSoC5/LCD.c **** 
 176:.\Generated_Source\PSoC5/LCD.c **** /*******************************************************************************
 177:.\Generated_Source\PSoC5/LCD.c **** *  Function Name: LCD_Position
 178:.\Generated_Source\PSoC5/LCD.c **** ********************************************************************************
 179:.\Generated_Source\PSoC5/LCD.c **** *
ARM GAS  C:\Users\khjtony\AppData\Local\Temp\ccFxoGLD.s 			page 8


 180:.\Generated_Source\PSoC5/LCD.c **** * Summary:
 181:.\Generated_Source\PSoC5/LCD.c **** *  Moves the active cursor location to a point specified by the input arguments
 182:.\Generated_Source\PSoC5/LCD.c **** *
 183:.\Generated_Source\PSoC5/LCD.c **** * Parameters:
 184:.\Generated_Source\PSoC5/LCD.c **** *  row:    Specific row of LCD module to be written
 185:.\Generated_Source\PSoC5/LCD.c **** *  column: Column of LCD module to be written
 186:.\Generated_Source\PSoC5/LCD.c **** *
 187:.\Generated_Source\PSoC5/LCD.c **** * Return:
 188:.\Generated_Source\PSoC5/LCD.c **** *  None.
 189:.\Generated_Source\PSoC5/LCD.c **** *
 190:.\Generated_Source\PSoC5/LCD.c **** * Note:
 191:.\Generated_Source\PSoC5/LCD.c **** *  This only applies for LCD displays that use the 2X40 address mode.
 192:.\Generated_Source\PSoC5/LCD.c **** *  In this case Row 2 starts with a 0x28 offset from Row 1.
 193:.\Generated_Source\PSoC5/LCD.c **** *  When there are more than 2 rows, each row must be fewer than 20 characters.
 194:.\Generated_Source\PSoC5/LCD.c **** *
 195:.\Generated_Source\PSoC5/LCD.c **** *******************************************************************************/
 196:.\Generated_Source\PSoC5/LCD.c **** void LCD_Position(uint8 row, uint8 column) 
 197:.\Generated_Source\PSoC5/LCD.c **** {
 221              		.loc 1 197 0
 222              		.cfi_startproc
 223              		@ args = 0, pretend = 0, frame = 8
 224              		@ frame_needed = 1, uses_anonymous_args = 0
 225 0000 80B5     		push	{r7, lr}
 226              		.cfi_def_cfa_offset 8
 227              		.cfi_offset 7, -8
 228              		.cfi_offset 14, -4
 229 0002 82B0     		sub	sp, sp, #8
 230              		.cfi_def_cfa_offset 16
 231 0004 00AF     		add	r7, sp, #0
 232              		.cfi_def_cfa_register 7
 233 0006 0246     		mov	r2, r0
 234 0008 0B46     		mov	r3, r1
 235 000a FA71     		strb	r2, [r7, #7]
 236 000c BB71     		strb	r3, [r7, #6]
 198:.\Generated_Source\PSoC5/LCD.c ****     switch (row)
 237              		.loc 1 198 0
 238 000e FB79     		ldrb	r3, [r7, #7]	@ zero_extendqisi2
 239 0010 032B     		cmp	r3, #3
 240 0012 27D8     		bhi	.L20
 241 0014 01A2     		adr	r2, .L15
 242 0016 52F823F0 		ldr	pc, [r2, r3, lsl #2]
 243 001a 00BF     		.p2align 2
 244              	.L15:
 245 001c 2D000000 		.word	.L14+1
 246 0020 3B000000 		.word	.L16+1
 247 0024 49000000 		.word	.L17+1
 248 0028 57000000 		.word	.L18+1
 249              		.p2align 1
 250              	.L14:
 199:.\Generated_Source\PSoC5/LCD.c ****     {
 200:.\Generated_Source\PSoC5/LCD.c ****         case (uint8)0:
 201:.\Generated_Source\PSoC5/LCD.c ****             LCD_WriteControl(LCD_ROW_0_START + column);
 251              		.loc 1 201 0
 252 002c BB79     		ldrb	r3, [r7, #6]
 253 002e 803B     		subs	r3, r3, #128
 254 0030 DBB2     		uxtb	r3, r3
 255 0032 1846     		mov	r0, r3
ARM GAS  C:\Users\khjtony\AppData\Local\Temp\ccFxoGLD.s 			page 9


 256 0034 FFF7FEFF 		bl	LCD_WriteControl
 202:.\Generated_Source\PSoC5/LCD.c ****             break;
 257              		.loc 1 202 0
 258 0038 15E0     		b	.L12
 259              	.L16:
 203:.\Generated_Source\PSoC5/LCD.c ****         case (uint8) 1:
 204:.\Generated_Source\PSoC5/LCD.c ****             LCD_WriteControl(LCD_ROW_1_START + column);
 260              		.loc 1 204 0
 261 003a BB79     		ldrb	r3, [r7, #6]
 262 003c 403B     		subs	r3, r3, #64
 263 003e DBB2     		uxtb	r3, r3
 264 0040 1846     		mov	r0, r3
 265 0042 FFF7FEFF 		bl	LCD_WriteControl
 205:.\Generated_Source\PSoC5/LCD.c ****             break;
 266              		.loc 1 205 0
 267 0046 0EE0     		b	.L12
 268              	.L17:
 206:.\Generated_Source\PSoC5/LCD.c ****         case (uint8) 2:
 207:.\Generated_Source\PSoC5/LCD.c ****             LCD_WriteControl(LCD_ROW_2_START + column);
 269              		.loc 1 207 0
 270 0048 BB79     		ldrb	r3, [r7, #6]
 271 004a 6C3B     		subs	r3, r3, #108
 272 004c DBB2     		uxtb	r3, r3
 273 004e 1846     		mov	r0, r3
 274 0050 FFF7FEFF 		bl	LCD_WriteControl
 208:.\Generated_Source\PSoC5/LCD.c ****             break;
 275              		.loc 1 208 0
 276 0054 07E0     		b	.L12
 277              	.L18:
 209:.\Generated_Source\PSoC5/LCD.c ****         case (uint8) 3:
 210:.\Generated_Source\PSoC5/LCD.c ****             LCD_WriteControl(LCD_ROW_3_START + column);
 278              		.loc 1 210 0
 279 0056 BB79     		ldrb	r3, [r7, #6]
 280 0058 2C3B     		subs	r3, r3, #44
 281 005a DBB2     		uxtb	r3, r3
 282 005c 1846     		mov	r0, r3
 283 005e FFF7FEFF 		bl	LCD_WriteControl
 211:.\Generated_Source\PSoC5/LCD.c ****             break;
 284              		.loc 1 211 0
 285 0062 00E0     		b	.L12
 286              	.L20:
 212:.\Generated_Source\PSoC5/LCD.c ****         default:
 213:.\Generated_Source\PSoC5/LCD.c ****             /* if default case is hit, invalid row argument was passed.*/
 214:.\Generated_Source\PSoC5/LCD.c ****             break;
 287              		.loc 1 214 0
 288 0064 00BF     		nop
 289              	.L12:
 215:.\Generated_Source\PSoC5/LCD.c ****     }
 216:.\Generated_Source\PSoC5/LCD.c **** }
 290              		.loc 1 216 0
 291 0066 0837     		adds	r7, r7, #8
 292 0068 BD46     		mov	sp, r7
 293              		@ sp needed
 294 006a 80BD     		pop	{r7, pc}
 295              		.cfi_endproc
 296              	.LFE4:
 297              		.size	LCD_Position, .-LCD_Position
ARM GAS  C:\Users\khjtony\AppData\Local\Temp\ccFxoGLD.s 			page 10


 298              		.section	.text.LCD_PrintString,"ax",%progbits
 299              		.align	2
 300              		.global	LCD_PrintString
 301              		.thumb
 302              		.thumb_func
 303              		.type	LCD_PrintString, %function
 304              	LCD_PrintString:
 305              	.LFB5:
 217:.\Generated_Source\PSoC5/LCD.c **** 
 218:.\Generated_Source\PSoC5/LCD.c **** 
 219:.\Generated_Source\PSoC5/LCD.c **** /*******************************************************************************
 220:.\Generated_Source\PSoC5/LCD.c **** * Function Name: LCD_PrintString
 221:.\Generated_Source\PSoC5/LCD.c **** ********************************************************************************
 222:.\Generated_Source\PSoC5/LCD.c **** *
 223:.\Generated_Source\PSoC5/LCD.c **** * Summary:
 224:.\Generated_Source\PSoC5/LCD.c **** *  Writes a zero terminated string to the LCD.
 225:.\Generated_Source\PSoC5/LCD.c **** *
 226:.\Generated_Source\PSoC5/LCD.c **** * Parameters:
 227:.\Generated_Source\PSoC5/LCD.c **** *  string: Pointer to head of char8 array to be written to the LCD module
 228:.\Generated_Source\PSoC5/LCD.c **** *
 229:.\Generated_Source\PSoC5/LCD.c **** * Return:
 230:.\Generated_Source\PSoC5/LCD.c **** *  None.
 231:.\Generated_Source\PSoC5/LCD.c **** *
 232:.\Generated_Source\PSoC5/LCD.c **** *******************************************************************************/
 233:.\Generated_Source\PSoC5/LCD.c **** void LCD_PrintString(char8 const string[]) 
 234:.\Generated_Source\PSoC5/LCD.c **** {
 306              		.loc 1 234 0
 307              		.cfi_startproc
 308              		@ args = 0, pretend = 0, frame = 16
 309              		@ frame_needed = 1, uses_anonymous_args = 0
 310 0000 80B5     		push	{r7, lr}
 311              		.cfi_def_cfa_offset 8
 312              		.cfi_offset 7, -8
 313              		.cfi_offset 14, -4
 314 0002 84B0     		sub	sp, sp, #16
 315              		.cfi_def_cfa_offset 24
 316 0004 00AF     		add	r7, sp, #0
 317              		.cfi_def_cfa_register 7
 318 0006 7860     		str	r0, [r7, #4]
 235:.\Generated_Source\PSoC5/LCD.c ****     uint8 indexU8 = 1u;
 319              		.loc 1 235 0
 320 0008 0123     		movs	r3, #1
 321 000a FB73     		strb	r3, [r7, #15]
 236:.\Generated_Source\PSoC5/LCD.c ****     char8 current = *string;
 322              		.loc 1 236 0
 323 000c 7B68     		ldr	r3, [r7, #4]
 324 000e 1B78     		ldrb	r3, [r3]
 325 0010 BB73     		strb	r3, [r7, #14]
 237:.\Generated_Source\PSoC5/LCD.c **** 
 238:.\Generated_Source\PSoC5/LCD.c ****     /* Until null is reached, print next character */
 239:.\Generated_Source\PSoC5/LCD.c ****     while((char8) '\0' != current)
 326              		.loc 1 239 0
 327 0012 0BE0     		b	.L22
 328              	.L23:
 240:.\Generated_Source\PSoC5/LCD.c ****     {
 241:.\Generated_Source\PSoC5/LCD.c ****         LCD_WriteData((uint8)current);
 329              		.loc 1 241 0
ARM GAS  C:\Users\khjtony\AppData\Local\Temp\ccFxoGLD.s 			page 11


 330 0014 BB7B     		ldrb	r3, [r7, #14]	@ zero_extendqisi2
 331 0016 1846     		mov	r0, r3
 332 0018 FFF7FEFF 		bl	LCD_WriteData
 242:.\Generated_Source\PSoC5/LCD.c ****         current = string[indexU8];
 333              		.loc 1 242 0
 334 001c FB7B     		ldrb	r3, [r7, #15]	@ zero_extendqisi2
 335 001e 7A68     		ldr	r2, [r7, #4]
 336 0020 1344     		add	r3, r3, r2
 337 0022 1B78     		ldrb	r3, [r3]
 338 0024 BB73     		strb	r3, [r7, #14]
 243:.\Generated_Source\PSoC5/LCD.c ****         indexU8++;
 339              		.loc 1 243 0
 340 0026 FB7B     		ldrb	r3, [r7, #15]	@ zero_extendqisi2
 341 0028 0133     		adds	r3, r3, #1
 342 002a FB73     		strb	r3, [r7, #15]
 343              	.L22:
 239:.\Generated_Source\PSoC5/LCD.c ****     while((char8) '\0' != current)
 344              		.loc 1 239 0 discriminator 1
 345 002c BB7B     		ldrb	r3, [r7, #14]	@ zero_extendqisi2
 346 002e 002B     		cmp	r3, #0
 347 0030 F0D1     		bne	.L23
 244:.\Generated_Source\PSoC5/LCD.c ****     }
 245:.\Generated_Source\PSoC5/LCD.c **** }
 348              		.loc 1 245 0
 349 0032 1037     		adds	r7, r7, #16
 350 0034 BD46     		mov	sp, r7
 351              		@ sp needed
 352 0036 80BD     		pop	{r7, pc}
 353              		.cfi_endproc
 354              	.LFE5:
 355              		.size	LCD_PrintString, .-LCD_PrintString
 356              		.section	.text.LCD_PutChar,"ax",%progbits
 357              		.align	2
 358              		.global	LCD_PutChar
 359              		.thumb
 360              		.thumb_func
 361              		.type	LCD_PutChar, %function
 362              	LCD_PutChar:
 363              	.LFB6:
 246:.\Generated_Source\PSoC5/LCD.c **** 
 247:.\Generated_Source\PSoC5/LCD.c **** 
 248:.\Generated_Source\PSoC5/LCD.c **** /*******************************************************************************
 249:.\Generated_Source\PSoC5/LCD.c **** *  Function Name: LCD_PutChar
 250:.\Generated_Source\PSoC5/LCD.c **** ********************************************************************************
 251:.\Generated_Source\PSoC5/LCD.c **** *
 252:.\Generated_Source\PSoC5/LCD.c **** * Summary:
 253:.\Generated_Source\PSoC5/LCD.c **** *  Writes a single character to the current cursor position of the LCD module.
 254:.\Generated_Source\PSoC5/LCD.c **** *  Custom character names (_CUSTOM_0 through
 255:.\Generated_Source\PSoC5/LCD.c **** *  _CUSTOM_7) are acceptable as inputs.
 256:.\Generated_Source\PSoC5/LCD.c **** *
 257:.\Generated_Source\PSoC5/LCD.c **** * Parameters:
 258:.\Generated_Source\PSoC5/LCD.c **** *  character: Character to be written to LCD
 259:.\Generated_Source\PSoC5/LCD.c **** *
 260:.\Generated_Source\PSoC5/LCD.c **** * Return:
 261:.\Generated_Source\PSoC5/LCD.c **** *  None.
 262:.\Generated_Source\PSoC5/LCD.c **** *
 263:.\Generated_Source\PSoC5/LCD.c **** *******************************************************************************/
ARM GAS  C:\Users\khjtony\AppData\Local\Temp\ccFxoGLD.s 			page 12


 264:.\Generated_Source\PSoC5/LCD.c **** void LCD_PutChar(char8 character) 
 265:.\Generated_Source\PSoC5/LCD.c **** {
 364              		.loc 1 265 0
 365              		.cfi_startproc
 366              		@ args = 0, pretend = 0, frame = 8
 367              		@ frame_needed = 1, uses_anonymous_args = 0
 368 0000 80B5     		push	{r7, lr}
 369              		.cfi_def_cfa_offset 8
 370              		.cfi_offset 7, -8
 371              		.cfi_offset 14, -4
 372 0002 82B0     		sub	sp, sp, #8
 373              		.cfi_def_cfa_offset 16
 374 0004 00AF     		add	r7, sp, #0
 375              		.cfi_def_cfa_register 7
 376 0006 0346     		mov	r3, r0
 377 0008 FB71     		strb	r3, [r7, #7]
 266:.\Generated_Source\PSoC5/LCD.c ****     LCD_WriteData((uint8)character);
 378              		.loc 1 266 0
 379 000a FB79     		ldrb	r3, [r7, #7]	@ zero_extendqisi2
 380 000c 1846     		mov	r0, r3
 381 000e FFF7FEFF 		bl	LCD_WriteData
 267:.\Generated_Source\PSoC5/LCD.c **** }
 382              		.loc 1 267 0
 383 0012 0837     		adds	r7, r7, #8
 384 0014 BD46     		mov	sp, r7
 385              		@ sp needed
 386 0016 80BD     		pop	{r7, pc}
 387              		.cfi_endproc
 388              	.LFE6:
 389              		.size	LCD_PutChar, .-LCD_PutChar
 390              		.section	.text.LCD_WriteData,"ax",%progbits
 391              		.align	2
 392              		.global	LCD_WriteData
 393              		.thumb
 394              		.thumb_func
 395              		.type	LCD_WriteData, %function
 396              	LCD_WriteData:
 397              	.LFB7:
 268:.\Generated_Source\PSoC5/LCD.c **** 
 269:.\Generated_Source\PSoC5/LCD.c **** 
 270:.\Generated_Source\PSoC5/LCD.c **** /*******************************************************************************
 271:.\Generated_Source\PSoC5/LCD.c **** *  Function Name: LCD_WriteData
 272:.\Generated_Source\PSoC5/LCD.c **** ********************************************************************************
 273:.\Generated_Source\PSoC5/LCD.c **** *
 274:.\Generated_Source\PSoC5/LCD.c **** * Summary:
 275:.\Generated_Source\PSoC5/LCD.c **** *  Writes a data byte to the LCD module's Data Display RAM.
 276:.\Generated_Source\PSoC5/LCD.c **** *
 277:.\Generated_Source\PSoC5/LCD.c **** * Parameters:
 278:.\Generated_Source\PSoC5/LCD.c **** *  dByte: Byte to be written to the LCD module
 279:.\Generated_Source\PSoC5/LCD.c **** *
 280:.\Generated_Source\PSoC5/LCD.c **** * Return:
 281:.\Generated_Source\PSoC5/LCD.c **** *  None.
 282:.\Generated_Source\PSoC5/LCD.c **** *
 283:.\Generated_Source\PSoC5/LCD.c **** *******************************************************************************/
 284:.\Generated_Source\PSoC5/LCD.c **** void LCD_WriteData(uint8 dByte) 
 285:.\Generated_Source\PSoC5/LCD.c **** {
 398              		.loc 1 285 0
ARM GAS  C:\Users\khjtony\AppData\Local\Temp\ccFxoGLD.s 			page 13


 399              		.cfi_startproc
 400              		@ args = 0, pretend = 0, frame = 16
 401              		@ frame_needed = 1, uses_anonymous_args = 0
 402 0000 80B5     		push	{r7, lr}
 403              		.cfi_def_cfa_offset 8
 404              		.cfi_offset 7, -8
 405              		.cfi_offset 14, -4
 406 0002 84B0     		sub	sp, sp, #16
 407              		.cfi_def_cfa_offset 24
 408 0004 00AF     		add	r7, sp, #0
 409              		.cfi_def_cfa_register 7
 410 0006 0346     		mov	r3, r0
 411 0008 FB71     		strb	r3, [r7, #7]
 286:.\Generated_Source\PSoC5/LCD.c ****     uint8 nibble;
 287:.\Generated_Source\PSoC5/LCD.c **** 
 288:.\Generated_Source\PSoC5/LCD.c ****     LCD_IsReady();
 412              		.loc 1 288 0
 413 000a FFF7FEFF 		bl	LCD_IsReady
 289:.\Generated_Source\PSoC5/LCD.c ****     nibble = dByte >> LCD_NIBBLE_SHIFT;
 414              		.loc 1 289 0
 415 000e FB79     		ldrb	r3, [r7, #7]	@ zero_extendqisi2
 416 0010 1B09     		lsrs	r3, r3, #4
 417 0012 FB73     		strb	r3, [r7, #15]
 290:.\Generated_Source\PSoC5/LCD.c **** 
 291:.\Generated_Source\PSoC5/LCD.c ****     /* Write high nibble */
 292:.\Generated_Source\PSoC5/LCD.c ****     LCD_WrDatNib(nibble);
 418              		.loc 1 292 0
 419 0014 FB7B     		ldrb	r3, [r7, #15]	@ zero_extendqisi2
 420 0016 1846     		mov	r0, r3
 421 0018 FFF7FEFF 		bl	LCD_WrDatNib
 293:.\Generated_Source\PSoC5/LCD.c **** 
 294:.\Generated_Source\PSoC5/LCD.c ****     nibble = dByte & LCD_NIBBLE_MASK;
 422              		.loc 1 294 0
 423 001c FB79     		ldrb	r3, [r7, #7]
 424 001e 03F00F03 		and	r3, r3, #15
 425 0022 FB73     		strb	r3, [r7, #15]
 295:.\Generated_Source\PSoC5/LCD.c ****     /* Write low nibble */
 296:.\Generated_Source\PSoC5/LCD.c ****     LCD_WrDatNib(nibble);
 426              		.loc 1 296 0
 427 0024 FB7B     		ldrb	r3, [r7, #15]	@ zero_extendqisi2
 428 0026 1846     		mov	r0, r3
 429 0028 FFF7FEFF 		bl	LCD_WrDatNib
 297:.\Generated_Source\PSoC5/LCD.c **** }
 430              		.loc 1 297 0
 431 002c 1037     		adds	r7, r7, #16
 432 002e BD46     		mov	sp, r7
 433              		@ sp needed
 434 0030 80BD     		pop	{r7, pc}
 435              		.cfi_endproc
 436              	.LFE7:
 437              		.size	LCD_WriteData, .-LCD_WriteData
 438 0032 00BF     		.section	.text.LCD_WriteControl,"ax",%progbits
 439              		.align	2
 440              		.global	LCD_WriteControl
 441              		.thumb
 442              		.thumb_func
 443              		.type	LCD_WriteControl, %function
ARM GAS  C:\Users\khjtony\AppData\Local\Temp\ccFxoGLD.s 			page 14


 444              	LCD_WriteControl:
 445              	.LFB8:
 298:.\Generated_Source\PSoC5/LCD.c **** 
 299:.\Generated_Source\PSoC5/LCD.c **** 
 300:.\Generated_Source\PSoC5/LCD.c **** /*******************************************************************************
 301:.\Generated_Source\PSoC5/LCD.c **** *  Function Name: LCD_WriteControl
 302:.\Generated_Source\PSoC5/LCD.c **** ********************************************************************************
 303:.\Generated_Source\PSoC5/LCD.c **** *
 304:.\Generated_Source\PSoC5/LCD.c **** * Summary:
 305:.\Generated_Source\PSoC5/LCD.c **** *  Writes a command byte to the LCD module.
 306:.\Generated_Source\PSoC5/LCD.c **** *
 307:.\Generated_Source\PSoC5/LCD.c **** * Parameters:
 308:.\Generated_Source\PSoC5/LCD.c **** *  cByte:  The byte to be written to theLCD module
 309:.\Generated_Source\PSoC5/LCD.c **** * 
 310:.\Generated_Source\PSoC5/LCD.c **** * Return:
 311:.\Generated_Source\PSoC5/LCD.c **** *  None.
 312:.\Generated_Source\PSoC5/LCD.c **** *
 313:.\Generated_Source\PSoC5/LCD.c **** *******************************************************************************/
 314:.\Generated_Source\PSoC5/LCD.c **** void LCD_WriteControl(uint8 cByte) 
 315:.\Generated_Source\PSoC5/LCD.c **** {
 446              		.loc 1 315 0
 447              		.cfi_startproc
 448              		@ args = 0, pretend = 0, frame = 16
 449              		@ frame_needed = 1, uses_anonymous_args = 0
 450 0000 80B5     		push	{r7, lr}
 451              		.cfi_def_cfa_offset 8
 452              		.cfi_offset 7, -8
 453              		.cfi_offset 14, -4
 454 0002 84B0     		sub	sp, sp, #16
 455              		.cfi_def_cfa_offset 24
 456 0004 00AF     		add	r7, sp, #0
 457              		.cfi_def_cfa_register 7
 458 0006 0346     		mov	r3, r0
 459 0008 FB71     		strb	r3, [r7, #7]
 316:.\Generated_Source\PSoC5/LCD.c ****     uint8 nibble;
 317:.\Generated_Source\PSoC5/LCD.c **** 
 318:.\Generated_Source\PSoC5/LCD.c ****     LCD_IsReady();
 460              		.loc 1 318 0
 461 000a FFF7FEFF 		bl	LCD_IsReady
 319:.\Generated_Source\PSoC5/LCD.c **** 
 320:.\Generated_Source\PSoC5/LCD.c ****     nibble = cByte >> LCD_NIBBLE_SHIFT;
 462              		.loc 1 320 0
 463 000e FB79     		ldrb	r3, [r7, #7]	@ zero_extendqisi2
 464 0010 1B09     		lsrs	r3, r3, #4
 465 0012 FB73     		strb	r3, [r7, #15]
 321:.\Generated_Source\PSoC5/LCD.c ****     
 322:.\Generated_Source\PSoC5/LCD.c ****     /* WrCntrlNib(High Nibble) */
 323:.\Generated_Source\PSoC5/LCD.c ****     LCD_WrCntrlNib(nibble);
 466              		.loc 1 323 0
 467 0014 FB7B     		ldrb	r3, [r7, #15]	@ zero_extendqisi2
 468 0016 1846     		mov	r0, r3
 469 0018 FFF7FEFF 		bl	LCD_WrCntrlNib
 324:.\Generated_Source\PSoC5/LCD.c ****     nibble = cByte & LCD_NIBBLE_MASK;
 470              		.loc 1 324 0
 471 001c FB79     		ldrb	r3, [r7, #7]
 472 001e 03F00F03 		and	r3, r3, #15
 473 0022 FB73     		strb	r3, [r7, #15]
ARM GAS  C:\Users\khjtony\AppData\Local\Temp\ccFxoGLD.s 			page 15


 325:.\Generated_Source\PSoC5/LCD.c **** 
 326:.\Generated_Source\PSoC5/LCD.c ****     /* WrCntrlNib(Low Nibble) */
 327:.\Generated_Source\PSoC5/LCD.c ****     LCD_WrCntrlNib(nibble);
 474              		.loc 1 327 0
 475 0024 FB7B     		ldrb	r3, [r7, #15]	@ zero_extendqisi2
 476 0026 1846     		mov	r0, r3
 477 0028 FFF7FEFF 		bl	LCD_WrCntrlNib
 328:.\Generated_Source\PSoC5/LCD.c **** }
 478              		.loc 1 328 0
 479 002c 1037     		adds	r7, r7, #16
 480 002e BD46     		mov	sp, r7
 481              		@ sp needed
 482 0030 80BD     		pop	{r7, pc}
 483              		.cfi_endproc
 484              	.LFE8:
 485              		.size	LCD_WriteControl, .-LCD_WriteControl
 486 0032 00BF     		.section	.text.LCD_IsReady,"ax",%progbits
 487              		.align	2
 488              		.global	LCD_IsReady
 489              		.thumb
 490              		.thumb_func
 491              		.type	LCD_IsReady, %function
 492              	LCD_IsReady:
 493              	.LFB9:
 329:.\Generated_Source\PSoC5/LCD.c **** 
 330:.\Generated_Source\PSoC5/LCD.c **** 
 331:.\Generated_Source\PSoC5/LCD.c **** /*******************************************************************************
 332:.\Generated_Source\PSoC5/LCD.c **** * Function Name: LCD_IsReady
 333:.\Generated_Source\PSoC5/LCD.c **** ********************************************************************************
 334:.\Generated_Source\PSoC5/LCD.c **** *
 335:.\Generated_Source\PSoC5/LCD.c **** * Summary:
 336:.\Generated_Source\PSoC5/LCD.c **** *  Polls the LCD until the ready bit is set or a timeout occurs.
 337:.\Generated_Source\PSoC5/LCD.c **** *
 338:.\Generated_Source\PSoC5/LCD.c **** * Parameters:
 339:.\Generated_Source\PSoC5/LCD.c **** *  None.
 340:.\Generated_Source\PSoC5/LCD.c **** *
 341:.\Generated_Source\PSoC5/LCD.c **** * Return:
 342:.\Generated_Source\PSoC5/LCD.c **** *  None.
 343:.\Generated_Source\PSoC5/LCD.c **** *
 344:.\Generated_Source\PSoC5/LCD.c **** * Note:
 345:.\Generated_Source\PSoC5/LCD.c **** *  Changes the pins to High-Z.
 346:.\Generated_Source\PSoC5/LCD.c **** *
 347:.\Generated_Source\PSoC5/LCD.c **** *******************************************************************************/
 348:.\Generated_Source\PSoC5/LCD.c **** void LCD_IsReady(void) 
 349:.\Generated_Source\PSoC5/LCD.c **** {
 494              		.loc 1 349 0
 495              		.cfi_startproc
 496              		@ args = 0, pretend = 0, frame = 8
 497              		@ frame_needed = 1, uses_anonymous_args = 0
 498 0000 80B5     		push	{r7, lr}
 499              		.cfi_def_cfa_offset 8
 500              		.cfi_offset 7, -8
 501              		.cfi_offset 14, -4
 502 0002 82B0     		sub	sp, sp, #8
 503              		.cfi_def_cfa_offset 16
 504 0004 00AF     		add	r7, sp, #0
 505              		.cfi_def_cfa_register 7
ARM GAS  C:\Users\khjtony\AppData\Local\Temp\ccFxoGLD.s 			page 16


 350:.\Generated_Source\PSoC5/LCD.c ****     uint8 value;
 351:.\Generated_Source\PSoC5/LCD.c ****     uint32 timeout;
 352:.\Generated_Source\PSoC5/LCD.c ****     timeout = LCD_READY_DELAY;
 506              		.loc 1 352 0
 507 0006 4FF4CA73 		mov	r3, #404
 508 000a 7B60     		str	r3, [r7, #4]
 353:.\Generated_Source\PSoC5/LCD.c **** 
 354:.\Generated_Source\PSoC5/LCD.c ****     /* Clear LCD port*/
 355:.\Generated_Source\PSoC5/LCD.c ****     LCD_PORT_DR_REG &= ((uint8)(~LCD_PORT_MASK));
 509              		.loc 1 355 0
 510 000c 554B     		ldr	r3, .L31
 511 000e 554A     		ldr	r2, .L31
 512 0010 1278     		ldrb	r2, [r2]
 513 0012 D2B2     		uxtb	r2, r2
 514 0014 22F07F02 		bic	r2, r2, #127
 515 0018 D2B2     		uxtb	r2, r2
 516 001a 1A70     		strb	r2, [r3]
 356:.\Generated_Source\PSoC5/LCD.c **** 
 357:.\Generated_Source\PSoC5/LCD.c ****     /* PSoC4 has a little different from PSoC3/5 port/pin organization for setting Drive Modes.
 358:.\Generated_Source\PSoC5/LCD.c ****   
 359:.\Generated_Source\PSoC5/LCD.c ****     */
 360:.\Generated_Source\PSoC5/LCD.c ****     #if (CY_PSOC4)
 361:.\Generated_Source\PSoC5/LCD.c ****         
 362:.\Generated_Source\PSoC5/LCD.c ****         /* Mask off data pins to clear old values out */
 363:.\Generated_Source\PSoC5/LCD.c ****         value = LCD_PORT_PC_REG & ((uint32) (~ LCD_DM_DATA_MASK));
 364:.\Generated_Source\PSoC5/LCD.c ****         /* Load in high Z values for data pins, others unchanged */
 365:.\Generated_Source\PSoC5/LCD.c ****         LCD_PORT_PC_REG = value | LCD_HIGH_Z_DATA_DM;
 366:.\Generated_Source\PSoC5/LCD.c **** 
 367:.\Generated_Source\PSoC5/LCD.c ****     #else
 368:.\Generated_Source\PSoC5/LCD.c ****     
 369:.\Generated_Source\PSoC5/LCD.c ****         /* Change Port to High-Z Status on data pins */
 370:.\Generated_Source\PSoC5/LCD.c **** 
 371:.\Generated_Source\PSoC5/LCD.c ****         /* Mask off data pins to clear old values out */
 372:.\Generated_Source\PSoC5/LCD.c ****         value = LCD_PORT_DM0_REG & ((uint8)(~LCD_DATA_MASK));
 517              		.loc 1 372 0
 518 001c 524B     		ldr	r3, .L31+4
 519 001e 1B78     		ldrb	r3, [r3]
 520 0020 DBB2     		uxtb	r3, r3
 521 0022 23F00F03 		bic	r3, r3, #15
 522 0026 FB70     		strb	r3, [r7, #3]
 373:.\Generated_Source\PSoC5/LCD.c ****         /* Load in high Z values for data pins, others unchanged */
 374:.\Generated_Source\PSoC5/LCD.c ****         LCD_PORT_DM0_REG = value | (LCD_HIGH_Z_DM0 & LCD_DATA_MASK);
 523              		.loc 1 374 0
 524 0028 4F4B     		ldr	r3, .L31+4
 525 002a FA78     		ldrb	r2, [r7, #3]
 526 002c 42F00F02 		orr	r2, r2, #15
 527 0030 D2B2     		uxtb	r2, r2
 528 0032 1A70     		strb	r2, [r3]
 375:.\Generated_Source\PSoC5/LCD.c **** 
 376:.\Generated_Source\PSoC5/LCD.c ****         /* Mask off data pins to clear old values out */
 377:.\Generated_Source\PSoC5/LCD.c ****         value = LCD_PORT_DM1_REG & ((uint8)(~LCD_DATA_MASK));
 529              		.loc 1 377 0
 530 0034 4D4B     		ldr	r3, .L31+8
 531 0036 1B78     		ldrb	r3, [r3]
 532 0038 DBB2     		uxtb	r3, r3
 533 003a 23F00F03 		bic	r3, r3, #15
 534 003e FB70     		strb	r3, [r7, #3]
ARM GAS  C:\Users\khjtony\AppData\Local\Temp\ccFxoGLD.s 			page 17


 378:.\Generated_Source\PSoC5/LCD.c ****         /* Load in high Z values for data pins, others unchanged */
 379:.\Generated_Source\PSoC5/LCD.c ****         LCD_PORT_DM1_REG = value;
 535              		.loc 1 379 0
 536 0040 4A4B     		ldr	r3, .L31+8
 537 0042 FA78     		ldrb	r2, [r7, #3]
 538 0044 1A70     		strb	r2, [r3]
 380:.\Generated_Source\PSoC5/LCD.c **** 
 381:.\Generated_Source\PSoC5/LCD.c ****         /* Mask off data pins to clear old values out */
 382:.\Generated_Source\PSoC5/LCD.c ****         value = LCD_PORT_DM2_REG & ((uint8)(~LCD_DATA_MASK));
 539              		.loc 1 382 0
 540 0046 4A4B     		ldr	r3, .L31+12
 541 0048 1B78     		ldrb	r3, [r3]
 542 004a DBB2     		uxtb	r3, r3
 543 004c 23F00F03 		bic	r3, r3, #15
 544 0050 FB70     		strb	r3, [r7, #3]
 383:.\Generated_Source\PSoC5/LCD.c ****         /* Load in high Z values for data pins, others unchanged */
 384:.\Generated_Source\PSoC5/LCD.c ****         LCD_PORT_DM2_REG = value;
 545              		.loc 1 384 0
 546 0052 474B     		ldr	r3, .L31+12
 547 0054 FA78     		ldrb	r2, [r7, #3]
 548 0056 1A70     		strb	r2, [r3]
 385:.\Generated_Source\PSoC5/LCD.c ****     
 386:.\Generated_Source\PSoC5/LCD.c ****     #endif /* CY_PSOC4 */
 387:.\Generated_Source\PSoC5/LCD.c ****     
 388:.\Generated_Source\PSoC5/LCD.c ****     /* Make sure RS is low */
 389:.\Generated_Source\PSoC5/LCD.c ****     LCD_PORT_DR_REG &= ((uint8)(~LCD_RS));
 549              		.loc 1 389 0
 550 0058 424B     		ldr	r3, .L31
 551 005a 424A     		ldr	r2, .L31
 552 005c 1278     		ldrb	r2, [r2]
 553 005e D2B2     		uxtb	r2, r2
 554 0060 22F02002 		bic	r2, r2, #32
 555 0064 D2B2     		uxtb	r2, r2
 556 0066 1A70     		strb	r2, [r3]
 390:.\Generated_Source\PSoC5/LCD.c **** 
 391:.\Generated_Source\PSoC5/LCD.c ****     /* Set R/W high to read */
 392:.\Generated_Source\PSoC5/LCD.c ****     LCD_PORT_DR_REG |= LCD_RW;
 557              		.loc 1 392 0
 558 0068 3E4B     		ldr	r3, .L31
 559 006a 3E4A     		ldr	r2, .L31
 560 006c 1278     		ldrb	r2, [r2]
 561 006e D2B2     		uxtb	r2, r2
 562 0070 42F04002 		orr	r2, r2, #64
 563 0074 D2B2     		uxtb	r2, r2
 564 0076 1A70     		strb	r2, [r3]
 565              	.L30:
 393:.\Generated_Source\PSoC5/LCD.c **** 
 394:.\Generated_Source\PSoC5/LCD.c ****     do
 395:.\Generated_Source\PSoC5/LCD.c ****     {
 396:.\Generated_Source\PSoC5/LCD.c ****         /* 40 ns delay required before rising Enable and 500ns between neighbour Enables */
 397:.\Generated_Source\PSoC5/LCD.c ****         CyDelayUs(0u);
 566              		.loc 1 397 0
 567 0078 0020     		movs	r0, #0
 568 007a FFF7FEFF 		bl	CyDelayUs
 398:.\Generated_Source\PSoC5/LCD.c **** 
 399:.\Generated_Source\PSoC5/LCD.c ****         /* Set E high */
 400:.\Generated_Source\PSoC5/LCD.c ****         LCD_PORT_DR_REG |= LCD_E;
ARM GAS  C:\Users\khjtony\AppData\Local\Temp\ccFxoGLD.s 			page 18


 569              		.loc 1 400 0
 570 007e 394B     		ldr	r3, .L31
 571 0080 384A     		ldr	r2, .L31
 572 0082 1278     		ldrb	r2, [r2]
 573 0084 D2B2     		uxtb	r2, r2
 574 0086 42F01002 		orr	r2, r2, #16
 575 008a D2B2     		uxtb	r2, r2
 576 008c 1A70     		strb	r2, [r3]
 401:.\Generated_Source\PSoC5/LCD.c **** 
 402:.\Generated_Source\PSoC5/LCD.c ****         /* 360 ns delay setup time for data pins */
 403:.\Generated_Source\PSoC5/LCD.c ****         CyDelayUs(1u);
 577              		.loc 1 403 0
 578 008e 0120     		movs	r0, #1
 579 0090 FFF7FEFF 		bl	CyDelayUs
 404:.\Generated_Source\PSoC5/LCD.c **** 
 405:.\Generated_Source\PSoC5/LCD.c ****         /* Get port state */
 406:.\Generated_Source\PSoC5/LCD.c ****         value = LCD_PORT_PS_REG;
 580              		.loc 1 406 0
 581 0094 374B     		ldr	r3, .L31+16
 582 0096 1B78     		ldrb	r3, [r3]
 583 0098 FB70     		strb	r3, [r7, #3]
 407:.\Generated_Source\PSoC5/LCD.c **** 
 408:.\Generated_Source\PSoC5/LCD.c ****         /* Set enable low */
 409:.\Generated_Source\PSoC5/LCD.c ****         LCD_PORT_DR_REG &= ((uint8)(~LCD_E));
 584              		.loc 1 409 0
 585 009a 324B     		ldr	r3, .L31
 586 009c 314A     		ldr	r2, .L31
 587 009e 1278     		ldrb	r2, [r2]
 588 00a0 D2B2     		uxtb	r2, r2
 589 00a2 22F01002 		bic	r2, r2, #16
 590 00a6 D2B2     		uxtb	r2, r2
 591 00a8 1A70     		strb	r2, [r3]
 410:.\Generated_Source\PSoC5/LCD.c **** 
 411:.\Generated_Source\PSoC5/LCD.c ****         /* This gives true delay between disabling Enable bit and polling Ready bit */
 412:.\Generated_Source\PSoC5/LCD.c ****         CyDelayUs(0u);
 592              		.loc 1 412 0
 593 00aa 0020     		movs	r0, #0
 594 00ac FFF7FEFF 		bl	CyDelayUs
 413:.\Generated_Source\PSoC5/LCD.c **** 
 414:.\Generated_Source\PSoC5/LCD.c ****         /* Extract ready bit */
 415:.\Generated_Source\PSoC5/LCD.c ****         value &= LCD_READY_BIT;
 595              		.loc 1 415 0
 596 00b0 FB78     		ldrb	r3, [r7, #3]
 597 00b2 03F00803 		and	r3, r3, #8
 598 00b6 FB70     		strb	r3, [r7, #3]
 416:.\Generated_Source\PSoC5/LCD.c **** 
 417:.\Generated_Source\PSoC5/LCD.c ****         /* Set E high as we in 4-bit interface we need extra operation */
 418:.\Generated_Source\PSoC5/LCD.c ****         LCD_PORT_DR_REG |= LCD_E;
 599              		.loc 1 418 0
 600 00b8 2A4B     		ldr	r3, .L31
 601 00ba 2A4A     		ldr	r2, .L31
 602 00bc 1278     		ldrb	r2, [r2]
 603 00be D2B2     		uxtb	r2, r2
 604 00c0 42F01002 		orr	r2, r2, #16
 605 00c4 D2B2     		uxtb	r2, r2
 606 00c6 1A70     		strb	r2, [r3]
 419:.\Generated_Source\PSoC5/LCD.c **** 
ARM GAS  C:\Users\khjtony\AppData\Local\Temp\ccFxoGLD.s 			page 19


 420:.\Generated_Source\PSoC5/LCD.c ****         /* 360 ns delay setup time for data pins */
 421:.\Generated_Source\PSoC5/LCD.c ****         CyDelayUs(1u);
 607              		.loc 1 421 0
 608 00c8 0120     		movs	r0, #1
 609 00ca FFF7FEFF 		bl	CyDelayUs
 422:.\Generated_Source\PSoC5/LCD.c **** 
 423:.\Generated_Source\PSoC5/LCD.c ****         /* Set enable low */
 424:.\Generated_Source\PSoC5/LCD.c ****         LCD_PORT_DR_REG &= ((uint8)(~LCD_E));
 610              		.loc 1 424 0
 611 00ce 254B     		ldr	r3, .L31
 612 00d0 244A     		ldr	r2, .L31
 613 00d2 1278     		ldrb	r2, [r2]
 614 00d4 D2B2     		uxtb	r2, r2
 615 00d6 22F01002 		bic	r2, r2, #16
 616 00da D2B2     		uxtb	r2, r2
 617 00dc 1A70     		strb	r2, [r3]
 425:.\Generated_Source\PSoC5/LCD.c **** 
 426:.\Generated_Source\PSoC5/LCD.c ****         /* If LCD is not ready make a delay */
 427:.\Generated_Source\PSoC5/LCD.c ****         if (value == 0u)
 618              		.loc 1 427 0
 619 00de FB78     		ldrb	r3, [r7, #3]	@ zero_extendqisi2
 620 00e0 002B     		cmp	r3, #0
 621 00e2 02D1     		bne	.L28
 428:.\Generated_Source\PSoC5/LCD.c ****         {
 429:.\Generated_Source\PSoC5/LCD.c ****             CyDelayUs(10u);
 622              		.loc 1 429 0
 623 00e4 0A20     		movs	r0, #10
 624 00e6 FFF7FEFF 		bl	CyDelayUs
 625              	.L28:
 430:.\Generated_Source\PSoC5/LCD.c ****         }
 431:.\Generated_Source\PSoC5/LCD.c **** 
 432:.\Generated_Source\PSoC5/LCD.c ****         /* Repeat until bit 4 is not zero or until timeout. */
 433:.\Generated_Source\PSoC5/LCD.c ****         timeout--;
 626              		.loc 1 433 0
 627 00ea 7B68     		ldr	r3, [r7, #4]
 628 00ec 013B     		subs	r3, r3, #1
 629 00ee 7B60     		str	r3, [r7, #4]
 434:.\Generated_Source\PSoC5/LCD.c **** 
 435:.\Generated_Source\PSoC5/LCD.c ****     } while ((value != 0u) && (timeout > 0u));
 630              		.loc 1 435 0
 631 00f0 FB78     		ldrb	r3, [r7, #3]	@ zero_extendqisi2
 632 00f2 002B     		cmp	r3, #0
 633 00f4 02D0     		beq	.L29
 634              		.loc 1 435 0 is_stmt 0 discriminator 1
 635 00f6 7B68     		ldr	r3, [r7, #4]
 636 00f8 002B     		cmp	r3, #0
 637 00fa BDD1     		bne	.L30
 638              	.L29:
 436:.\Generated_Source\PSoC5/LCD.c **** 
 437:.\Generated_Source\PSoC5/LCD.c ****     /* Set R/W low to write */
 438:.\Generated_Source\PSoC5/LCD.c ****     LCD_PORT_DR_REG &= ((uint8)(~LCD_RW));
 639              		.loc 1 438 0 is_stmt 1
 640 00fc 194B     		ldr	r3, .L31
 641 00fe 194A     		ldr	r2, .L31
 642 0100 1278     		ldrb	r2, [r2]
 643 0102 D2B2     		uxtb	r2, r2
 644 0104 22F04002 		bic	r2, r2, #64
ARM GAS  C:\Users\khjtony\AppData\Local\Temp\ccFxoGLD.s 			page 20


 645 0108 D2B2     		uxtb	r2, r2
 646 010a 1A70     		strb	r2, [r3]
 439:.\Generated_Source\PSoC5/LCD.c **** 
 440:.\Generated_Source\PSoC5/LCD.c ****     /* Clear LCD port*/
 441:.\Generated_Source\PSoC5/LCD.c ****     LCD_PORT_DR_REG &= ((uint8)(~LCD_PORT_MASK));
 647              		.loc 1 441 0
 648 010c 154B     		ldr	r3, .L31
 649 010e 154A     		ldr	r2, .L31
 650 0110 1278     		ldrb	r2, [r2]
 651 0112 D2B2     		uxtb	r2, r2
 652 0114 22F07F02 		bic	r2, r2, #127
 653 0118 D2B2     		uxtb	r2, r2
 654 011a 1A70     		strb	r2, [r3]
 442:.\Generated_Source\PSoC5/LCD.c **** 
 443:.\Generated_Source\PSoC5/LCD.c ****     #if (CY_PSOC4)
 444:.\Generated_Source\PSoC5/LCD.c ****         
 445:.\Generated_Source\PSoC5/LCD.c ****         /* Mask off data pins to clear old values out */
 446:.\Generated_Source\PSoC5/LCD.c ****         value = LCD_PORT_PC_REG & ((uint32)(~ LCD_DM_DATA_MASK));
 447:.\Generated_Source\PSoC5/LCD.c ****         /* Load in high Z values for data pins, others unchanged */
 448:.\Generated_Source\PSoC5/LCD.c ****         LCD_PORT_PC_REG = value | LCD_STRONG_DATA_DM;
 449:.\Generated_Source\PSoC5/LCD.c **** 
 450:.\Generated_Source\PSoC5/LCD.c ****     #else
 451:.\Generated_Source\PSoC5/LCD.c **** 
 452:.\Generated_Source\PSoC5/LCD.c ****         /* Change Port to Output (Strong) on data pins */
 453:.\Generated_Source\PSoC5/LCD.c ****         /* Mask off data pins to clear high z values out. Configure data pins 
 454:.\Generated_Source\PSoC5/LCD.c ****         * to Strong Drive, others unchanged.
 455:.\Generated_Source\PSoC5/LCD.c ****         */
 456:.\Generated_Source\PSoC5/LCD.c ****         LCD_PORT_DM0_REG &= ((uint8)(~LCD_DATA_MASK));
 655              		.loc 1 456 0
 656 011c 124B     		ldr	r3, .L31+4
 657 011e 124A     		ldr	r2, .L31+4
 658 0120 1278     		ldrb	r2, [r2]
 659 0122 D2B2     		uxtb	r2, r2
 660 0124 22F00F02 		bic	r2, r2, #15
 661 0128 D2B2     		uxtb	r2, r2
 662 012a 1A70     		strb	r2, [r3]
 457:.\Generated_Source\PSoC5/LCD.c ****         /* Mask off data pins to clear high z values out */
 458:.\Generated_Source\PSoC5/LCD.c ****         value = LCD_PORT_DM1_REG & ((uint8)(~LCD_DATA_MASK));
 663              		.loc 1 458 0
 664 012c 0F4B     		ldr	r3, .L31+8
 665 012e 1B78     		ldrb	r3, [r3]
 666 0130 DBB2     		uxtb	r3, r3
 667 0132 23F00F03 		bic	r3, r3, #15
 668 0136 FB70     		strb	r3, [r7, #3]
 459:.\Generated_Source\PSoC5/LCD.c ****         /* Configure data pins to Strong Drive, others unchanged */
 460:.\Generated_Source\PSoC5/LCD.c ****         LCD_PORT_DM1_REG = value | (LCD_STRONG_DM1 & LCD_DATA_MASK);
 669              		.loc 1 460 0
 670 0138 0C4B     		ldr	r3, .L31+8
 671 013a FA78     		ldrb	r2, [r7, #3]
 672 013c 42F00F02 		orr	r2, r2, #15
 673 0140 D2B2     		uxtb	r2, r2
 674 0142 1A70     		strb	r2, [r3]
 461:.\Generated_Source\PSoC5/LCD.c **** 
 462:.\Generated_Source\PSoC5/LCD.c ****         /* Mask off data pins to clear high z values out */
 463:.\Generated_Source\PSoC5/LCD.c ****         value = LCD_PORT_DM2_REG & ((uint8)(~LCD_DATA_MASK));
 675              		.loc 1 463 0
 676 0144 0A4B     		ldr	r3, .L31+12
ARM GAS  C:\Users\khjtony\AppData\Local\Temp\ccFxoGLD.s 			page 21


 677 0146 1B78     		ldrb	r3, [r3]
 678 0148 DBB2     		uxtb	r3, r3
 679 014a 23F00F03 		bic	r3, r3, #15
 680 014e FB70     		strb	r3, [r7, #3]
 464:.\Generated_Source\PSoC5/LCD.c ****         /* Configure data pins to Strong Drive, others unchanged */
 465:.\Generated_Source\PSoC5/LCD.c ****         LCD_PORT_DM2_REG = value | (LCD_STRONG_DM2 & LCD_DATA_MASK);
 681              		.loc 1 465 0
 682 0150 074B     		ldr	r3, .L31+12
 683 0152 FA78     		ldrb	r2, [r7, #3]
 684 0154 42F00F02 		orr	r2, r2, #15
 685 0158 D2B2     		uxtb	r2, r2
 686 015a 1A70     		strb	r2, [r3]
 466:.\Generated_Source\PSoC5/LCD.c ****     
 467:.\Generated_Source\PSoC5/LCD.c ****     #endif /* CY_PSOC4 */
 468:.\Generated_Source\PSoC5/LCD.c **** }
 687              		.loc 1 468 0
 688 015c 0837     		adds	r7, r7, #8
 689 015e BD46     		mov	sp, r7
 690              		@ sp needed
 691 0160 80BD     		pop	{r7, pc}
 692              	.L32:
 693 0162 00BF     		.align	2
 694              	.L31:
 695 0164 20510040 		.word	1073762592
 696 0168 22510040 		.word	1073762594
 697 016c 23510040 		.word	1073762595
 698 0170 24510040 		.word	1073762596
 699 0174 21510040 		.word	1073762593
 700              		.cfi_endproc
 701              	.LFE9:
 702              		.size	LCD_IsReady, .-LCD_IsReady
 703              		.section	.text.LCD_WrDatNib,"ax",%progbits
 704              		.align	2
 705              		.thumb
 706              		.thumb_func
 707              		.type	LCD_WrDatNib, %function
 708              	LCD_WrDatNib:
 709              	.LFB10:
 469:.\Generated_Source\PSoC5/LCD.c **** 
 470:.\Generated_Source\PSoC5/LCD.c **** 
 471:.\Generated_Source\PSoC5/LCD.c **** /*******************************************************************************
 472:.\Generated_Source\PSoC5/LCD.c **** *  Function Name: LCD_WrDatNib
 473:.\Generated_Source\PSoC5/LCD.c **** ********************************************************************************
 474:.\Generated_Source\PSoC5/LCD.c **** *
 475:.\Generated_Source\PSoC5/LCD.c **** * Summary:
 476:.\Generated_Source\PSoC5/LCD.c **** *  Writes a data nibble to the LCD module.
 477:.\Generated_Source\PSoC5/LCD.c **** *
 478:.\Generated_Source\PSoC5/LCD.c **** * Parameters:
 479:.\Generated_Source\PSoC5/LCD.c **** *  nibble:  Byte containing nibble in the least significant nibble to be
 480:.\Generated_Source\PSoC5/LCD.c **** *           written to the LCD module.
 481:.\Generated_Source\PSoC5/LCD.c **** *
 482:.\Generated_Source\PSoC5/LCD.c **** * Return:
 483:.\Generated_Source\PSoC5/LCD.c **** *  None.
 484:.\Generated_Source\PSoC5/LCD.c **** *
 485:.\Generated_Source\PSoC5/LCD.c **** *******************************************************************************/
 486:.\Generated_Source\PSoC5/LCD.c **** static void LCD_WrDatNib(uint8 nibble) 
 487:.\Generated_Source\PSoC5/LCD.c **** {
ARM GAS  C:\Users\khjtony\AppData\Local\Temp\ccFxoGLD.s 			page 22


 710              		.loc 1 487 0
 711              		.cfi_startproc
 712              		@ args = 0, pretend = 0, frame = 8
 713              		@ frame_needed = 1, uses_anonymous_args = 0
 714 0000 80B5     		push	{r7, lr}
 715              		.cfi_def_cfa_offset 8
 716              		.cfi_offset 7, -8
 717              		.cfi_offset 14, -4
 718 0002 82B0     		sub	sp, sp, #8
 719              		.cfi_def_cfa_offset 16
 720 0004 00AF     		add	r7, sp, #0
 721              		.cfi_def_cfa_register 7
 722 0006 0346     		mov	r3, r0
 723 0008 FB71     		strb	r3, [r7, #7]
 488:.\Generated_Source\PSoC5/LCD.c ****     /* RS should be low to select data register */
 489:.\Generated_Source\PSoC5/LCD.c ****     LCD_PORT_DR_REG |= LCD_RS;
 724              		.loc 1 489 0
 725 000a 1A4B     		ldr	r3, .L34
 726 000c 194A     		ldr	r2, .L34
 727 000e 1278     		ldrb	r2, [r2]
 728 0010 D2B2     		uxtb	r2, r2
 729 0012 42F02002 		orr	r2, r2, #32
 730 0016 D2B2     		uxtb	r2, r2
 731 0018 1A70     		strb	r2, [r3]
 490:.\Generated_Source\PSoC5/LCD.c ****     /* Reset RW for write operation */
 491:.\Generated_Source\PSoC5/LCD.c ****     LCD_PORT_DR_REG &= ((uint8)(~LCD_RW));
 732              		.loc 1 491 0
 733 001a 164B     		ldr	r3, .L34
 734 001c 154A     		ldr	r2, .L34
 735 001e 1278     		ldrb	r2, [r2]
 736 0020 D2B2     		uxtb	r2, r2
 737 0022 22F04002 		bic	r2, r2, #64
 738 0026 D2B2     		uxtb	r2, r2
 739 0028 1A70     		strb	r2, [r3]
 492:.\Generated_Source\PSoC5/LCD.c **** 
 493:.\Generated_Source\PSoC5/LCD.c ****     /* Guaranteed delay between Setting RS and RW and setting E bits */
 494:.\Generated_Source\PSoC5/LCD.c ****     CyDelayUs(0u);
 740              		.loc 1 494 0
 741 002a 0020     		movs	r0, #0
 742 002c FFF7FEFF 		bl	CyDelayUs
 495:.\Generated_Source\PSoC5/LCD.c ****     
 496:.\Generated_Source\PSoC5/LCD.c ****     /* Clear data pins */
 497:.\Generated_Source\PSoC5/LCD.c ****     LCD_PORT_DR_REG &= ((uint8)(~LCD_DATA_MASK));
 743              		.loc 1 497 0
 744 0030 104B     		ldr	r3, .L34
 745 0032 104A     		ldr	r2, .L34
 746 0034 1278     		ldrb	r2, [r2]
 747 0036 D2B2     		uxtb	r2, r2
 748 0038 22F00F02 		bic	r2, r2, #15
 749 003c D2B2     		uxtb	r2, r2
 750 003e 1A70     		strb	r2, [r3]
 498:.\Generated_Source\PSoC5/LCD.c **** 
 499:.\Generated_Source\PSoC5/LCD.c ****     /* Write data, bring E high */
 500:.\Generated_Source\PSoC5/LCD.c ****     #if(0u != LCD_PORT_SHIFT) /* MISRA forbids shift by 0 so need to handle that */
 501:.\Generated_Source\PSoC5/LCD.c ****         LCD_PORT_DR_REG |= 
 502:.\Generated_Source\PSoC5/LCD.c ****             (LCD_E | ((uint8)(((uint8) nibble) << LCD_PORT_SHIFT)));
 503:.\Generated_Source\PSoC5/LCD.c ****     #else
ARM GAS  C:\Users\khjtony\AppData\Local\Temp\ccFxoGLD.s 			page 23


 504:.\Generated_Source\PSoC5/LCD.c ****         LCD_PORT_DR_REG |= (LCD_E | nibble);
 751              		.loc 1 504 0
 752 0040 0C4B     		ldr	r3, .L34
 753 0042 0C4A     		ldr	r2, .L34
 754 0044 1278     		ldrb	r2, [r2]
 755 0046 D1B2     		uxtb	r1, r2
 756 0048 FA79     		ldrb	r2, [r7, #7]
 757 004a 0A43     		orrs	r2, r2, r1
 758 004c D2B2     		uxtb	r2, r2
 759 004e 42F01002 		orr	r2, r2, #16
 760 0052 D2B2     		uxtb	r2, r2
 761 0054 1A70     		strb	r2, [r3]
 505:.\Generated_Source\PSoC5/LCD.c ****     #endif /* (0u != LCD_PORT_SHIFT) */
 506:.\Generated_Source\PSoC5/LCD.c **** 
 507:.\Generated_Source\PSoC5/LCD.c ****     /* Minimum of 230 ns delay */
 508:.\Generated_Source\PSoC5/LCD.c ****     CyDelayUs(1u);
 762              		.loc 1 508 0
 763 0056 0120     		movs	r0, #1
 764 0058 FFF7FEFF 		bl	CyDelayUs
 509:.\Generated_Source\PSoC5/LCD.c **** 
 510:.\Generated_Source\PSoC5/LCD.c ****     LCD_PORT_DR_REG &= ((uint8)(~LCD_E));
 765              		.loc 1 510 0
 766 005c 054B     		ldr	r3, .L34
 767 005e 054A     		ldr	r2, .L34
 768 0060 1278     		ldrb	r2, [r2]
 769 0062 D2B2     		uxtb	r2, r2
 770 0064 22F01002 		bic	r2, r2, #16
 771 0068 D2B2     		uxtb	r2, r2
 772 006a 1A70     		strb	r2, [r3]
 511:.\Generated_Source\PSoC5/LCD.c **** }
 773              		.loc 1 511 0
 774 006c 0837     		adds	r7, r7, #8
 775 006e BD46     		mov	sp, r7
 776              		@ sp needed
 777 0070 80BD     		pop	{r7, pc}
 778              	.L35:
 779 0072 00BF     		.align	2
 780              	.L34:
 781 0074 20510040 		.word	1073762592
 782              		.cfi_endproc
 783              	.LFE10:
 784              		.size	LCD_WrDatNib, .-LCD_WrDatNib
 785              		.section	.text.LCD_WrCntrlNib,"ax",%progbits
 786              		.align	2
 787              		.thumb
 788              		.thumb_func
 789              		.type	LCD_WrCntrlNib, %function
 790              	LCD_WrCntrlNib:
 791              	.LFB11:
 512:.\Generated_Source\PSoC5/LCD.c **** 
 513:.\Generated_Source\PSoC5/LCD.c **** 
 514:.\Generated_Source\PSoC5/LCD.c **** /*******************************************************************************
 515:.\Generated_Source\PSoC5/LCD.c **** *  Function Name: LCD_WrCntrlNib
 516:.\Generated_Source\PSoC5/LCD.c **** ********************************************************************************
 517:.\Generated_Source\PSoC5/LCD.c **** *
 518:.\Generated_Source\PSoC5/LCD.c **** * Summary:
 519:.\Generated_Source\PSoC5/LCD.c **** *  Writes a control nibble to the LCD module.
ARM GAS  C:\Users\khjtony\AppData\Local\Temp\ccFxoGLD.s 			page 24


 520:.\Generated_Source\PSoC5/LCD.c **** *
 521:.\Generated_Source\PSoC5/LCD.c **** * Parameters:
 522:.\Generated_Source\PSoC5/LCD.c **** *  nibble: The byte containing a nibble in the four least significant bits.????
 523:.\Generated_Source\PSoC5/LCD.c **** *
 524:.\Generated_Source\PSoC5/LCD.c **** * Return:
 525:.\Generated_Source\PSoC5/LCD.c **** *  None.
 526:.\Generated_Source\PSoC5/LCD.c **** *
 527:.\Generated_Source\PSoC5/LCD.c **** *******************************************************************************/
 528:.\Generated_Source\PSoC5/LCD.c **** static void LCD_WrCntrlNib(uint8 nibble) 
 529:.\Generated_Source\PSoC5/LCD.c **** {
 792              		.loc 1 529 0
 793              		.cfi_startproc
 794              		@ args = 0, pretend = 0, frame = 8
 795              		@ frame_needed = 1, uses_anonymous_args = 0
 796 0000 80B5     		push	{r7, lr}
 797              		.cfi_def_cfa_offset 8
 798              		.cfi_offset 7, -8
 799              		.cfi_offset 14, -4
 800 0002 82B0     		sub	sp, sp, #8
 801              		.cfi_def_cfa_offset 16
 802 0004 00AF     		add	r7, sp, #0
 803              		.cfi_def_cfa_register 7
 804 0006 0346     		mov	r3, r0
 805 0008 FB71     		strb	r3, [r7, #7]
 530:.\Generated_Source\PSoC5/LCD.c ****     /* RS and RW should be low to select instruction register and  write operation respectively */
 531:.\Generated_Source\PSoC5/LCD.c ****     LCD_PORT_DR_REG &= ((uint8)(~(LCD_RS | LCD_RW)));
 806              		.loc 1 531 0
 807 000a 144B     		ldr	r3, .L37
 808 000c 134A     		ldr	r2, .L37
 809 000e 1278     		ldrb	r2, [r2]
 810 0010 D2B2     		uxtb	r2, r2
 811 0012 22F06002 		bic	r2, r2, #96
 812 0016 D2B2     		uxtb	r2, r2
 813 0018 1A70     		strb	r2, [r3]
 532:.\Generated_Source\PSoC5/LCD.c **** 
 533:.\Generated_Source\PSoC5/LCD.c ****     /* Two following lines of code will give 40ns delay */
 534:.\Generated_Source\PSoC5/LCD.c ****     /* Clear data pins */
 535:.\Generated_Source\PSoC5/LCD.c ****     LCD_PORT_DR_REG &= ((uint8)(~LCD_DATA_MASK));
 814              		.loc 1 535 0
 815 001a 104B     		ldr	r3, .L37
 816 001c 0F4A     		ldr	r2, .L37
 817 001e 1278     		ldrb	r2, [r2]
 818 0020 D2B2     		uxtb	r2, r2
 819 0022 22F00F02 		bic	r2, r2, #15
 820 0026 D2B2     		uxtb	r2, r2
 821 0028 1A70     		strb	r2, [r3]
 536:.\Generated_Source\PSoC5/LCD.c **** 
 537:.\Generated_Source\PSoC5/LCD.c ****     /* Write control data and set enable signal */
 538:.\Generated_Source\PSoC5/LCD.c ****     #if(0u != LCD_PORT_SHIFT) /* MISRA forbids shift by 0 so need to handle that */
 539:.\Generated_Source\PSoC5/LCD.c ****         LCD_PORT_DR_REG |= 
 540:.\Generated_Source\PSoC5/LCD.c ****             (LCD_E | ((uint8)(((uint8) nibble) << LCD_PORT_SHIFT)));
 541:.\Generated_Source\PSoC5/LCD.c ****     #else
 542:.\Generated_Source\PSoC5/LCD.c ****         LCD_PORT_DR_REG |= (LCD_E | nibble);
 822              		.loc 1 542 0
 823 002a 0C4B     		ldr	r3, .L37
 824 002c 0B4A     		ldr	r2, .L37
 825 002e 1278     		ldrb	r2, [r2]
ARM GAS  C:\Users\khjtony\AppData\Local\Temp\ccFxoGLD.s 			page 25


 826 0030 D1B2     		uxtb	r1, r2
 827 0032 FA79     		ldrb	r2, [r7, #7]
 828 0034 0A43     		orrs	r2, r2, r1
 829 0036 D2B2     		uxtb	r2, r2
 830 0038 42F01002 		orr	r2, r2, #16
 831 003c D2B2     		uxtb	r2, r2
 832 003e 1A70     		strb	r2, [r3]
 543:.\Generated_Source\PSoC5/LCD.c ****     #endif /* (0u != LCD_PORT_SHIFT) */
 544:.\Generated_Source\PSoC5/LCD.c **** 
 545:.\Generated_Source\PSoC5/LCD.c ****     /* Minimum of 230 ns delay */
 546:.\Generated_Source\PSoC5/LCD.c ****     CyDelayUs(1u);
 833              		.loc 1 546 0
 834 0040 0120     		movs	r0, #1
 835 0042 FFF7FEFF 		bl	CyDelayUs
 547:.\Generated_Source\PSoC5/LCD.c **** 
 548:.\Generated_Source\PSoC5/LCD.c ****     LCD_PORT_DR_REG &= ((uint8)(~LCD_E));
 836              		.loc 1 548 0
 837 0046 054B     		ldr	r3, .L37
 838 0048 044A     		ldr	r2, .L37
 839 004a 1278     		ldrb	r2, [r2]
 840 004c D2B2     		uxtb	r2, r2
 841 004e 22F01002 		bic	r2, r2, #16
 842 0052 D2B2     		uxtb	r2, r2
 843 0054 1A70     		strb	r2, [r3]
 549:.\Generated_Source\PSoC5/LCD.c **** }
 844              		.loc 1 549 0
 845 0056 0837     		adds	r7, r7, #8
 846 0058 BD46     		mov	sp, r7
 847              		@ sp needed
 848 005a 80BD     		pop	{r7, pc}
 849              	.L38:
 850              		.align	2
 851              	.L37:
 852 005c 20510040 		.word	1073762592
 853              		.cfi_endproc
 854              	.LFE11:
 855              		.size	LCD_WrCntrlNib, .-LCD_WrCntrlNib
 856              		.section	.text.LCD_PrintInt8,"ax",%progbits
 857              		.align	2
 858              		.global	LCD_PrintInt8
 859              		.thumb
 860              		.thumb_func
 861              		.type	LCD_PrintInt8, %function
 862              	LCD_PrintInt8:
 863              	.LFB12:
 550:.\Generated_Source\PSoC5/LCD.c **** 
 551:.\Generated_Source\PSoC5/LCD.c **** 
 552:.\Generated_Source\PSoC5/LCD.c **** #if(LCD_CONVERSION_ROUTINES == 1u)
 553:.\Generated_Source\PSoC5/LCD.c **** 
 554:.\Generated_Source\PSoC5/LCD.c ****     /*******************************************************************************
 555:.\Generated_Source\PSoC5/LCD.c ****     *  Function Name: LCD_PrintInt8
 556:.\Generated_Source\PSoC5/LCD.c ****     ********************************************************************************
 557:.\Generated_Source\PSoC5/LCD.c ****     *
 558:.\Generated_Source\PSoC5/LCD.c ****     * Summary:
 559:.\Generated_Source\PSoC5/LCD.c ****     *  Print a byte as two ASCII characters.
 560:.\Generated_Source\PSoC5/LCD.c ****     *
 561:.\Generated_Source\PSoC5/LCD.c ****     * Parameters:
ARM GAS  C:\Users\khjtony\AppData\Local\Temp\ccFxoGLD.s 			page 26


 562:.\Generated_Source\PSoC5/LCD.c ****     *  value: The byte to be printed out as ASCII characters.
 563:.\Generated_Source\PSoC5/LCD.c ****     *
 564:.\Generated_Source\PSoC5/LCD.c ****     * Return:
 565:.\Generated_Source\PSoC5/LCD.c ****     *  None.
 566:.\Generated_Source\PSoC5/LCD.c ****     *
 567:.\Generated_Source\PSoC5/LCD.c ****     *******************************************************************************/
 568:.\Generated_Source\PSoC5/LCD.c ****     void LCD_PrintInt8(uint8 value) 
 569:.\Generated_Source\PSoC5/LCD.c ****     {
 864              		.loc 1 569 0
 865              		.cfi_startproc
 866              		@ args = 0, pretend = 0, frame = 8
 867              		@ frame_needed = 1, uses_anonymous_args = 0
 868 0000 80B5     		push	{r7, lr}
 869              		.cfi_def_cfa_offset 8
 870              		.cfi_offset 7, -8
 871              		.cfi_offset 14, -4
 872 0002 82B0     		sub	sp, sp, #8
 873              		.cfi_def_cfa_offset 16
 874 0004 00AF     		add	r7, sp, #0
 875              		.cfi_def_cfa_register 7
 876 0006 0346     		mov	r3, r0
 877 0008 FB71     		strb	r3, [r7, #7]
 570:.\Generated_Source\PSoC5/LCD.c ****         static char8 const CYCODE LCD_hex[16u] = "0123456789ABCDEF";
 571:.\Generated_Source\PSoC5/LCD.c ****         
 572:.\Generated_Source\PSoC5/LCD.c ****         LCD_PutChar((char8) LCD_hex[value >> LCD_BYTE_UPPER_NIBBLE_SHIFT]);
 878              		.loc 1 572 0
 879 000a FB79     		ldrb	r3, [r7, #7]	@ zero_extendqisi2
 880 000c 1B09     		lsrs	r3, r3, #4
 881 000e DBB2     		uxtb	r3, r3
 882 0010 074A     		ldr	r2, .L40
 883 0012 D35C     		ldrb	r3, [r2, r3]	@ zero_extendqisi2
 884 0014 1846     		mov	r0, r3
 885 0016 FFF7FEFF 		bl	LCD_PutChar
 573:.\Generated_Source\PSoC5/LCD.c ****         LCD_PutChar((char8) LCD_hex[value & LCD_BYTE_LOWER_NIBBLE_MASK]);
 886              		.loc 1 573 0
 887 001a FB79     		ldrb	r3, [r7, #7]	@ zero_extendqisi2
 888 001c 03F00F03 		and	r3, r3, #15
 889 0020 034A     		ldr	r2, .L40
 890 0022 D35C     		ldrb	r3, [r2, r3]	@ zero_extendqisi2
 891 0024 1846     		mov	r0, r3
 892 0026 FFF7FEFF 		bl	LCD_PutChar
 574:.\Generated_Source\PSoC5/LCD.c ****     }
 893              		.loc 1 574 0
 894 002a 0837     		adds	r7, r7, #8
 895 002c BD46     		mov	sp, r7
 896              		@ sp needed
 897 002e 80BD     		pop	{r7, pc}
 898              	.L41:
 899              		.align	2
 900              	.L40:
 901 0030 00000000 		.word	LCD_hex.4908
 902              		.cfi_endproc
 903              	.LFE12:
 904              		.size	LCD_PrintInt8, .-LCD_PrintInt8
 905              		.section	.text.LCD_PrintInt16,"ax",%progbits
 906              		.align	2
 907              		.global	LCD_PrintInt16
ARM GAS  C:\Users\khjtony\AppData\Local\Temp\ccFxoGLD.s 			page 27


 908              		.thumb
 909              		.thumb_func
 910              		.type	LCD_PrintInt16, %function
 911              	LCD_PrintInt16:
 912              	.LFB13:
 575:.\Generated_Source\PSoC5/LCD.c **** 
 576:.\Generated_Source\PSoC5/LCD.c **** 
 577:.\Generated_Source\PSoC5/LCD.c ****     /*******************************************************************************
 578:.\Generated_Source\PSoC5/LCD.c ****     *  Function Name: LCD_PrintInt16
 579:.\Generated_Source\PSoC5/LCD.c ****     ********************************************************************************
 580:.\Generated_Source\PSoC5/LCD.c ****     *
 581:.\Generated_Source\PSoC5/LCD.c ****     * Summary:
 582:.\Generated_Source\PSoC5/LCD.c ****     *  Print a uint16 as four ASCII characters.
 583:.\Generated_Source\PSoC5/LCD.c ****     *
 584:.\Generated_Source\PSoC5/LCD.c ****     * Parameters:
 585:.\Generated_Source\PSoC5/LCD.c ****     *  value: The uint16 to be printed out as ASCII characters.
 586:.\Generated_Source\PSoC5/LCD.c ****     *
 587:.\Generated_Source\PSoC5/LCD.c ****     * Return:
 588:.\Generated_Source\PSoC5/LCD.c ****     *  None.
 589:.\Generated_Source\PSoC5/LCD.c ****     *
 590:.\Generated_Source\PSoC5/LCD.c ****     *******************************************************************************/
 591:.\Generated_Source\PSoC5/LCD.c ****     void LCD_PrintInt16(uint16 value) 
 592:.\Generated_Source\PSoC5/LCD.c ****     {
 913              		.loc 1 592 0
 914              		.cfi_startproc
 915              		@ args = 0, pretend = 0, frame = 8
 916              		@ frame_needed = 1, uses_anonymous_args = 0
 917 0000 80B5     		push	{r7, lr}
 918              		.cfi_def_cfa_offset 8
 919              		.cfi_offset 7, -8
 920              		.cfi_offset 14, -4
 921 0002 82B0     		sub	sp, sp, #8
 922              		.cfi_def_cfa_offset 16
 923 0004 00AF     		add	r7, sp, #0
 924              		.cfi_def_cfa_register 7
 925 0006 0346     		mov	r3, r0
 926 0008 FB80     		strh	r3, [r7, #6]	@ movhi
 593:.\Generated_Source\PSoC5/LCD.c ****         LCD_PrintInt8((uint8)(value >> LCD_U16_UPPER_BYTE_SHIFT));
 927              		.loc 1 593 0
 928 000a FB88     		ldrh	r3, [r7, #6]
 929 000c 1B0A     		lsrs	r3, r3, #8
 930 000e 9BB2     		uxth	r3, r3
 931 0010 DBB2     		uxtb	r3, r3
 932 0012 1846     		mov	r0, r3
 933 0014 FFF7FEFF 		bl	LCD_PrintInt8
 594:.\Generated_Source\PSoC5/LCD.c ****         LCD_PrintInt8((uint8)(value & LCD_U16_LOWER_BYTE_MASK));
 934              		.loc 1 594 0
 935 0018 FB88     		ldrh	r3, [r7, #6]	@ movhi
 936 001a DBB2     		uxtb	r3, r3
 937 001c 1846     		mov	r0, r3
 938 001e FFF7FEFF 		bl	LCD_PrintInt8
 595:.\Generated_Source\PSoC5/LCD.c ****     }
 939              		.loc 1 595 0
 940 0022 0837     		adds	r7, r7, #8
 941 0024 BD46     		mov	sp, r7
 942              		@ sp needed
 943 0026 80BD     		pop	{r7, pc}
ARM GAS  C:\Users\khjtony\AppData\Local\Temp\ccFxoGLD.s 			page 28


 944              		.cfi_endproc
 945              	.LFE13:
 946              		.size	LCD_PrintInt16, .-LCD_PrintInt16
 947              		.section	.text.LCD_PrintInt32,"ax",%progbits
 948              		.align	2
 949              		.global	LCD_PrintInt32
 950              		.thumb
 951              		.thumb_func
 952              		.type	LCD_PrintInt32, %function
 953              	LCD_PrintInt32:
 954              	.LFB14:
 596:.\Generated_Source\PSoC5/LCD.c **** 
 597:.\Generated_Source\PSoC5/LCD.c ****     
 598:.\Generated_Source\PSoC5/LCD.c ****     /*******************************************************************************
 599:.\Generated_Source\PSoC5/LCD.c ****     *  Function Name: LCD_PrintInt32
 600:.\Generated_Source\PSoC5/LCD.c ****     ********************************************************************************
 601:.\Generated_Source\PSoC5/LCD.c ****     *
 602:.\Generated_Source\PSoC5/LCD.c ****     * Summary:
 603:.\Generated_Source\PSoC5/LCD.c ****     *  Print a uint32 hexadecimal number as eight ASCII characters.
 604:.\Generated_Source\PSoC5/LCD.c ****     *
 605:.\Generated_Source\PSoC5/LCD.c ****     * Parameters:
 606:.\Generated_Source\PSoC5/LCD.c ****     *  value: The uint32 to be printed out as ASCII characters.
 607:.\Generated_Source\PSoC5/LCD.c ****     *
 608:.\Generated_Source\PSoC5/LCD.c ****     * Return:
 609:.\Generated_Source\PSoC5/LCD.c ****     *  None.
 610:.\Generated_Source\PSoC5/LCD.c ****     *
 611:.\Generated_Source\PSoC5/LCD.c ****     *******************************************************************************/
 612:.\Generated_Source\PSoC5/LCD.c ****     void LCD_PrintInt32(uint32 value) 
 613:.\Generated_Source\PSoC5/LCD.c ****     {
 955              		.loc 1 613 0
 956              		.cfi_startproc
 957              		@ args = 0, pretend = 0, frame = 16
 958              		@ frame_needed = 1, uses_anonymous_args = 0
 959 0000 80B5     		push	{r7, lr}
 960              		.cfi_def_cfa_offset 8
 961              		.cfi_offset 7, -8
 962              		.cfi_offset 14, -4
 963 0002 84B0     		sub	sp, sp, #16
 964              		.cfi_def_cfa_offset 24
 965 0004 00AF     		add	r7, sp, #0
 966              		.cfi_def_cfa_register 7
 967 0006 7860     		str	r0, [r7, #4]
 614:.\Generated_Source\PSoC5/LCD.c ****         uint8 shift = LCD_32_BIT_SHIFT;
 968              		.loc 1 614 0
 969 0008 2023     		movs	r3, #32
 970 000a FB73     		strb	r3, [r7, #15]
 615:.\Generated_Source\PSoC5/LCD.c ****         
 616:.\Generated_Source\PSoC5/LCD.c ****         while (shift != 0u)
 971              		.loc 1 616 0
 972 000c 0AE0     		b	.L44
 973              	.L45:
 617:.\Generated_Source\PSoC5/LCD.c ****         {
 618:.\Generated_Source\PSoC5/LCD.c ****             /* "shift" var is to be subtracted by 8 prior shifting. This implements 
 619:.\Generated_Source\PSoC5/LCD.c ****             * shifting by 24, 16, 8 and 0u. 
 620:.\Generated_Source\PSoC5/LCD.c ****             */
 621:.\Generated_Source\PSoC5/LCD.c ****             shift -= LCD_8_BIT_SHIFT;
 974              		.loc 1 621 0
ARM GAS  C:\Users\khjtony\AppData\Local\Temp\ccFxoGLD.s 			page 29


 975 000e FB7B     		ldrb	r3, [r7, #15]
 976 0010 083B     		subs	r3, r3, #8
 977 0012 FB73     		strb	r3, [r7, #15]
 622:.\Generated_Source\PSoC5/LCD.c ****             
 623:.\Generated_Source\PSoC5/LCD.c ****             /* Print 8 bits of uint32 hex number */
 624:.\Generated_Source\PSoC5/LCD.c ****             LCD_PrintInt8((uint8) ((uint32) (value >> shift)));
 978              		.loc 1 624 0
 979 0014 FB7B     		ldrb	r3, [r7, #15]	@ zero_extendqisi2
 980 0016 7A68     		ldr	r2, [r7, #4]
 981 0018 22FA03F3 		lsr	r3, r2, r3
 982 001c DBB2     		uxtb	r3, r3
 983 001e 1846     		mov	r0, r3
 984 0020 FFF7FEFF 		bl	LCD_PrintInt8
 985              	.L44:
 616:.\Generated_Source\PSoC5/LCD.c ****         while (shift != 0u)
 986              		.loc 1 616 0 discriminator 1
 987 0024 FB7B     		ldrb	r3, [r7, #15]	@ zero_extendqisi2
 988 0026 002B     		cmp	r3, #0
 989 0028 F1D1     		bne	.L45
 625:.\Generated_Source\PSoC5/LCD.c ****         }
 626:.\Generated_Source\PSoC5/LCD.c ****     }
 990              		.loc 1 626 0
 991 002a 1037     		adds	r7, r7, #16
 992 002c BD46     		mov	sp, r7
 993              		@ sp needed
 994 002e 80BD     		pop	{r7, pc}
 995              		.cfi_endproc
 996              	.LFE14:
 997              		.size	LCD_PrintInt32, .-LCD_PrintInt32
 998              		.section	.text.LCD_PrintU32Number,"ax",%progbits
 999              		.align	2
 1000              		.global	LCD_PrintU32Number
 1001              		.thumb
 1002              		.thumb_func
 1003              		.type	LCD_PrintU32Number, %function
 1004              	LCD_PrintU32Number:
 1005              	.LFB15:
 627:.\Generated_Source\PSoC5/LCD.c ****     
 628:.\Generated_Source\PSoC5/LCD.c ****     
 629:.\Generated_Source\PSoC5/LCD.c ****     /*******************************************************************************
 630:.\Generated_Source\PSoC5/LCD.c ****     *  Function Name: LCD_PrintNumber
 631:.\Generated_Source\PSoC5/LCD.c ****     ********************************************************************************
 632:.\Generated_Source\PSoC5/LCD.c ****     *
 633:.\Generated_Source\PSoC5/LCD.c ****     * Summary:
 634:.\Generated_Source\PSoC5/LCD.c ****     *  Print an uint16 value as a left-justified decimal value.
 635:.\Generated_Source\PSoC5/LCD.c ****     *
 636:.\Generated_Source\PSoC5/LCD.c ****     * Parameters:
 637:.\Generated_Source\PSoC5/LCD.c ****     *  value: A 16-bit value to be printed in ASCII characters as a decimal number
 638:.\Generated_Source\PSoC5/LCD.c ****     *
 639:.\Generated_Source\PSoC5/LCD.c ****     * Return:
 640:.\Generated_Source\PSoC5/LCD.c ****     *  None.
 641:.\Generated_Source\PSoC5/LCD.c ****     *
 642:.\Generated_Source\PSoC5/LCD.c ****     * Note:
 643:.\Generated_Source\PSoC5/LCD.c ****     *  This function is implemented as a macro.
 644:.\Generated_Source\PSoC5/LCD.c ****     *
 645:.\Generated_Source\PSoC5/LCD.c ****     *******************************************************************************/
 646:.\Generated_Source\PSoC5/LCD.c **** 
ARM GAS  C:\Users\khjtony\AppData\Local\Temp\ccFxoGLD.s 			page 30


 647:.\Generated_Source\PSoC5/LCD.c ****     
 648:.\Generated_Source\PSoC5/LCD.c ****     /*******************************************************************************
 649:.\Generated_Source\PSoC5/LCD.c ****     *  Function Name: LCD_PrintU32Number
 650:.\Generated_Source\PSoC5/LCD.c ****     ********************************************************************************
 651:.\Generated_Source\PSoC5/LCD.c ****     *
 652:.\Generated_Source\PSoC5/LCD.c ****     * Summary:
 653:.\Generated_Source\PSoC5/LCD.c ****     *  Print an uint32 value as a left-justified decimal value.
 654:.\Generated_Source\PSoC5/LCD.c ****     *
 655:.\Generated_Source\PSoC5/LCD.c ****     * Parameters:
 656:.\Generated_Source\PSoC5/LCD.c ****     *  value: A 32-bit value to be printed in ASCII characters as a decimal number
 657:.\Generated_Source\PSoC5/LCD.c ****     *
 658:.\Generated_Source\PSoC5/LCD.c ****     * Return:
 659:.\Generated_Source\PSoC5/LCD.c ****     *  None.
 660:.\Generated_Source\PSoC5/LCD.c ****     *
 661:.\Generated_Source\PSoC5/LCD.c ****     *******************************************************************************/
 662:.\Generated_Source\PSoC5/LCD.c ****     void LCD_PrintU32Number(uint32 value) 
 663:.\Generated_Source\PSoC5/LCD.c ****     {
 1006              		.loc 1 663 0
 1007              		.cfi_startproc
 1008              		@ args = 0, pretend = 0, frame = 24
 1009              		@ frame_needed = 1, uses_anonymous_args = 0
 1010 0000 80B5     		push	{r7, lr}
 1011              		.cfi_def_cfa_offset 8
 1012              		.cfi_offset 7, -8
 1013              		.cfi_offset 14, -4
 1014 0002 86B0     		sub	sp, sp, #24
 1015              		.cfi_def_cfa_offset 32
 1016 0004 00AF     		add	r7, sp, #0
 1017              		.cfi_def_cfa_register 7
 1018 0006 7860     		str	r0, [r7, #4]
 664:.\Generated_Source\PSoC5/LCD.c ****         uint8 tmpDigit;
 665:.\Generated_Source\PSoC5/LCD.c ****         char8 number[LCD_NUMBER_OF_REMAINDERS_U32 + 1u];
 666:.\Generated_Source\PSoC5/LCD.c ****         uint8 digIndex = LCD_NUMBER_OF_REMAINDERS_U32;
 1019              		.loc 1 666 0
 1020 0008 0A23     		movs	r3, #10
 1021 000a FB75     		strb	r3, [r7, #23]
 667:.\Generated_Source\PSoC5/LCD.c ****         
 668:.\Generated_Source\PSoC5/LCD.c ****         /* This API will output a decimal number as a string and that string will be 
 669:.\Generated_Source\PSoC5/LCD.c ****         * filled from end to start. Set Null termination character first.
 670:.\Generated_Source\PSoC5/LCD.c ****         */
 671:.\Generated_Source\PSoC5/LCD.c ****         number[digIndex] = (char8) '\0';
 1022              		.loc 1 671 0
 1023 000c FB7D     		ldrb	r3, [r7, #23]	@ zero_extendqisi2
 1024 000e 07F11801 		add	r1, r7, #24
 1025 0012 0B44     		add	r3, r3, r1
 1026 0014 0022     		movs	r2, #0
 1027 0016 03F8102C 		strb	r2, [r3, #-16]
 672:.\Generated_Source\PSoC5/LCD.c ****         digIndex--;
 1028              		.loc 1 672 0
 1029 001a FB7D     		ldrb	r3, [r7, #23]	@ zero_extendqisi2
 1030 001c 013B     		subs	r3, r3, #1
 1031 001e FB75     		strb	r3, [r7, #23]
 673:.\Generated_Source\PSoC5/LCD.c ****         
 674:.\Generated_Source\PSoC5/LCD.c ****         /* Load these in reverse order */
 675:.\Generated_Source\PSoC5/LCD.c ****         while(value >= LCD_TEN)
 1032              		.loc 1 675 0
 1033 0020 1CE0     		b	.L47
ARM GAS  C:\Users\khjtony\AppData\Local\Temp\ccFxoGLD.s 			page 31


 1034              	.L48:
 676:.\Generated_Source\PSoC5/LCD.c ****         {
 677:.\Generated_Source\PSoC5/LCD.c ****             /* Extract decimal digit, indexed by 'digIndex', from 'value' and
 678:.\Generated_Source\PSoC5/LCD.c ****             * convert it to ASCII character.
 679:.\Generated_Source\PSoC5/LCD.c ****             */
 680:.\Generated_Source\PSoC5/LCD.c ****             tmpDigit = (uint8) (((uint8) (value % LCD_TEN)) + (uint8) LCD_ZERO_CHAR_ASCII);
 1035              		.loc 1 680 0
 1036 0022 7968     		ldr	r1, [r7, #4]
 1037 0024 1E4B     		ldr	r3, .L49
 1038 0026 A3FB0123 		umull	r2, r3, r3, r1
 1039 002a DA08     		lsrs	r2, r3, #3
 1040 002c 1346     		mov	r3, r2
 1041 002e 9B00     		lsls	r3, r3, #2
 1042 0030 1344     		add	r3, r3, r2
 1043 0032 5B00     		lsls	r3, r3, #1
 1044 0034 CA1A     		subs	r2, r1, r3
 1045 0036 D3B2     		uxtb	r3, r2
 1046 0038 3033     		adds	r3, r3, #48
 1047 003a BB75     		strb	r3, [r7, #22]
 681:.\Generated_Source\PSoC5/LCD.c ****             
 682:.\Generated_Source\PSoC5/LCD.c ****             /* Temporary variable 'tmpDigit' is used to avoid Violation of MISRA rule 
 683:.\Generated_Source\PSoC5/LCD.c ****             * #10.3.
 684:.\Generated_Source\PSoC5/LCD.c ****             */
 685:.\Generated_Source\PSoC5/LCD.c ****             number[digIndex] = (char8) tmpDigit;
 1048              		.loc 1 685 0
 1049 003c FB7D     		ldrb	r3, [r7, #23]	@ zero_extendqisi2
 1050 003e 07F11801 		add	r1, r7, #24
 1051 0042 0B44     		add	r3, r3, r1
 1052 0044 BA7D     		ldrb	r2, [r7, #22]
 1053 0046 03F8102C 		strb	r2, [r3, #-16]
 686:.\Generated_Source\PSoC5/LCD.c ****             value /= LCD_TEN;
 1054              		.loc 1 686 0
 1055 004a 7A68     		ldr	r2, [r7, #4]
 1056 004c 144B     		ldr	r3, .L49
 1057 004e A3FB0213 		umull	r1, r3, r3, r2
 1058 0052 DB08     		lsrs	r3, r3, #3
 1059 0054 7B60     		str	r3, [r7, #4]
 687:.\Generated_Source\PSoC5/LCD.c ****             digIndex--;
 1060              		.loc 1 687 0
 1061 0056 FB7D     		ldrb	r3, [r7, #23]	@ zero_extendqisi2
 1062 0058 013B     		subs	r3, r3, #1
 1063 005a FB75     		strb	r3, [r7, #23]
 1064              	.L47:
 675:.\Generated_Source\PSoC5/LCD.c ****         while(value >= LCD_TEN)
 1065              		.loc 1 675 0 discriminator 1
 1066 005c 7B68     		ldr	r3, [r7, #4]
 1067 005e 092B     		cmp	r3, #9
 1068 0060 DFD8     		bhi	.L48
 688:.\Generated_Source\PSoC5/LCD.c ****         }
 689:.\Generated_Source\PSoC5/LCD.c ****         
 690:.\Generated_Source\PSoC5/LCD.c ****         /* Extract last decimal digit 'digIndex', from the 'value' and convert it
 691:.\Generated_Source\PSoC5/LCD.c ****         * to ASCII character.
 692:.\Generated_Source\PSoC5/LCD.c ****         */
 693:.\Generated_Source\PSoC5/LCD.c ****         tmpDigit = (uint8) (((uint8)(value % LCD_TEN)) + (uint8) LCD_ZERO_CHAR_ASCII);
 1069              		.loc 1 693 0
 1070 0062 7968     		ldr	r1, [r7, #4]
 1071 0064 0E4B     		ldr	r3, .L49
ARM GAS  C:\Users\khjtony\AppData\Local\Temp\ccFxoGLD.s 			page 32


 1072 0066 A3FB0123 		umull	r2, r3, r3, r1
 1073 006a DA08     		lsrs	r2, r3, #3
 1074 006c 1346     		mov	r3, r2
 1075 006e 9B00     		lsls	r3, r3, #2
 1076 0070 1344     		add	r3, r3, r2
 1077 0072 5B00     		lsls	r3, r3, #1
 1078 0074 CA1A     		subs	r2, r1, r3
 1079 0076 D3B2     		uxtb	r3, r2
 1080 0078 3033     		adds	r3, r3, #48
 1081 007a BB75     		strb	r3, [r7, #22]
 694:.\Generated_Source\PSoC5/LCD.c ****         number[digIndex] = (char8) tmpDigit;
 1082              		.loc 1 694 0
 1083 007c FB7D     		ldrb	r3, [r7, #23]	@ zero_extendqisi2
 1084 007e 07F11801 		add	r1, r7, #24
 1085 0082 0B44     		add	r3, r3, r1
 1086 0084 BA7D     		ldrb	r2, [r7, #22]
 1087 0086 03F8102C 		strb	r2, [r3, #-16]
 695:.\Generated_Source\PSoC5/LCD.c **** 
 696:.\Generated_Source\PSoC5/LCD.c ****         /* Print out number */
 697:.\Generated_Source\PSoC5/LCD.c ****         LCD_PrintString(&number[digIndex]);
 1088              		.loc 1 697 0
 1089 008a FB7D     		ldrb	r3, [r7, #23]	@ zero_extendqisi2
 1090 008c 07F10802 		add	r2, r7, #8
 1091 0090 1344     		add	r3, r3, r2
 1092 0092 1846     		mov	r0, r3
 1093 0094 FFF7FEFF 		bl	LCD_PrintString
 698:.\Generated_Source\PSoC5/LCD.c ****     }
 1094              		.loc 1 698 0
 1095 0098 1837     		adds	r7, r7, #24
 1096 009a BD46     		mov	sp, r7
 1097              		@ sp needed
 1098 009c 80BD     		pop	{r7, pc}
 1099              	.L50:
 1100 009e 00BF     		.align	2
 1101              	.L49:
 1102 00a0 CDCCCCCC 		.word	-858993459
 1103              		.cfi_endproc
 1104              	.LFE15:
 1105              		.size	LCD_PrintU32Number, .-LCD_PrintU32Number
 1106              		.section	.rodata
 1107              		.align	2
 1108              		.type	LCD_hex.4908, %object
 1109              		.size	LCD_hex.4908, 16
 1110              	LCD_hex.4908:
 1111 0000 30313233 		.ascii	"0123456789ABCDEF"
 1111      34353637 
 1111      38394142 
 1111      43444546 
 1112              		.text
 1113              	.Letext0:
 1114              		.file 2 ".\\Generated_Source\\PSoC5\\cytypes.h"