ARM GAS  C:\Users\khjtony\AppData\Local\Temp\ccFxoGLD.s 			page 1


   1              		.syntax unified
   2              		.cpu cortex-m3
   3              		.fpu softvfp
   4              		.eabi_attribute 20, 1
   5              		.eabi_attribute 21, 1
   6              		.eabi_attribute 23, 3
   7              		.eabi_attribute 24, 1
   8              		.eabi_attribute 25, 1
   9              		.eabi_attribute 26, 1
  10              		.eabi_attribute 30, 6
  11              		.eabi_attribute 34, 1
  12              		.eabi_attribute 18, 4
  13              		.thumb
  14              		.file	"LCD.c"
  15              		.text
  16              	.Ltext0:
  17              		.cfi_sections	.debug_frame
  18              		.global	LCD_enableState
  19              		.bss
  20              		.type	LCD_enableState, %object
  21              		.size	LCD_enableState, 1
  22              	LCD_enableState:
  23 0000 00       		.space	1
  24              		.global	LCD_initVar
  25              		.type	LCD_initVar, %object
  26              		.size	LCD_initVar, 1
  27              	LCD_initVar:
  28 0001 00       		.space	1
  29              		.section	.text.LCD_Init,"ax",%progbits
  30              		.align	2
  31              		.global	LCD_Init
  32              		.thumb
  33              		.thumb_func
  34              		.type	LCD_Init, %function
  35              	LCD_Init:
  36              	.LFB0:
  37              		.file 1 ".\\Generated_Source\\PSoC5\\LCD.c"
   1:.\Generated_Source\PSoC5/LCD.c **** /*******************************************************************************
   2:.\Generated_Source\PSoC5/LCD.c **** * File Name: LCD.c
   3:.\Generated_Source\PSoC5/LCD.c **** * Version 2.10
   4:.\Generated_Source\PSoC5/LCD.c **** *
   5:.\Generated_Source\PSoC5/LCD.c **** * Description:
   6:.\Generated_Source\PSoC5/LCD.c **** *  This file provides source code for the Character LCD component's API.
   7:.\Generated_Source\PSoC5/LCD.c **** *
   8:.\Generated_Source\PSoC5/LCD.c **** * Note:
   9:.\Generated_Source\PSoC5/LCD.c **** *
  10:.\Generated_Source\PSoC5/LCD.c **** ********************************************************************************
  11:.\Generated_Source\PSoC5/LCD.c **** * Copyright 2008-2014, Cypress Semiconductor Corporation.  All rights reserved.
  12:.\Generated_Source\PSoC5/LCD.c **** * You may use this file only in accordance with the license, terms, conditions,
  13:.\Generated_Source\PSoC5/LCD.c **** * disclaimers, and limitations in the end user license agreement accompanying
  14:.\Generated_Source\PSoC5/LCD.c **** * the software package with which this file was provided.
  15:.\Generated_Source\PSoC5/LCD.c **** *******************************************************************************/
  16:.\Generated_Source\PSoC5/LCD.c **** 
  17:.\Generated_Source\PSoC5/LCD.c **** #include "CyLib.h"
  18:.\Generated_Source\PSoC5/LCD.c **** #include "LCD.h"
  19:.\Generated_Source\PSoC5/LCD.c **** 
  20:.\Generated_Source\PSoC5/LCD.c **** 
ARM GAS  C:\Users\khjtony\AppData\Local\Temp\ccFxoGLD.s 			page 2


  21:.\Generated_Source\PSoC5/LCD.c **** static void LCD_WrDatNib(uint8 nibble) ;
  22:.\Generated_Source\PSoC5/LCD.c **** static void LCD_WrCntrlNib(uint8 nibble) ;
  23:.\Generated_Source\PSoC5/LCD.c **** 
  24:.\Generated_Source\PSoC5/LCD.c **** /* Stores state of component. Indicates whether component is or not
  25:.\Generated_Source\PSoC5/LCD.c **** * in enable state.
  26:.\Generated_Source\PSoC5/LCD.c **** */
  27:.\Generated_Source\PSoC5/LCD.c **** uint8 LCD_enableState = 0u;
  28:.\Generated_Source\PSoC5/LCD.c **** 
  29:.\Generated_Source\PSoC5/LCD.c **** uint8 LCD_initVar = 0u;
  30:.\Generated_Source\PSoC5/LCD.c **** 
  31:.\Generated_Source\PSoC5/LCD.c **** 
  32:.\Generated_Source\PSoC5/LCD.c **** /*******************************************************************************
  33:.\Generated_Source\PSoC5/LCD.c **** * Function Name: LCD_Init
  34:.\Generated_Source\PSoC5/LCD.c **** ********************************************************************************
  35:.\Generated_Source\PSoC5/LCD.c **** *
  36:.\Generated_Source\PSoC5/LCD.c **** * Summary:
  37:.\Generated_Source\PSoC5/LCD.c **** *  Performs initialization required for the components normal work.
  38:.\Generated_Source\PSoC5/LCD.c **** *  This function initializes the LCD hardware module as follows:
  39:.\Generated_Source\PSoC5/LCD.c **** *        Enables a 4-bit interface
  40:.\Generated_Source\PSoC5/LCD.c **** *        Clears the display
  41:.\Generated_Source\PSoC5/LCD.c **** *        Enables the auto cursor increment
  42:.\Generated_Source\PSoC5/LCD.c **** *        Resets the cursor to start position
  43:.\Generated_Source\PSoC5/LCD.c **** *  Also, it loads a custom character set to the LCD if it was defined in the customizer.
  44:.\Generated_Source\PSoC5/LCD.c **** *
  45:.\Generated_Source\PSoC5/LCD.c **** * Parameters:
  46:.\Generated_Source\PSoC5/LCD.c **** *  None.
  47:.\Generated_Source\PSoC5/LCD.c **** *
  48:.\Generated_Source\PSoC5/LCD.c **** * Return:
  49:.\Generated_Source\PSoC5/LCD.c **** *  None.
  50:.\Generated_Source\PSoC5/LCD.c **** *
  51:.\Generated_Source\PSoC5/LCD.c **** * Reentrant:
  52:.\Generated_Source\PSoC5/LCD.c **** *  No.
  53:.\Generated_Source\PSoC5/LCD.c **** *
  54:.\Generated_Source\PSoC5/LCD.c **** *******************************************************************************/
  55:.\Generated_Source\PSoC5/LCD.c **** void LCD_Init(void) 
  56:.\Generated_Source\PSoC5/LCD.c **** {
  38              		.loc 1 56 0
  39              		.cfi_startproc
  40              		@ args = 0, pretend = 0, frame = 0
  41              		@ frame_needed = 1, uses_anonymous_args = 0
  42 0000 80B5     		push	{r7, lr}
  43              		.cfi_def_cfa_offset 8
  44              		.cfi_offset 7, -8
  45              		.cfi_offset 14, -4
  46 0002 00AF     		add	r7, sp, #0
  47              		.cfi_def_cfa_register 7
  57:.\Generated_Source\PSoC5/LCD.c ****     /* INIT CODE */
  58:.\Generated_Source\PSoC5/LCD.c ****     CyDelay(40u);                                                        /* Delay 40 ms */
  48              		.loc 1 58 0
  49 0004 2820     		movs	r0, #40
  50 0006 FFF7FEFF 		bl	CyDelay
  59:.\Generated_Source\PSoC5/LCD.c ****     LCD_WrCntrlNib(LCD_DISPLAY_8_BIT_INIT);    /* Selects 8-bit mode */
  51              		.loc 1 59 0
  52 000a 0320     		movs	r0, #3
  53 000c FFF7FEFF 		bl	LCD_WrCntrlNib
  60:.\Generated_Source\PSoC5/LCD.c ****     CyDelay(5u);                                                         /* Delay 5 ms */
  54              		.loc 1 60 0
ARM GAS  C:\Users\khjtony\AppData\Local\Temp\ccFxoGLD.s 			page 3


  55 0010 0520     		movs	r0, #5
  56 0012 FFF7FEFF 		bl	CyDelay
  61:.\Generated_Source\PSoC5/LCD.c ****     LCD_WrCntrlNib(LCD_DISPLAY_8_BIT_INIT);    /* Selects 8-bit mode */
  57              		.loc 1 61 0
  58 0016 0320     		movs	r0, #3
  59 0018 FFF7FEFF 		bl	LCD_WrCntrlNib
  62:.\Generated_Source\PSoC5/LCD.c ****     CyDelay(15u);                                                        /* Delay 15 ms */
  60              		.loc 1 62 0
  61 001c 0F20     		movs	r0, #15
  62 001e FFF7FEFF 		bl	CyDelay
  63:.\Generated_Source\PSoC5/LCD.c ****     LCD_WrCntrlNib(LCD_DISPLAY_8_BIT_INIT);    /* Selects 8-bit mode */
  63              		.loc 1 63 0
  64 0022 0320     		movs	r0, #3
  65 0024 FFF7FEFF 		bl	LCD_WrCntrlNib
  64:.\Generated_Source\PSoC5/LCD.c ****     CyDelay(1u);                                                         /* Delay 1 ms */
  66              		.loc 1 64 0
  67 0028 0120     		movs	r0, #1
  68 002a FFF7FEFF 		bl	CyDelay
  65:.\Generated_Source\PSoC5/LCD.c ****     LCD_WrCntrlNib(LCD_DISPLAY_4_BIT_INIT);    /* Selects 4-bit mode */
  69              		.loc 1 65 0
  70 002e 0220     		movs	r0, #2
  71 0030 FFF7FEFF 		bl	LCD_WrCntrlNib
  66:.\Generated_Source\PSoC5/LCD.c ****     CyDelay(5u);                                                         /* Delay 5 ms */
  72              		.loc 1 66 0
  73 0034 0520     		movs	r0, #5
  74 0036 FFF7FEFF 		bl	CyDelay
  67:.\Generated_Source\PSoC5/LCD.c **** 
  68:.\Generated_Source\PSoC5/LCD.c ****     LCD_WriteControl(LCD_CURSOR_AUTO_INCR_ON);    /* Incr Cursor After Writes */
  75              		.loc 1 68 0
  76 003a 0620     		movs	r0, #6
  77 003c FFF7FEFF 		bl	LCD_WriteControl
  69:.\Generated_Source\PSoC5/LCD.c ****     LCD_WriteControl(LCD_DISPLAY_CURSOR_ON);      /* Turn Display, Cursor ON */
  78              		.loc 1 69 0
  79 0040 0E20     		movs	r0, #14
  80 0042 FFF7FEFF 		bl	LCD_WriteControl
  70:.\Generated_Source\PSoC5/LCD.c ****     LCD_WriteControl(LCD_DISPLAY_2_LINES_5x10);   /* 2 Lines by 5x10 Characters */
  81              		.loc 1 70 0
  82 0046 2C20     		movs	r0, #44
  83 0048 FFF7FEFF 		bl	LCD_WriteControl
  71:.\Generated_Source\PSoC5/LCD.c ****     LCD_WriteControl(LCD_DISPLAY_CURSOR_OFF);     /* Turn Display, Cursor OFF */
  84              		.loc 1 71 0
  85 004c 0820     		movs	r0, #8
  86 004e FFF7FEFF 		bl	LCD_WriteControl
  72:.\Generated_Source\PSoC5/LCD.c ****     LCD_WriteControl(LCD_CLEAR_DISPLAY);          /* Clear LCD Screen */
  87              		.loc 1 72 0
  88 0052 0120     		movs	r0, #1
  89 0054 FFF7FEFF 		bl	LCD_WriteControl
  73:.\Generated_Source\PSoC5/LCD.c ****     LCD_WriteControl(LCD_DISPLAY_ON_CURSOR_OFF);  /* Turn Display ON, Cursor OFF */
  90              		.loc 1 73 0
  91 0058 0C20     		movs	r0, #12
  92 005a FFF7FEFF 		bl	LCD_WriteControl
  74:.\Generated_Source\PSoC5/LCD.c ****     LCD_WriteControl(LCD_RESET_CURSOR_POSITION);  /* Set Cursor to 0,0 */
  93              		.loc 1 74 0
  94 005e 0320     		movs	r0, #3
  95 0060 FFF7FEFF 		bl	LCD_WriteControl
  75:.\Generated_Source\PSoC5/LCD.c ****     CyDelay(5u);
  96              		.loc 1 75 0
ARM GAS  C:\Users\khjtony\AppData\Local\Temp\ccFxoGLD.s 			page 4


  97 0064 0520     		movs	r0, #5
  98 0066 FFF7FEFF 		bl	CyDelay
  76:.\Generated_Source\PSoC5/LCD.c **** 
  77:.\Generated_Source\PSoC5/LCD.c ****     #if(LCD_CUSTOM_CHAR_SET != LCD_NONE)
  78:.\Generated_Source\PSoC5/LCD.c ****         LCD_LoadCustomFonts(LCD_customFonts);
  79:.\Generated_Source\PSoC5/LCD.c ****     #endif /* LCD_CUSTOM_CHAR_SET != LCD_NONE */
  80:.\Generated_Source\PSoC5/LCD.c **** }
  99              		.loc 1 80 0
 100 006a 80BD     		pop	{r7, pc}
 101              		.cfi_endproc
 102              	.LFE0:
 103              		.size	LCD_Init, .-LCD_Init
 104              		.section	.text.LCD_Enable,"ax",%progbits
 105              		.align	2
 106              		.global	LCD_Enable
 107              		.thumb
 108              		.thumb_func
 109              		.type	LCD_Enable, %function
 110              	LCD_Enable:
 111              	.LFB1:
  81:.\Generated_Source\PSoC5/LCD.c **** 
  82:.\Generated_Source\PSoC5/LCD.c **** 
  83:.\Generated_Source\PSoC5/LCD.c **** /*******************************************************************************
  84:.\Generated_Source\PSoC5/LCD.c **** * Function Name: LCD_Enable
  85:.\Generated_Source\PSoC5/LCD.c **** ********************************************************************************
  86:.\Generated_Source\PSoC5/LCD.c **** *
  87:.\Generated_Source\PSoC5/LCD.c **** * Summary:
  88:.\Generated_Source\PSoC5/LCD.c **** *  Turns on the display.
  89:.\Generated_Source\PSoC5/LCD.c **** *
  90:.\Generated_Source\PSoC5/LCD.c **** * Parameters:
  91:.\Generated_Source\PSoC5/LCD.c **** *  None.
  92:.\Generated_Source\PSoC5/LCD.c **** *
  93:.\Generated_Source\PSoC5/LCD.c **** * Return:
  94:.\Generated_Source\PSoC5/LCD.c **** *  None.
  95:.\Generated_Source\PSoC5/LCD.c **** *
  96:.\Generated_Source\PSoC5/LCD.c **** * Reentrant:
  97:.\Generated_Source\PSoC5/LCD.c **** *  No.
  98:.\Generated_Source\PSoC5/LCD.c **** *
  99:.\Generated_Source\PSoC5/LCD.c **** * Theory:
 100:.\Generated_Source\PSoC5/LCD.c **** *  This function has no effect when it is called the first time as
 101:.\Generated_Source\PSoC5/LCD.c **** *  LCD_Init() turns on the LCD.
 102:.\Generated_Source\PSoC5/LCD.c **** *
 103:.\Generated_Source\PSoC5/LCD.c **** *******************************************************************************/
 104:.\Generated_Source\PSoC5/LCD.c **** void LCD_Enable(void) 
 105:.\Generated_Source\PSoC5/LCD.c **** {
 112              		.loc 1 105 0
 113              		.cfi_startproc
 114              		@ args = 0, pretend = 0, frame = 0
 115              		@ frame_needed = 1, uses_anonymous_args = 0
 116 0000 80B5     		push	{r7, lr}
 117              		.cfi_def_cfa_offset 8
 118              		.cfi_offset 7, -8
 119              		.cfi_offset 14, -4
 120 0002 00AF     		add	r7, sp, #0
 121              		.cfi_def_cfa_register 7
 106:.\Generated_Source\PSoC5/LCD.c ****     LCD_DisplayOn();
 122              		.loc 1 106 0
ARM GAS  C:\Users\khjtony\AppData\Local\Temp\ccFxoGLD.s 			page 5


 123 0004 0C20     		movs	r0, #12
 124 0006 FFF7FEFF 		bl	LCD_WriteControl
 107:.\Generated_Source\PSoC5/LCD.c ****     LCD_enableState = 1u;
 125              		.loc 1 107 0
 126 000a 024B     		ldr	r3, .L3
 127 000c 0122     		movs	r2, #1
 128 000e 1A70     		strb	r2, [r3]
 108:.\Generated_Source\PSoC5/LCD.c **** }
 129              		.loc 1 108 0
 130 0010 80BD     		pop	{r7, pc}
 131              	.L4:
 132 0012 00BF     		.align	2
 133              	.L3:
 134 0014 00000000 		.word	LCD_enableState
 135              		.cfi_endproc
 136              	.LFE1:
 137              		.size	LCD_Enable, .-LCD_Enable
 138              		.section	.text.LCD_Start,"ax",%progbits
 139              		.align	2
 140              		.global	LCD_Start
 141              		.thumb
 142              		.thumb_func
 143              		.type	LCD_Start, %function
 144              	LCD_Start:
 145              	.LFB2:
 109:.\Generated_Source\PSoC5/LCD.c **** 
 110:.\Generated_Source\PSoC5/LCD.c **** 
 111:.\Generated_Source\PSoC5/LCD.c **** /*******************************************************************************
 112:.\Generated_Source\PSoC5/LCD.c **** * Function Name: LCD_Start
 113:.\Generated_Source\PSoC5/LCD.c **** ********************************************************************************
 114:.\Generated_Source\PSoC5/LCD.c **** *
 115:.\Generated_Source\PSoC5/LCD.c **** * Summary:
 116:.\Generated_Source\PSoC5/LCD.c **** *  Performs initialization required for the components normal work.
 117:.\Generated_Source\PSoC5/LCD.c **** *  This function initializes the LCD hardware module as follows:
 118:.\Generated_Source\PSoC5/LCD.c **** *        Enables 4-bit interface
 119:.\Generated_Source\PSoC5/LCD.c **** *        Clears the display
 120:.\Generated_Source\PSoC5/LCD.c **** *        Enables auto cursor increment
 121:.\Generated_Source\PSoC5/LCD.c **** *        Resets the cursor to start position
 122:.\Generated_Source\PSoC5/LCD.c **** *  Also, it loads a custom character set to the LCD if it was defined in the customizer.
 123:.\Generated_Source\PSoC5/LCD.c **** *  If it was not the first call in this project, then it just turns on the
 124:.\Generated_Source\PSoC5/LCD.c **** *  display
 125:.\Generated_Source\PSoC5/LCD.c **** *
 126:.\Generated_Source\PSoC5/LCD.c **** *
 127:.\Generated_Source\PSoC5/LCD.c **** * Parameters:
 128:.\Generated_Source\PSoC5/LCD.c **** *  LCD_initVar - global variable.
 129:.\Generated_Source\PSoC5/LCD.c **** *
 130:.\Generated_Source\PSoC5/LCD.c **** * Return:
 131:.\Generated_Source\PSoC5/LCD.c **** *  LCD_initVar - global variable.
 132:.\Generated_Source\PSoC5/LCD.c **** *
 133:.\Generated_Source\PSoC5/LCD.c **** * Reentrant:
 134:.\Generated_Source\PSoC5/LCD.c **** *  No.
 135:.\Generated_Source\PSoC5/LCD.c **** *
 136:.\Generated_Source\PSoC5/LCD.c **** *******************************************************************************/
 137:.\Generated_Source\PSoC5/LCD.c **** void LCD_Start(void) 
 138:.\Generated_Source\PSoC5/LCD.c **** {
 146              		.loc 1 138 0
 147              		.cfi_startproc
ARM GAS  C:\Users\khjtony\AppData\Local\Temp\ccFxoGLD.s 			page 6


 148              		@ args = 0, pretend = 0, frame = 0
 149              		@ frame_needed = 1, uses_anonymous_args = 0
 150 0000 80B5     		push	{r7, lr}
 151              		.cfi_def_cfa_offset 8
 152              		.cfi_offset 7, -8
 153              		.cfi_offset 14, -4
 154 0002 00AF     		add	r7, sp, #0
 155              		.cfi_def_cfa_register 7
 139:.\Generated_Source\PSoC5/LCD.c ****     /* If not initialized, perform initialization */
 140:.\Generated_Source\PSoC5/LCD.c ****     if(LCD_initVar == 0u)
 156              		.loc 1 140 0
 157 0004 054B     		ldr	r3, .L7
 158 0006 1B78     		ldrb	r3, [r3]	@ zero_extendqisi2
 159 0008 002B     		cmp	r3, #0
 160 000a 04D1     		bne	.L6
 141:.\Generated_Source\PSoC5/LCD.c ****     {
 142:.\Generated_Source\PSoC5/LCD.c ****         LCD_Init();
 161              		.loc 1 142 0
 162 000c FFF7FEFF 		bl	LCD_Init
 143:.\Generated_Source\PSoC5/LCD.c ****         LCD_initVar = 1u;
 163              		.loc 1 143 0
 164 0010 024B     		ldr	r3, .L7
 165 0012 0122     		movs	r2, #1
 166 0014 1A70     		strb	r2, [r3]
 167              	.L6:
 144:.\Generated_Source\PSoC5/LCD.c ****     }
 145:.\Generated_Source\PSoC5/LCD.c **** 
 146:.\Generated_Source\PSoC5/LCD.c ****     /* Turn on the LCD */
 147:.\Generated_Source\PSoC5/LCD.c ****     LCD_Enable();
 168              		.loc 1 147 0
 169 0016 FFF7FEFF 		bl	LCD_Enable
 148:.\Generated_Source\PSoC5/LCD.c **** }
 170              		.loc 1 148 0
 171 001a 80BD     		pop	{r7, pc}
 172              	.L8:
 173              		.align	2
 174              	.L7:
 175 001c 00000000 		.word	LCD_initVar
 176              		.cfi_endproc
 177              	.LFE2:
 178              		.size	LCD_Start, .-LCD_Start
 179              		.section	.text.LCD_Stop,"ax",%progbits
 180              		.align	2
 181              		.global	LCD_Stop
 182              		.thumb
 183              		.thumb_func
 184              		.type	LCD_Stop, %function
 185              	LCD_Stop:
 186              	.LFB3:
 149:.\Generated_Source\PSoC5/LCD.c **** 
 150:.\Generated_Source\PSoC5/LCD.c **** 
 151:.\Generated_Source\PSoC5/LCD.c **** /*******************************************************************************
 152:.\Generated_Source\PSoC5/LCD.c **** * Function Name: LCD_Stop
 153:.\Generated_Source\PSoC5/LCD.c **** ********************************************************************************
 154:.\Generated_Source\PSoC5/LCD.c **** *
 155:.\Generated_Source\PSoC5/LCD.c **** * Summary:
 156:.\Generated_Source\PSoC5/LCD.c **** *  Turns off the display of the LCD screen.
ARM GAS  C:\Users\khjtony\AppData\Local\Temp\ccFxoGLD.s 			page 7


 157:.\Generated_Source\PSoC5/LCD.c **** *
 158:.\Generated_Source\PSoC5/LCD.c **** * Parameters:
 159:.\Generated_Source\PSoC5/LCD.c **** *  None.
 160:.\Generated_Source\PSoC5/LCD.c **** *
 161:.\Generated_Source\PSoC5/LCD.c **** * Return:
 162:.\Generated_Source\PSoC5/LCD.c **** *  None.
 163:.\Generated_Source\PSoC5/LCD.c **** *
 164:.\Generated_Source\PSoC5/LCD.c **** * Reentrant:
 165:.\Generated_Source\PSoC5/LCD.c **** *  No.
 166:.\Generated_Source\PSoC5/LCD.c **** *
 167:.\Generated_Source\PSoC5/LCD.c **** *******************************************************************************/
 168:.\Generated_Source\PSoC5/LCD.c **** void LCD_Stop(void) 
 169:.\Generated_Source\PSoC5/LCD.c **** {
 187              		.loc 1 169 0
 188              		.cfi_startproc
 189              		@ args = 0, pretend = 0, frame = 0
 190              		@ frame_needed = 1, uses_anonymous_args = 0
 191 0000 80B5     		push	{r7, lr}
 192              		.cfi_def_cfa_offset 8
 193              		.cfi_offset 7, -8
 194              		.cfi_offset 14, -4
 195 0002 00AF     		add	r7, sp, #0
 196              		.cfi_def_cfa_register 7
 170:.\Generated_Source\PSoC5/LCD.c ****     /* Calls LCD Off Macro */
 171:.\Generated_Source\PSoC5/LCD.c ****     LCD_DisplayOff();
 197              		.loc 1 171 0
 198 0004 0820     		movs	r0, #8
 199 0006 FFF7FEFF 		bl	LCD_WriteControl
 172:.\Generated_Source\PSoC5/LCD.c ****     LCD_enableState = 0u;
 200              		.loc 1 172 0
 201 000a 024B     		ldr	r3, .L10
 202 000c 0022     		movs	r2, #0
 203 000e 1A70     		strb	r2, [r3]
 173:.\Generated_Source\PSoC5/LCD.c **** }
 204              		.loc 1 173 0
 205 0010 80BD     		pop	{r7, pc}
 206              	.L11:
 207 0012 00BF     		.align	2
 208              	.L10:
 209 0014 00000000 		.word	LCD_enableState
 210              		.cfi_endproc
 211              	.LFE3:
 212              		.size	LCD_Stop, .-LCD_Stop
 213              		.section	.text.LCD_Position,"ax",%progbits
 214              		.align	2
 215              		.global	LCD_Position
 216              		.thumb
 217              		.thumb_func
 218              		.type	LCD_Position, %function
 219              	LCD_Position:
 220              	.LFB4:
 174:.\Generated_Source\PSoC5/LCD.c **** 
 175:.\Generated_Source\PSoC5/LCD.c **** 
 176:.\Generated_Source\PSoC5/LCD.c **** /*******************************************************************************
 177:.\Generated_Source\PSoC5/LCD.c **** *  Function Name: LCD_Position
 178:.\Generated_Source\PSoC5/LCD.c **** ********************************************************************************
 179:.\Generated_Source\PSoC5/LCD.c **** *
ARM GAS  C:\Users\khjtony\AppData\Local\Temp\ccFxoGLD.s 			page 8


 180:.\Generated_Source\PSoC5/LCD.c **** * Summary:
 181:.\Generated_Source\PSoC5/LCD.c **** *  Moves the active cursor location to a point specified by the input arguments
 182:.\Generated_Source\PSoC5/LCD.c **** *
 183:.\Generated_Source\PSoC5/LCD.c **** * Parameters:
 184:.\Generated_Source\PSoC5/LCD.c **** *  row:    Specific row of LCD module to be written
 185:.\Generated_Source\PSoC5/LCD.c **** *  column: Column of LCD module to be written
 186:.\Generated_Source\PSoC5/LCD.c **** *
 187:.\Generated_Source\PSoC5/LCD.c **** * Return:
 188:.\Generated_Source\PSoC5/LCD.c **** *  None.
 189:.\Generated_Source\PSoC5/LCD.c **** *
 190:.\Generated_Source\PSoC5/LCD.c **** * Note:
 191:.\Generated_Source\PSoC5/LCD.c **** *  This only applies for LCD displays that use the 2X40 address mode.
 192:.\Generated_Source\PSoC5/LCD.c **** *  In this case Row 2 starts with a 0x28 offset from Row 1.
 193:.\Generated_Source\PSoC5/LCD.c **** *  When there are more than 2 rows, each row must be fewer than 20 characters.
 194:.\Generated_Source\PSoC5/LCD.c **** *
 195:.\Generated_Source\PSoC5/LCD.c **** *******************************************************************************/
 196:.\Generated_Source\PSoC5/LCD.c **** void LCD_Position(uint8 row, uint8 column) 
 197:.\Generated_Source\PSoC5/LCD.c **** {
 221              		.loc 1 197 0
 222              		.cfi_startproc
 223              		@ args = 0, pretend = 0, frame = 8
 224              		@ frame_needed = 1, uses_anonymous_args = 0
 225 0000 80B5     		push	{r7, lr}
 226              		.cfi_def_cfa_offset 8
 227              		.cfi_offset 7, -8
 228              		.cfi_offset 14, -4
 229 0002 82B0     		sub	sp, sp, #8
 230              		.cfi_def_cfa_offset 16
 231 0004 00AF     		add	r7, sp, #0
 232              		.cfi_def_cfa_register 7
 233 0006 0246     		mov	r2, r0
 234 0008 0B46     		mov	r3, r1
 235 000a FA71     		strb	r2, [r7, #7]
 236 000c BB71     		strb	r3, [r7, #6]
 198:.\Generated_Source\PSoC5/LCD.c ****     switch (row)
 237              		.loc 1 198 0
 238 000e FB79     		ldrb	r3, [r7, #7]	@ zero_extendqisi2
 239 0010 032B     		cmp	r3, #3
 240 0012 27D8     		bhi	.L20
 241 0014 01A2     		adr	r2, .L15
 242 0016 52F823F0 		ldr	pc, [r2, r3, lsl #2]
 243 001a 00BF     		.p2align 2
 244              	.L15:
 245 001c 2D000000 		.word	.L14+1
 246 0020 3B000000 		.word	.L16+1
 247 0024 49000000 		.word	.L17+1
 248 0028 57000000 		.word	.L18+1
 249              		.p2align 1
 250              	.L14:
 199:.\Generated_Source\PSoC5/LCD.c ****     {
 200:.\Generated_Source\PSoC5/LCD.c ****         case (uint8)0:
 201:.\Generated_Source\PSoC5/LCD.c ****             LCD_WriteControl(LCD_ROW_0_START + column);
 251              		.loc 1 201 0
 252 002c BB79     		ldrb	r3, [r7, #6]
 253 002e 803B     		subs	r3, r3, #128
 254 0030 DBB2     		uxtb	r3, r3
 255 0032 1846     		mov	r0, r3
ARM GAS  C:\Users\khjtony\AppData\Local\Temp\ccFxoGLD.s 			page 9


 256 0034 FFF7FEFF 		bl	LCD_WriteControl
 202:.\Generated_Source\PSoC5/LCD.c ****             break;
 257              		.loc 1 202 0
 258 0038 15E0     		b	.L12
 259              	.L16:
 203:.\Generated_Source\PSoC5/LCD.c ****         case (uint8) 1:
 204:.\Generated_Source\PSoC5/LCD.c ****             LCD_WriteControl(LCD_ROW_1_START + column);
 260              		.loc 1 204 0
 261 003a BB79     		ldrb	r3, [r7, #6]
 262 003c 403B     		subs	r3, r3, #64
 263 003e DBB2     		uxtb	r3, r3
 264 0040 1846     		mov	r0, r3
 265 0042 FFF7FEFF 		bl	LCD_WriteControl
 205:.\Generated_Source\PSoC5/LCD.c ****             break;
 266              		.loc 1 205 0
 267 0046 0EE0     		b	.L12
 268              	.L17:
 206:.\Generated_Source\PSoC5/LCD.c ****         case (uint8) 2:
 207:.\Generated_Source\PSoC5/LCD.c ****             LCD_WriteControl(LCD_ROW_2_START + column);
 269              		.loc 1 207 0
 270 0048 BB79     		ldrb	r3, [r7, #6]
 271 004a 6C3B     		subs	r3, r3, #108
 272 004c DBB2     		uxtb	r3, r3
 273 004e 1846     		mov	r0, r3
 274 0050 FFF7FEFF 		bl	LCD_WriteControl
 208:.\Generated_Source\PSoC5/LCD.c ****             break;
 275              		.loc 1 208 0
 276 0054 07E0     		b	.L12
 277              	.L18:
 209:.\Generated_Source\PSoC5/LCD.c ****         case (uint8) 3:
 210:.\Generated_Source\PSoC5/LCD.c ****             LCD_WriteControl(LCD_ROW_3_START + column);
 278              		.loc 1 210 0
 279 0056 BB79     		ldrb	r3, [r7, #6]
 280 0058 2C3B     		subs	r3, r3, #44
 281 005a DBB2     		uxtb	r3, r3
 282 005c 1846     		mov	r0, r3
 283 005e FFF7FEFF 		bl	LCD_WriteControl
 211:.\Generated_Source\PSoC5/LCD.c ****             break;
 284              		.loc 1 211 0
 285 0062 00E0     		b	.L12
 286              	.L20:
 212:.\Generated_Source\PSoC5/LCD.c ****         default:
 213:.\Generated_Source\PSoC5/LCD.c ****             /* if default case is hit, invalid row argument was passed.*/
 214:.\Generated_Source\PSoC5/LCD.c ****             break;
 287              		.loc 1 214 0
 288 0064 00BF     		nop
 289              	.L12:
 215:.\Generated_Source\PSoC5/LCD.c ****     }
 216:.\Generated_Source\PSoC5/LCD.c **** }
 290              		.loc 1 216 0
 291 0066 0837     		adds	r7, r7, #8
 292 0068 BD46     		mov	sp, r7
 293              		@ sp needed
 294 006a 80BD     		pop	{r7, pc}
 295              		.cfi_endproc
 296              	.LFE4:
 297              		.size	LCD_Position, .-LCD_Position
ARM GAS  C:\Users\khjtony\AppData\Local\Temp\ccFxoGLD.s 			page 10


 298              		.section	.text.LCD_PrintString,"ax",%progbits
 299              		.align	2
 300              		.global	LCD_PrintString
 301              		.thumb
 302              		.thumb_func
 303              		.type	LCD_PrintString, %function
 304              	LCD_PrintString:
 305              	.LFB5:
 217:.\Generated_Source\PSoC5/LCD.c **** 
 218:.\Generated_Source\PSoC5/LCD.c **** 
 219:.\Generated_Source\PSoC5/LCD.c **** /*******************************************************************************
 220:.\Generated_Source\PSoC5/LCD.c **** * Function Name: LCD_PrintString
 221:.\Generated_Source\PSoC5/LCD.c **** ********************************************************************************
 222:.\Generated_Source\PSoC5/LCD.c **** *
 223:.\Generated_Source\PSoC5/LCD.c **** * Summary:
 224:.\Generated_Source\PSoC5/LCD.c **** *  Writes a zero terminated string to the LCD.
 225:.\Generated_Source\PSoC5/LCD.c **** *
 226:.\Generated_Source\PSoC5/LCD.c **** * Parameters:
 227:.\Generated_Source\PSoC5/LCD.c **** *  string: Pointer to head of char8 array to be written to the LCD module
 228:.\Generated_Source\PSoC5/LCD.c **** *
 229:.\Generated_Source\PSoC5/LCD.c **** * Return:
 230:.\Generated_Source\PSoC5/LCD.c **** *  None.
 231:.\Generated_Source\PSoC5/LCD.c **** *
 232:.\Generated_Source\PSoC5/LCD.c **** *******************************************************************************/
 233:.\Generated_Source\PSoC5/LCD.c **** void LCD_PrintString(char8 const string[]) 
 234:.\Generated_Source\PSoC5/LCD.c **** {
 306              		.loc 1 234 0
 307              		.cfi_startproc
 308              		@ args = 0, pretend = 0, frame = 16
 309              		@ frame_needed = 1, uses_anonymous_args = 0
 310 0000 80B5     		push	{r7, lr}
 311              		.cfi_def_cfa_offset 8
 312              		.cfi_offset 7, -8
 313              		.cfi_offset 14, -4
 314 0002 84B0     		sub	sp, sp, #16
 315              		.cfi_def_cfa_offset 24
 316 0004 00AF     		add	r7, sp, #0
 317              		.cfi_def_cfa_register 7
 318 0006 7860     		str	r0, [r7, #4]
 235:.\Generated_Source\PSoC5/LCD.c ****     uint8 indexU8 = 1u;
 319              		.loc 1 235 0
 320 0008 0123     		movs	r3, #1
 321 000a FB73     		strb	r3, [r7, #15]
 236:.\Generated_Source\PSoC5/LCD.c ****     char8 current = *string;
 322              		.loc 1 236 0
 323 000c 7B68     		ldr	r3, [r7, #4]
 324 000e 1B78     		ldrb	r3, [r3]
 325 0010 BB73     		strb	r3, [r7, #14]
 237:.\Generated_Source\PSoC5/LCD.c **** 
 238:.\Generated_Source\PSoC5/LCD.c ****     /* Until null is reached, print next character */
 239:.\Generated_Source\PSoC5/LCD.c ****     while((char8) '\0' != current)
 326              		.loc 1 239 0
 327 0012 0BE0     		b	.L22
 328              	.L23:
 240:.\Generated_Source\PSoC5/LCD.c ****     {
 241:.\Generated_Source\PSoC5/LCD.c ****         LCD_WriteData((uint8)current);
 329              		.loc 1 241 0
ARM GAS  C:\Users\khjtony\AppData\Local\Temp\ccFxoGLD.s 			page 11


 330 0014 BB7B     		ldrb	r3, [r7, #14]	@ zero_extendqisi2
 331 0016 1846     		mov	r0, r3
 332 0018 FFF7FEFF 		bl	LCD_WriteData
 242:.\Generated_Source\PSoC5/LCD.c ****         current = string[indexU8];
 333              		.loc 1 242 0
 334 001c FB7B     		ldrb	r3, [r7, #15]	@ zero_extendqisi2
 335 001e 7A68     		ldr	r2, [r7, #4]
 336 0020 1344     		add	r3, r3, r2
 337 0022 1B78     		ldrb	r3, [r3]
 338 0024 BB73     		strb	r3, [r7, #14]
 243:.\Generated_Source\PSoC5/LCD.c ****         indexU8++;
 339              		.loc 1 243 0
 340 0026 FB7B     		ldrb	r3, [r7, #15]	@ zero_extendqisi2
 341 0028 0133     		adds	r3, r3, #1
 342 002a FB73     		strb	r3, [r7, #15]
 343              	.L22:
 239:.\Generated_Source\PSoC5/LCD.c ****     while((char8) '\0' != current)
 344              		.loc 1 239 0 discriminator 1
 345 002c BB7B     		ldrb	r3, [r7, #14]	@ zero_extendqisi2
 346 002e 002B     		cmp	r3, #0
 347 0030 F0D1     		bne	.L23
 244:.\Generated_Source\PSoC5/LCD.c ****     }
 245:.\Generated_Source\PSoC5/LCD.c **** }
 348              		.loc 1 245 0
 349 0032 1037     		adds	r7, r7, #16
 350 0034 BD46     		mov	sp, r7
 351              		@ sp needed
 352 0036 80BD     		pop	{r7, pc}
 353              		.cfi_endproc
 354              	.LFE5:
 355              		.size	LCD_PrintString, .-LCD_PrintString
 356              		.section	.text.LCD_PutChar,"ax",%progbits
 357              		.align	2
 358              		.global	LCD_PutChar
 359              		.thumb
 360              		.thumb_func
 361              		.type	LCD_PutChar, %function
 362              	LCD_PutChar:
 363              	.LFB6:
 246:.\Generated_Source\PSoC5/LCD.c **** 
 247:.\Generated_Source\PSoC5/LCD.c **** 
 248:.\Generated_Source\PSoC5/LCD.c **** /*******************************************************************************
 249:.\Generated_Source\PSoC5/LCD.c **** *  Function Name: LCD_PutChar
 250:.\Generated_Source\PSoC5/LCD.c **** ********************************************************************************
 251:.\Generated_Source\PSoC5/LCD.c **** *
 252:.\Generated_Source\PSoC5/LCD.c **** * Summary:
 253:.\Generated_Source\PSoC5/LCD.c **** *  Writes a single character to the current cursor position of the LCD module.
 254:.\Generated_Source\PSoC5/LCD.c **** *  Custom character names (_CUSTOM_0 through
 255:.\Generated_Source\PSoC5/LCD.c **** *  _CUSTOM_7) are acceptable as inputs.
 256:.\Generated_Source\PSoC5/LCD.c **** *
 257:.\Generated_Source\PSoC5/LCD.c **** * Parameters:
 258:.\Generated_Source\PSoC5/LCD.c **** *  character: Character to be written to LCD
 259:.\Generated_Source\PSoC5/LCD.c **** *
 260:.\Generated_Source\PSoC5/LCD.c **** * Return:
 261:.\Generated_Source\PSoC5/LCD.c **** *  None.
 262:.\Generated_Source\PSoC5/LCD.c **** *
 263:.\Generated_Source\PSoC5/LCD.c **** *******************************************************************************/
ARM GAS  C:\Users\khjtony\AppData\Local\Temp\ccFxoGLD.s 			page 12


 264:.\Generated_Source\PSoC5/LCD.c **** void LCD_PutChar(char8 character) 
 265:.\Generated_Source\PSoC5/LCD.c **** {
 364              		.loc 1 265 0
 365              		.cfi_startproc
 366              		@ args = 0, pretend = 0, frame = 8
 367              		@ frame_needed = 1, uses_anonymous_args = 0
 368 0000 80B5     		push	{r7, lr}
 369              		.cfi_def_cfa_offset 8
 370              		.cfi_offset 7, -8
 371              		.cfi_offset 14, -4
 372 0002 82B0     		sub	sp, sp, #8
 373              		.cfi_def_cfa_offset 16
 374 0004 00AF     		add	r7, sp, #0
 375              		.cfi_def_cfa_register 7
 376 0006 0346     		mov	r3, r0
 377 0008 FB71     		strb	r3, [r7, #7]
 266:.\Generated_Source\PSoC5/LCD.c ****     LCD_WriteData((uint8)character);
 378              		.loc 1 266 0
 379 000a FB79     		ldrb	r3, [r7, #7]	@ zero_extendqisi2
 380 000c 1846     		mov	r0, r3
 381 000e FFF7FEFF 		bl	LCD_WriteData
 267:.\Generated_Source\PSoC5/LCD.c **** }
 382              		.loc 1 267 0
 383 0012 0837     		adds	r7, r7, #8
 384 0014 BD46     		mov	sp, r7
 385              		@ sp needed
 386 0016 80BD     		pop	{r7, pc}
 387              		.cfi_endproc
 388              	.LFE6:
 389              		.size	LCD_PutChar, .-LCD_PutChar
 390              		.section	.text.LCD_WriteData,"ax",%progbits
 391              		.align	2
 392              		.global	LCD_WriteData
 393              		.thumb
 394              		.thumb_func
 395              		.type	LCD_WriteData, %function
 396              	LCD_WriteData:
 397              	.LFB7:
 268:.\Generated_Source\PSoC5/LCD.c **** 
 269:.\Generated_Source\PSoC5/LCD.c **** 
 270:.\Generated_Source\PSoC5/LCD.c **** /*******************************************************************************
 271:.\Generated_Source\PSoC5/LCD.c **** *  Function Name: LCD_WriteData
 272:.\Generated_Source\PSoC5/LCD.c **** ********************************************************************************
 273:.\Generated_Source\PSoC5/LCD.c **** *
 274:.\Generated_Source\PSoC5/LCD.c **** * Summary:
 275:.\Generated_Source\PSoC5/LCD.c **** *  Writes a data byte to the LCD module's Data Display RAM.
 276:.\Generated_Source\PSoC5/LCD.c **** *
 277:.\Generated_Source\PSoC5/LCD.c **** * Parameters:
 278:.\Generated_Source\PSoC5/LCD.c **** *  dByte: Byte to be written to the LCD module
 279:.\Generated_Source\PSoC5/LCD.c **** *
 280:.\Generated_Source\PSoC5/LCD.c **** * Return:
 281:.\Generated_Source\PSoC5/LCD.c **** *  None.
 282:.\Generated_Source\PSoC5/LCD.c **** *
 283:.\Generated_Source\PSoC5/LCD.c **** *******************************************************************************/
 284:.\Generated_Source\PSoC5/LCD.c **** void LCD_WriteData(uint8 dByte) 
 285:.\Generated_Source\PSoC5/LCD.c **** {
 398              		.loc 1 285 0
ARM GAS  C:\Users\khjtony\AppData\Local\Temp\ccFxoGLD.s 			page 13


 399              		.cfi_startproc
 400              		@ args = 0, pretend = 0, frame = 16
 401              		@ frame_needed = 1, uses_anonymous_args = 0
 402 0000 80B5     		push	{r7, lr}
 403              		.cfi_def_cfa_offset 8
 404              		.cfi_offset 7, -8
 405              		.cfi_offset 14, -4
 406 0002 84B0     		sub	sp, sp, #16
 407              		.cfi_def_cfa_offset 24
 408 0004 00AF     		add	r7, sp, #0
 409              		.cfi_def_cfa_register 7
 410 0006 0346     		mov	r3, r0
 411 0008 FB71     		strb	r3, [r7, #7]
 286:.\Generated_Source\PSoC5/LCD.c ****     uint8 nibble;
 287:.\Generated_Source\PSoC5/LCD.c **** 
 288:.\Generated_Source\PSoC5/LCD.c ****     LCD_IsReady();
 412              		.loc 1 288 0
 413 000a FFF7FEFF 		bl	LCD_IsReady
 289:.\Generated_Source\PSoC5/LCD.c ****     nibble = dByte >> LCD_NIBBLE_SHIFT;
 414              		.loc 1 289 0
 415 000e FB79     		ldrb	r3, [r7, #7]	@ zero_extendqisi2
 416 0010 1B09     		lsrs	r3, r3, #4
 417 0012 FB73     		strb	r3, [r7, #15]
 290:.\Generated_Source\PSoC5/LCD.c **** 
 291:.\Generated_Source\PSoC5/LCD.c ****     /* Write high nibble */
 292:.\Generated_Source\PSoC5/LCD.c ****     LCD_WrDatNib(nibble);
 418              		.loc 1 292 0
 419 0014 FB7B     		ldrb	r3, [r7, #15]	@ zero_extendqisi2
 420 0016 1846     		mov	r0, r3
 421 0018 FFF7FEFF 		bl	LCD_WrDatNib
 293:.\Generated_Source\PSoC5/LCD.c **** 
 294:.\Generated_Source\PSoC5/LCD.c ****     nibble = dByte & LCD_NIBBLE_MASK;
 422              		.loc 1 294 0
 423 001c FB79     		ldrb	r3, [r7, #7]
 424 001e 03F00F03 		and	r3, r3, #15
 425 0022 FB73     		strb	r3, [r7, #15]
 295:.\Generated_Source\PSoC5/LCD.c ****     /* Write low nibble */
 296:.\Generated_Source\PSoC5/LCD.c ****     LCD_WrDatNib(nibble);
 426              		.loc 1 296 0
 427 0024 FB7B     		ldrb	r3, [r7, #15]	@ zero_extendqisi2
 428 0026 1846     		mov	r0, r3
 429 0028 FFF7FEFF 		bl	LCD_WrDatNib
 297:.\Generated_Source\PSoC5/LCD.c **** }
 430              		.loc 1 297 0
 431 002c 1037     		adds	r7, r7, #16
 432 002e BD46     		mov	sp, r7
 433              		@ sp needed
 434 0030 80BD     		pop	{r7, pc}
 435              		.cfi_endproc
 436              	.LFE7:
 437              		.size	LCD_WriteData, .-LCD_WriteData
 438 0032 00BF     		.section	.text.LCD_WriteControl,"ax",%progbits
 439              		.align	2
 440              		.global	LCD_WriteControl
 441              		.thumb
 442              		.thumb_func
 443              		.type	LCD_WriteControl, %function
ARM GAS  C:\Users\khjtony\AppData\Local\Temp\ccFxoGLD.s 			page 14


 444              	LCD_WriteControl:
 445              	.LFB8:
 298:.\Generated_Source\PSoC5/LCD.c **** 
 299:.\Generated_Source\PSoC5/LCD.c **** 
 300:.\Generated_Source\PSoC5/LCD.c **** /*******************************************************************************
 301:.\Generated_Source\PSoC5/LCD.c **** *  Function Name: LCD_WriteControl
 302:.\Generated_Source\PSoC5/LCD.c **** ********************************************************************************
 303:.\Generated_Source\PSoC5/LCD.c **** *
 304:.\Generated_Source\PSoC5/LCD.c **** * Summary:
 305:.\Generated_Source\PSoC5/LCD.c **** *  Writes a command byte to the LCD module.
 306:.\Generated_Source\PSoC5/LCD.c **** *
 307:.\Generated_Source\PSoC5/LCD.c **** * Parameters:
 308:.\Generated_Source\PSoC5/LCD.c **** *  cByte:  The byte to be written to theLCD module
 309:.\Generated_Source\PSoC5/LCD.c **** * 
 310:.\Generated_Source\PSoC5/LCD.c **** * Return:
 311:.\Generated_Source\PSoC5/LCD.c **** *  None.
 312:.\Generated_Source\PSoC5/LCD.c **** *
 313:.\Generated_Source\PSoC5/LCD.c **** *******************************************************************************/
 314:.\Generated_Source\PSoC5/LCD.c **** void LCD_WriteControl(uint8 cByte) 
 315:.\Generated_Source\PSoC5/LCD.c **** {
 446              		.loc 1 315 0
 447              		.cfi_startproc
 448              		@ args = 0, pretend = 0, frame = 16
 449              		@ frame_needed = 1, uses_anonymous_args = 0
 450 0000 80B5     		push	{r7, lr}
 451              		.cfi_def_cfa_offset 8
 452              		.cfi_offset 7, -8
 453              		.cfi_offset 14, -4
 454 0002 84B0     		sub	sp, sp, #16
 455              		.cfi_def_cfa_offset 24
 456 0004 00AF     		add	r7, sp, #0
 457              		.cfi_def_cfa_register 7
 458 0006 0346     		mov	r3, r0
 459 0008 FB71     		strb	r3, [r7, #7]
 316:.\Generated_Source\PSoC5/LCD.c ****     uint8 nibble;
 317:.\Generated_Source\PSoC5/LCD.c **** 
 318:.\Generated_Source\PSoC5/LCD.c ****     LCD_IsReady();
 460              		.loc 1 318 0
 461 000a FFF7FEFF 		bl	LCD_IsReady
 319:.\Generated_Source\PSoC5/LCD.c **** 
 320:.\Generated_Source\PSoC5/LCD.c ****     nibble = cByte >> LCD_NIBBLE_SHIFT;
 462              		.loc 1 320 0
 463 000e FB79     		ldrb	r3, [r7, #7]	@ zero_extendqisi2
 464 0010 1B09     		lsrs	r3, r3, #4
 465 0012 FB73     		strb	r3, [r7, #15]
 321:.\Generated_Source\PSoC5/LCD.c ****     
 322:.\Generated_Source\PSoC5/LCD.c ****     /* WrCntrlNib(High Nibble) */
 323:.\Generated_Source\PSoC5/LCD.c ****     LCD_WrCntrlNib(nibble);
 466              		.loc 1 323 0
 467 0014 FB7B     		ldrb	r3, [r7, #15]	@ zero_extendqisi2
 468 0016 1846     		mov	r0, r3
 469 0018 FFF7FEFF 		bl	LCD_WrCntrlNib
 324:.\Generated_Source\PSoC5/LCD.c ****     nibble = cByte & LCD_NIBBLE_MASK;
 470              		.loc 1 324 0
 471 001c FB79     		ldrb	r3, [r7, #7]
 472 001e 03F00F03 		and	r3, r3, #15
 473 0022 FB73     		strb	r3, [r7, #15]
ARM GAS  C:\Users\khjtony\AppData\Local\Temp\ccFxoGLD.s 			page 15


 325:.\Generated_Source\PSoC5/LCD.c **** 
 326:.\Generated_Source\PSoC5/LCD.c ****     /* WrCntrlNib(Low Nibble) */
 327:.\Generated_Source\PSoC5/LCD.c ****     LCD_WrCntrlNib(nibble);
 474              		.loc 1 327 0
 475 0024 FB7B     		ldrb	r3, [r7, #15]	@ zero_extendqisi2
 476 0026 1846     		mov	r0, r3
 477 0028 FFF7FEFF 		bl	LCD_WrCntrlNib
 328:.\Generated_Source\PSoC5/LCD.c **** }
 478              		.loc 1 328 0
 479 002c 1037     		adds	r7, r7, #16
 480 002e BD46     		mov	sp, r7
 481              		@ sp needed
 482 0030 80BD     		pop	{r7, pc}
 483              		.cfi_endproc
 484              	.LFE8:
 485              		.size	LCD_WriteControl, .-LCD_WriteControl
 486 0032 00BF     		.section	.text.LCD_IsReady,"ax",%progbits
 487              		.align	2
 488              		.global	LCD_IsReady
 489              		.thumb
 490              		.thumb_func
 491              		.type	LCD_IsReady, %function
 492              	LCD_IsReady:
 493              	.LFB9:
 329:.\Generated_Source\PSoC5/LCD.c **** 
 330:.\Generated_Source\PSoC5/LCD.c **** 
 331:.\Generated_Source\PSoC5/LCD.c **** /*******************************************************************************
 332:.\Generated_Source\PSoC5/LCD.c **** * Function Name: LCD_IsReady
 333:.\Generated_Source\PSoC5/LCD.c **** ********************************************************************************
 334:.\Generated_Source\PSoC5/LCD.c **** *
 335:.\Generated_Source\PSoC5/LCD.c **** * Summary:
 336:.\Generated_Source\PSoC5/LCD.c **** *  Polls the LCD until the ready bit is set or a timeout occurs.
 337:.\Generated_Source\PSoC5/LCD.c **** *
 338:.\Generated_Source\PSoC5/LCD.c **** * Parameters:
 339:.\Generated_Source\PSoC5/LCD.c **** *  None.
 340:.\Generated_Source\PSoC5/LCD.c **** *
 341:.\Generated_Source\PSoC5/LCD.c **** * Return:
 342:.\Generated_Source\PSoC5/LCD.c **** *  None.
 343:.\Generated_Source\PSoC5/LCD.c **** *
 344:.\Generated_Source\PSoC5/LCD.c **** * Note:
 345:.\Generated_Source\PSoC5/LCD.c **** *  Changes the pins to High-Z.
 346:.\Generated_Source\PSoC5/LCD.c **** *
 347:.\Generated_Source\PSoC5/LCD.c **** *******************************************************************************/
 348:.\Generated_Source\PSoC5/LCD.c **** void LCD_IsReady(void) 
 349:.\Generated_Source\PSoC5/LCD.c **** {
 494              		.loc 1 349 0
 495              		.cfi_startproc
 496              		@ args = 0, pretend = 0, frame = 8
 497              		@ frame_needed = 1, uses_anonymous_args = 0
 498 0000 80B5     		push	{r7, lr}
 499              		.cfi_def_cfa_offset 8
 500              		.cfi_offset 7, -8
 501              		.cfi_offset 14, -4
 502 0002 82B0     		sub	sp, sp, #8
 503              		.cfi_def_cfa_offset 16
 504 0004 00AF     		add	r7, sp, #0
 505              		.cfi_def_cfa_register 7
ARM GAS  C:\Users\khjtony\AppData\Local\Temp\ccFxoGLD.s 			page 16


 350:.\Generated_Source\PSoC5/LCD.c ****     uint8 value;
 351:.\Generated_Source\PSoC5/LCD.c ****     uint32 timeout;
 352:.\Generated_Source\PSoC5/LCD.c ****     timeout = LCD_READY_DELAY;
 506              		.loc 1 352 0
 507 0006 4FF4CA73 		mov	r3, #404
 508 000a 7B60     		str	r3, [r7, #4]
 353:.\Generated_Source\PSoC5/LCD.c **** 
 354:.\Generated_Source\PSoC5/LCD.c ****     /* Clear LCD port*/
 355:.\Generated_Source\PSoC5/LCD.c ****     LCD_PORT_DR_REG &= ((uint8)(~LCD_PORT_MASK));
 509              		.loc 1 355 0
 510 000c 554B     		ldr	r3, .L31
 511 000e 554A     		ldr	r2, .L31
 512 0010 1278     		ldrb	r2, [r2]
 513 0012 D2B2     		uxtb	r2, r2
 514 0014 22F07F02 		bic	r2, r2, #127
 515 0018 D2B2     		uxtb	r2, r2
 516 001a 1A70     		strb	r2, [r3]
 356:.\Generated_Source\PSoC5/LCD.c **** 
 357:.\Generated_Source\PSoC5/LCD.c ****     /* PSoC4 has a little different from PSoC3/5 port/pin organization for setting Drive Modes.
 358:.\Generated_Source\PSoC5/LCD.c ****   
 359:.\Generated_Source\PSoC5/LCD.c ****     */
 360:.\Generated_Source\PSoC5/LCD.c ****     #if (CY_PSOC4)
 361:.\Generated_Source\PSoC5/LCD.c ****         
 362:.\Generated_Source\PSoC5/LCD.c ****         /* Mask off data pins to clear old values out */
 363:.\Generated_Source\PSoC5/LCD.c ****         value = LCD_PORT_PC_REG & ((uint32) (~ LCD_DM_DATA_MASK));
 364:.\Generated_Source\PSoC5/LCD.c ****         /* Load in high Z values for data pins, others unchanged */
 365:.\Generated_Source\PSoC5/LCD.c ****         LCD_PORT_PC_REG = value | LCD_HIGH_Z_DATA_DM;
 366:.\Generated_Source\PSoC5/LCD.c **** 
 367:.\Generated_Source\PSoC5/LCD.c ****     #else
 368:.\Generated_Source\PSoC5/LCD.c ****     
 369:.\Generated_Source\PSoC5/LCD.c ****         /* Change Port to High-Z Status on data pins */
 370:.\Generated_Source\PSoC5/LCD.c **** 
 371:.\Generated_Source\PSoC5/LCD.c ****         /* Mask off data pins to clear old values out */
 372:.\Generated_Source\PSoC5/LCD.c ****         value = LCD_PORT_DM0_REG & ((uint8)(~LCD_DATA_MASK));
 517              		.loc 1 372 0
 518 001c 524B     		ldr	r3, .L31+4
 519 001e 1B78     		ldrb	r3, [r3]
 520 0020 DBB2     		uxtb	r3, r3
 521 0022 23F00F03 		bic	r3, r3, #15
 522 0026 FB70     		strb	r3, [r7, #3]
 373:.\Generated_Source\PSoC5/LCD.c ****         /* Load in high Z values for data pins, others unchanged */
 374:.\Generated_Source\PSoC5/LCD.c ****         LCD_PORT_DM0_REG = value | (LCD_HIGH_Z_DM0 & LCD_DATA_MASK);
 523              		.loc 1 374 0
 524 0028 4F4B     		ldr	r3, .L31+4
 525 002a FA78     		ldrb	r2, [r7, #3]
 526 002c 42F00F02 		orr	r2, r2, #15
 527 0030 D2B2     		uxtb	r2, r2
 528 0032 1A70     		strb	r2, [r3]
 375:.\Generated_Source\PSoC5/LCD.c **** 
 376:.\Generated_Source\PSoC5/LCD.c ****         /* Mask off data pins to clear old values out */
 377:.\Generated_Source\PSoC5/LCD.c ****         value = LCD_PORT_DM1_REG & ((uint8)(~LCD_DATA_MASK));
 529              		.loc 1 377 0
 530 0034 4D4B     		ldr	r3, .L31+8
 531 0036 1B78     		ldrb	r3, [r3]
 532 0038 DBB2     		uxtb	r3, r3
 533 003a 23F00F03 		bic	r3, r3, #15
 534 003e FB70     		strb	r3, [r7, #3]
ARM GAS  C:\Users\khjtony\AppData\Local\Temp\ccFxoGLD.s 			page 17


 378:.\Generated_Source\PSoC5/LCD.c ****         /* Load in high Z values for data pins, others unchanged */
 379:.\Generated_Source\PSoC5/LCD.c ****         LCD_PORT_DM1_REG = value;
 535              		.loc 1 379 0
 536 0040 4A4B     		ldr	r3, .L31+8
 537 0042 FA78     		ldrb	r2, [r7, #3]
 538 0044 1A70     		strb	r2, [r3]
 380:.\Generated_Source\PSoC5/LCD.c **** 
 381:.\Generated_Source\PSoC5/LCD.c ****         /* Mask off data pins to clear old values out */
 382:.\Generated_Source\PSoC5/LCD.c ****         value = LCD_PORT_DM2_REG & ((uint8)(~LCD_DATA_MASK));
 539              		.loc 1 382 0
 540 0046 4A4B     		ldr	r3, .L31+12
 541 0048 1B78     		ldrb	r3, [r3]
 542 004a DBB2     		uxtb	r3, r3
 543 004c 23F00F03 		bic	r3, r3, #15
 544 0050 FB70     		strb	r3, [r7, #3]
 383:.\Generated_Source\PSoC5/LCD.c ****         /* Load in high Z values for data pins, others unchanged */
 384:.\Generated_Source\PSoC5/LCD.c ****         LCD_PORT_DM2_REG = value;
 545              		.loc 1 384 0
 546 0052 474B     		ldr	r3, .L31+12
 547 0054 FA78     		ldrb	r2, [r7, #3]
 548 0056 1A70     		strb	r2, [r3]
 385:.\Generated_Source\PSoC5/LCD.c ****     
 386:.\Generated_Source\PSoC5/LCD.c ****     #endif /* CY_PSOC4 */
 387:.\Generated_Source\PSoC5/LCD.c ****     
 388:.\Generated_Source\PSoC5/LCD.c ****     /* Make sure RS is low */
 389:.\Generated_Source\PSoC5/LCD.c ****     LCD_PORT_DR_REG &= ((uint8)(~LCD_RS));
 549              		.loc 1 389 0
 550 0058 424B     		ldr	r3, .L31
 551 005a 424A     		ldr	r2, .L31
 552 005c 1278     		ldrb	r2, [r2]
 553 005e D2B2     		uxtb	r2, r2
 554 0060 22F02002 		bic	r2, r2, #32
 555 0064 D2B2     		uxtb	r2, r2
 556 0066 1A70     		strb	r2, [r3]
 390:.\Generated_Source\PSoC5/LCD.c **** 
 391:.\Generated_Source\PSoC5/LCD.c ****     /* Set R/W high to read */
 392:.\Generated_Source\PSoC5/LCD.c ****     LCD_PORT_DR_REG |= LCD_RW;
 557              		.loc 1 392 0
 558 0068 3E4B     		ldr	r3, .L31
 559 006a 3E4A     		ldr	r2, .L31
 560 006c 1278     		ldrb	r2, [r2]
 561 006e D2B2     		uxtb	r2, r2
 562 0070 42F04002 		orr	r2, r2, #64
 563 0074 D2B2     		uxtb	r2, r2
 564 0076 1A70     		strb	r2, [r3]
 565              	.L30:
 393:.\Generated_Source\PSoC5/LCD.c **** 
 394:.\Generated_Source\PSoC5/LCD.c ****     do
 395:.\Generated_Source\PSoC5/LCD.c ****     {
 396:.\Generated_Source\PSoC5/LCD.c ****         /* 40 ns delay required before rising Enable and 500ns between neighbour Enables */
 397:.\Generated_Source\PSoC5/LCD.c ****         CyDelayUs(0u);
 566              		.loc 1 397 0
 567 0078 0020     		movs	r0, #0
 568 007a FFF7FEFF 		bl	CyDelayUs
 398:.\Generated_Source\PSoC5/LCD.c **** 
 399:.\Generated_Source\PSoC5/LCD.c ****         /* Set E high */
 400:.\Generated_Source\PSoC5/LCD.c ****         LCD_PORT_DR_REG |= LCD_E;
ARM GAS  C:\Users\khjtony\AppData\Local\Temp\ccFxoGLD.s 			page 18


 569              		.loc 1 400 0
 570 007e 394B     		ldr	r3, .L31
 571 0080 384A     		ldr	r2, .L31
 572 0082 1278     		ldrb	r2, [r2]
 573 0084 D2B2     		uxtb	r2, r2
 574 0086 42F01002 		orr	r2, r2, #16
 575 008a D2B2     		uxtb	r2, r2
 576 008c 1A70     		strb	r2, [r3]
 401:.\Generated_Source\PSoC5/LCD.c **** 
 402:.\Generated_Source\PSoC5/LCD.c ****         /* 360 ns delay setup time for data pins */
 403:.\Generated_Source\PSoC5/LCD.c ****         CyDelayUs(1u);
 577              		.loc 1 403 0
 578 008e 0120     		movs	r0, #1
 579 0090 FFF7FEFF 		bl	CyDelayUs
 404:.\Generated_Source\PSoC5/LCD.c **** 
 405:.\Generated_Source\PSoC5/LCD.c ****         /* Get port state */
 406:.\Generated_Source\PSoC5/LCD.c ****         value = LCD_PORT_PS_REG;
 580              		.loc 1 406 0
 581 0094 374B     		ldr	r3, .L31+16
 582 0096 1B78     		ldrb	r3, [r3]
 583 0098 FB70     		strb	r3, [r7, #3]
 407:.\Generated_Source\PSoC5/LCD.c **** 
 408:.\Generated_Source\PSoC5/LCD.c ****         /* Set enable low */
 409:.\Generated_Source\PSoC5/LCD.c ****         LCD_PORT_DR_REG &= ((uint8)(~LCD_E));
 584              		.loc 1 409 0
 585 009a 324B     		ldr	r3, .L31
 586 009c 314A     		ldr	r2, .L31
 587 009e 1278     		ldrb	r2, [r2]
 588 00a0 D2B2     		uxtb	r2, r2
 589 00a2 22F01002 		bic	r2, r2, #16
 590 00a6 D2B2     		uxtb	r2, r2
 591 00a8 1A70     		strb	r2, [r3]
 410:.\Generated_Source\PSoC5/LCD.c **** 
 411:.\Generated_Source\PSoC5/LCD.c ****         /* This gives true delay between disabling Enable bit and polling Ready bit */
 412:.\Generated_Source\PSoC5/LCD.c ****         CyDelayUs(0u);
 592              		.loc 1 412 0
 593 00aa 0020     		movs	r0, #0
 594 00ac FFF7FEFF 		bl	CyDelayUs
 413:.\Generated_Source\PSoC5/LCD.c **** 
 414:.\Generated_Source\PSoC5/LCD.c ****         /* Extract ready bit */
 415:.\Generated_Source\PSoC5/LCD.c ****         value &= LCD_READY_BIT;
 595              		.loc 1 415 0
 596 00b0 FB78     		ldrb	r3, [r7, #3]
 597 00b2 03F00803 		and	r3, r3, #8
 598 00b6 FB70     		strb	r3, [r7, #3]
 416:.\Generated_Source\PSoC5/LCD.c **** 
 417:.\Generated_Source\PSoC5/LCD.c ****         /* Set E high as we in 4-bit interface we need extra operation */
 418:.\Generated_Source\PSoC5/LCD.c ****         LCD_PORT_DR_REG |= LCD_E;
 599              		.loc 1 418 0
 600 00b8 2A4B     		ldr	r3, .L31
 601 00ba 2A4A     		ldr	r2, .L31
 602 00bc 1278     		ldrb	r2, [r2]
 603 00be D2B2     		uxtb	r2, r2
 604 00c0 42F01002 		orr	r2, r2, #16
 605 00c4 D2B2     		uxtb	r2, r2
 606 00c6 1A70     		strb	r2, [r3]
 419:.\Generated_Source\PSoC5/LCD.c **** 
ARM GAS  C:\Users\khjtony\AppData\Local\Temp\ccFxoGLD.s 			page 19


 420:.\Generated_Source\PSoC5/LCD.c ****         /* 360 ns delay setup time for data pins */
 421:.\Generated_Source\PSoC5/LCD.c ****         CyDelayUs(1u);
 607              		.loc 1 421 0
 608 00c8 0120     		movs	r0, #1
 609 00ca FFF7FEFF 		bl	CyDelayUs
 422:.\Generated_Source\PSoC5/LCD.c **** 
 423:.\Generated_Source\PSoC5/LCD.c ****         /* Set enable low */
 424:.\Generated_Source\PSoC5/LCD.c ****         LCD_PORT_DR_REG &= ((uint8)(~LCD_E));
 610              		.loc 1 424 0
 611 00ce 254B     		ldr	r3, .L31
 612 00d0 244A     		ldr	r2, .L31
 613 00d2 1278     		ldrb	r2, [r2]
 614 00d4 D2B2     		uxtb	r2, r2
 615 00d6 22F01002 		bic	r2, r2, #16
 616 00da D2B2     		uxtb	r2, r2
 617 00dc 1A70     		strb	r2, [r3]
 425:.\Generated_Source\PSoC5/LCD.c **** 
 426:.\Generated_Source\PSoC5/LCD.c ****         /* If LCD is not ready make a delay */
 427:.\Generated_Source\PSoC5/LCD.c ****         if (value == 0u)
 618              		.loc 1 427 0
 619 00de FB78     		ldrb	r3, [r7, #3]	@ zero_extendqisi2
 620 00e0 002B     		cmp	r3, #0
 621 00e2 02D1     		bne	.L28
 428:.\Generated_Source\PSoC5/LCD.c ****         {
 429:.\Generated_Source\PSoC5/LCD.c ****             CyDelayUs(10u);
 622              		.loc 1 429 0
 623 00e4 0A20     		movs	r0, #10
 624 00e6 FFF7FEFF 		bl	CyDelayUs
 625              	.L28:
 430:.\Generated_Source\PSoC5/LCD.c ****         }
 431:.\Generated_Source\PSoC5/LCD.c **** 
 432:.\Generated_Source\PSoC5/LCD.c ****         /* Repeat until bit 4 is not zero or until timeout. */
 433:.\Generated_Source\PSoC5/LCD.c ****         timeout--;
 626              		.loc 1 433 0
 627 00ea 7B68     		ldr	r3, [r7, #4]
 628 00ec 013B     		subs	r3, r3, #1
 629 00ee 7B60     		str	r3, [r7, #4]
 434:.\Generated_Source\PSoC5/LCD.c **** 
 435:.\Generated_Source\PSoC5/LCD.c ****     } while ((value != 0u) && (timeout > 0u));
 630              		.loc 1 435 0
 631 00f0 FB78     		ldrb	r3, [r7, #3]	@ zero_extendqisi2
 632 00f2 002B     		cmp	r3, #0
 633 00f4 02D0     		beq	.L29
 634              		.loc 1 435 0 is_stmt 0 discriminator 1
 635 00f6 7B68     		ldr	r3, [r7, #4]
 636 00f8 002B     		cmp	r3, #0
 637 00fa BDD1     		bne	.L30
 638              	.L29:
 436:.\Generated_Source\PSoC5/LCD.c **** 
 437:.\Generated_Source\PSoC5/LCD.c ****     /* Set R/W low to write */
 438:.\Generated_Source\PSoC5/LCD.c ****     LCD_PORT_DR_REG &= ((uint8)(~LCD_RW));
 639              		.loc 1 438 0 is_stmt 1
 640 00fc 194B     		ldr	r3, .L31
 641 00fe 194A     		ldr	r2, .L31
 642 0100 1278     		ldrb	r2, [r2]
 643 0102 D2B2     		uxtb	r2, r2
 644 0104 22F04002 		bic	r2, r2, #64
ARM GAS  C:\Users\khjtony\AppData\Local\Temp\ccFxoGLD.s 			page 20


 645 0108 D2B2     		uxtb	r2, r2
 646 010a 1A70     		strb	r2, [r3]
 439:.\Generated_Source\PSoC5/LCD.c **** 
 440:.\Generated_Source\PSoC5/LCD.c ****     /* Clear LCD port*/
 441:.\Generated_Source\PSoC5/LCD.c ****     LCD_PORT_DR_REG &= ((uint8)(~LCD_PORT_MASK));
 647              		.loc 1 441 0
 648 010c 154B     		ldr	r3, .L31
 649 010e 154A     		ldr	r2, .L31
 650 0110 1278     		ldrb	r2, [r2]
 651 0112 D2B2     		uxtb	r2, r2
 652 0114 22F07F02 		bic	r2, r2, #127
 653 0118 D2B2     		uxtb	r2, r2
 654 011a 1A70     		strb	r2, [r3]
 442:.\Generated_Source\PSoC5/LCD.c **** 
 443:.\Generated_Source\PSoC5/LCD.c ****     #if (CY_PSOC4)
 444:.\Generated_Source\PSoC5/LCD.c ****         
 445:.\Generated_Source\PSoC5/LCD.c ****         /* Mask off data pins to clear old values out */
 446:.\Generated_Source\PSoC5/LCD.c ****         value = LCD_PORT_PC_REG & ((uint32)(~ LCD_DM_DATA_MASK));
 447:.\Generated_Source\PSoC5/LCD.c ****         /* Load in high Z values for data pins, others unchanged */
 448:.\Generated_Source\PSoC5/LCD.c ****         LCD_PORT_PC_REG = value | LCD_STRONG_DATA_DM;
 449:.\Generated_Source\PSoC5/LCD.c **** 
 450:.\Generated_Source\PSoC5/LCD.c ****     #else
 451:.\Generated_Source\PSoC5/LCD.c **** 
 452:.\Generated_Source\PSoC5/LCD.c ****         /* Change Port to Output (Strong) on data pins */
 453:.\Generated_Source\PSoC5/LCD.c ****         /* Mask off data pins to clear high z values out. Configure data pins 
 454:.\Generated_Source\PSoC5/LCD.c ****         * to Strong Drive, others unchanged.
 455:.\Generated_Source\PSoC5/LCD.c ****         */
 456:.\Generated_Source\PSoC5/LCD.c ****         LCD_PORT_DM0_REG &= ((uint8)(~LCD_DATA_MASK));
 655              		.loc 1 456 0
 656 011c 124B     		ldr	r3, .L31+4
 657 011e 124A     		ldr	r2, .L31+4
 658 0120 1278     		ldrb	r2, [r2]
 659 0122 D2B2     		uxtb	r2, r2
 660 0124 22F00F02 		bic	r2, r2, #15
 661 0128 D2B2     		uxtb	r2, r2
 662 012a 1A70     		strb	r2, [r3]
 457:.\Generated_Source\PSoC5/LCD.c ****         /* Mask off data pins to clear high z values out */
 458:.\Generated_Source\PSoC5/LCD.c ****         value = LCD_PORT_DM1_REG & ((uint8)(~LCD_DATA_MASK));
 663              		.loc 1 458 0
 664 012c 0F4B     		ldr	r3, .L31+8
 665 012e 1B78     		ldrb	r3, [r3]
 666 0130 DBB2     		uxtb	r3, r3
 667 0132 23F00F03 		bic	r3, r3, #15
 668 0136 FB70     		strb	r3, [r7, #3]
 459:.\Generated_Source\PSoC5/LCD.c ****         /* Configure data pins to Strong Drive, others unchanged */
 460:.\Generated_Source\PSoC5/LCD.c ****         LCD_PORT_DM1_REG = value | (LCD_STRONG_DM1 & LCD_DATA_MASK);
 669              		.loc 1 460 0
 670 0138 0C4B     		ldr	r3, .L31+8
 671 013a FA78     		ldrb	r2, [r7, #3]
 672 013c 42F00F02 		orr	r2, r2, #15
 673 0140 D2B2     		uxtb	r2, r2
 674 0142 1A70     		strb	r2, [r3]
 461:.\Generated_Source\PSoC5/LCD.c **** 
 462:.\Generated_Source\PSoC5/LCD.c ****         /* Mask off data pins to clear high z values out */
 463:.\Generated_Source\PSoC5/LCD.c ****         value = LCD_PORT_DM2_REG & ((uint8)(~LCD_DATA_MASK));
 675              		.loc 1 463 0
 676 0144 0A4B     		ldr	r3, .L31+12
ARM GAS  C:\Users\khjtony\AppData\Local\Temp\ccFxoGLD.s 			page 21


 677 0146 1B78     		ldrb	r3, [r3]
 678 0148 DBB2     		uxtb	r3, r3
 679 014a 23F00F03 		bic	r3, r3, #15
 680 014e FB70     		strb	r3, [r7, #3]
 464:.\Generated_Source\PSoC5/LCD.c ****         /* Configure data pins to Strong Drive, others unchanged */
 465:.\Generated_Source\PSoC5/LCD.c ****         LCD_PORT_DM2_REG = value | (LCD_STRONG_DM2 & LCD_DATA_MASK);
 681              		.loc 1 465 0
 682 0150 074B     		ldr	r3, .L31+12
 683 0152 FA78     		ldrb	r2, [r7, #3]
 684 0154 42F00F02 		orr	r2, r2, #15
 685 0158 D2B2     		uxtb	r2, r2
 686 015a 1A70     		strb	r2, [r3]
 466:.\Generated_Source\PSoC5/LCD.c ****     
 467:.\Generated_Source\PSoC5/LCD.c ****     #endif /* CY_PSOC4 */
 468:.\Generated_Source\PSoC5/LCD.c **** }
 687              		.loc 1 468 0
 688 015c 0837     		adds	r7, r7, #8
 689 015e BD46     		mov	sp, r7
 690              		@ sp needed
 691 0160 80BD     		pop	{r7, pc}
 692              	.L32:
 693 0162 00BF     		.align	2
 694              	.L31:
 695 0164 20510040 		.word	1073762592
 696 0168 22510040 		.word	1073762594
 697 016c 23510040 		.word	1073762595
 698 0170 24510040 		.word	1073762596
 699 0174 21510040 		.word	1073762593
 700              		.cfi_endproc
 701              	.LFE9:
 702              		.size	LCD_IsReady, .-LCD_IsReady
 703              		.section	.text.LCD_WrDatNib,"ax",%progbits
 704              		.align	2
 705              		.thumb
 706              		.thumb_func
 707              		.type	LCD_WrDatNib, %function
 708              	LCD_WrDatNib:
 709              	.LFB10:
 469:.\Generated_Source\PSoC5/LCD.c **** 
 470:.\Generated_Source\PSoC5/LCD.c **** 
 471:.\Generated_Source\PSoC5/LCD.c **** /*******************************************************************************
 472:.\Generated_Source\PSoC5/LCD.c **** *  Function Name: LCD_WrDatNib
 473:.\Generated_Source\PSoC5/LCD.c **** ********************************************************************************
 474:.\Generated_Source\PSoC5/LCD.c **** *
 475:.\Generated_Source\PSoC5/LCD.c **** * Summary:
 476:.\Generated_Source\PSoC5/LCD.c **** *  Writes a data nibble to the LCD module.
 477:.\Generated_Source\PSoC5/LCD.c **** *
 478:.\Generated_Source\PSoC5/LCD.c **** * Parameters:
 479:.\Generated_Source\PSoC5/LCD.c **** *  nibble:  Byte containing nibble in the least significant nibble to be
 480:.\Generated_Source\PSoC5/LCD.c **** *           written to the LCD module.
 481:.\Generated_Source\PSoC5/LCD.c **** *
 482:.\Generated_Source\PSoC5/LCD.c **** * Return:
 483:.\Generated_Source\PSoC5/LCD.c **** *  None.
 484:.\Generated_Source\PSoC5/LCD.c **** *
 485:.\Generated_Source\PSoC5/LCD.c **** *******************************************************************************/
 486:.\Generated_Source\PSoC5/LCD.c **** static void LCD_WrDatNib(uint8 nibble) 
 487:.\Generated_Source\PSoC5/LCD.c **** {
ARM GAS  C:\Users\khjtony\AppData\Local\Temp\ccFxoGLD.s 			page 22


 710              		.loc 1 487 0
 711              		.cfi_startproc
 712              		@ args = 0, pretend = 0, frame = 8
 713              		@ frame_needed = 1, uses_anonymous_args = 0
 714 0000 80B5     		push	{r7, lr}
 715              		.cfi_def_cfa_offset 8
 716              		.cfi_offset 7, -8
 717              		.cfi_offset 14, -4
 718 0002 82B0     		sub	sp, sp, #8
 719              		.cfi_def_cfa_offset 16
 720 0004 00AF     		add	r7, sp, #0
 721              		.cfi_def_cfa_register 7
 722 0006 0346     		mov	r3, r0
 723 0008 FB71     		strb	r3, [r7, #7]
 488:.\Generated_Source\PSoC5/LCD.c ****     /* RS should be low to select data register */
 489:.\Generated_Source\PSoC5/LCD.c ****     LCD_PORT_DR_REG |= LCD_RS;
 724              		.loc 1 489 0
 725 000a 1A4B     		ldr	r3, .L34
 726 000c 194A     		ldr	r2, .L34
 727 000e 1278     		ldrb	r2, [r2]
 728 0010 D2B2     		uxtb	r2, r2
 729 0012 42F02002 		orr	r2, r2, #32
 730 0016 D2B2     		uxtb	r2, r2
 731 0018 1A70     		strb	r2, [r3]
 490:.\Generated_Source\PSoC5/LCD.c ****     /* Reset RW for write operation */
 491:.\Generated_Source\PSoC5/LCD.c ****     LCD_PORT_DR_REG &= ((uint8)(~LCD_RW));
 732              		.loc 1 491 0
 733 001a 164B     		ldr	r3, .L34
 734 001c 154A     		ldr	r2, .L34
 735 001e 1278     		ldrb	r2, [r2]
 736 0020 D2B2     		uxtb	r2, r2
 737 0022 22F04002 		bic	r2, r2, #64
 738 0026 D2B2     		uxtb	r2, r2
 739 0028 1A70     		strb	r2, [r3]
 492:.\Generated_Source\PSoC5/LCD.c **** 
 493:.\Generated_Source\PSoC5/LCD.c ****     /* Guaranteed delay between Setting RS and RW and setting E bits */
 494:.\Generated_Source\PSoC5/LCD.c ****     CyDelayUs(0u);
 740              		.loc 1 494 0
 741 002a 0020     		movs	r0, #0
 742 002c FFF7FEFF 		bl	CyDelayUs
 495:.\Generated_Source\PSoC5/LCD.c ****     
 496:.\Generated_Source\PSoC5/LCD.c ****     /* Clear data pins */
 497:.\Generated_Source\PSoC5/LCD.c ****     LCD_PORT_DR_REG &= ((uint8)(~LCD_DATA_MASK));
 743              		.loc 1 497 0
 744 0030 104B     		ldr	r3, .L34
 745 0032 104A     		ldr	r2, .L34
 746 0034 1278     		ldrb	r2, [r2]
 747 0036 D2B2     		uxtb	r2, r2
 748 0038 22F00F02 		bic	r2, r2, #15
 749 003c D2B2     		uxtb	r2, r2
 750 003e 1A70     		strb	r2, [r3]
 498:.\Generated_Source\PSoC5/LCD.c **** 
 499:.\Generated_Source\PSoC5/LCD.c ****     /* Write data, bring E high */
 500:.\Generated_Source\PSoC5/LCD.c ****     #if(0u != LCD_PORT_SHIFT) /* MISRA forbids shift by 0 so need to handle that */
 501:.\Generated_Source\PSoC5/LCD.c ****         LCD_PORT_DR_REG |= 
 502:.\Generated_Source\PSoC5/LCD.c ****             (LCD_E | ((uint8)(((uint8) nibble) << LCD_PORT_SHIFT)));
 503:.\Generated_Source\PSoC5/LCD.c ****     #else
ARM GAS  C:\Users\khjtony\AppData\Local\Temp\ccFxoGLD.s 			page 23


 504:.\Generated_Source\PSoC5/LCD.c ****         LCD_PORT_DR_REG |= (LCD_E | nibble);
 751              		.loc 1 504 0
 752 0040 0C4B     		ldr	r3, .L34
 753 0042 0C4A     		ldr	r2, .L34
 754 0044 1278     		ldrb	r2, [r2]
 755 0046 D1B2     		uxtb	r1, r2
 756 0048 FA79     		ldrb	r2, [r7, #7]
 757 004a 0A43     		orrs	r2, r2, r1
 758 004c D2B2     		uxtb	r2, r2
 759 004e 42F01002 		orr	r2, r2, #16
 760 0052 D2B2     		uxtb	r2, r2
 761 0054 1A70     		strb	r2, [r3]
 505:.\Generated_Source\PSoC5/LCD.c ****     #endif /* (0u != LCD_PORT_SHIFT) */
 506:.\Generated_Source\PSoC5/LCD.c **** 
 507:.\Generated_Source\PSoC5/LCD.c ****     /* Minimum of 230 ns delay */
 508:.\Generated_Source\PSoC5/LCD.c ****     CyDelayUs(1u);
 762              		.loc 1 508 0
 763 0056 0120     		movs	r0, #1
 764 0058 FFF7FEFF 		bl	CyDelayUs
 509:.\Generated_Source\PSoC5/LCD.c **** 
 510:.\Generated_Source\PSoC5/LCD.c ****     LCD_PORT_DR_REG &= ((uint8)(~LCD_E));
 765              		.loc 1 510 0
 766 005c 054B     		ldr	r3, .L34
 767 005e 054A     		ldr	r2, .L34
 768 0060 1278     		ldrb	r2, [r2]
 769 0062 D2B2     		uxtb	r2, r2
 770 0064 22F01002 		bic	r2, r2, #16
 771 0068 D2B2     		uxtb	r2, r2
 772 006a 1A70     		strb	r2, [r3]
 511:.\Generated_Source\PSoC5/LCD.c **** }
 773              		.loc 1 511 0
 774 006c 0837     		adds	r7, r7, #8
 775 006e BD46     		mov	sp, r7
 776              		@ sp needed
 777 0070 80BD     		pop	{r7, pc}
 778              	.L35:
 779 0072 00BF     		.align	2
 780              	.L34:
 781 0074 20510040 		.word	1073762592
 782              		.cfi_endproc
 783              	.LFE10:
 784              		.size	LCD_WrDatNib, .-LCD_WrDatNib
 785              		.section	.text.LCD_WrCntrlNib,"ax",%progbits
 786              		.align	2
 787              		.thumb
 788              		.thumb_func
 789              		.type	LCD_WrCntrlNib, %function
 790              	LCD_WrCntrlNib:
 791              	.LFB11:
 512:.\Generated_Source\PSoC5/LCD.c **** 
 513:.\Generated_Source\PSoC5/LCD.c **** 
 514:.\Generated_Source\PSoC5/LCD.c **** /*******************************************************************************
 515:.\Generated_Source\PSoC5/LCD.c **** *  Function Name: LCD_WrCntrlNib
 516:.\Generated_Source\PSoC5/LCD.c **** ********************************************************************************
 517:.\Generated_Source\PSoC5/LCD.c **** *
 518:.\Generated_Source\PSoC5/LCD.c **** * Summary:
 519:.\Generated_Source\PSoC5/LCD.c **** *  Writes a control nibble to the LCD module.
ARM GAS  C:\Users\khjtony\AppData\Local\Temp\ccFxoGLD.s 			page 24


 520:.\Generated_Source\PSoC5/LCD.c **** *
 521:.\Generated_Source\PSoC5/LCD.c **** * Parameters:
 522:.\Generated_Source\PSoC5/LCD.c **** *  nibble: The byte containing a nibble in the four least significant bits.????
 523:.\Generated_Source\PSoC5/LCD.c **** *
 524:.\Generated_Source\PSoC5/LCD.c **** * Return:
 525:.\Generated_Source\PSoC5/LCD.c **** *  None.
 526:.\Generated_Source\PSoC5/LCD.c **** *
 527:.\Generated_Source\PSoC5/LCD.c **** *******************************************************************************/
 528:.\Generated_Source\PSoC5/LCD.c **** static void LCD_WrCntrlNib(uint8 nibble) 
 529:.\Generated_Source\PSoC5/LCD.c **** {
 792              		.loc 1 529 0
 793              		.cfi_startproc
 794              		@ args = 0, pretend = 0, frame = 8
 795              		@ frame_needed = 1, uses_anonymous_args = 0
 796 0000 80B5     		push	{r7, lr}
 797              		.cfi_def_cfa_offset 8
 798              		.cfi_offset 7, -8
 799              		.cfi_offset 14, -4
 800 0002 82B0     		sub	sp, sp, #8
 801              		.cfi_def_cfa_offset 16
 802 0004 00AF     		add	r7, sp, #0
 803              		.cfi_def_cfa_register 7
 804 0006 0346     		mov	r3, r0
 805 0008 FB71     		strb	r3, [r7, #7]
 530:.\Generated_Source\PSoC5/LCD.c ****     /* RS and RW should be low to select instruction register and  write operation respectively */
 531:.\Generated_Source\PSoC5/LCD.c ****     LCD_PORT_DR_REG &= ((uint8)(~(LCD_RS | LCD_RW)));
 806              		.loc 1 531 0
 807 000a 144B     		ldr	r3, .L37
 808 000c 134A     		ldr	r2, .L37
 809 000e 1278     		ldrb	r2, [r2]
 810 0010 D2B2     		uxtb	r2, r2
 811 0012 22F06002 		bic	r2, r2, #96
 812 0016 D2B2     		uxtb	r2, r2
 813 0018 1A70     		strb	r2, [r3]
 532:.\Generated_Source\PSoC5/LCD.c **** 
 533:.\Generated_Source\PSoC5/LCD.c ****     /* Two following lines of code will give 40ns delay */
 534:.\Generated_Source\PSoC5/LCD.c ****     /* Clear data pins */
 535:.\Generated_Source\PSoC5/LCD.c ****     LCD_PORT_DR_REG &= ((uint8)(~LCD_DATA_MASK));
 814              		.loc 1 535 0
 815 001a 104B     		ldr	r3, .L37
 816 001c 0F4A     		ldr	r2, .L37
 817 001e 1278     		ldrb	r2, [r2]
 818 0020 D2B2     		uxtb	r2, r2
 819 0022 22F00F02 		bic	r2, r2, #15
 820 0026 D2B2     		uxtb	r2, r2
 821 0028 1A70     		strb	r2, [r3]
 536:.\Generated_Source\PSoC5/LCD.c **** 
 537:.\Generated_Source\PSoC5/LCD.c ****     /* Write control data and set enable signal */
 538:.\Generated_Source\PSoC5/LCD.c ****     #if(0u != LCD_PORT_SHIFT) /* MISRA forbids shift by 0 so need to handle that */
 539:.\Generated_Source\PSoC5/LCD.c ****         LCD_PORT_DR_REG |= 
 540:.\Generated_Source\PSoC5/LCD.c ****             (LCD_E | ((uint8)(((uint8) nibble) << LCD_PORT_SHIFT)));
 541:.\Generated_Source\PSoC5/LCD.c ****     #else
 542:.\Generated_Source\PSoC5/LCD.c ****         LCD_PORT_DR_REG |= (LCD_E | nibble);
 822              		.loc 1 542 0
 823 002a 0C4B     		ldr	r3, .L37
 824 002c 0B4A     		ldr	r2, .L37
 825 002e 1278     		ldrb	r2, [r2]
ARM GAS  C:\Users\khjtony\AppData\Local\Temp\ccFxoGLD.s 			page 25


 826 0030 D1B2     		uxtb	r1, r2
 827 0032 FA79     		ldrb	r2, [r7, #7]
 828 0034 0A43     		orrs	r2, r2, r1
 829 0036 D2B2     		uxtb	r2, r2
 830 0038 42F01002 		orr	r2, r2, #16
 831 003c D2B2     		uxtb	r2, r2
 832 003e 1A70     		strb	r2, [r3]
 543:.\Generated_Source\PSoC5/LCD.c ****     #endif /* (0u != LCD_PORT_SHIFT) */
 544:.\Generated_Source\PSoC5/LCD.c **** 
 545:.\Generated_Source\PSoC5/LCD.c ****     /* Minimum of 230 ns delay */
 546:.\Generated_Source\PSoC5/LCD.c ****     CyDelayUs(1u);
 833              		.loc 1 546 0
 834 0040 0120     		movs	r0, #1
 835 0042 FFF7FEFF 		bl	CyDelayUs
 547:.\Generated_Source\PSoC5/LCD.c **** 
 548:.\Generated_Source\PSoC5/LCD.c ****     LCD_PORT_DR_REG &= ((uint8)(~LCD_E));
 836              		.loc 1 548 0
 837 0046 054B     		ldr	r3, .L37
 838 0048 044A     		ldr	r2, .L37
 839 004a 1278     		ldrb	r2, [r2]
 840 004c D2B2     		uxtb	r2, r2
 841 004e 22F01002 		bic	r2, r2, #16
 842 0052 D2B2     		uxtb	r2, r2
 843 0054 1A70     		strb	r2, [r3]
 549:.\Generated_Source\PSoC5/LCD.c **** }
 844              		.loc 1 549 0
 845 0056 0837     		adds	r7, r7, #8
 846 0058 BD46     		mov	sp, r7
 847              		@ sp needed
 848 005a 80BD     		pop	{r7, pc}
 849              	.L38:
 850              		.align	2
 851              	.L37:
 852 005c 20510040 		.word	1073762592
 853              		.cfi_endproc
 854              	.LFE11:
 855              		.size	LCD_WrCntrlNib, .-LCD_WrCntrlNib
 856              		.section	.text.LCD_PrintInt8,"ax",%progbits
 857              		.align	2
 858              		.global	LCD_PrintInt8
 859              		.thumb
 860              		.thumb_func
 861              		.type	LCD_PrintInt8, %function
 862              	LCD_PrintInt8:
 863              	.LFB12:
 550:.\Generated_Source\PSoC5/LCD.c **** 
 551:.\Generated_Source\PSoC5/LCD.c **** 
 552:.\Generated_Source\PSoC5/LCD.c **** #if(LCD_CONVERSION_ROUTINES == 1u)
 553:.\Generated_Source\PSoC5/LCD.c **** 
 554:.\Generated_Source\PSoC5/LCD.c ****     /*******************************************************************************
 555:.\Generated_Source\PSoC5/LCD.c ****     *  Function Name: LCD_PrintInt8
 556:.\Generated_Source\PSoC5/LCD.c ****     ********************************************************************************
 557:.\Generated_Source\PSoC5/LCD.c ****     *
 558:.\Generated_Source\PSoC5/LCD.c ****     * Summary:
 559:.\Generated_Source\PSoC5/LCD.c ****     *  Print a byte as two ASCII characters.
 560:.\Generated_Source\PSoC5/LCD.c ****     *
 561:.\Generated_Source\PSoC5/LCD.c ****     * Parameters:
ARM GAS  C:\Users\khjtony\AppData\Local\Temp\ccFxoGLD.s 			page 26


 562:.\Generated_Source\PSoC5/LCD.c ****     *  value: The byte to be printed out as ASCII characters.
 563:.\Generated_Source\PSoC5/LCD.c ****     *
 564:.\Generated_Source\PSoC5/LCD.c ****     * Return:
 565:.\Generated_Source\PSoC5/LCD.c ****     *  None.
 566:.\Generated_Source\PSoC5/LCD.c ****     *
 567:.\Generated_Source\PSoC5/LCD.c ****     *******************************************************************************/
 568:.\Generated_Source\PSoC5/LCD.c ****     void LCD_PrintInt8(uint8 value) 
 569:.\Generated_Source\PSoC5/LCD.c ****     {
 864              		.loc 1 569 0
 865              		.cfi_startproc
 866              		@ args = 0, pretend = 0, frame = 8
 867              		@ frame_needed = 1, uses_anonymous_args = 0
 868 0000 80B5     		push	{r7, lr}
 869              		.cfi_def_cfa_offset 8
 870              		.cfi_offset 7, -8
 871              		.cfi_offset 14, -4
 872 0002 82B0     		sub	sp, sp, #8
 873              		.cfi_def_cfa_offset 16
 874 0004 00AF     		add	r7, sp, #0
 875              		.cfi_def_cfa_register 7
 876 0006 0346     		mov	r3, r0
 877 0008 FB71     		strb	r3, [r7, #7]
 570:.\Generated_Source\PSoC5/LCD.c ****         static char8 const CYCODE LCD_hex[16u] = "0123456789ABCDEF";
 571:.\Generated_Source\PSoC5/LCD.c ****         
 572:.\Generated_Source\PSoC5/LCD.c ****         LCD_PutChar((char8) LCD_hex[value >> LCD_BYTE_UPPER_NIBBLE_SHIFT]);
 878              		.loc 1 572 0
 879 000a FB79     		ldrb	r3, [r7, #7]	@ zero_extendqisi2
 880 000c 1B09     		lsrs	r3, r3, #4
 881 000e DBB2     		uxtb	r3, r3
 882 0010 074A     		ldr	r2, .L40
 883 0012 D35C     		ldrb	r3, [r2, r3]	@ zero_extendqisi2
 884 0014 1846     		mov	r0, r3
 885 0016 FFF7FEFF 		bl	LCD_PutChar
 573:.\Generated_Source\PSoC5/LCD.c ****         LCD_PutChar((char8) LCD_hex[value & LCD_BYTE_LOWER_NIBBLE_MASK]);
 886              		.loc 1 573 0
 887 001a FB79     		ldrb	r3, [r7, #7]	@ zero_extendqisi2
 888 001c 03F00F03 		and	r3, r3, #15
 889 0020 034A     		ldr	r2, .L40
 890 0022 D35C     		ldrb	r3, [r2, r3]	@ zero_extendqisi2
 891 0024 1846     		mov	r0, r3
 892 0026 FFF7FEFF 		bl	LCD_PutChar
 574:.\Generated_Source\PSoC5/LCD.c ****     }
 893              		.loc 1 574 0
 894 002a 0837     		adds	r7, r7, #8
 895 002c BD46     		mov	sp, r7
 896              		@ sp needed
 897 002e 80BD     		pop	{r7, pc}
 898              	.L41:
 899              		.align	2
 900              	.L40:
 901 0030 00000000 		.word	LCD_hex.4908
 902              		.cfi_endproc
 903              	.LFE12:
 904              		.size	LCD_PrintInt8, .-LCD_PrintInt8
 905              		.section	.text.LCD_PrintInt16,"ax",%progbits
 906              		.align	2
 907              		.global	LCD_PrintInt16
ARM GAS  C:\Users\khjtony\AppData\Local\Temp\ccFxoGLD.s 			page 27


 908              		.thumb
 909              		.thumb_func
 910              		.type	LCD_PrintInt16, %function
 911              	LCD_PrintInt16:
 912              	.LFB13:
 575:.\Generated_Source\PSoC5/LCD.c **** 
 576:.\Generated_Source\PSoC5/LCD.c **** 
 577:.\Generated_Source\PSoC5/LCD.c ****     /*******************************************************************************
 578:.\Generated_Source\PSoC5/LCD.c ****     *  Function Name: LCD_PrintInt16
 579:.\Generated_Source\PSoC5/LCD.c ****     ********************************************************************************
 580:.\Generated_Source\PSoC5/LCD.c ****     *
 581:.\Generated_Source\PSoC5/LCD.c ****     * Summary:
 582:.\Generated_Source\PSoC5/LCD.c ****     *  Print a uint16 as four ASCII characters.
 583:.\Generated_Source\PSoC5/LCD.c ****     *
 584:.\Generated_Source\PSoC5/LCD.c ****     * Parameters:
 585:.\Generated_Source\PSoC5/LCD.c ****     *  value: The uint16 to be printed out as ASCII characters.
 586:.\Generated_Source\PSoC5/LCD.c ****     *
 587:.\Generated_Source\PSoC5/LCD.c ****     * Return:
 588:.\Generated_Source\PSoC5/LCD.c ****     *  None.
 589:.\Generated_Source\PSoC5/LCD.c ****     *
 590:.\Generated_Source\PSoC5/LCD.c ****     *******************************************************************************/
 591:.\Generated_Source\PSoC5/LCD.c ****     void LCD_PrintInt16(uint16 value) 
 592:.\Generated_Source\PSoC5/LCD.c ****     {
 913              		.loc 1 592 0
 914              		.cfi_startproc
 915              		@ args = 0, pretend = 0, frame = 8
 916              		@ frame_needed = 1, uses_anonymous_args = 0
 917 0000 80B5     		push	{r7, lr}
 918              		.cfi_def_cfa_offset 8
 919              		.cfi_offset 7, -8
 920              		.cfi_offset 14, -4
 921 0002 82B0     		sub	sp, sp, #8
 922              		.cfi_def_cfa_offset 16
 923 0004 00AF     		add	r7, sp, #0
 924              		.cfi_def_cfa_register 7
 925 0006 0346     		mov	r3, r0
 926 0008 FB80     		strh	r3, [r7, #6]	@ movhi
 593:.\Generated_Source\PSoC5/LCD.c ****         LCD_PrintInt8((uint8)(value >> LCD_U16_UPPER_BYTE_SHIFT));
 927              		.loc 1 593 0
 928 000a FB88     		ldrh	r3, [r7, #6]
 929 000c 1B0A     		lsrs	r3, r3, #8
 930 000e 9BB2     		uxth	r3, r3
 931 0010 DBB2     		uxtb	r3, r3
 932 0012 1846     		mov	r0, r3
 933 0014 FFF7FEFF 		bl	LCD_PrintInt8
 594:.\Generated_Source\PSoC5/LCD.c ****         LCD_PrintInt8((uint8)(value & LCD_U16_LOWER_BYTE_MASK));
 934              		.loc 1 594 0
 935 0018 FB88     		ldrh	r3, [r7, #6]	@ movhi
 936 001a DBB2     		uxtb	r3, r3
 937 001c 1846     		mov	r0, r3
 938 001e FFF7FEFF 		bl	LCD_PrintInt8
 595:.\Generated_Source\PSoC5/LCD.c ****     }
 939              		.loc 1 595 0
 940 0022 0837     		adds	r7, r7, #8
 941 0024 BD46     		mov	sp, r7
 942              		@ sp needed
 943 0026 80BD     		pop	{r7, pc}
ARM GAS  C:\Users\khjtony\AppData\Local\Temp\ccFxoGLD.s 			page 28


 944              		.cfi_endproc
 945              	.LFE13:
 946              		.size	LCD_PrintInt16, .-LCD_PrintInt16
 947              		.section	.text.LCD_PrintInt32,"ax",%progbits
 948              		.align	2
 949              		.global	LCD_PrintInt32
 950              		.thumb
 951              		.thumb_func
 952              		.type	LCD_PrintInt32, %function
 953              	LCD_PrintInt32:
 954              	.LFB14:
 596:.\Generated_Source\PSoC5/LCD.c **** 
 597:.\Generated_Source\PSoC5/LCD.c ****     
 598:.\Generated_Source\PSoC5/LCD.c ****     /*******************************************************************************
 599:.\Generated_Source\PSoC5/LCD.c ****     *  Function Name: LCD_PrintInt32
 600:.\Generated_Source\PSoC5/LCD.c ****     ********************************************************************************
 601:.\Generated_Source\PSoC5/LCD.c ****     *
 602:.\Generated_Source\PSoC5/LCD.c ****     * Summary:
 603:.\Generated_Source\PSoC5/LCD.c ****     *  Print a uint32 hexadecimal number as eight ASCII characters.
 604:.\Generated_Source\PSoC5/LCD.c ****     *
 605:.\Generated_Source\PSoC5/LCD.c ****     * Parameters:
 606:.\Generated_Source\PSoC5/LCD.c ****     *  value: The uint32 to be printed out as ASCII characters.
 607:.\Generated_Source\PSoC5/LCD.c ****     *
 608:.\Generated_Source\PSoC5/LCD.c ****     * Return:
 609:.\Generated_Source\PSoC5/LCD.c ****     *  None.
 610:.\Generated_Source\PSoC5/LCD.c ****     *
 611:.\Generated_Source\PSoC5/LCD.c ****     *******************************************************************************/
 612:.\Generated_Source\PSoC5/LCD.c ****     void LCD_PrintInt32(uint32 value) 
 613:.\Generated_Source\PSoC5/LCD.c ****     {
 955              		.loc 1 613 0
 956              		.cfi_startproc
 957              		@ args = 0, pretend = 0, frame = 16
 958              		@ frame_needed = 1, uses_anonymous_args = 0
 959 0000 80B5     		push	{r7, lr}
 960              		.cfi_def_cfa_offset 8
 961              		.cfi_offset 7, -8
 962              		.cfi_offset 14, -4
 963 0002 84B0     		sub	sp, sp, #16
 964              		.cfi_def_cfa_offset 24
 965 0004 00AF     		add	r7, sp, #0
 966              		.cfi_def_cfa_register 7
 967 0006 7860     		str	r0, [r7, #4]
 614:.\Generated_Source\PSoC5/LCD.c ****         uint8 shift = LCD_32_BIT_SHIFT;
 968              		.loc 1 614 0
 969 0008 2023     		movs	r3, #32
 970 000a FB73     		strb	r3, [r7, #15]
 615:.\Generated_Source\PSoC5/LCD.c ****         
 616:.\Generated_Source\PSoC5/LCD.c ****         while (shift != 0u)
 971              		.loc 1 616 0
 972 000c 0AE0     		b	.L44
 973              	.L45:
 617:.\Generated_Source\PSoC5/LCD.c ****         {
 618:.\Generated_Source\PSoC5/LCD.c ****             /* "shift" var is to be subtracted by 8 prior shifting. This implements 
 619:.\Generated_Source\PSoC5/LCD.c ****             * shifting by 24, 16, 8 and 0u. 
 620:.\Generated_Source\PSoC5/LCD.c ****             */
 621:.\Generated_Source\PSoC5/LCD.c ****             shift -= LCD_8_BIT_SHIFT;
 974              		.loc 1 621 0
ARM GAS  C:\Users\khjtony\AppData\Local\Temp\ccFxoGLD.s 			page 29


 975 000e FB7B     		ldrb	r3, [r7, #15]
 976 0010 083B     		subs	r3, r3, #8
 977 0012 FB73     		strb	r3, [r7, #15]
 622:.\Generated_Source\PSoC5/LCD.c ****             
 623:.\Generated_Source\PSoC5/LCD.c ****             /* Print 8 bits of uint32 hex number */
 624:.\Generated_Source\PSoC5/LCD.c ****             LCD_PrintInt8((uint8) ((uint32) (value >> shift)));
 978              		.loc 1 624 0
 979 0014 FB7B     		ldrb	r3, [r7, #15]	@ zero_extendqisi2
 980 0016 7A68     		ldr	r2, [r7, #4]
 981 0018 22FA03F3 		lsr	r3, r2, r3
 982 001c DBB2     		uxtb	r3, r3
 983 001e 1846     		mov	r0, r3
 984 0020 FFF7FEFF 		bl	LCD_PrintInt8
 985              	.L44:
 616:.\Generated_Source\PSoC5/LCD.c ****         while (shift != 0u)
 986              		.loc 1 616 0 discriminator 1
 987 0024 FB7B     		ldrb	r3, [r7, #15]	@ zero_extendqisi2
 988 0026 002B     		cmp	r3, #0
 989 0028 F1D1     		bne	.L45
 625:.\Generated_Source\PSoC5/LCD.c ****         }
 626:.\Generated_Source\PSoC5/LCD.c ****     }
 990              		.loc 1 626 0
 991 002a 1037     		adds	r7, r7, #16
 992 002c BD46     		mov	sp, r7
 993              		@ sp needed
 994 002e 80BD     		pop	{r7, pc}
 995              		.cfi_endproc
 996              	.LFE14:
 997              		.size	LCD_PrintInt32, .-LCD_PrintInt32
 998              		.section	.text.LCD_PrintU32Number,"ax",%progbits
 999              		.align	2
 1000              		.global	LCD_PrintU32Number
 1001              		.thumb
 1002              		.thumb_func
 1003              		.type	LCD_PrintU32Number, %function
 1004              	LCD_PrintU32Number:
 1005              	.LFB15:
 627:.\Generated_Source\PSoC5/LCD.c ****     
 628:.\Generated_Source\PSoC5/LCD.c ****     
 629:.\Generated_Source\PSoC5/LCD.c ****     /*******************************************************************************
 630:.\Generated_Source\PSoC5/LCD.c ****     *  Function Name: LCD_PrintNumber
 631:.\Generated_Source\PSoC5/LCD.c ****     ********************************************************************************
 632:.\Generated_Source\PSoC5/LCD.c ****     *
 633:.\Generated_Source\PSoC5/LCD.c ****     * Summary:
 634:.\Generated_Source\PSoC5/LCD.c ****     *  Print an uint16 value as a left-justified decimal value.
 635:.\Generated_Source\PSoC5/LCD.c ****     *
 636:.\Generated_Source\PSoC5/LCD.c ****     * Parameters:
 637:.\Generated_Source\PSoC5/LCD.c ****     *  value: A 16-bit value to be printed in ASCII characters as a decimal number
 638:.\Generated_Source\PSoC5/LCD.c ****     *
 639:.\Generated_Source\PSoC5/LCD.c ****     * Return:
 640:.\Generated_Source\PSoC5/LCD.c ****     *  None.
 641:.\Generated_Source\PSoC5/LCD.c ****     *
 642:.\Generated_Source\PSoC5/LCD.c ****     * Note:
 643:.\Generated_Source\PSoC5/LCD.c ****     *  This function is implemented as a macro.
 644:.\Generated_Source\PSoC5/LCD.c ****     *
 645:.\Generated_Source\PSoC5/LCD.c ****     *******************************************************************************/
 646:.\Generated_Source\PSoC5/LCD.c **** 
ARM GAS  C:\Users\khjtony\AppData\Local\Temp\ccFxoGLD.s 			page 30


 647:.\Generated_Source\PSoC5/LCD.c ****     
 648:.\Generated_Source\PSoC5/LCD.c ****     /*******************************************************************************
 649:.\Generated_Source\PSoC5/LCD.c ****     *  Function Name: LCD_PrintU32Number
 650:.\Generated_Source\PSoC5/LCD.c ****     ********************************************************************************
 651:.\Generated_Source\PSoC5/LCD.c ****     *
 652:.\Generated_Source\PSoC5/LCD.c ****     * Summary:
 653:.\Generated_Source\PSoC5/LCD.c ****     *  Print an uint32 value as a left-justified decimal value.
 654:.\Generated_Source\PSoC5/LCD.c ****     *
 655:.\Generated_Source\PSoC5/LCD.c ****     * Parameters:
 656:.\Generated_Source\PSoC5/LCD.c ****     *  value: A 32-bit value to be printed in ASCII characters as a decimal number
 657:.\Generated_Source\PSoC5/LCD.c ****     *
 658:.\Generated_Source\PSoC5/LCD.c ****     * Return:
 659:.\Generated_Source\PSoC5/LCD.c ****     *  None.
 660:.\Generated_Source\PSoC5/LCD.c ****     *
 661:.\Generated_Source\PSoC5/LCD.c ****     *******************************************************************************/
 662:.\Generated_Source\PSoC5/LCD.c ****     void LCD_PrintU32Number(uint32 value) 
 663:.\Generated_Source\PSoC5/LCD.c ****     {
 1006              		.loc 1 663 0
 1007              		.cfi_startproc
 1008              		@ args = 0, pretend = 0, frame = 24
 1009              		@ frame_needed = 1, uses_anonymous_args = 0
 1010 0000 80B5     		push	{r7, lr}
 1011              		.cfi_def_cfa_offset 8
 1012              		.cfi_offset 7, -8
 1013              		.cfi_offset 14, -4
 1014 0002 86B0     		sub	sp, sp, #24
 1015              		.cfi_def_cfa_offset 32
 1016 0004 00AF     		add	r7, sp, #0
 1017              		.cfi_def_cfa_register 7
 1018 0006 7860     		str	r0, [r7, #4]
 664:.\Generated_Source\PSoC5/LCD.c ****         uint8 tmpDigit;
 665:.\Generated_Source\PSoC5/LCD.c ****         char8 number[LCD_NUMBER_OF_REMAINDERS_U32 + 1u];
 666:.\Generated_Source\PSoC5/LCD.c ****         uint8 digIndex = LCD_NUMBER_OF_REMAINDERS_U32;
 1019              		.loc 1 666 0
 1020 0008 0A23     		movs	r3, #10
 1021 000a FB75     		strb	r3, [r7, #23]
 667:.\Generated_Source\PSoC5/LCD.c ****         
 668:.\Generated_Source\PSoC5/LCD.c ****         /* This API will output a decimal number as a string and that string will be 
 669:.\Generated_Source\PSoC5/LCD.c ****         * filled from end to start. Set Null termination character first.
 670:.\Generated_Source\PSoC5/LCD.c ****         */
 671:.\Generated_Source\PSoC5/LCD.c ****         number[digIndex] = (char8) '\0';
 1022              		.loc 1 671 0
 1023 000c FB7D     		ldrb	r3, [r7, #23]	@ zero_extendqisi2
 1024 000e 07F11801 		add	r1, r7, #24
 1025 0012 0B44     		add	r3, r3, r1
 1026 0014 0022     		movs	r2, #0
 1027 0016 03F8102C 		strb	r2, [r3, #-16]
 672:.\Generated_Source\PSoC5/LCD.c ****         digIndex--;
 1028              		.loc 1 672 0
 1029 001a FB7D     		ldrb	r3, [r7, #23]	@ zero_extendqisi2
 1030 001c 013B     		subs	r3, r3, #1
 1031 001e FB75     		strb	r3, [r7, #23]
 673:.\Generated_Source\PSoC5/LCD.c ****         
 674:.\Generated_Source\PSoC5/LCD.c ****         /* Load these in reverse order */
 675:.\Generated_Source\PSoC5/LCD.c ****         while(value >= LCD_TEN)
 1032              		.loc 1 675 0
 1033 0020 1CE0     		b	.L47
ARM GAS  C:\Users\khjtony\AppData\Local\Temp\ccFxoGLD.s 			page 31


 1034              	.L48:
 676:.\Generated_Source\PSoC5/LCD.c ****         {
 677:.\Generated_Source\PSoC5/LCD.c ****             /* Extract decimal digit, indexed by 'digIndex', from 'value' and
 678:.\Generated_Source\PSoC5/LCD.c ****             * convert it to ASCII character.
 679:.\Generated_Source\PSoC5/LCD.c ****             */
 680:.\Generated_Source\PSoC5/LCD.c ****             tmpDigit = (uint8) (((uint8) (value % LCD_TEN)) + (uint8) LCD_ZERO_CHAR_ASCII);
 1035              		.loc 1 680 0
 1036 0022 7968     		ldr	r1, [r7, #4]
 1037 0024 1E4B     		ldr	r3, .L49
 1038 0026 A3FB0123 		umull	r2, r3, r3, r1
 1039 002a DA08     		lsrs	r2, r3, #3
 1040 002c 1346     		mov	r3, r2
 1041 002e 9B00     		lsls	r3, r3, #2
 1042 0030 1344     		add	r3, r3, r2
 1043 0032 5B00     		lsls	r3, r3, #1
 1044 0034 CA1A     		subs	r2, r1, r3
 1045 0036 D3B2     		uxtb	r3, r2
 1046 0038 3033     		adds	r3, r3, #48
 1047 003a BB75     		strb	r3, [r7, #22]
 681:.\Generated_Source\PSoC5/LCD.c ****             
 682:.\Generated_Source\PSoC5/LCD.c ****             /* Temporary variable 'tmpDigit' is used to avoid Violation of MISRA rule 
 683:.\Generated_Source\PSoC5/LCD.c ****             * #10.3.
 684:.\Generated_Source\PSoC5/LCD.c ****             */
 685:.\Generated_Source\PSoC5/LCD.c ****             number[digIndex] = (char8) tmpDigit;
 1048              		.loc 1 685 0
 1049 003c FB7D     		ldrb	r3, [r7, #23]	@ zero_extendqisi2
 1050 003e 07F11801 		add	r1, r7, #24
 1051 0042 0B44     		add	r3, r3, r1
 1052 0044 BA7D     		ldrb	r2, [r7, #22]
 1053 0046 03F8102C 		strb	r2, [r3, #-16]
 686:.\Generated_Source\PSoC5/LCD.c ****             value /= LCD_TEN;
 1054              		.loc 1 686 0
 1055 004a 7A68     		ldr	r2, [r7, #4]
 1056 004c 144B     		ldr	r3, .L49
 1057 004e A3FB0213 		umull	r1, r3, r3, r2
 1058 0052 DB08     		lsrs	r3, r3, #3
 1059 0054 7B60     		str	r3, [r7, #4]
 687:.\Generated_Source\PSoC5/LCD.c ****             digIndex--;
 1060              		.loc 1 687 0
 1061 0056 FB7D     		ldrb	r3, [r7, #23]	@ zero_extendqisi2
 1062 0058 013B     		subs	r3, r3, #1
 1063 005a FB75     		strb	r3, [r7, #23]
 1064              	.L47:
 675:.\Generated_Source\PSoC5/LCD.c ****         while(value >= LCD_TEN)
 1065              		.loc 1 675 0 discriminator 1
 1066 005c 7B68     		ldr	r3, [r7, #4]
 1067 005e 092B     		cmp	r3, #9
 1068 0060 DFD8     		bhi	.L48
 688:.\Generated_Source\PSoC5/LCD.c ****         }
 689:.\Generated_Source\PSoC5/LCD.c ****         
 690:.\Generated_Source\PSoC5/LCD.c ****         /* Extract last decimal digit 'digIndex', from the 'value' and convert it
 691:.\Generated_Source\PSoC5/LCD.c ****         * to ASCII character.
 692:.\Generated_Source\PSoC5/LCD.c ****         */
 693:.\Generated_Source\PSoC5/LCD.c ****         tmpDigit = (uint8) (((uint8)(value % LCD_TEN)) + (uint8) LCD_ZERO_CHAR_ASCII);
 1069              		.loc 1 693 0
 1070 0062 7968     		ldr	r1, [r7, #4]
 1071 0064 0E4B     		ldr	r3, .L49
ARM GAS  C:\Users\khjtony\AppData\Local\Temp\ccFxoGLD.s 			page 32


 1072 0066 A3FB0123 		umull	r2, r3, r3, r1
 1073 006a DA08     		lsrs	r2, r3, #3
 1074 006c 1346     		mov	r3, r2
 1075 006e 9B00     		lsls	r3, r3, #2
 1076 0070 1344     		add	r3, r3, r2
 1077 0072 5B00     		lsls	r3, r3, #1
 1078 0074 CA1A     		subs	r2, r1, r3
 1079 0076 D3B2     		uxtb	r3, r2
 1080 0078 3033     		adds	r3, r3, #48
 1081 007a BB75     		strb	r3, [r7, #22]
 694:.\Generated_Source\PSoC5/LCD.c ****         number[digIndex] = (char8) tmpDigit;
 1082              		.loc 1 694 0
 1083 007c FB7D     		ldrb	r3, [r7, #23]	@ zero_extendqisi2
 1084 007e 07F11801 		add	r1, r7, #24
 1085 0082 0B44     		add	r3, r3, r1
 1086 0084 BA7D     		ldrb	r2, [r7, #22]
 1087 0086 03F8102C 		strb	r2, [r3, #-16]
 695:.\Generated_Source\PSoC5/LCD.c **** 
 696:.\Generated_Source\PSoC5/LCD.c ****         /* Print out number */
 697:.\Generated_Source\PSoC5/LCD.c ****         LCD_PrintString(&number[digIndex]);
 1088              		.loc 1 697 0
 1089 008a FB7D     		ldrb	r3, [r7, #23]	@ zero_extendqisi2
 1090 008c 07F10802 		add	r2, r7, #8
 1091 0090 1344     		add	r3, r3, r2
 1092 0092 1846     		mov	r0, r3
 1093 0094 FFF7FEFF 		bl	LCD_PrintString
 698:.\Generated_Source\PSoC5/LCD.c ****     }
 1094              		.loc 1 698 0
 1095 0098 1837     		adds	r7, r7, #24
 1096 009a BD46     		mov	sp, r7
 1097              		@ sp needed
 1098 009c 80BD     		pop	{r7, pc}
 1099              	.L50:
 1100 009e 00BF     		.align	2
 1101              	.L49:
 1102 00a0 CDCCCCCC 		.word	-858993459
 1103              		.cfi_endproc
 1104              	.LFE15:
 1105              		.size	LCD_PrintU32Number, .-LCD_PrintU32Number
 1106              		.section	.rodata
 1107              		.align	2
 1108              		.type	LCD_hex.4908, %object
 1109              		.size	LCD_hex.4908, 16
 1110              	LCD_hex.4908:
 1111 0000 30313233 		.ascii	"0123456789ABCDEF"
 1111      34353637 
 1111      38394142 
 1111      43444546 
 1112              		.text
 1113              	.Letext0:
 1114              		.file 2 ".\\Generated_Source\\PSoC5\\cytypes.h"
 1115              		.section	.debug_info,"",%progbits
 1116              	.Ldebug_info0:
 1117 0000 C0030000 		.4byte	0x3c0
 1118 0004 0400     		.2byte	0x4
 1119 0006 00000000 		.4byte	.Ldebug_abbrev0
 1120 000a 04       		.byte	0x4
ARM GAS  C:\Users\khjtony\AppData\Local\Temp\ccFxoGLD.s 			page 33


 1121 000b 01       		.uleb128 0x1
 1122 000c CA010000 		.4byte	.LASF51
 1123 0010 01       		.byte	0x1
 1124 0011 C6020000 		.4byte	.LASF52
 1125 0015 75000000 		.4byte	.LASF53
 1126 0019 00000000 		.4byte	.Ldebug_ranges0+0
 1127 001d 00000000 		.4byte	0
 1128 0021 00000000 		.4byte	.Ldebug_line0
 1129 0025 02       		.uleb128 0x2
 1130 0026 04       		.byte	0x4
 1131 0027 05       		.byte	0x5
 1132 0028 696E7400 		.ascii	"int\000"
 1133 002c 03       		.uleb128 0x3
 1134 002d 04       		.byte	0x4
 1135 002e 07       		.byte	0x7
 1136 002f 6C010000 		.4byte	.LASF0
 1137 0033 03       		.uleb128 0x3
 1138 0034 01       		.byte	0x1
 1139 0035 06       		.byte	0x6
 1140 0036 B4020000 		.4byte	.LASF1
 1141 003a 03       		.uleb128 0x3
 1142 003b 01       		.byte	0x1
 1143 003c 08       		.byte	0x8
 1144 003d E5000000 		.4byte	.LASF2
 1145 0041 03       		.uleb128 0x3
 1146 0042 02       		.byte	0x2
 1147 0043 05       		.byte	0x5
 1148 0044 94020000 		.4byte	.LASF3
 1149 0048 03       		.uleb128 0x3
 1150 0049 02       		.byte	0x2
 1151 004a 07       		.byte	0x7
 1152 004b 62000000 		.4byte	.LASF4
 1153 004f 03       		.uleb128 0x3
 1154 0050 04       		.byte	0x4
 1155 0051 05       		.byte	0x5
 1156 0052 A6020000 		.4byte	.LASF5
 1157 0056 03       		.uleb128 0x3
 1158 0057 04       		.byte	0x4
 1159 0058 07       		.byte	0x7
 1160 0059 F8000000 		.4byte	.LASF6
 1161 005d 03       		.uleb128 0x3
 1162 005e 08       		.byte	0x8
 1163 005f 05       		.byte	0x5
 1164 0060 5C020000 		.4byte	.LASF7
 1165 0064 03       		.uleb128 0x3
 1166 0065 08       		.byte	0x8
 1167 0066 07       		.byte	0x7
 1168 0067 79010000 		.4byte	.LASF8
 1169 006b 03       		.uleb128 0x3
 1170 006c 04       		.byte	0x4
 1171 006d 07       		.byte	0x7
 1172 006e 4D020000 		.4byte	.LASF9
 1173 0072 03       		.uleb128 0x3
 1174 0073 01       		.byte	0x1
 1175 0074 08       		.byte	0x8
 1176 0075 AF020000 		.4byte	.LASF10
 1177 0079 04       		.uleb128 0x4
ARM GAS  C:\Users\khjtony\AppData\Local\Temp\ccFxoGLD.s 			page 34


 1178 007a 0A010000 		.4byte	.LASF11
 1179 007e 02       		.byte	0x2
 1180 007f A1       		.byte	0xa1
 1181 0080 3A000000 		.4byte	0x3a
 1182 0084 04       		.uleb128 0x4
 1183 0085 49010000 		.4byte	.LASF12
 1184 0089 02       		.byte	0x2
 1185 008a A2       		.byte	0xa2
 1186 008b 48000000 		.4byte	0x48
 1187 008f 04       		.uleb128 0x4
 1188 0090 5C010000 		.4byte	.LASF13
 1189 0094 02       		.byte	0x2
 1190 0095 A3       		.byte	0xa3
 1191 0096 56000000 		.4byte	0x56
 1192 009a 03       		.uleb128 0x3
 1193 009b 04       		.byte	0x4
 1194 009c 04       		.byte	0x4
 1195 009d D5000000 		.4byte	.LASF14
 1196 00a1 03       		.uleb128 0x3
 1197 00a2 08       		.byte	0x8
 1198 00a3 04       		.byte	0x4
 1199 00a4 27010000 		.4byte	.LASF15
 1200 00a8 04       		.uleb128 0x4
 1201 00a9 56020000 		.4byte	.LASF16
 1202 00ad 02       		.byte	0x2
 1203 00ae B2       		.byte	0xb2
 1204 00af 72000000 		.4byte	0x72
 1205 00b3 05       		.uleb128 0x5
 1206 00b4 F3000000 		.4byte	.LASF17
 1207 00b8 02       		.byte	0x2
 1208 00b9 4B01     		.2byte	0x14b
 1209 00bb BF000000 		.4byte	0xbf
 1210 00bf 06       		.uleb128 0x6
 1211 00c0 79000000 		.4byte	0x79
 1212 00c4 07       		.uleb128 0x7
 1213 00c5 82020000 		.4byte	.LASF18
 1214 00c9 01       		.byte	0x1
 1215 00ca 37       		.byte	0x37
 1216 00cb 00000000 		.4byte	.LFB0
 1217 00cf 6C000000 		.4byte	.LFE0-.LFB0
 1218 00d3 01       		.uleb128 0x1
 1219 00d4 9C       		.byte	0x9c
 1220 00d5 07       		.uleb128 0x7
 1221 00d6 2E010000 		.4byte	.LASF19
 1222 00da 01       		.byte	0x1
 1223 00db 68       		.byte	0x68
 1224 00dc 00000000 		.4byte	.LFB1
 1225 00e0 18000000 		.4byte	.LFE1-.LFB1
 1226 00e4 01       		.uleb128 0x1
 1227 00e5 9C       		.byte	0x9c
 1228 00e6 07       		.uleb128 0x7
 1229 00e7 DB000000 		.4byte	.LASF20
 1230 00eb 01       		.byte	0x1
 1231 00ec 89       		.byte	0x89
 1232 00ed 00000000 		.4byte	.LFB2
 1233 00f1 20000000 		.4byte	.LFE2-.LFB2
 1234 00f5 01       		.uleb128 0x1
ARM GAS  C:\Users\khjtony\AppData\Local\Temp\ccFxoGLD.s 			page 35


 1235 00f6 9C       		.byte	0x9c
 1236 00f7 07       		.uleb128 0x7
 1237 00f8 3F000000 		.4byte	.LASF21
 1238 00fc 01       		.byte	0x1
 1239 00fd A8       		.byte	0xa8
 1240 00fe 00000000 		.4byte	.LFB3
 1241 0102 18000000 		.4byte	.LFE3-.LFB3
 1242 0106 01       		.uleb128 0x1
 1243 0107 9C       		.byte	0x9c
 1244 0108 08       		.uleb128 0x8
 1245 0109 9E010000 		.4byte	.LASF23
 1246 010d 01       		.byte	0x1
 1247 010e C4       		.byte	0xc4
 1248 010f 00000000 		.4byte	.LFB4
 1249 0113 6C000000 		.4byte	.LFE4-.LFB4
 1250 0117 01       		.uleb128 0x1
 1251 0118 9C       		.byte	0x9c
 1252 0119 3A010000 		.4byte	0x13a
 1253 011d 09       		.uleb128 0x9
 1254 011e 726F7700 		.ascii	"row\000"
 1255 0122 01       		.byte	0x1
 1256 0123 C4       		.byte	0xc4
 1257 0124 79000000 		.4byte	0x79
 1258 0128 02       		.uleb128 0x2
 1259 0129 91       		.byte	0x91
 1260 012a 77       		.sleb128 -9
 1261 012b 0A       		.uleb128 0xa
 1262 012c C0000000 		.4byte	.LASF22
 1263 0130 01       		.byte	0x1
 1264 0131 C4       		.byte	0xc4
 1265 0132 79000000 		.4byte	0x79
 1266 0136 02       		.uleb128 0x2
 1267 0137 91       		.byte	0x91
 1268 0138 76       		.sleb128 -10
 1269 0139 00       		.byte	0
 1270 013a 08       		.uleb128 0x8
 1271 013b 39010000 		.4byte	.LASF24
 1272 013f 01       		.byte	0x1
 1273 0140 E9       		.byte	0xe9
 1274 0141 00000000 		.4byte	.LFB5
 1275 0145 38000000 		.4byte	.LFE5-.LFB5
 1276 0149 01       		.uleb128 0x1
 1277 014a 9C       		.byte	0x9c
 1278 014b 7A010000 		.4byte	0x17a
 1279 014f 0A       		.uleb128 0xa
 1280 0150 AC000000 		.4byte	.LASF25
 1281 0154 01       		.byte	0x1
 1282 0155 E9       		.byte	0xe9
 1283 0156 7A010000 		.4byte	0x17a
 1284 015a 02       		.uleb128 0x2
 1285 015b 91       		.byte	0x91
 1286 015c 6C       		.sleb128 -20
 1287 015d 0B       		.uleb128 0xb
 1288 015e 1F010000 		.4byte	.LASF26
 1289 0162 01       		.byte	0x1
 1290 0163 EB       		.byte	0xeb
 1291 0164 79000000 		.4byte	0x79
ARM GAS  C:\Users\khjtony\AppData\Local\Temp\ccFxoGLD.s 			page 36


 1292 0168 02       		.uleb128 0x2
 1293 0169 91       		.byte	0x91
 1294 016a 77       		.sleb128 -9
 1295 016b 0B       		.uleb128 0xb
 1296 016c 9E020000 		.4byte	.LASF27
 1297 0170 01       		.byte	0x1
 1298 0171 EC       		.byte	0xec
 1299 0172 A8000000 		.4byte	0xa8
 1300 0176 02       		.uleb128 0x2
 1301 0177 91       		.byte	0x91
 1302 0178 76       		.sleb128 -10
 1303 0179 00       		.byte	0
 1304 017a 0C       		.uleb128 0xc
 1305 017b 04       		.byte	0x4
 1306 017c 80010000 		.4byte	0x180
 1307 0180 0D       		.uleb128 0xd
 1308 0181 A8000000 		.4byte	0xa8
 1309 0185 0E       		.uleb128 0xe
 1310 0186 BE010000 		.4byte	.LASF28
 1311 018a 01       		.byte	0x1
 1312 018b 0801     		.2byte	0x108
 1313 018d 00000000 		.4byte	.LFB6
 1314 0191 18000000 		.4byte	.LFE6-.LFB6
 1315 0195 01       		.uleb128 0x1
 1316 0196 9C       		.byte	0x9c
 1317 0197 AB010000 		.4byte	0x1ab
 1318 019b 0F       		.uleb128 0xf
 1319 019c 35000000 		.4byte	.LASF29
 1320 01a0 01       		.byte	0x1
 1321 01a1 0801     		.2byte	0x108
 1322 01a3 A8000000 		.4byte	0xa8
 1323 01a7 02       		.uleb128 0x2
 1324 01a8 91       		.byte	0x91
 1325 01a9 77       		.sleb128 -9
 1326 01aa 00       		.byte	0
 1327 01ab 0E       		.uleb128 0xe
 1328 01ac C7000000 		.4byte	.LASF30
 1329 01b0 01       		.byte	0x1
 1330 01b1 1C01     		.2byte	0x11c
 1331 01b3 00000000 		.4byte	.LFB7
 1332 01b7 32000000 		.4byte	.LFE7-.LFB7
 1333 01bb 01       		.uleb128 0x1
 1334 01bc 9C       		.byte	0x9c
 1335 01bd E0010000 		.4byte	0x1e0
 1336 01c1 0F       		.uleb128 0xf
 1337 01c2 C0020000 		.4byte	.LASF31
 1338 01c6 01       		.byte	0x1
 1339 01c7 1C01     		.2byte	0x11c
 1340 01c9 79000000 		.4byte	0x79
 1341 01cd 02       		.uleb128 0x2
 1342 01ce 91       		.byte	0x91
 1343 01cf 6F       		.sleb128 -17
 1344 01d0 10       		.uleb128 0x10
 1345 01d1 EB020000 		.4byte	.LASF32
 1346 01d5 01       		.byte	0x1
 1347 01d6 1E01     		.2byte	0x11e
 1348 01d8 79000000 		.4byte	0x79
ARM GAS  C:\Users\khjtony\AppData\Local\Temp\ccFxoGLD.s 			page 37


 1349 01dc 02       		.uleb128 0x2
 1350 01dd 91       		.byte	0x91
 1351 01de 77       		.sleb128 -9
 1352 01df 00       		.byte	0
 1353 01e0 0E       		.uleb128 0xe
 1354 01e1 15000000 		.4byte	.LASF33
 1355 01e5 01       		.byte	0x1
 1356 01e6 3A01     		.2byte	0x13a
 1357 01e8 00000000 		.4byte	.LFB8
 1358 01ec 32000000 		.4byte	.LFE8-.LFB8
 1359 01f0 01       		.uleb128 0x1
 1360 01f1 9C       		.byte	0x9c
 1361 01f2 15020000 		.4byte	0x215
 1362 01f6 0F       		.uleb128 0xf
 1363 01f7 E5020000 		.4byte	.LASF34
 1364 01fb 01       		.byte	0x1
 1365 01fc 3A01     		.2byte	0x13a
 1366 01fe 79000000 		.4byte	0x79
 1367 0202 02       		.uleb128 0x2
 1368 0203 91       		.byte	0x91
 1369 0204 6F       		.sleb128 -17
 1370 0205 10       		.uleb128 0x10
 1371 0206 EB020000 		.4byte	.LASF32
 1372 020a 01       		.byte	0x1
 1373 020b 3C01     		.2byte	0x13c
 1374 020d 79000000 		.4byte	0x79
 1375 0211 02       		.uleb128 0x2
 1376 0212 91       		.byte	0x91
 1377 0213 77       		.sleb128 -9
 1378 0214 00       		.byte	0
 1379 0215 0E       		.uleb128 0xe
 1380 0216 50010000 		.4byte	.LASF35
 1381 021a 01       		.byte	0x1
 1382 021b 5C01     		.2byte	0x15c
 1383 021d 00000000 		.4byte	.LFB9
 1384 0221 78010000 		.4byte	.LFE9-.LFB9
 1385 0225 01       		.uleb128 0x1
 1386 0226 9C       		.byte	0x9c
 1387 0227 4A020000 		.4byte	0x24a
 1388 022b 10       		.uleb128 0x10
 1389 022c 48000000 		.4byte	.LASF36
 1390 0230 01       		.byte	0x1
 1391 0231 5E01     		.2byte	0x15e
 1392 0233 79000000 		.4byte	0x79
 1393 0237 02       		.uleb128 0x2
 1394 0238 91       		.byte	0x91
 1395 0239 73       		.sleb128 -13
 1396 023a 10       		.uleb128 0x10
 1397 023b 6A020000 		.4byte	.LASF37
 1398 023f 01       		.byte	0x1
 1399 0240 5F01     		.2byte	0x15f
 1400 0242 8F000000 		.4byte	0x8f
 1401 0246 02       		.uleb128 0x2
 1402 0247 91       		.byte	0x91
 1403 0248 74       		.sleb128 -12
 1404 0249 00       		.byte	0
 1405 024a 11       		.uleb128 0x11
ARM GAS  C:\Users\khjtony\AppData\Local\Temp\ccFxoGLD.s 			page 38


 1406 024b B3000000 		.4byte	.LASF38
 1407 024f 01       		.byte	0x1
 1408 0250 E601     		.2byte	0x1e6
 1409 0252 00000000 		.4byte	.LFB10
 1410 0256 78000000 		.4byte	.LFE10-.LFB10
 1411 025a 01       		.uleb128 0x1
 1412 025b 9C       		.byte	0x9c
 1413 025c 70020000 		.4byte	0x270
 1414 0260 0F       		.uleb128 0xf
 1415 0261 EB020000 		.4byte	.LASF32
 1416 0265 01       		.byte	0x1
 1417 0266 E601     		.2byte	0x1e6
 1418 0268 79000000 		.4byte	0x79
 1419 026c 02       		.uleb128 0x2
 1420 026d 91       		.byte	0x91
 1421 026e 77       		.sleb128 -9
 1422 026f 00       		.byte	0
 1423 0270 11       		.uleb128 0x11
 1424 0271 10010000 		.4byte	.LASF39
 1425 0275 01       		.byte	0x1
 1426 0276 1002     		.2byte	0x210
 1427 0278 00000000 		.4byte	.LFB11
 1428 027c 60000000 		.4byte	.LFE11-.LFB11
 1429 0280 01       		.uleb128 0x1
 1430 0281 9C       		.byte	0x9c
 1431 0282 96020000 		.4byte	0x296
 1432 0286 0F       		.uleb128 0xf
 1433 0287 EB020000 		.4byte	.LASF32
 1434 028b 01       		.byte	0x1
 1435 028c 1002     		.2byte	0x210
 1436 028e 79000000 		.4byte	0x79
 1437 0292 02       		.uleb128 0x2
 1438 0293 91       		.byte	0x91
 1439 0294 77       		.sleb128 -9
 1440 0295 00       		.byte	0
 1441 0296 0E       		.uleb128 0xe
 1442 0297 90010000 		.4byte	.LASF40
 1443 029b 01       		.byte	0x1
 1444 029c 3802     		.2byte	0x238
 1445 029e 00000000 		.4byte	.LFB12
 1446 02a2 34000000 		.4byte	.LFE12-.LFB12
 1447 02a6 01       		.uleb128 0x1
 1448 02a7 9C       		.byte	0x9c
 1449 02a8 CE020000 		.4byte	0x2ce
 1450 02ac 0F       		.uleb128 0xf
 1451 02ad 48000000 		.4byte	.LASF36
 1452 02b1 01       		.byte	0x1
 1453 02b2 3802     		.2byte	0x238
 1454 02b4 79000000 		.4byte	0x79
 1455 02b8 02       		.uleb128 0x2
 1456 02b9 91       		.byte	0x91
 1457 02ba 77       		.sleb128 -9
 1458 02bb 10       		.uleb128 0x10
 1459 02bc 5A000000 		.4byte	.LASF41
 1460 02c0 01       		.byte	0x1
 1461 02c1 3A02     		.2byte	0x23a
 1462 02c3 DE020000 		.4byte	0x2de
ARM GAS  C:\Users\khjtony\AppData\Local\Temp\ccFxoGLD.s 			page 39


 1463 02c7 05       		.uleb128 0x5
 1464 02c8 03       		.byte	0x3
 1465 02c9 00000000 		.4byte	LCD_hex.4908
 1466 02cd 00       		.byte	0
 1467 02ce 12       		.uleb128 0x12
 1468 02cf A8000000 		.4byte	0xa8
 1469 02d3 DE020000 		.4byte	0x2de
 1470 02d7 13       		.uleb128 0x13
 1471 02d8 6B000000 		.4byte	0x6b
 1472 02dc 0F       		.byte	0xf
 1473 02dd 00       		.byte	0
 1474 02de 0D       		.uleb128 0xd
 1475 02df CE020000 		.4byte	0x2ce
 1476 02e3 0E       		.uleb128 0xe
 1477 02e4 06000000 		.4byte	.LASF42
 1478 02e8 01       		.byte	0x1
 1479 02e9 4F02     		.2byte	0x24f
 1480 02eb 00000000 		.4byte	.LFB13
 1481 02ef 28000000 		.4byte	.LFE13-.LFB13
 1482 02f3 01       		.uleb128 0x1
 1483 02f4 9C       		.byte	0x9c
 1484 02f5 09030000 		.4byte	0x309
 1485 02f9 0F       		.uleb128 0xf
 1486 02fa 48000000 		.4byte	.LASF36
 1487 02fe 01       		.byte	0x1
 1488 02ff 4F02     		.2byte	0x24f
 1489 0301 84000000 		.4byte	0x84
 1490 0305 02       		.uleb128 0x2
 1491 0306 91       		.byte	0x91
 1492 0307 76       		.sleb128 -10
 1493 0308 00       		.byte	0
 1494 0309 0E       		.uleb128 0xe
 1495 030a 26000000 		.4byte	.LASF43
 1496 030e 01       		.byte	0x1
 1497 030f 6402     		.2byte	0x264
 1498 0311 00000000 		.4byte	.LFB14
 1499 0315 30000000 		.4byte	.LFE14-.LFB14
 1500 0319 01       		.uleb128 0x1
 1501 031a 9C       		.byte	0x9c
 1502 031b 3E030000 		.4byte	0x33e
 1503 031f 0F       		.uleb128 0xf
 1504 0320 48000000 		.4byte	.LASF36
 1505 0324 01       		.byte	0x1
 1506 0325 6402     		.2byte	0x264
 1507 0327 8F000000 		.4byte	0x8f
 1508 032b 02       		.uleb128 0x2
 1509 032c 91       		.byte	0x91
 1510 032d 6C       		.sleb128 -20
 1511 032e 10       		.uleb128 0x10
 1512 032f 00000000 		.4byte	.LASF44
 1513 0333 01       		.byte	0x1
 1514 0334 6602     		.2byte	0x266
 1515 0336 79000000 		.4byte	0x79
 1516 033a 02       		.uleb128 0x2
 1517 033b 91       		.byte	0x91
 1518 033c 77       		.sleb128 -9
 1519 033d 00       		.byte	0
ARM GAS  C:\Users\khjtony\AppData\Local\Temp\ccFxoGLD.s 			page 40


 1520 033e 0E       		.uleb128 0xe
 1521 033f AB010000 		.4byte	.LASF45
 1522 0343 01       		.byte	0x1
 1523 0344 9602     		.2byte	0x296
 1524 0346 00000000 		.4byte	.LFB15
 1525 034a A4000000 		.4byte	.LFE15-.LFB15
 1526 034e 01       		.uleb128 0x1
 1527 034f 9C       		.byte	0x9c
 1528 0350 91030000 		.4byte	0x391
 1529 0354 0F       		.uleb128 0xf
 1530 0355 48000000 		.4byte	.LASF36
 1531 0359 01       		.byte	0x1
 1532 035a 9602     		.2byte	0x296
 1533 035c 8F000000 		.4byte	0x8f
 1534 0360 02       		.uleb128 0x2
 1535 0361 91       		.byte	0x91
 1536 0362 64       		.sleb128 -28
 1537 0363 10       		.uleb128 0x10
 1538 0364 8B020000 		.4byte	.LASF46
 1539 0368 01       		.byte	0x1
 1540 0369 9802     		.2byte	0x298
 1541 036b 79000000 		.4byte	0x79
 1542 036f 02       		.uleb128 0x2
 1543 0370 91       		.byte	0x91
 1544 0371 76       		.sleb128 -10
 1545 0372 10       		.uleb128 0x10
 1546 0373 46020000 		.4byte	.LASF47
 1547 0377 01       		.byte	0x1
 1548 0378 9902     		.2byte	0x299
 1549 037a 91030000 		.4byte	0x391
 1550 037e 02       		.uleb128 0x2
 1551 037f 91       		.byte	0x91
 1552 0380 68       		.sleb128 -24
 1553 0381 10       		.uleb128 0x10
 1554 0382 63010000 		.4byte	.LASF48
 1555 0386 01       		.byte	0x1
 1556 0387 9A02     		.2byte	0x29a
 1557 0389 79000000 		.4byte	0x79
 1558 038d 02       		.uleb128 0x2
 1559 038e 91       		.byte	0x91
 1560 038f 77       		.sleb128 -9
 1561 0390 00       		.byte	0
 1562 0391 12       		.uleb128 0x12
 1563 0392 A8000000 		.4byte	0xa8
 1564 0396 A1030000 		.4byte	0x3a1
 1565 039a 13       		.uleb128 0x13
 1566 039b 6B000000 		.4byte	0x6b
 1567 039f 0A       		.byte	0xa
 1568 03a0 00       		.byte	0
 1569 03a1 14       		.uleb128 0x14
 1570 03a2 4E000000 		.4byte	.LASF49
 1571 03a6 01       		.byte	0x1
 1572 03a7 1D       		.byte	0x1d
 1573 03a8 79000000 		.4byte	0x79
 1574 03ac 05       		.uleb128 0x5
 1575 03ad 03       		.byte	0x3
 1576 03ae 00000000 		.4byte	LCD_initVar
ARM GAS  C:\Users\khjtony\AppData\Local\Temp\ccFxoGLD.s 			page 41


 1577 03b2 14       		.uleb128 0x14
 1578 03b3 72020000 		.4byte	.LASF50
 1579 03b7 01       		.byte	0x1
 1580 03b8 1B       		.byte	0x1b
 1581 03b9 79000000 		.4byte	0x79
 1582 03bd 05       		.uleb128 0x5
 1583 03be 03       		.byte	0x3
 1584 03bf 00000000 		.4byte	LCD_enableState
 1585 03c3 00       		.byte	0
 1586              		.section	.debug_abbrev,"",%progbits
 1587              	.Ldebug_abbrev0:
 1588 0000 01       		.uleb128 0x1
 1589 0001 11       		.uleb128 0x11
 1590 0002 01       		.byte	0x1
 1591 0003 25       		.uleb128 0x25
 1592 0004 0E       		.uleb128 0xe
 1593 0005 13       		.uleb128 0x13
 1594 0006 0B       		.uleb128 0xb
 1595 0007 03       		.uleb128 0x3
 1596 0008 0E       		.uleb128 0xe
 1597 0009 1B       		.uleb128 0x1b
 1598 000a 0E       		.uleb128 0xe
 1599 000b 55       		.uleb128 0x55
 1600 000c 17       		.uleb128 0x17
 1601 000d 11       		.uleb128 0x11
 1602 000e 01       		.uleb128 0x1
 1603 000f 10       		.uleb128 0x10
 1604 0010 17       		.uleb128 0x17
 1605 0011 00       		.byte	0
 1606 0012 00       		.byte	0
 1607 0013 02       		.uleb128 0x2
 1608 0014 24       		.uleb128 0x24
 1609 0015 00       		.byte	0
 1610 0016 0B       		.uleb128 0xb
 1611 0017 0B       		.uleb128 0xb
 1612 0018 3E       		.uleb128 0x3e
 1613 0019 0B       		.uleb128 0xb
 1614 001a 03       		.uleb128 0x3
 1615 001b 08       		.uleb128 0x8
 1616 001c 00       		.byte	0
 1617 001d 00       		.byte	0
 1618 001e 03       		.uleb128 0x3
 1619 001f 24       		.uleb128 0x24
 1620 0020 00       		.byte	0
 1621 0021 0B       		.uleb128 0xb
 1622 0022 0B       		.uleb128 0xb
 1623 0023 3E       		.uleb128 0x3e
 1624 0024 0B       		.uleb128 0xb
 1625 0025 03       		.uleb128 0x3
 1626 0026 0E       		.uleb128 0xe
 1627 0027 00       		.byte	0
 1628 0028 00       		.byte	0
 1629 0029 04       		.uleb128 0x4
 1630 002a 16       		.uleb128 0x16
 1631 002b 00       		.byte	0
 1632 002c 03       		.uleb128 0x3
 1633 002d 0E       		.uleb128 0xe
ARM GAS  C:\Users\khjtony\AppData\Local\Temp\ccFxoGLD.s 			page 42


 1634 002e 3A       		.uleb128 0x3a
 1635 002f 0B       		.uleb128 0xb
 1636 0030 3B       		.uleb128 0x3b
 1637 0031 0B       		.uleb128 0xb
 1638 0032 49       		.uleb128 0x49
 1639 0033 13       		.uleb128 0x13
 1640 0034 00       		.byte	0
 1641 0035 00       		.byte	0
 1642 0036 05       		.uleb128 0x5
 1643 0037 16       		.uleb128 0x16
 1644 0038 00       		.byte	0
 1645 0039 03       		.uleb128 0x3
 1646 003a 0E       		.uleb128 0xe
 1647 003b 3A       		.uleb128 0x3a
 1648 003c 0B       		.uleb128 0xb
 1649 003d 3B       		.uleb128 0x3b
 1650 003e 05       		.uleb128 0x5
 1651 003f 49       		.uleb128 0x49
 1652 0040 13       		.uleb128 0x13
 1653 0041 00       		.byte	0
 1654 0042 00       		.byte	0
 1655 0043 06       		.uleb128 0x6
 1656 0044 35       		.uleb128 0x35
 1657 0045 00       		.byte	0
 1658 0046 49       		.uleb128 0x49
 1659 0047 13       		.uleb128 0x13
 1660 0048 00       		.byte	0
 1661 0049 00       		.byte	0
 1662 004a 07       		.uleb128 0x7
 1663 004b 2E       		.uleb128 0x2e
 1664 004c 00       		.byte	0
 1665 004d 3F       		.uleb128 0x3f
 1666 004e 19       		.uleb128 0x19
 1667 004f 03       		.uleb128 0x3
 1668 0050 0E       		.uleb128 0xe
 1669 0051 3A       		.uleb128 0x3a
 1670 0052 0B       		.uleb128 0xb
 1671 0053 3B       		.uleb128 0x3b
 1672 0054 0B       		.uleb128 0xb
 1673 0055 27       		.uleb128 0x27
 1674 0056 19       		.uleb128 0x19
 1675 0057 11       		.uleb128 0x11
 1676 0058 01       		.uleb128 0x1
 1677 0059 12       		.uleb128 0x12
 1678 005a 06       		.uleb128 0x6
 1679 005b 40       		.uleb128 0x40
 1680 005c 18       		.uleb128 0x18
 1681 005d 9642     		.uleb128 0x2116
 1682 005f 19       		.uleb128 0x19
 1683 0060 00       		.byte	0
 1684 0061 00       		.byte	0
 1685 0062 08       		.uleb128 0x8
 1686 0063 2E       		.uleb128 0x2e
 1687 0064 01       		.byte	0x1
 1688 0065 3F       		.uleb128 0x3f
 1689 0066 19       		.uleb128 0x19
 1690 0067 03       		.uleb128 0x3
ARM GAS  C:\Users\khjtony\AppData\Local\Temp\ccFxoGLD.s 			page 43


 1691 0068 0E       		.uleb128 0xe
 1692 0069 3A       		.uleb128 0x3a
 1693 006a 0B       		.uleb128 0xb
 1694 006b 3B       		.uleb128 0x3b
 1695 006c 0B       		.uleb128 0xb
 1696 006d 27       		.uleb128 0x27
 1697 006e 19       		.uleb128 0x19
 1698 006f 11       		.uleb128 0x11
 1699 0070 01       		.uleb128 0x1
 1700 0071 12       		.uleb128 0x12
 1701 0072 06       		.uleb128 0x6
 1702 0073 40       		.uleb128 0x40
 1703 0074 18       		.uleb128 0x18
 1704 0075 9642     		.uleb128 0x2116
 1705 0077 19       		.uleb128 0x19
 1706 0078 01       		.uleb128 0x1
 1707 0079 13       		.uleb128 0x13
 1708 007a 00       		.byte	0
 1709 007b 00       		.byte	0
 1710 007c 09       		.uleb128 0x9
 1711 007d 05       		.uleb128 0x5
 1712 007e 00       		.byte	0
 1713 007f 03       		.uleb128 0x3
 1714 0080 08       		.uleb128 0x8
 1715 0081 3A       		.uleb128 0x3a
 1716 0082 0B       		.uleb128 0xb
 1717 0083 3B       		.uleb128 0x3b
 1718 0084 0B       		.uleb128 0xb
 1719 0085 49       		.uleb128 0x49
 1720 0086 13       		.uleb128 0x13
 1721 0087 02       		.uleb128 0x2
 1722 0088 18       		.uleb128 0x18
 1723 0089 00       		.byte	0
 1724 008a 00       		.byte	0
 1725 008b 0A       		.uleb128 0xa
 1726 008c 05       		.uleb128 0x5
 1727 008d 00       		.byte	0
 1728 008e 03       		.uleb128 0x3
 1729 008f 0E       		.uleb128 0xe
 1730 0090 3A       		.uleb128 0x3a
 1731 0091 0B       		.uleb128 0xb
 1732 0092 3B       		.uleb128 0x3b
 1733 0093 0B       		.uleb128 0xb
 1734 0094 49       		.uleb128 0x49
 1735 0095 13       		.uleb128 0x13
 1736 0096 02       		.uleb128 0x2
 1737 0097 18       		.uleb128 0x18
 1738 0098 00       		.byte	0
 1739 0099 00       		.byte	0
 1740 009a 0B       		.uleb128 0xb
 1741 009b 34       		.uleb128 0x34
 1742 009c 00       		.byte	0
 1743 009d 03       		.uleb128 0x3
 1744 009e 0E       		.uleb128 0xe
 1745 009f 3A       		.uleb128 0x3a
 1746 00a0 0B       		.uleb128 0xb
 1747 00a1 3B       		.uleb128 0x3b
ARM GAS  C:\Users\khjtony\AppData\Local\Temp\ccFxoGLD.s 			page 44


 1748 00a2 0B       		.uleb128 0xb
 1749 00a3 49       		.uleb128 0x49
 1750 00a4 13       		.uleb128 0x13
 1751 00a5 02       		.uleb128 0x2
 1752 00a6 18       		.uleb128 0x18
 1753 00a7 00       		.byte	0
 1754 00a8 00       		.byte	0
 1755 00a9 0C       		.uleb128 0xc
 1756 00aa 0F       		.uleb128 0xf
 1757 00ab 00       		.byte	0
 1758 00ac 0B       		.uleb128 0xb
 1759 00ad 0B       		.uleb128 0xb
 1760 00ae 49       		.uleb128 0x49
 1761 00af 13       		.uleb128 0x13
 1762 00b0 00       		.byte	0
 1763 00b1 00       		.byte	0
 1764 00b2 0D       		.uleb128 0xd
 1765 00b3 26       		.uleb128 0x26
 1766 00b4 00       		.byte	0
 1767 00b5 49       		.uleb128 0x49
 1768 00b6 13       		.uleb128 0x13
 1769 00b7 00       		.byte	0
 1770 00b8 00       		.byte	0
 1771 00b9 0E       		.uleb128 0xe
 1772 00ba 2E       		.uleb128 0x2e
 1773 00bb 01       		.byte	0x1
 1774 00bc 3F       		.uleb128 0x3f
 1775 00bd 19       		.uleb128 0x19
 1776 00be 03       		.uleb128 0x3
 1777 00bf 0E       		.uleb128 0xe
 1778 00c0 3A       		.uleb128 0x3a
 1779 00c1 0B       		.uleb128 0xb
 1780 00c2 3B       		.uleb128 0x3b
 1781 00c3 05       		.uleb128 0x5
 1782 00c4 27       		.uleb128 0x27
 1783 00c5 19       		.uleb128 0x19
 1784 00c6 11       		.uleb128 0x11
 1785 00c7 01       		.uleb128 0x1
 1786 00c8 12       		.uleb128 0x12
 1787 00c9 06       		.uleb128 0x6
 1788 00ca 40       		.uleb128 0x40
 1789 00cb 18       		.uleb128 0x18
 1790 00cc 9642     		.uleb128 0x2116
 1791 00ce 19       		.uleb128 0x19
 1792 00cf 01       		.uleb128 0x1
 1793 00d0 13       		.uleb128 0x13
 1794 00d1 00       		.byte	0
 1795 00d2 00       		.byte	0
 1796 00d3 0F       		.uleb128 0xf
 1797 00d4 05       		.uleb128 0x5
 1798 00d5 00       		.byte	0
 1799 00d6 03       		.uleb128 0x3
 1800 00d7 0E       		.uleb128 0xe
 1801 00d8 3A       		.uleb128 0x3a
 1802 00d9 0B       		.uleb128 0xb
 1803 00da 3B       		.uleb128 0x3b
 1804 00db 05       		.uleb128 0x5
ARM GAS  C:\Users\khjtony\AppData\Local\Temp\ccFxoGLD.s 			page 45


 1805 00dc 49       		.uleb128 0x49
 1806 00dd 13       		.uleb128 0x13
 1807 00de 02       		.uleb128 0x2
 1808 00df 18       		.uleb128 0x18
 1809 00e0 00       		.byte	0
 1810 00e1 00       		.byte	0
 1811 00e2 10       		.uleb128 0x10
 1812 00e3 34       		.uleb128 0x34
 1813 00e4 00       		.byte	0
 1814 00e5 03       		.uleb128 0x3
 1815 00e6 0E       		.uleb128 0xe
 1816 00e7 3A       		.uleb128 0x3a
 1817 00e8 0B       		.uleb128 0xb
 1818 00e9 3B       		.uleb128 0x3b
 1819 00ea 05       		.uleb128 0x5
 1820 00eb 49       		.uleb128 0x49
 1821 00ec 13       		.uleb128 0x13
 1822 00ed 02       		.uleb128 0x2
 1823 00ee 18       		.uleb128 0x18
 1824 00ef 00       		.byte	0
 1825 00f0 00       		.byte	0
 1826 00f1 11       		.uleb128 0x11
 1827 00f2 2E       		.uleb128 0x2e
 1828 00f3 01       		.byte	0x1
 1829 00f4 03       		.uleb128 0x3
 1830 00f5 0E       		.uleb128 0xe
 1831 00f6 3A       		.uleb128 0x3a
 1832 00f7 0B       		.uleb128 0xb
 1833 00f8 3B       		.uleb128 0x3b
 1834 00f9 05       		.uleb128 0x5
 1835 00fa 27       		.uleb128 0x27
 1836 00fb 19       		.uleb128 0x19
 1837 00fc 11       		.uleb128 0x11
 1838 00fd 01       		.uleb128 0x1
 1839 00fe 12       		.uleb128 0x12
 1840 00ff 06       		.uleb128 0x6
 1841 0100 40       		.uleb128 0x40
 1842 0101 18       		.uleb128 0x18
 1843 0102 9642     		.uleb128 0x2116
 1844 0104 19       		.uleb128 0x19
 1845 0105 01       		.uleb128 0x1
 1846 0106 13       		.uleb128 0x13
 1847 0107 00       		.byte	0
 1848 0108 00       		.byte	0
 1849 0109 12       		.uleb128 0x12
 1850 010a 01       		.uleb128 0x1
 1851 010b 01       		.byte	0x1
 1852 010c 49       		.uleb128 0x49
 1853 010d 13       		.uleb128 0x13
 1854 010e 01       		.uleb128 0x1
 1855 010f 13       		.uleb128 0x13
 1856 0110 00       		.byte	0
 1857 0111 00       		.byte	0
 1858 0112 13       		.uleb128 0x13
 1859 0113 21       		.uleb128 0x21
 1860 0114 00       		.byte	0
 1861 0115 49       		.uleb128 0x49
ARM GAS  C:\Users\khjtony\AppData\Local\Temp\ccFxoGLD.s 			page 46


 1862 0116 13       		.uleb128 0x13
 1863 0117 2F       		.uleb128 0x2f
 1864 0118 0B       		.uleb128 0xb
 1865 0119 00       		.byte	0
 1866 011a 00       		.byte	0
 1867 011b 14       		.uleb128 0x14
 1868 011c 34       		.uleb128 0x34
 1869 011d 00       		.byte	0
 1870 011e 03       		.uleb128 0x3
 1871 011f 0E       		.uleb128 0xe
 1872 0120 3A       		.uleb128 0x3a
 1873 0121 0B       		.uleb128 0xb
 1874 0122 3B       		.uleb128 0x3b
 1875 0123 0B       		.uleb128 0xb
 1876 0124 49       		.uleb128 0x49
 1877 0125 13       		.uleb128 0x13
 1878 0126 3F       		.uleb128 0x3f
 1879 0127 19       		.uleb128 0x19
 1880 0128 02       		.uleb128 0x2
 1881 0129 18       		.uleb128 0x18
 1882 012a 00       		.byte	0
 1883 012b 00       		.byte	0
 1884 012c 00       		.byte	0
 1885              		.section	.debug_aranges,"",%progbits
 1886 0000 94000000 		.4byte	0x94
 1887 0004 0200     		.2byte	0x2
 1888 0006 00000000 		.4byte	.Ldebug_info0
 1889 000a 04       		.byte	0x4
 1890 000b 00       		.byte	0
 1891 000c 0000     		.2byte	0
 1892 000e 0000     		.2byte	0
 1893 0010 00000000 		.4byte	.LFB0
 1894 0014 6C000000 		.4byte	.LFE0-.LFB0
 1895 0018 00000000 		.4byte	.LFB1
 1896 001c 18000000 		.4byte	.LFE1-.LFB1
 1897 0020 00000000 		.4byte	.LFB2
 1898 0024 20000000 		.4byte	.LFE2-.LFB2
 1899 0028 00000000 		.4byte	.LFB3
 1900 002c 18000000 		.4byte	.LFE3-.LFB3
 1901 0030 00000000 		.4byte	.LFB4
 1902 0034 6C000000 		.4byte	.LFE4-.LFB4
 1903 0038 00000000 		.4byte	.LFB5
 1904 003c 38000000 		.4byte	.LFE5-.LFB5
 1905 0040 00000000 		.4byte	.LFB6
 1906 0044 18000000 		.4byte	.LFE6-.LFB6
 1907 0048 00000000 		.4byte	.LFB7
 1908 004c 32000000 		.4byte	.LFE7-.LFB7
 1909 0050 00000000 		.4byte	.LFB8
 1910 0054 32000000 		.4byte	.LFE8-.LFB8
 1911 0058 00000000 		.4byte	.LFB9
 1912 005c 78010000 		.4byte	.LFE9-.LFB9
 1913 0060 00000000 		.4byte	.LFB10
 1914 0064 78000000 		.4byte	.LFE10-.LFB10
 1915 0068 00000000 		.4byte	.LFB11
 1916 006c 60000000 		.4byte	.LFE11-.LFB11
 1917 0070 00000000 		.4byte	.LFB12
 1918 0074 34000000 		.4byte	.LFE12-.LFB12
ARM GAS  C:\Users\khjtony\AppData\Local\Temp\ccFxoGLD.s 			page 47


 1919 0078 00000000 		.4byte	.LFB13
 1920 007c 28000000 		.4byte	.LFE13-.LFB13
 1921 0080 00000000 		.4byte	.LFB14
 1922 0084 30000000 		.4byte	.LFE14-.LFB14
 1923 0088 00000000 		.4byte	.LFB15
 1924 008c A4000000 		.4byte	.LFE15-.LFB15
 1925 0090 00000000 		.4byte	0
 1926 0094 00000000 		.4byte	0
 1927              		.section	.debug_ranges,"",%progbits
 1928              	.Ldebug_ranges0:
 1929 0000 00000000 		.4byte	.LFB0
 1930 0004 6C000000 		.4byte	.LFE0
 1931 0008 00000000 		.4byte	.LFB1
 1932 000c 18000000 		.4byte	.LFE1
 1933 0010 00000000 		.4byte	.LFB2
 1934 0014 20000000 		.4byte	.LFE2
 1935 0018 00000000 		.4byte	.LFB3
 1936 001c 18000000 		.4byte	.LFE3
 1937 0020 00000000 		.4byte	.LFB4
 1938 0024 6C000000 		.4byte	.LFE4
 1939 0028 00000000 		.4byte	.LFB5
 1940 002c 38000000 		.4byte	.LFE5
 1941 0030 00000000 		.4byte	.LFB6
 1942 0034 18000000 		.4byte	.LFE6
 1943 0038 00000000 		.4byte	.LFB7
 1944 003c 32000000 		.4byte	.LFE7
 1945 0040 00000000 		.4byte	.LFB8
 1946 0044 32000000 		.4byte	.LFE8
 1947 0048 00000000 		.4byte	.LFB9
 1948 004c 78010000 		.4byte	.LFE9
 1949 0050 00000000 		.4byte	.LFB10
 1950 0054 78000000 		.4byte	.LFE10
 1951 0058 00000000 		.4byte	.LFB11
 1952 005c 60000000 		.4byte	.LFE11
 1953 0060 00000000 		.4byte	.LFB12
 1954 0064 34000000 		.4byte	.LFE12
 1955 0068 00000000 		.4byte	.LFB13
 1956 006c 28000000 		.4byte	.LFE13
 1957 0070 00000000 		.4byte	.LFB14
 1958 0074 30000000 		.4byte	.LFE14
 1959 0078 00000000 		.4byte	.LFB15
 1960 007c A4000000 		.4byte	.LFE15
 1961 0080 00000000 		.4byte	0
 1962 0084 00000000 		.4byte	0
 1963              		.section	.debug_line,"",%progbits
 1964              	.Ldebug_line0:
 1965 0000 EB010000 		.section	.debug_str,"MS",%progbits,1
 1965      02004200 
 1965      00000201 
 1965      FB0E0D00 
 1965      01010101 
 1966              	.LASF44:
 1967 0000 73686966 		.ascii	"shift\000"
 1967      7400
 1968              	.LASF42:
 1969 0006 4C43445F 		.ascii	"LCD_PrintInt16\000"
 1969      5072696E 
ARM GAS  C:\Users\khjtony\AppData\Local\Temp\ccFxoGLD.s 			page 48


 1969      74496E74 
 1969      313600
 1970              	.LASF33:
 1971 0015 4C43445F 		.ascii	"LCD_WriteControl\000"
 1971      57726974 
 1971      65436F6E 
 1971      74726F6C 
 1971      00
 1972              	.LASF43:
 1973 0026 4C43445F 		.ascii	"LCD_PrintInt32\000"
 1973      5072696E 
 1973      74496E74 
 1973      333200
 1974              	.LASF29:
 1975 0035 63686172 		.ascii	"character\000"
 1975      61637465 
 1975      7200
 1976              	.LASF21:
 1977 003f 4C43445F 		.ascii	"LCD_Stop\000"
 1977      53746F70 
 1977      00
 1978              	.LASF36:
 1979 0048 76616C75 		.ascii	"value\000"
 1979      6500
 1980              	.LASF49:
 1981 004e 4C43445F 		.ascii	"LCD_initVar\000"
 1981      696E6974 
 1981      56617200 
 1982              	.LASF41:
 1983 005a 4C43445F 		.ascii	"LCD_hex\000"
 1983      68657800 
 1984              	.LASF4:
 1985 0062 73686F72 		.ascii	"short unsigned int\000"
 1985      7420756E 
 1985      7369676E 
 1985      65642069 
 1985      6E7400
 1986              	.LASF53:
 1987 0075 443A5C77 		.ascii	"D:\\workspace\\Super-Eagle\\Super-Eagle\\Super-Eagl"
 1987      6F726B73 
 1987      70616365 
 1987      5C537570 
 1987      65722D45 
 1988 00a4 652E6379 		.ascii	"e.cydsn\000"
 1988      64736E00 
 1989              	.LASF25:
 1990 00ac 73747269 		.ascii	"string\000"
 1990      6E6700
 1991              	.LASF38:
 1992 00b3 4C43445F 		.ascii	"LCD_WrDatNib\000"
 1992      57724461 
 1992      744E6962 
 1992      00
 1993              	.LASF22:
 1994 00c0 636F6C75 		.ascii	"column\000"
 1994      6D6E00
 1995              	.LASF30:
ARM GAS  C:\Users\khjtony\AppData\Local\Temp\ccFxoGLD.s 			page 49


 1996 00c7 4C43445F 		.ascii	"LCD_WriteData\000"
 1996      57726974 
 1996      65446174 
 1996      6100
 1997              	.LASF14:
 1998 00d5 666C6F61 		.ascii	"float\000"
 1998      7400
 1999              	.LASF20:
 2000 00db 4C43445F 		.ascii	"LCD_Start\000"
 2000      53746172 
 2000      7400
 2001              	.LASF2:
 2002 00e5 756E7369 		.ascii	"unsigned char\000"
 2002      676E6564 
 2002      20636861 
 2002      7200
 2003              	.LASF17:
 2004 00f3 72656738 		.ascii	"reg8\000"
 2004      00
 2005              	.LASF6:
 2006 00f8 6C6F6E67 		.ascii	"long unsigned int\000"
 2006      20756E73 
 2006      69676E65 
 2006      6420696E 
 2006      7400
 2007              	.LASF11:
 2008 010a 75696E74 		.ascii	"uint8\000"
 2008      3800
 2009              	.LASF39:
 2010 0110 4C43445F 		.ascii	"LCD_WrCntrlNib\000"
 2010      5772436E 
 2010      74726C4E 
 2010      696200
 2011              	.LASF26:
 2012 011f 696E6465 		.ascii	"indexU8\000"
 2012      78553800 
 2013              	.LASF15:
 2014 0127 646F7562 		.ascii	"double\000"
 2014      6C6500
 2015              	.LASF19:
 2016 012e 4C43445F 		.ascii	"LCD_Enable\000"
 2016      456E6162 
 2016      6C6500
 2017              	.LASF24:
 2018 0139 4C43445F 		.ascii	"LCD_PrintString\000"
 2018      5072696E 
 2018      74537472 
 2018      696E6700 
 2019              	.LASF12:
 2020 0149 75696E74 		.ascii	"uint16\000"
 2020      313600
 2021              	.LASF35:
 2022 0150 4C43445F 		.ascii	"LCD_IsReady\000"
 2022      49735265 
 2022      61647900 
 2023              	.LASF13:
 2024 015c 75696E74 		.ascii	"uint32\000"
ARM GAS  C:\Users\khjtony\AppData\Local\Temp\ccFxoGLD.s 			page 50


 2024      333200
 2025              	.LASF48:
 2026 0163 64696749 		.ascii	"digIndex\000"
 2026      6E646578 
 2026      00
 2027              	.LASF0:
 2028 016c 756E7369 		.ascii	"unsigned int\000"
 2028      676E6564 
 2028      20696E74 
 2028      00
 2029              	.LASF8:
 2030 0179 6C6F6E67 		.ascii	"long long unsigned int\000"
 2030      206C6F6E 
 2030      6720756E 
 2030      7369676E 
 2030      65642069 
 2031              	.LASF40:
 2032 0190 4C43445F 		.ascii	"LCD_PrintInt8\000"
 2032      5072696E 
 2032      74496E74 
 2032      3800
 2033              	.LASF23:
 2034 019e 4C43445F 		.ascii	"LCD_Position\000"
 2034      506F7369 
 2034      74696F6E 
 2034      00
 2035              	.LASF45:
 2036 01ab 4C43445F 		.ascii	"LCD_PrintU32Number\000"
 2036      5072696E 
 2036      74553332 
 2036      4E756D62 
 2036      657200
 2037              	.LASF28:
 2038 01be 4C43445F 		.ascii	"LCD_PutChar\000"
 2038      50757443 
 2038      68617200 
 2039              	.LASF51:
 2040 01ca 474E5520 		.ascii	"GNU C 4.8.4 20140526 (release) [ARM/embedded-4_8-br"
 2040      4320342E 
 2040      382E3420 
 2040      32303134 
 2040      30353236 
 2041 01fd 616E6368 		.ascii	"anch revision 211358] -mcpu=cortex-m3 -mthumb -g -O"
 2041      20726576 
 2041      6973696F 
 2041      6E203231 
 2041      31333538 
 2042 0230 30202D66 		.ascii	"0 -ffunction-sections\000"
 2042      66756E63 
 2042      74696F6E 
 2042      2D736563 
 2042      74696F6E 
 2043              	.LASF47:
 2044 0246 6E756D62 		.ascii	"number\000"
 2044      657200
 2045              	.LASF9:
 2046 024d 73697A65 		.ascii	"sizetype\000"
ARM GAS  C:\Users\khjtony\AppData\Local\Temp\ccFxoGLD.s 			page 51


 2046      74797065 
 2046      00
 2047              	.LASF16:
 2048 0256 63686172 		.ascii	"char8\000"
 2048      3800
 2049              	.LASF7:
 2050 025c 6C6F6E67 		.ascii	"long long int\000"
 2050      206C6F6E 
 2050      6720696E 
 2050      7400
 2051              	.LASF37:
 2052 026a 74696D65 		.ascii	"timeout\000"
 2052      6F757400 
 2053              	.LASF50:
 2054 0272 4C43445F 		.ascii	"LCD_enableState\000"
 2054      656E6162 
 2054      6C655374 
 2054      61746500 
 2055              	.LASF18:
 2056 0282 4C43445F 		.ascii	"LCD_Init\000"
 2056      496E6974 
 2056      00
 2057              	.LASF46:
 2058 028b 746D7044 		.ascii	"tmpDigit\000"
 2058      69676974 
 2058      00
 2059              	.LASF3:
 2060 0294 73686F72 		.ascii	"short int\000"
 2060      7420696E 
 2060      7400
 2061              	.LASF27:
 2062 029e 63757272 		.ascii	"current\000"
 2062      656E7400 
 2063              	.LASF5:
 2064 02a6 6C6F6E67 		.ascii	"long int\000"
 2064      20696E74 
 2064      00
 2065              	.LASF10:
 2066 02af 63686172 		.ascii	"char\000"
 2066      00
 2067              	.LASF1:
 2068 02b4 7369676E 		.ascii	"signed char\000"
 2068      65642063 
 2068      68617200 
 2069              	.LASF31:
 2070 02c0 64427974 		.ascii	"dByte\000"
 2070      6500
 2071              	.LASF52:
 2072 02c6 2E5C4765 		.ascii	".\\Generated_Source\\PSoC5\\LCD.c\000"
 2072      6E657261 
 2072      7465645F 
 2072      536F7572 
 2072      63655C50 
 2073              	.LASF34:
 2074 02e5 63427974 		.ascii	"cByte\000"
 2074      6500
 2075              	.LASF32:
ARM GAS  C:\Users\khjtony\AppData\Local\Temp\ccFxoGLD.s 			page 52


 2076 02eb 6E696262 		.ascii	"nibble\000"
 2076      6C6500
 2077              		.ident	"GCC: (GNU Tools for ARM Embedded Processors) 4.8.4 20140526 (release) [ARM/embedded-4_8-br
