ARM GAS  C:\Users\KHJTON~1\AppData\Local\Temp\ccn9brlf.s 			page 1


   1              		.syntax unified
   2              		.cpu cortex-m3
   3              		.fpu softvfp
   4              		.eabi_attribute 20, 1
   5              		.eabi_attribute 21, 1
   6              		.eabi_attribute 23, 3
   7              		.eabi_attribute 24, 1
   8              		.eabi_attribute 25, 1
   9              		.eabi_attribute 26, 1
  10              		.eabi_attribute 30, 6
  11              		.eabi_attribute 34, 1
  12              		.eabi_attribute 18, 4
  13              		.thumb
  14              		.file	"LCD_Bar.c"
  15              		.text
  16              	.Ltext0:
  17              		.cfi_sections	.debug_frame
  18              		.section	.text.quickBar,"ax",%progbits
  19              		.align	2
  20              		.global	quickBar
  21              		.thumb
  22              		.thumb_func
  23              		.type	quickBar, %function
  24              	quickBar:
  25              	.LFB56:
  26              		.file 1 ".\\LCD_Bar.c"
   1:.\LCD_Bar.c   **** /* ========================================
   2:.\LCD_Bar.c   ****  *
   3:.\LCD_Bar.c   ****  * Copyright YOUR COMPANY, THE YEAR
   4:.\LCD_Bar.c   ****  * All Rights Reserved
   5:.\LCD_Bar.c   ****  * UNPUBLISHED, LICENSED SOFTWARE.
   6:.\LCD_Bar.c   ****  *
   7:.\LCD_Bar.c   ****  * CONFIDENTIAL AND PROPRIETARY INFORMATION
   8:.\LCD_Bar.c   ****  * WHICH IS THE PROPERTY OF your company.
   9:.\LCD_Bar.c   ****  *
  10:.\LCD_Bar.c   ****  * ========================================
  11:.\LCD_Bar.c   **** */
  12:.\LCD_Bar.c   **** #include "LCD_Bar.h"
  13:.\LCD_Bar.c   **** 
  14:.\LCD_Bar.c   **** void quickBar(uint8_t row, uint8_t colume, direction dir, uint8_t len){
  27              		.loc 1 14 0
  28              		.cfi_startproc
  29              		@ args = 0, pretend = 0, frame = 16
  30              		@ frame_needed = 1, uses_anonymous_args = 0
  31 0000 80B5     		push	{r7, lr}
  32              		.cfi_def_cfa_offset 8
  33              		.cfi_offset 7, -8
  34              		.cfi_offset 14, -4
  35 0002 84B0     		sub	sp, sp, #16
  36              		.cfi_def_cfa_offset 24
  37 0004 00AF     		add	r7, sp, #0
  38              		.cfi_def_cfa_register 7
  39 0006 F871     		strb	r0, [r7, #7]
  40 0008 B971     		strb	r1, [r7, #6]
  41 000a 7A71     		strb	r2, [r7, #5]
  42 000c 3B71     		strb	r3, [r7, #4]
  15:.\LCD_Bar.c   ****     uint8_t norLen=(uint8_t)(len*LCD_WIDTH/256/2);
ARM GAS  C:\Users\KHJTON~1\AppData\Local\Temp\ccn9brlf.s 			page 2


  43              		.loc 1 15 0
  44 000e 3A79     		ldrb	r2, [r7, #4]	@ zero_extendqisi2
  45 0010 1346     		mov	r3, r2
  46 0012 9B00     		lsls	r3, r3, #2
  47 0014 1344     		add	r3, r3, r2
  48 0016 1B01     		lsls	r3, r3, #4
  49 0018 5B0A     		lsrs	r3, r3, #9
  50 001a FB73     		strb	r3, [r7, #15]
  16:.\LCD_Bar.c   ****     if (dir == RIGHT){
  51              		.loc 1 16 0
  52 001c 7B79     		ldrb	r3, [r7, #5]	@ zero_extendqisi2
  53 001e 012B     		cmp	r3, #1
  54 0020 08D1     		bne	.L2
  55              	.LBB2:
  17:.\LCD_Bar.c   ****         LCD_DrawHorizontalBG(row, colume, (LCD_COLUMNS - LCD_ROWS), norLen);
  56              		.loc 1 17 0
  57 0022 F979     		ldrb	r1, [r7, #7]	@ zero_extendqisi2
  58 0024 BA79     		ldrb	r2, [r7, #6]	@ zero_extendqisi2
  59 0026 FB7B     		ldrb	r3, [r7, #15]	@ zero_extendqisi2
  60 0028 0846     		mov	r0, r1
  61 002a 1146     		mov	r1, r2
  62 002c 0E22     		movs	r2, #14
  63 002e FFF7FEFF 		bl	LCD_DrawHorizontalBG
  64              	.LBE2:
  65 0032 0EE0     		b	.L3
  66              	.L2:
  67              	.LBB3:
  18:.\LCD_Bar.c   ****     }
  19:.\LCD_Bar.c   ****     else{
  20:.\LCD_Bar.c   ****         LCD_DrawHorizontalBG(row, colume-norLen/5, (LCD_COLUMNS - LCD_ROWS), norLen);
  68              		.loc 1 20 0
  69 0034 F979     		ldrb	r1, [r7, #7]	@ zero_extendqisi2
  70 0036 BA79     		ldrb	r2, [r7, #6]	@ zero_extendqisi2
  71 0038 F87B     		ldrb	r0, [r7, #15]	@ zero_extendqisi2
  72 003a 084B     		ldr	r3, .L5
  73 003c A3FB00C3 		umull	ip, r3, r3, r0
  74 0040 9B08     		lsrs	r3, r3, #2
  75 0042 DBB2     		uxtb	r3, r3
  76 0044 D21A     		subs	r2, r2, r3
  77 0046 FB7B     		ldrb	r3, [r7, #15]	@ zero_extendqisi2
  78 0048 0846     		mov	r0, r1
  79 004a 1146     		mov	r1, r2
  80 004c 0E22     		movs	r2, #14
  81 004e FFF7FEFF 		bl	LCD_DrawHorizontalBG
  82              	.L3:
  83              	.LBE3:
  21:.\LCD_Bar.c   ****     }
  22:.\LCD_Bar.c   ****     return;
  84              		.loc 1 22 0
  85 0052 00BF     		nop
  23:.\LCD_Bar.c   **** }
  86              		.loc 1 23 0
  87 0054 1037     		adds	r7, r7, #16
  88 0056 BD46     		mov	sp, r7
  89              		@ sp needed
  90 0058 80BD     		pop	{r7, pc}
  91              	.L6:
ARM GAS  C:\Users\KHJTON~1\AppData\Local\Temp\ccn9brlf.s 			page 3


  92 005a 00BF     		.align	2
  93              	.L5:
  94 005c CDCCCCCC 		.word	-858993459
  95              		.cfi_endproc
  96              	.LFE56:
  97              		.size	quickBar, .-quickBar
  98              		.text
  99              	.Letext0:
 100              		.file 2 "d:\\software\\psoccreator\\psoc creator\\3.1\\psoc creator\\import\\gnu_cs\\arm\\4.8.4\\a
 101              		.file 3 "d:\\software\\psoccreator\\psoc creator\\3.1\\psoc creator\\import\\gnu_cs\\arm\\4.8.4\\a
 102              		.file 4 ".\\LCD_Bar.h"
 103              		.file 5 ".\\Generated_Source\\PSoC5/core_cm3.h"