ARM GAS  C:\Users\KHJTON~1\AppData\Local\Temp\ccEnj5fQ.s 			page 1


   1              		.syntax unified
   2              		.cpu cortex-m3
   3              		.fpu softvfp
   4              		.eabi_attribute 20, 1
   5              		.eabi_attribute 21, 1
   6              		.eabi_attribute 23, 3
   7              		.eabi_attribute 24, 1
   8              		.eabi_attribute 25, 1
   9              		.eabi_attribute 26, 1
  10              		.eabi_attribute 30, 6
  11              		.eabi_attribute 34, 1
  12              		.eabi_attribute 18, 4
  13              		.thumb
  14              		.file	"LED_Strip_PM.c"
  15              		.text
  16              	.Ltext0:
  17              		.cfi_sections	.debug_frame
  18              		.data
  19              		.align	2
  20              		.type	LED_Strip_backup, %object
  21              		.size	LED_Strip_backup, 2
  22              	LED_Strip_backup:
  23 0000 00       		.byte	0
  24 0001 0F       		.byte	15
  25 0002 0000     		.section	.text.LED_Strip_SaveConfig,"ax",%progbits
  26              		.align	2
  27              		.global	LED_Strip_SaveConfig
  28              		.thumb
  29              		.thumb_func
  30              		.type	LED_Strip_SaveConfig, %function
  31              	LED_Strip_SaveConfig:
  32              	.LFB0:
  33              		.file 1 ".\\Generated_Source\\PSoC5\\LED_Strip_PM.c"
   1:.\Generated_Source\PSoC5/LED_Strip_PM.c **** /*******************************************************************************
   2:.\Generated_Source\PSoC5/LED_Strip_PM.c **** * File Name: LED_Strip_PM.c
   3:.\Generated_Source\PSoC5/LED_Strip_PM.c **** * Version 2.50
   4:.\Generated_Source\PSoC5/LED_Strip_PM.c **** *
   5:.\Generated_Source\PSoC5/LED_Strip_PM.c **** * Description:
   6:.\Generated_Source\PSoC5/LED_Strip_PM.c **** *  This file contains the setup, control and status commands to support
   7:.\Generated_Source\PSoC5/LED_Strip_PM.c **** *  component operations in low power mode.
   8:.\Generated_Source\PSoC5/LED_Strip_PM.c **** *
   9:.\Generated_Source\PSoC5/LED_Strip_PM.c **** * Note:
  10:.\Generated_Source\PSoC5/LED_Strip_PM.c **** *
  11:.\Generated_Source\PSoC5/LED_Strip_PM.c **** ********************************************************************************
  12:.\Generated_Source\PSoC5/LED_Strip_PM.c **** * Copyright 2008-2015, Cypress Semiconductor Corporation.  All rights reserved.
  13:.\Generated_Source\PSoC5/LED_Strip_PM.c **** * You may use this file only in accordance with the license, terms, conditions,
  14:.\Generated_Source\PSoC5/LED_Strip_PM.c **** * disclaimers, and limitations in the end user license agreement accompanying
  15:.\Generated_Source\PSoC5/LED_Strip_PM.c **** * the software package with which this file was provided.
  16:.\Generated_Source\PSoC5/LED_Strip_PM.c **** *******************************************************************************/
  17:.\Generated_Source\PSoC5/LED_Strip_PM.c **** 
  18:.\Generated_Source\PSoC5/LED_Strip_PM.c **** #include "LED_Strip_PVT.h"
  19:.\Generated_Source\PSoC5/LED_Strip_PM.c **** 
  20:.\Generated_Source\PSoC5/LED_Strip_PM.c **** static LED_Strip_BACKUP_STRUCT LED_Strip_backup =
  21:.\Generated_Source\PSoC5/LED_Strip_PM.c **** {
  22:.\Generated_Source\PSoC5/LED_Strip_PM.c ****     LED_Strip_DISABLED,
  23:.\Generated_Source\PSoC5/LED_Strip_PM.c ****     LED_Strip_BITCTR_INIT,
  24:.\Generated_Source\PSoC5/LED_Strip_PM.c **** };
ARM GAS  C:\Users\KHJTON~1\AppData\Local\Temp\ccEnj5fQ.s 			page 2


  25:.\Generated_Source\PSoC5/LED_Strip_PM.c **** 
  26:.\Generated_Source\PSoC5/LED_Strip_PM.c **** 
  27:.\Generated_Source\PSoC5/LED_Strip_PM.c **** /*******************************************************************************
  28:.\Generated_Source\PSoC5/LED_Strip_PM.c **** * Function Name: LED_Strip_SaveConfig
  29:.\Generated_Source\PSoC5/LED_Strip_PM.c **** ********************************************************************************
  30:.\Generated_Source\PSoC5/LED_Strip_PM.c **** *
  31:.\Generated_Source\PSoC5/LED_Strip_PM.c **** * Summary:
  32:.\Generated_Source\PSoC5/LED_Strip_PM.c **** *  Empty function. Included for consistency with other components.
  33:.\Generated_Source\PSoC5/LED_Strip_PM.c **** *
  34:.\Generated_Source\PSoC5/LED_Strip_PM.c **** * Parameters:
  35:.\Generated_Source\PSoC5/LED_Strip_PM.c **** *  None.
  36:.\Generated_Source\PSoC5/LED_Strip_PM.c **** *
  37:.\Generated_Source\PSoC5/LED_Strip_PM.c **** * Return:
  38:.\Generated_Source\PSoC5/LED_Strip_PM.c **** *  None.
  39:.\Generated_Source\PSoC5/LED_Strip_PM.c **** *
  40:.\Generated_Source\PSoC5/LED_Strip_PM.c **** *******************************************************************************/
  41:.\Generated_Source\PSoC5/LED_Strip_PM.c **** void LED_Strip_SaveConfig(void) 
  42:.\Generated_Source\PSoC5/LED_Strip_PM.c **** {
  34              		.loc 1 42 0
  35              		.cfi_startproc
  36              		@ args = 0, pretend = 0, frame = 0
  37              		@ frame_needed = 1, uses_anonymous_args = 0
  38              		@ link register save eliminated.
  39 0000 80B4     		push	{r7}
  40              		.cfi_def_cfa_offset 4
  41              		.cfi_offset 7, -4
  42 0002 00AF     		add	r7, sp, #0
  43              		.cfi_def_cfa_register 7
  43:.\Generated_Source\PSoC5/LED_Strip_PM.c **** 
  44:.\Generated_Source\PSoC5/LED_Strip_PM.c **** }
  44              		.loc 1 44 0
  45 0004 BD46     		mov	sp, r7
  46              		@ sp needed
  47 0006 5DF8047B 		ldr	r7, [sp], #4
  48 000a 7047     		bx	lr
  49              		.cfi_endproc
  50              	.LFE0:
  51              		.size	LED_Strip_SaveConfig, .-LED_Strip_SaveConfig
  52              		.section	.text.LED_Strip_RestoreConfig,"ax",%progbits
  53              		.align	2
  54              		.global	LED_Strip_RestoreConfig
  55              		.thumb
  56              		.thumb_func
  57              		.type	LED_Strip_RestoreConfig, %function
  58              	LED_Strip_RestoreConfig:
  59              	.LFB1:
  45:.\Generated_Source\PSoC5/LED_Strip_PM.c **** 
  46:.\Generated_Source\PSoC5/LED_Strip_PM.c **** 
  47:.\Generated_Source\PSoC5/LED_Strip_PM.c **** /*******************************************************************************
  48:.\Generated_Source\PSoC5/LED_Strip_PM.c **** * Function Name: LED_Strip_RestoreConfig
  49:.\Generated_Source\PSoC5/LED_Strip_PM.c **** ********************************************************************************
  50:.\Generated_Source\PSoC5/LED_Strip_PM.c **** *
  51:.\Generated_Source\PSoC5/LED_Strip_PM.c **** * Summary:
  52:.\Generated_Source\PSoC5/LED_Strip_PM.c **** *  Empty function. Included for consistency with other components.
  53:.\Generated_Source\PSoC5/LED_Strip_PM.c **** *
  54:.\Generated_Source\PSoC5/LED_Strip_PM.c **** * Parameters:
  55:.\Generated_Source\PSoC5/LED_Strip_PM.c **** *  None.
ARM GAS  C:\Users\KHJTON~1\AppData\Local\Temp\ccEnj5fQ.s 			page 3


  56:.\Generated_Source\PSoC5/LED_Strip_PM.c **** *
  57:.\Generated_Source\PSoC5/LED_Strip_PM.c **** * Return:
  58:.\Generated_Source\PSoC5/LED_Strip_PM.c **** *  None.
  59:.\Generated_Source\PSoC5/LED_Strip_PM.c **** *
  60:.\Generated_Source\PSoC5/LED_Strip_PM.c **** *******************************************************************************/
  61:.\Generated_Source\PSoC5/LED_Strip_PM.c **** void LED_Strip_RestoreConfig(void) 
  62:.\Generated_Source\PSoC5/LED_Strip_PM.c **** {
  60              		.loc 1 62 0
  61              		.cfi_startproc
  62              		@ args = 0, pretend = 0, frame = 0
  63              		@ frame_needed = 1, uses_anonymous_args = 0
  64              		@ link register save eliminated.
  65 0000 80B4     		push	{r7}
  66              		.cfi_def_cfa_offset 4
  67              		.cfi_offset 7, -4
  68 0002 00AF     		add	r7, sp, #0
  69              		.cfi_def_cfa_register 7
  63:.\Generated_Source\PSoC5/LED_Strip_PM.c **** 
  64:.\Generated_Source\PSoC5/LED_Strip_PM.c **** }
  70              		.loc 1 64 0
  71 0004 BD46     		mov	sp, r7
  72              		@ sp needed
  73 0006 5DF8047B 		ldr	r7, [sp], #4
  74 000a 7047     		bx	lr
  75              		.cfi_endproc
  76              	.LFE1:
  77              		.size	LED_Strip_RestoreConfig, .-LED_Strip_RestoreConfig
  78              		.section	.text.LED_Strip_Sleep,"ax",%progbits
  79              		.align	2
  80              		.global	LED_Strip_Sleep
  81              		.thumb
  82              		.thumb_func
  83              		.type	LED_Strip_Sleep, %function
  84              	LED_Strip_Sleep:
  85              	.LFB2:
  65:.\Generated_Source\PSoC5/LED_Strip_PM.c **** 
  66:.\Generated_Source\PSoC5/LED_Strip_PM.c **** 
  67:.\Generated_Source\PSoC5/LED_Strip_PM.c **** /*******************************************************************************
  68:.\Generated_Source\PSoC5/LED_Strip_PM.c **** * Function Name: LED_Strip_Sleep
  69:.\Generated_Source\PSoC5/LED_Strip_PM.c **** ********************************************************************************
  70:.\Generated_Source\PSoC5/LED_Strip_PM.c **** *
  71:.\Generated_Source\PSoC5/LED_Strip_PM.c **** * Summary:
  72:.\Generated_Source\PSoC5/LED_Strip_PM.c **** *  Prepare SPIM Component goes to sleep.
  73:.\Generated_Source\PSoC5/LED_Strip_PM.c **** *
  74:.\Generated_Source\PSoC5/LED_Strip_PM.c **** * Parameters:
  75:.\Generated_Source\PSoC5/LED_Strip_PM.c **** *  None.
  76:.\Generated_Source\PSoC5/LED_Strip_PM.c **** *
  77:.\Generated_Source\PSoC5/LED_Strip_PM.c **** * Return:
  78:.\Generated_Source\PSoC5/LED_Strip_PM.c **** *  None.
  79:.\Generated_Source\PSoC5/LED_Strip_PM.c **** *
  80:.\Generated_Source\PSoC5/LED_Strip_PM.c **** * Global Variables:
  81:.\Generated_Source\PSoC5/LED_Strip_PM.c **** *  LED_Strip_backup - modified when non-retention registers are saved.
  82:.\Generated_Source\PSoC5/LED_Strip_PM.c **** *
  83:.\Generated_Source\PSoC5/LED_Strip_PM.c **** * Reentrant:
  84:.\Generated_Source\PSoC5/LED_Strip_PM.c **** *  No.
  85:.\Generated_Source\PSoC5/LED_Strip_PM.c **** *
  86:.\Generated_Source\PSoC5/LED_Strip_PM.c **** *******************************************************************************/
ARM GAS  C:\Users\KHJTON~1\AppData\Local\Temp\ccEnj5fQ.s 			page 4


  87:.\Generated_Source\PSoC5/LED_Strip_PM.c **** void LED_Strip_Sleep(void) 
  88:.\Generated_Source\PSoC5/LED_Strip_PM.c **** {
  86              		.loc 1 88 0
  87              		.cfi_startproc
  88              		@ args = 0, pretend = 0, frame = 0
  89              		@ frame_needed = 1, uses_anonymous_args = 0
  90 0000 80B5     		push	{r7, lr}
  91              		.cfi_def_cfa_offset 8
  92              		.cfi_offset 7, -8
  93              		.cfi_offset 14, -4
  94 0002 00AF     		add	r7, sp, #0
  95              		.cfi_def_cfa_register 7
  89:.\Generated_Source\PSoC5/LED_Strip_PM.c ****     /* Save components enable state */
  90:.\Generated_Source\PSoC5/LED_Strip_PM.c ****     LED_Strip_backup.enableState = ((uint8) LED_Strip_IS_ENABLED);
  96              		.loc 1 90 0
  97 0004 074B     		ldr	r3, .L4
  98 0006 1B78     		ldrb	r3, [r3]
  99 0008 DBB2     		uxtb	r3, r3
 100 000a 03F01003 		and	r3, r3, #16
 101 000e 002B     		cmp	r3, #0
 102 0010 0CBF     		ite	eq
 103 0012 0023     		moveq	r3, #0
 104 0014 0123     		movne	r3, #1
 105 0016 DBB2     		uxtb	r3, r3
 106 0018 1A46     		mov	r2, r3
 107 001a 034B     		ldr	r3, .L4+4
 108 001c 1A70     		strb	r2, [r3]
  91:.\Generated_Source\PSoC5/LED_Strip_PM.c **** 
  92:.\Generated_Source\PSoC5/LED_Strip_PM.c ****     LED_Strip_Stop();
 109              		.loc 1 92 0
 110 001e FFF7FEFF 		bl	LED_Strip_Stop
  93:.\Generated_Source\PSoC5/LED_Strip_PM.c **** }
 111              		.loc 1 93 0
 112 0022 80BD     		pop	{r7, pc}
 113              	.L5:
 114              		.align	2
 115              	.L4:
 116 0024 90640040 		.word	1073767568
 117 0028 00000000 		.word	LED_Strip_backup
 118              		.cfi_endproc
 119              	.LFE2:
 120              		.size	LED_Strip_Sleep, .-LED_Strip_Sleep
 121              		.section	.text.LED_Strip_Wakeup,"ax",%progbits
 122              		.align	2
 123              		.global	LED_Strip_Wakeup
 124              		.thumb
 125              		.thumb_func
 126              		.type	LED_Strip_Wakeup, %function
 127              	LED_Strip_Wakeup:
 128              	.LFB3:
  94:.\Generated_Source\PSoC5/LED_Strip_PM.c **** 
  95:.\Generated_Source\PSoC5/LED_Strip_PM.c **** 
  96:.\Generated_Source\PSoC5/LED_Strip_PM.c **** /*******************************************************************************
  97:.\Generated_Source\PSoC5/LED_Strip_PM.c **** * Function Name: LED_Strip_Wakeup
  98:.\Generated_Source\PSoC5/LED_Strip_PM.c **** ********************************************************************************
  99:.\Generated_Source\PSoC5/LED_Strip_PM.c **** *
 100:.\Generated_Source\PSoC5/LED_Strip_PM.c **** * Summary:
ARM GAS  C:\Users\KHJTON~1\AppData\Local\Temp\ccEnj5fQ.s 			page 5


 101:.\Generated_Source\PSoC5/LED_Strip_PM.c **** *  Prepare SPIM Component to wake up.
 102:.\Generated_Source\PSoC5/LED_Strip_PM.c **** *
 103:.\Generated_Source\PSoC5/LED_Strip_PM.c **** * Parameters:
 104:.\Generated_Source\PSoC5/LED_Strip_PM.c **** *  None.
 105:.\Generated_Source\PSoC5/LED_Strip_PM.c **** *
 106:.\Generated_Source\PSoC5/LED_Strip_PM.c **** * Return:
 107:.\Generated_Source\PSoC5/LED_Strip_PM.c **** *  None.
 108:.\Generated_Source\PSoC5/LED_Strip_PM.c **** *
 109:.\Generated_Source\PSoC5/LED_Strip_PM.c **** * Global Variables:
 110:.\Generated_Source\PSoC5/LED_Strip_PM.c **** *  LED_Strip_backup - used when non-retention registers are restored.
 111:.\Generated_Source\PSoC5/LED_Strip_PM.c **** *  LED_Strip_txBufferWrite - modified every function call - resets to
 112:.\Generated_Source\PSoC5/LED_Strip_PM.c **** *  zero.
 113:.\Generated_Source\PSoC5/LED_Strip_PM.c **** *  LED_Strip_txBufferRead - modified every function call - resets to
 114:.\Generated_Source\PSoC5/LED_Strip_PM.c **** *  zero.
 115:.\Generated_Source\PSoC5/LED_Strip_PM.c **** *  LED_Strip_rxBufferWrite - modified every function call - resets to
 116:.\Generated_Source\PSoC5/LED_Strip_PM.c **** *  zero.
 117:.\Generated_Source\PSoC5/LED_Strip_PM.c **** *  LED_Strip_rxBufferRead - modified every function call - resets to
 118:.\Generated_Source\PSoC5/LED_Strip_PM.c **** *  zero.
 119:.\Generated_Source\PSoC5/LED_Strip_PM.c **** *
 120:.\Generated_Source\PSoC5/LED_Strip_PM.c **** * Reentrant:
 121:.\Generated_Source\PSoC5/LED_Strip_PM.c **** *  No.
 122:.\Generated_Source\PSoC5/LED_Strip_PM.c **** *
 123:.\Generated_Source\PSoC5/LED_Strip_PM.c **** *******************************************************************************/
 124:.\Generated_Source\PSoC5/LED_Strip_PM.c **** void LED_Strip_Wakeup(void) 
 125:.\Generated_Source\PSoC5/LED_Strip_PM.c **** {
 129              		.loc 1 125 0
 130              		.cfi_startproc
 131              		@ args = 0, pretend = 0, frame = 0
 132              		@ frame_needed = 1, uses_anonymous_args = 0
 133 0000 80B5     		push	{r7, lr}
 134              		.cfi_def_cfa_offset 8
 135              		.cfi_offset 7, -8
 136              		.cfi_offset 14, -4
 137 0002 00AF     		add	r7, sp, #0
 138              		.cfi_def_cfa_register 7
 126:.\Generated_Source\PSoC5/LED_Strip_PM.c ****     #if(LED_Strip_RX_SOFTWARE_BUF_ENABLED)
 127:.\Generated_Source\PSoC5/LED_Strip_PM.c ****         LED_Strip_rxBufferFull  = 0u;
 128:.\Generated_Source\PSoC5/LED_Strip_PM.c ****         LED_Strip_rxBufferRead  = 0u;
 129:.\Generated_Source\PSoC5/LED_Strip_PM.c ****         LED_Strip_rxBufferWrite = 0u;
 130:.\Generated_Source\PSoC5/LED_Strip_PM.c ****     #endif /* (LED_Strip_RX_SOFTWARE_BUF_ENABLED) */
 131:.\Generated_Source\PSoC5/LED_Strip_PM.c **** 
 132:.\Generated_Source\PSoC5/LED_Strip_PM.c ****     #if(LED_Strip_TX_SOFTWARE_BUF_ENABLED)
 133:.\Generated_Source\PSoC5/LED_Strip_PM.c ****         LED_Strip_txBufferFull  = 0u;
 134:.\Generated_Source\PSoC5/LED_Strip_PM.c ****         LED_Strip_txBufferRead  = 0u;
 135:.\Generated_Source\PSoC5/LED_Strip_PM.c ****         LED_Strip_txBufferWrite = 0u;
 136:.\Generated_Source\PSoC5/LED_Strip_PM.c ****     #endif /* (LED_Strip_TX_SOFTWARE_BUF_ENABLED) */
 137:.\Generated_Source\PSoC5/LED_Strip_PM.c **** 
 138:.\Generated_Source\PSoC5/LED_Strip_PM.c ****     /* Clear any data from the RX and TX FIFO */
 139:.\Generated_Source\PSoC5/LED_Strip_PM.c ****     LED_Strip_ClearFIFO();
 139              		.loc 1 139 0
 140 0004 FFF7FEFF 		bl	LED_Strip_ClearFIFO
 140:.\Generated_Source\PSoC5/LED_Strip_PM.c **** 
 141:.\Generated_Source\PSoC5/LED_Strip_PM.c ****     /* Restore components block enable state */
 142:.\Generated_Source\PSoC5/LED_Strip_PM.c ****     if(0u != LED_Strip_backup.enableState)
 141              		.loc 1 142 0
 142 0008 034B     		ldr	r3, .L8
 143 000a 1B78     		ldrb	r3, [r3]	@ zero_extendqisi2
ARM GAS  C:\Users\KHJTON~1\AppData\Local\Temp\ccEnj5fQ.s 			page 6


 144 000c 002B     		cmp	r3, #0
 145 000e 01D0     		beq	.L6
 143:.\Generated_Source\PSoC5/LED_Strip_PM.c ****     {
 144:.\Generated_Source\PSoC5/LED_Strip_PM.c ****         LED_Strip_Enable();
 146              		.loc 1 144 0
 147 0010 FFF7FEFF 		bl	LED_Strip_Enable
 148              	.L6:
 145:.\Generated_Source\PSoC5/LED_Strip_PM.c ****     }
 146:.\Generated_Source\PSoC5/LED_Strip_PM.c **** }
 149              		.loc 1 146 0
 150 0014 80BD     		pop	{r7, pc}
 151              	.L9:
 152 0016 00BF     		.align	2
 153              	.L8:
 154 0018 00000000 		.word	LED_Strip_backup
 155              		.cfi_endproc
 156              	.LFE3:
 157              		.size	LED_Strip_Wakeup, .-LED_Strip_Wakeup
 158              		.text
 159              	.Letext0:
 160              		.file 2 ".\\Generated_Source\\PSoC5\\cytypes.h"
 161              		.file 3 ".\\Generated_Source\\PSoC5\\LED_Strip.h"