ARM GAS  C:\Users\khjtony\AppData\Local\Temp\cc4iX0Bg.s 			page 1


   1              		.syntax unified
   2              		.cpu cortex-m3
   3              		.fpu softvfp
   4              		.eabi_attribute 20, 1
   5              		.eabi_attribute 21, 1
   6              		.eabi_attribute 23, 3
   7              		.eabi_attribute 24, 1
   8              		.eabi_attribute 25, 1
   9              		.eabi_attribute 26, 1
  10              		.eabi_attribute 30, 6
  11              		.eabi_attribute 34, 1
  12              		.eabi_attribute 18, 4
  13              		.thumb
  14              		.file	"LED_Strip.c"
  15              		.text
  16              	.Ltext0:
  17              		.cfi_sections	.debug_frame
  18              		.comm	LED_Strip_txBuffer,64,4
  19              		.comm	LED_Strip_txBufferFull,1,1
  20              		.comm	LED_Strip_txBufferRead,1,1
  21              		.comm	LED_Strip_txBufferWrite,1,1
  22              		.comm	LED_Strip_rxBuffer,64,4
  23              		.comm	LED_Strip_rxBufferFull,1,1
  24              		.comm	LED_Strip_rxBufferRead,1,1
  25              		.comm	LED_Strip_rxBufferWrite,1,1
  26              		.global	LED_Strip_initVar
  27              		.bss
  28              		.type	LED_Strip_initVar, %object
  29              		.size	LED_Strip_initVar, 1
  30              	LED_Strip_initVar:
  31 0000 00       		.space	1
  32              		.comm	LED_Strip_swStatusTx,1,1
  33              		.comm	LED_Strip_swStatusRx,1,1
  34              		.section	.text.LED_Strip_Init,"ax",%progbits
  35              		.align	2
  36              		.global	LED_Strip_Init
  37              		.thumb
  38              		.thumb_func
  39              		.type	LED_Strip_Init, %function
  40              	LED_Strip_Init:
  41              	.LFB0:
  42              		.file 1 ".\\Generated_Source\\PSoC5\\LED_Strip.c"
   1:.\Generated_Source\PSoC5/LED_Strip.c **** /*******************************************************************************
   2:.\Generated_Source\PSoC5/LED_Strip.c **** * File Name: LED_Strip.c
   3:.\Generated_Source\PSoC5/LED_Strip.c **** * Version 2.50
   4:.\Generated_Source\PSoC5/LED_Strip.c **** *
   5:.\Generated_Source\PSoC5/LED_Strip.c **** * Description:
   6:.\Generated_Source\PSoC5/LED_Strip.c **** *  This file provides all API functionality of the SPI Master component.
   7:.\Generated_Source\PSoC5/LED_Strip.c **** *
   8:.\Generated_Source\PSoC5/LED_Strip.c **** * Note:
   9:.\Generated_Source\PSoC5/LED_Strip.c **** *  None.
  10:.\Generated_Source\PSoC5/LED_Strip.c **** *
  11:.\Generated_Source\PSoC5/LED_Strip.c **** ********************************************************************************
  12:.\Generated_Source\PSoC5/LED_Strip.c **** * Copyright 2008-2015, Cypress Semiconductor Corporation.  All rights reserved.
  13:.\Generated_Source\PSoC5/LED_Strip.c **** * You may use this file only in accordance with the license, terms, conditions,
  14:.\Generated_Source\PSoC5/LED_Strip.c **** * disclaimers, and limitations in the end user license agreement accompanying
  15:.\Generated_Source\PSoC5/LED_Strip.c **** * the software package with which this file was provided.
ARM GAS  C:\Users\khjtony\AppData\Local\Temp\cc4iX0Bg.s 			page 2


  16:.\Generated_Source\PSoC5/LED_Strip.c **** *******************************************************************************/
  17:.\Generated_Source\PSoC5/LED_Strip.c **** 
  18:.\Generated_Source\PSoC5/LED_Strip.c **** #include "LED_Strip_PVT.h"
  19:.\Generated_Source\PSoC5/LED_Strip.c **** 
  20:.\Generated_Source\PSoC5/LED_Strip.c **** #if(LED_Strip_TX_SOFTWARE_BUF_ENABLED)
  21:.\Generated_Source\PSoC5/LED_Strip.c ****     volatile uint8 LED_Strip_txBuffer[LED_Strip_TX_BUFFER_SIZE];
  22:.\Generated_Source\PSoC5/LED_Strip.c ****     volatile uint8 LED_Strip_txBufferFull;
  23:.\Generated_Source\PSoC5/LED_Strip.c ****     volatile uint8 LED_Strip_txBufferRead;
  24:.\Generated_Source\PSoC5/LED_Strip.c ****     volatile uint8 LED_Strip_txBufferWrite;
  25:.\Generated_Source\PSoC5/LED_Strip.c **** #endif /* (LED_Strip_TX_SOFTWARE_BUF_ENABLED) */
  26:.\Generated_Source\PSoC5/LED_Strip.c **** 
  27:.\Generated_Source\PSoC5/LED_Strip.c **** #if(LED_Strip_RX_SOFTWARE_BUF_ENABLED)
  28:.\Generated_Source\PSoC5/LED_Strip.c ****     volatile uint8 LED_Strip_rxBuffer[LED_Strip_RX_BUFFER_SIZE];
  29:.\Generated_Source\PSoC5/LED_Strip.c ****     volatile uint8 LED_Strip_rxBufferFull;
  30:.\Generated_Source\PSoC5/LED_Strip.c ****     volatile uint8 LED_Strip_rxBufferRead;
  31:.\Generated_Source\PSoC5/LED_Strip.c ****     volatile uint8 LED_Strip_rxBufferWrite;
  32:.\Generated_Source\PSoC5/LED_Strip.c **** #endif /* (LED_Strip_RX_SOFTWARE_BUF_ENABLED) */
  33:.\Generated_Source\PSoC5/LED_Strip.c **** 
  34:.\Generated_Source\PSoC5/LED_Strip.c **** uint8 LED_Strip_initVar = 0u;
  35:.\Generated_Source\PSoC5/LED_Strip.c **** 
  36:.\Generated_Source\PSoC5/LED_Strip.c **** volatile uint8 LED_Strip_swStatusTx;
  37:.\Generated_Source\PSoC5/LED_Strip.c **** volatile uint8 LED_Strip_swStatusRx;
  38:.\Generated_Source\PSoC5/LED_Strip.c **** 
  39:.\Generated_Source\PSoC5/LED_Strip.c **** 
  40:.\Generated_Source\PSoC5/LED_Strip.c **** /*******************************************************************************
  41:.\Generated_Source\PSoC5/LED_Strip.c **** * Function Name: LED_Strip_Init
  42:.\Generated_Source\PSoC5/LED_Strip.c **** ********************************************************************************
  43:.\Generated_Source\PSoC5/LED_Strip.c **** *
  44:.\Generated_Source\PSoC5/LED_Strip.c **** * Summary:
  45:.\Generated_Source\PSoC5/LED_Strip.c **** *  Inits/Restores default SPIM configuration provided with customizer.
  46:.\Generated_Source\PSoC5/LED_Strip.c **** *
  47:.\Generated_Source\PSoC5/LED_Strip.c **** * Parameters:
  48:.\Generated_Source\PSoC5/LED_Strip.c **** *  None.
  49:.\Generated_Source\PSoC5/LED_Strip.c **** *
  50:.\Generated_Source\PSoC5/LED_Strip.c **** * Return:
  51:.\Generated_Source\PSoC5/LED_Strip.c **** *  None.
  52:.\Generated_Source\PSoC5/LED_Strip.c **** *
  53:.\Generated_Source\PSoC5/LED_Strip.c **** * Side Effects:
  54:.\Generated_Source\PSoC5/LED_Strip.c **** *  When this function is called it initializes all of the necessary parameters
  55:.\Generated_Source\PSoC5/LED_Strip.c **** *  for execution. i.e. setting the initial interrupt mask, configuring the
  56:.\Generated_Source\PSoC5/LED_Strip.c **** *  interrupt service routine, configuring the bit-counter parameters and
  57:.\Generated_Source\PSoC5/LED_Strip.c **** *  clearing the FIFO and Status Register.
  58:.\Generated_Source\PSoC5/LED_Strip.c **** *
  59:.\Generated_Source\PSoC5/LED_Strip.c **** * Reentrant:
  60:.\Generated_Source\PSoC5/LED_Strip.c **** *  No.
  61:.\Generated_Source\PSoC5/LED_Strip.c **** *
  62:.\Generated_Source\PSoC5/LED_Strip.c **** *******************************************************************************/
  63:.\Generated_Source\PSoC5/LED_Strip.c **** void LED_Strip_Init(void) 
  64:.\Generated_Source\PSoC5/LED_Strip.c **** {
  43              		.loc 1 64 0
  44              		.cfi_startproc
  45              		@ args = 0, pretend = 0, frame = 0
  46              		@ frame_needed = 1, uses_anonymous_args = 0
  47 0000 80B5     		push	{r7, lr}
  48              		.cfi_def_cfa_offset 8
  49              		.cfi_offset 7, -8
  50              		.cfi_offset 14, -4
ARM GAS  C:\Users\khjtony\AppData\Local\Temp\cc4iX0Bg.s 			page 3


  51 0002 00AF     		add	r7, sp, #0
  52              		.cfi_def_cfa_register 7
  65:.\Generated_Source\PSoC5/LED_Strip.c ****     /* Initialize the Bit counter */
  66:.\Generated_Source\PSoC5/LED_Strip.c ****     LED_Strip_COUNTER_PERIOD_REG = LED_Strip_BITCTR_INIT;
  53              		.loc 1 66 0
  54 0004 1B4B     		ldr	r3, .L2
  55 0006 0F22     		movs	r2, #15
  56 0008 1A70     		strb	r2, [r3]
  67:.\Generated_Source\PSoC5/LED_Strip.c **** 
  68:.\Generated_Source\PSoC5/LED_Strip.c ****     /* Init TX ISR  */
  69:.\Generated_Source\PSoC5/LED_Strip.c ****     #if(0u != LED_Strip_INTERNAL_TX_INT_ENABLED)
  70:.\Generated_Source\PSoC5/LED_Strip.c ****         CyIntDisable         (LED_Strip_TX_ISR_NUMBER);
  57              		.loc 1 70 0
  58 000a 1B4B     		ldr	r3, .L2+4
  59 000c 1022     		movs	r2, #16
  60 000e 1A60     		str	r2, [r3]
  71:.\Generated_Source\PSoC5/LED_Strip.c ****         CyIntSetPriority     (LED_Strip_TX_ISR_NUMBER,  LED_Strip_TX_ISR_PRIORITY);
  61              		.loc 1 71 0
  62 0010 0420     		movs	r0, #4
  63 0012 0721     		movs	r1, #7
  64 0014 FFF7FEFF 		bl	CyIntSetPriority
  72:.\Generated_Source\PSoC5/LED_Strip.c ****         (void) CyIntSetVector(LED_Strip_TX_ISR_NUMBER, &LED_Strip_TX_ISR);
  65              		.loc 1 72 0
  66 0018 0420     		movs	r0, #4
  67 001a 1849     		ldr	r1, .L2+8
  68 001c FFF7FEFF 		bl	CyIntSetVector
  73:.\Generated_Source\PSoC5/LED_Strip.c ****     #endif /* (0u != LED_Strip_INTERNAL_TX_INT_ENABLED) */
  74:.\Generated_Source\PSoC5/LED_Strip.c **** 
  75:.\Generated_Source\PSoC5/LED_Strip.c ****     /* Init RX ISR  */
  76:.\Generated_Source\PSoC5/LED_Strip.c ****     #if(0u != LED_Strip_INTERNAL_RX_INT_ENABLED)
  77:.\Generated_Source\PSoC5/LED_Strip.c ****         CyIntDisable         (LED_Strip_RX_ISR_NUMBER);
  69              		.loc 1 77 0
  70 0020 154B     		ldr	r3, .L2+4
  71 0022 0822     		movs	r2, #8
  72 0024 1A60     		str	r2, [r3]
  78:.\Generated_Source\PSoC5/LED_Strip.c ****         CyIntSetPriority     (LED_Strip_RX_ISR_NUMBER,  LED_Strip_RX_ISR_PRIORITY);
  73              		.loc 1 78 0
  74 0026 0320     		movs	r0, #3
  75 0028 0721     		movs	r1, #7
  76 002a FFF7FEFF 		bl	CyIntSetPriority
  79:.\Generated_Source\PSoC5/LED_Strip.c ****         (void) CyIntSetVector(LED_Strip_RX_ISR_NUMBER, &LED_Strip_RX_ISR);
  77              		.loc 1 79 0
  78 002e 0320     		movs	r0, #3
  79 0030 1349     		ldr	r1, .L2+12
  80 0032 FFF7FEFF 		bl	CyIntSetVector
  80:.\Generated_Source\PSoC5/LED_Strip.c ****     #endif /* (0u != LED_Strip_INTERNAL_RX_INT_ENABLED) */
  81:.\Generated_Source\PSoC5/LED_Strip.c **** 
  82:.\Generated_Source\PSoC5/LED_Strip.c ****     /* Clear any stray data from the RX and TX FIFO */
  83:.\Generated_Source\PSoC5/LED_Strip.c ****     LED_Strip_ClearFIFO();
  81              		.loc 1 83 0
  82 0036 FFF7FEFF 		bl	LED_Strip_ClearFIFO
  84:.\Generated_Source\PSoC5/LED_Strip.c **** 
  85:.\Generated_Source\PSoC5/LED_Strip.c ****     #if(LED_Strip_RX_SOFTWARE_BUF_ENABLED)
  86:.\Generated_Source\PSoC5/LED_Strip.c ****         LED_Strip_rxBufferFull  = 0u;
  83              		.loc 1 86 0
  84 003a 124B     		ldr	r3, .L2+16
  85 003c 0022     		movs	r2, #0
ARM GAS  C:\Users\khjtony\AppData\Local\Temp\cc4iX0Bg.s 			page 4


  86 003e 1A70     		strb	r2, [r3]
  87:.\Generated_Source\PSoC5/LED_Strip.c ****         LED_Strip_rxBufferRead  = 0u;
  87              		.loc 1 87 0
  88 0040 114B     		ldr	r3, .L2+20
  89 0042 0022     		movs	r2, #0
  90 0044 1A70     		strb	r2, [r3]
  88:.\Generated_Source\PSoC5/LED_Strip.c ****         LED_Strip_rxBufferWrite = 0u;
  91              		.loc 1 88 0
  92 0046 114B     		ldr	r3, .L2+24
  93 0048 0022     		movs	r2, #0
  94 004a 1A70     		strb	r2, [r3]
  89:.\Generated_Source\PSoC5/LED_Strip.c ****     #endif /* (LED_Strip_RX_SOFTWARE_BUF_ENABLED) */
  90:.\Generated_Source\PSoC5/LED_Strip.c **** 
  91:.\Generated_Source\PSoC5/LED_Strip.c ****     #if(LED_Strip_TX_SOFTWARE_BUF_ENABLED)
  92:.\Generated_Source\PSoC5/LED_Strip.c ****         LED_Strip_txBufferFull  = 0u;
  95              		.loc 1 92 0
  96 004c 104B     		ldr	r3, .L2+28
  97 004e 0022     		movs	r2, #0
  98 0050 1A70     		strb	r2, [r3]
  93:.\Generated_Source\PSoC5/LED_Strip.c ****         LED_Strip_txBufferRead  = 0u;
  99              		.loc 1 93 0
 100 0052 104B     		ldr	r3, .L2+32
 101 0054 0022     		movs	r2, #0
 102 0056 1A70     		strb	r2, [r3]
  94:.\Generated_Source\PSoC5/LED_Strip.c ****         LED_Strip_txBufferWrite = 0u;
 103              		.loc 1 94 0
 104 0058 0F4B     		ldr	r3, .L2+36
 105 005a 0022     		movs	r2, #0
 106 005c 1A70     		strb	r2, [r3]
  95:.\Generated_Source\PSoC5/LED_Strip.c ****     #endif /* (LED_Strip_TX_SOFTWARE_BUF_ENABLED) */
  96:.\Generated_Source\PSoC5/LED_Strip.c **** 
  97:.\Generated_Source\PSoC5/LED_Strip.c ****     (void) LED_Strip_ReadTxStatus(); /* Clear Tx status and swStatusTx */
 107              		.loc 1 97 0
 108 005e FFF7FEFF 		bl	LED_Strip_ReadTxStatus
  98:.\Generated_Source\PSoC5/LED_Strip.c ****     (void) LED_Strip_ReadRxStatus(); /* Clear Rx status and swStatusRx */
 109              		.loc 1 98 0
 110 0062 FFF7FEFF 		bl	LED_Strip_ReadRxStatus
  99:.\Generated_Source\PSoC5/LED_Strip.c **** 
 100:.\Generated_Source\PSoC5/LED_Strip.c ****     /* Configure TX and RX interrupt mask */
 101:.\Generated_Source\PSoC5/LED_Strip.c ****     LED_Strip_TX_STATUS_MASK_REG = LED_Strip_TX_INIT_INTERRUPTS_MASK;
 111              		.loc 1 101 0
 112 0066 0D4B     		ldr	r3, .L2+40
 113 0068 0022     		movs	r2, #0
 114 006a 1A70     		strb	r2, [r3]
 102:.\Generated_Source\PSoC5/LED_Strip.c ****     LED_Strip_RX_STATUS_MASK_REG = LED_Strip_RX_INIT_INTERRUPTS_MASK;
 115              		.loc 1 102 0
 116 006c 0C4B     		ldr	r3, .L2+44
 117 006e 2022     		movs	r2, #32
 118 0070 1A70     		strb	r2, [r3]
 103:.\Generated_Source\PSoC5/LED_Strip.c **** }
 119              		.loc 1 103 0
 120 0072 80BD     		pop	{r7, pc}
 121              	.L3:
 122              		.align	2
 123              	.L2:
 124 0074 83640040 		.word	1073767555
 125 0078 80E100E0 		.word	-536813184
ARM GAS  C:\Users\khjtony\AppData\Local\Temp\cc4iX0Bg.s 			page 5


 126 007c 00000000 		.word	LED_Strip_TX_ISR
 127 0080 00000000 		.word	LED_Strip_RX_ISR
 128 0084 00000000 		.word	LED_Strip_rxBufferFull
 129 0088 00000000 		.word	LED_Strip_rxBufferRead
 130 008c 00000000 		.word	LED_Strip_rxBufferWrite
 131 0090 00000000 		.word	LED_Strip_txBufferFull
 132 0094 00000000 		.word	LED_Strip_txBufferRead
 133 0098 00000000 		.word	LED_Strip_txBufferWrite
 134 009c 84640040 		.word	1073767556
 135 00a0 80640040 		.word	1073767552
 136              		.cfi_endproc
 137              	.LFE0:
 138              		.size	LED_Strip_Init, .-LED_Strip_Init
 139              		.section	.text.LED_Strip_Enable,"ax",%progbits
 140              		.align	2
 141              		.global	LED_Strip_Enable
 142              		.thumb
 143              		.thumb_func
 144              		.type	LED_Strip_Enable, %function
 145              	LED_Strip_Enable:
 146              	.LFB1:
 104:.\Generated_Source\PSoC5/LED_Strip.c **** 
 105:.\Generated_Source\PSoC5/LED_Strip.c **** 
 106:.\Generated_Source\PSoC5/LED_Strip.c **** /*******************************************************************************
 107:.\Generated_Source\PSoC5/LED_Strip.c **** * Function Name: LED_Strip_Enable
 108:.\Generated_Source\PSoC5/LED_Strip.c **** ********************************************************************************
 109:.\Generated_Source\PSoC5/LED_Strip.c **** *
 110:.\Generated_Source\PSoC5/LED_Strip.c **** * Summary:
 111:.\Generated_Source\PSoC5/LED_Strip.c **** *  Enable SPIM component.
 112:.\Generated_Source\PSoC5/LED_Strip.c **** *
 113:.\Generated_Source\PSoC5/LED_Strip.c **** * Parameters:
 114:.\Generated_Source\PSoC5/LED_Strip.c **** *  None.
 115:.\Generated_Source\PSoC5/LED_Strip.c **** *
 116:.\Generated_Source\PSoC5/LED_Strip.c **** * Return:
 117:.\Generated_Source\PSoC5/LED_Strip.c **** *  None.
 118:.\Generated_Source\PSoC5/LED_Strip.c **** *
 119:.\Generated_Source\PSoC5/LED_Strip.c **** *******************************************************************************/
 120:.\Generated_Source\PSoC5/LED_Strip.c **** void LED_Strip_Enable(void) 
 121:.\Generated_Source\PSoC5/LED_Strip.c **** {
 147              		.loc 1 121 0
 148              		.cfi_startproc
 149              		@ args = 0, pretend = 0, frame = 8
 150              		@ frame_needed = 1, uses_anonymous_args = 0
 151 0000 80B5     		push	{r7, lr}
 152              		.cfi_def_cfa_offset 8
 153              		.cfi_offset 7, -8
 154              		.cfi_offset 14, -4
 155 0002 82B0     		sub	sp, sp, #8
 156              		.cfi_def_cfa_offset 16
 157 0004 00AF     		add	r7, sp, #0
 158              		.cfi_def_cfa_register 7
 122:.\Generated_Source\PSoC5/LED_Strip.c ****     uint8 enableInterrupts;
 123:.\Generated_Source\PSoC5/LED_Strip.c **** 
 124:.\Generated_Source\PSoC5/LED_Strip.c ****     enableInterrupts = CyEnterCriticalSection();
 159              		.loc 1 124 0
 160 0006 FFF7FEFF 		bl	CyEnterCriticalSection
 161 000a 0346     		mov	r3, r0
ARM GAS  C:\Users\khjtony\AppData\Local\Temp\cc4iX0Bg.s 			page 6


 162 000c FB71     		strb	r3, [r7, #7]
 125:.\Generated_Source\PSoC5/LED_Strip.c ****     LED_Strip_COUNTER_CONTROL_REG |= LED_Strip_CNTR_ENABLE;
 163              		.loc 1 125 0
 164 000e 124B     		ldr	r3, .L5
 165 0010 114A     		ldr	r2, .L5
 166 0012 1278     		ldrb	r2, [r2]
 167 0014 D2B2     		uxtb	r2, r2
 168 0016 42F02002 		orr	r2, r2, #32
 169 001a D2B2     		uxtb	r2, r2
 170 001c 1A70     		strb	r2, [r3]
 126:.\Generated_Source\PSoC5/LED_Strip.c ****     LED_Strip_TX_STATUS_ACTL_REG  |= LED_Strip_INT_ENABLE;
 171              		.loc 1 126 0
 172 001e 0F4B     		ldr	r3, .L5+4
 173 0020 0E4A     		ldr	r2, .L5+4
 174 0022 1278     		ldrb	r2, [r2]
 175 0024 D2B2     		uxtb	r2, r2
 176 0026 42F01002 		orr	r2, r2, #16
 177 002a D2B2     		uxtb	r2, r2
 178 002c 1A70     		strb	r2, [r3]
 127:.\Generated_Source\PSoC5/LED_Strip.c ****     LED_Strip_RX_STATUS_ACTL_REG  |= LED_Strip_INT_ENABLE;
 179              		.loc 1 127 0
 180 002e 0C4B     		ldr	r3, .L5+8
 181 0030 0B4A     		ldr	r2, .L5+8
 182 0032 1278     		ldrb	r2, [r2]
 183 0034 D2B2     		uxtb	r2, r2
 184 0036 42F01002 		orr	r2, r2, #16
 185 003a D2B2     		uxtb	r2, r2
 186 003c 1A70     		strb	r2, [r3]
 128:.\Generated_Source\PSoC5/LED_Strip.c ****     CyExitCriticalSection(enableInterrupts);
 187              		.loc 1 128 0
 188 003e FB79     		ldrb	r3, [r7, #7]	@ zero_extendqisi2
 189 0040 1846     		mov	r0, r3
 190 0042 FFF7FEFF 		bl	CyExitCriticalSection
 129:.\Generated_Source\PSoC5/LED_Strip.c **** 
 130:.\Generated_Source\PSoC5/LED_Strip.c ****     #if(0u != LED_Strip_INTERNAL_CLOCK)
 131:.\Generated_Source\PSoC5/LED_Strip.c ****         LED_Strip_IntClock_Enable();
 191              		.loc 1 131 0
 192 0046 FFF7FEFF 		bl	LED_Strip_IntClock_Start
 132:.\Generated_Source\PSoC5/LED_Strip.c ****     #endif /* (0u != LED_Strip_INTERNAL_CLOCK) */
 133:.\Generated_Source\PSoC5/LED_Strip.c **** 
 134:.\Generated_Source\PSoC5/LED_Strip.c ****     LED_Strip_EnableTxInt();
 193              		.loc 1 134 0
 194 004a FFF7FEFF 		bl	LED_Strip_EnableTxInt
 135:.\Generated_Source\PSoC5/LED_Strip.c ****     LED_Strip_EnableRxInt();
 195              		.loc 1 135 0
 196 004e FFF7FEFF 		bl	LED_Strip_EnableRxInt
 136:.\Generated_Source\PSoC5/LED_Strip.c **** }
 197              		.loc 1 136 0
 198 0052 0837     		adds	r7, r7, #8
 199 0054 BD46     		mov	sp, r7
 200              		@ sp needed
 201 0056 80BD     		pop	{r7, pc}
 202              	.L6:
 203              		.align	2
 204              	.L5:
 205 0058 93640040 		.word	1073767571
 206 005c 94640040 		.word	1073767572
ARM GAS  C:\Users\khjtony\AppData\Local\Temp\cc4iX0Bg.s 			page 7


 207 0060 90640040 		.word	1073767568
 208              		.cfi_endproc
 209              	.LFE1:
 210              		.size	LED_Strip_Enable, .-LED_Strip_Enable
 211              		.section	.text.LED_Strip_Start,"ax",%progbits
 212              		.align	2
 213              		.global	LED_Strip_Start
 214              		.thumb
 215              		.thumb_func
 216              		.type	LED_Strip_Start, %function
 217              	LED_Strip_Start:
 218              	.LFB2:
 137:.\Generated_Source\PSoC5/LED_Strip.c **** 
 138:.\Generated_Source\PSoC5/LED_Strip.c **** 
 139:.\Generated_Source\PSoC5/LED_Strip.c **** /*******************************************************************************
 140:.\Generated_Source\PSoC5/LED_Strip.c **** * Function Name: LED_Strip_Start
 141:.\Generated_Source\PSoC5/LED_Strip.c **** ********************************************************************************
 142:.\Generated_Source\PSoC5/LED_Strip.c **** *
 143:.\Generated_Source\PSoC5/LED_Strip.c **** * Summary:
 144:.\Generated_Source\PSoC5/LED_Strip.c **** *  Initialize and Enable the SPI Master component.
 145:.\Generated_Source\PSoC5/LED_Strip.c **** *
 146:.\Generated_Source\PSoC5/LED_Strip.c **** * Parameters:
 147:.\Generated_Source\PSoC5/LED_Strip.c **** *  None.
 148:.\Generated_Source\PSoC5/LED_Strip.c **** *
 149:.\Generated_Source\PSoC5/LED_Strip.c **** * Return:
 150:.\Generated_Source\PSoC5/LED_Strip.c **** *  None.
 151:.\Generated_Source\PSoC5/LED_Strip.c **** *
 152:.\Generated_Source\PSoC5/LED_Strip.c **** * Global variables:
 153:.\Generated_Source\PSoC5/LED_Strip.c **** *  LED_Strip_initVar - used to check initial configuration, modified on
 154:.\Generated_Source\PSoC5/LED_Strip.c **** *  first function call.
 155:.\Generated_Source\PSoC5/LED_Strip.c **** *
 156:.\Generated_Source\PSoC5/LED_Strip.c **** * Theory:
 157:.\Generated_Source\PSoC5/LED_Strip.c **** *  Enable the clock input to enable operation.
 158:.\Generated_Source\PSoC5/LED_Strip.c **** *
 159:.\Generated_Source\PSoC5/LED_Strip.c **** * Reentrant:
 160:.\Generated_Source\PSoC5/LED_Strip.c **** *  No.
 161:.\Generated_Source\PSoC5/LED_Strip.c **** *
 162:.\Generated_Source\PSoC5/LED_Strip.c **** *******************************************************************************/
 163:.\Generated_Source\PSoC5/LED_Strip.c **** void LED_Strip_Start(void) 
 164:.\Generated_Source\PSoC5/LED_Strip.c **** {
 219              		.loc 1 164 0
 220              		.cfi_startproc
 221              		@ args = 0, pretend = 0, frame = 0
 222              		@ frame_needed = 1, uses_anonymous_args = 0
 223 0000 80B5     		push	{r7, lr}
 224              		.cfi_def_cfa_offset 8
 225              		.cfi_offset 7, -8
 226              		.cfi_offset 14, -4
 227 0002 00AF     		add	r7, sp, #0
 228              		.cfi_def_cfa_register 7
 165:.\Generated_Source\PSoC5/LED_Strip.c ****     if(0u == LED_Strip_initVar)
 229              		.loc 1 165 0
 230 0004 054B     		ldr	r3, .L9
 231 0006 1B78     		ldrb	r3, [r3]	@ zero_extendqisi2
 232 0008 002B     		cmp	r3, #0
 233 000a 04D1     		bne	.L8
 166:.\Generated_Source\PSoC5/LED_Strip.c ****     {
ARM GAS  C:\Users\khjtony\AppData\Local\Temp\cc4iX0Bg.s 			page 8


 167:.\Generated_Source\PSoC5/LED_Strip.c ****         LED_Strip_Init();
 234              		.loc 1 167 0
 235 000c FFF7FEFF 		bl	LED_Strip_Init
 168:.\Generated_Source\PSoC5/LED_Strip.c ****         LED_Strip_initVar = 1u;
 236              		.loc 1 168 0
 237 0010 024B     		ldr	r3, .L9
 238 0012 0122     		movs	r2, #1
 239 0014 1A70     		strb	r2, [r3]
 240              	.L8:
 169:.\Generated_Source\PSoC5/LED_Strip.c ****     }
 170:.\Generated_Source\PSoC5/LED_Strip.c **** 
 171:.\Generated_Source\PSoC5/LED_Strip.c ****     LED_Strip_Enable();
 241              		.loc 1 171 0
 242 0016 FFF7FEFF 		bl	LED_Strip_Enable
 172:.\Generated_Source\PSoC5/LED_Strip.c **** }
 243              		.loc 1 172 0
 244 001a 80BD     		pop	{r7, pc}
 245              	.L10:
 246              		.align	2
 247              	.L9:
 248 001c 00000000 		.word	LED_Strip_initVar
 249              		.cfi_endproc
 250              	.LFE2:
 251              		.size	LED_Strip_Start, .-LED_Strip_Start
 252              		.section	.text.LED_Strip_Stop,"ax",%progbits
 253              		.align	2
 254              		.global	LED_Strip_Stop
 255              		.thumb
 256              		.thumb_func
 257              		.type	LED_Strip_Stop, %function
 258              	LED_Strip_Stop:
 259              	.LFB3:
 173:.\Generated_Source\PSoC5/LED_Strip.c **** 
 174:.\Generated_Source\PSoC5/LED_Strip.c **** 
 175:.\Generated_Source\PSoC5/LED_Strip.c **** /*******************************************************************************
 176:.\Generated_Source\PSoC5/LED_Strip.c **** * Function Name: LED_Strip_Stop
 177:.\Generated_Source\PSoC5/LED_Strip.c **** ********************************************************************************
 178:.\Generated_Source\PSoC5/LED_Strip.c **** *
 179:.\Generated_Source\PSoC5/LED_Strip.c **** * Summary:
 180:.\Generated_Source\PSoC5/LED_Strip.c **** *  Disable the SPI Master component.
 181:.\Generated_Source\PSoC5/LED_Strip.c **** *
 182:.\Generated_Source\PSoC5/LED_Strip.c **** * Parameters:
 183:.\Generated_Source\PSoC5/LED_Strip.c **** *  None.
 184:.\Generated_Source\PSoC5/LED_Strip.c **** *
 185:.\Generated_Source\PSoC5/LED_Strip.c **** * Return:
 186:.\Generated_Source\PSoC5/LED_Strip.c **** *  None.
 187:.\Generated_Source\PSoC5/LED_Strip.c **** *
 188:.\Generated_Source\PSoC5/LED_Strip.c **** * Theory:
 189:.\Generated_Source\PSoC5/LED_Strip.c **** *  Disable the clock input to enable operation.
 190:.\Generated_Source\PSoC5/LED_Strip.c **** *
 191:.\Generated_Source\PSoC5/LED_Strip.c **** *******************************************************************************/
 192:.\Generated_Source\PSoC5/LED_Strip.c **** void LED_Strip_Stop(void) 
 193:.\Generated_Source\PSoC5/LED_Strip.c **** {
 260              		.loc 1 193 0
 261              		.cfi_startproc
 262              		@ args = 0, pretend = 0, frame = 8
 263              		@ frame_needed = 1, uses_anonymous_args = 0
ARM GAS  C:\Users\khjtony\AppData\Local\Temp\cc4iX0Bg.s 			page 9


 264 0000 80B5     		push	{r7, lr}
 265              		.cfi_def_cfa_offset 8
 266              		.cfi_offset 7, -8
 267              		.cfi_offset 14, -4
 268 0002 82B0     		sub	sp, sp, #8
 269              		.cfi_def_cfa_offset 16
 270 0004 00AF     		add	r7, sp, #0
 271              		.cfi_def_cfa_register 7
 194:.\Generated_Source\PSoC5/LED_Strip.c ****     uint8 enableInterrupts;
 195:.\Generated_Source\PSoC5/LED_Strip.c **** 
 196:.\Generated_Source\PSoC5/LED_Strip.c ****     enableInterrupts = CyEnterCriticalSection();
 272              		.loc 1 196 0
 273 0006 FFF7FEFF 		bl	CyEnterCriticalSection
 274 000a 0346     		mov	r3, r0
 275 000c FB71     		strb	r3, [r7, #7]
 197:.\Generated_Source\PSoC5/LED_Strip.c ****     LED_Strip_TX_STATUS_ACTL_REG &= ((uint8) ~LED_Strip_INT_ENABLE);
 276              		.loc 1 197 0
 277 000e 0E4B     		ldr	r3, .L12
 278 0010 0D4A     		ldr	r2, .L12
 279 0012 1278     		ldrb	r2, [r2]
 280 0014 D2B2     		uxtb	r2, r2
 281 0016 22F01002 		bic	r2, r2, #16
 282 001a D2B2     		uxtb	r2, r2
 283 001c 1A70     		strb	r2, [r3]
 198:.\Generated_Source\PSoC5/LED_Strip.c ****     LED_Strip_RX_STATUS_ACTL_REG &= ((uint8) ~LED_Strip_INT_ENABLE);
 284              		.loc 1 198 0
 285 001e 0B4B     		ldr	r3, .L12+4
 286 0020 0A4A     		ldr	r2, .L12+4
 287 0022 1278     		ldrb	r2, [r2]
 288 0024 D2B2     		uxtb	r2, r2
 289 0026 22F01002 		bic	r2, r2, #16
 290 002a D2B2     		uxtb	r2, r2
 291 002c 1A70     		strb	r2, [r3]
 199:.\Generated_Source\PSoC5/LED_Strip.c ****     CyExitCriticalSection(enableInterrupts);
 292              		.loc 1 199 0
 293 002e FB79     		ldrb	r3, [r7, #7]	@ zero_extendqisi2
 294 0030 1846     		mov	r0, r3
 295 0032 FFF7FEFF 		bl	CyExitCriticalSection
 200:.\Generated_Source\PSoC5/LED_Strip.c **** 
 201:.\Generated_Source\PSoC5/LED_Strip.c ****     #if(0u != LED_Strip_INTERNAL_CLOCK)
 202:.\Generated_Source\PSoC5/LED_Strip.c ****         LED_Strip_IntClock_Disable();
 296              		.loc 1 202 0
 297 0036 FFF7FEFF 		bl	LED_Strip_IntClock_Stop
 203:.\Generated_Source\PSoC5/LED_Strip.c ****     #endif /* (0u != LED_Strip_INTERNAL_CLOCK) */
 204:.\Generated_Source\PSoC5/LED_Strip.c **** 
 205:.\Generated_Source\PSoC5/LED_Strip.c ****     LED_Strip_DisableTxInt();
 298              		.loc 1 205 0
 299 003a FFF7FEFF 		bl	LED_Strip_DisableTxInt
 206:.\Generated_Source\PSoC5/LED_Strip.c ****     LED_Strip_DisableRxInt();
 300              		.loc 1 206 0
 301 003e FFF7FEFF 		bl	LED_Strip_DisableRxInt
 207:.\Generated_Source\PSoC5/LED_Strip.c **** }
 302              		.loc 1 207 0
 303 0042 0837     		adds	r7, r7, #8
 304 0044 BD46     		mov	sp, r7
 305              		@ sp needed
 306 0046 80BD     		pop	{r7, pc}
ARM GAS  C:\Users\khjtony\AppData\Local\Temp\cc4iX0Bg.s 			page 10


 307              	.L13:
 308              		.align	2
 309              	.L12:
 310 0048 94640040 		.word	1073767572
 311 004c 90640040 		.word	1073767568
 312              		.cfi_endproc
 313              	.LFE3:
 314              		.size	LED_Strip_Stop, .-LED_Strip_Stop
 315              		.section	.text.LED_Strip_EnableTxInt,"ax",%progbits
 316              		.align	2
 317              		.global	LED_Strip_EnableTxInt
 318              		.thumb
 319              		.thumb_func
 320              		.type	LED_Strip_EnableTxInt, %function
 321              	LED_Strip_EnableTxInt:
 322              	.LFB4:
 208:.\Generated_Source\PSoC5/LED_Strip.c **** 
 209:.\Generated_Source\PSoC5/LED_Strip.c **** 
 210:.\Generated_Source\PSoC5/LED_Strip.c **** /*******************************************************************************
 211:.\Generated_Source\PSoC5/LED_Strip.c **** * Function Name: LED_Strip_EnableTxInt
 212:.\Generated_Source\PSoC5/LED_Strip.c **** ********************************************************************************
 213:.\Generated_Source\PSoC5/LED_Strip.c **** *
 214:.\Generated_Source\PSoC5/LED_Strip.c **** * Summary:
 215:.\Generated_Source\PSoC5/LED_Strip.c **** *  Enable internal Tx interrupt generation.
 216:.\Generated_Source\PSoC5/LED_Strip.c **** *
 217:.\Generated_Source\PSoC5/LED_Strip.c **** * Parameters:
 218:.\Generated_Source\PSoC5/LED_Strip.c **** *  None.
 219:.\Generated_Source\PSoC5/LED_Strip.c **** *
 220:.\Generated_Source\PSoC5/LED_Strip.c **** * Return:
 221:.\Generated_Source\PSoC5/LED_Strip.c **** *  None.
 222:.\Generated_Source\PSoC5/LED_Strip.c **** *
 223:.\Generated_Source\PSoC5/LED_Strip.c **** * Theory:
 224:.\Generated_Source\PSoC5/LED_Strip.c **** *  Enable the internal Tx interrupt output -or- the interrupt component itself.
 225:.\Generated_Source\PSoC5/LED_Strip.c **** *
 226:.\Generated_Source\PSoC5/LED_Strip.c **** *******************************************************************************/
 227:.\Generated_Source\PSoC5/LED_Strip.c **** void LED_Strip_EnableTxInt(void) 
 228:.\Generated_Source\PSoC5/LED_Strip.c **** {
 323              		.loc 1 228 0
 324              		.cfi_startproc
 325              		@ args = 0, pretend = 0, frame = 0
 326              		@ frame_needed = 1, uses_anonymous_args = 0
 327              		@ link register save eliminated.
 328 0000 80B4     		push	{r7}
 329              		.cfi_def_cfa_offset 4
 330              		.cfi_offset 7, -4
 331 0002 00AF     		add	r7, sp, #0
 332              		.cfi_def_cfa_register 7
 229:.\Generated_Source\PSoC5/LED_Strip.c ****     #if(0u != LED_Strip_INTERNAL_TX_INT_ENABLED)
 230:.\Generated_Source\PSoC5/LED_Strip.c ****         CyIntEnable(LED_Strip_TX_ISR_NUMBER);
 333              		.loc 1 230 0
 334 0004 034B     		ldr	r3, .L15
 335 0006 1022     		movs	r2, #16
 336 0008 1A60     		str	r2, [r3]
 231:.\Generated_Source\PSoC5/LED_Strip.c ****     #endif /* (0u != LED_Strip_INTERNAL_TX_INT_ENABLED) */
 232:.\Generated_Source\PSoC5/LED_Strip.c **** }
 337              		.loc 1 232 0
 338 000a BD46     		mov	sp, r7
ARM GAS  C:\Users\khjtony\AppData\Local\Temp\cc4iX0Bg.s 			page 11


 339              		@ sp needed
 340 000c 5DF8047B 		ldr	r7, [sp], #4
 341 0010 7047     		bx	lr
 342              	.L16:
 343 0012 00BF     		.align	2
 344              	.L15:
 345 0014 00E100E0 		.word	-536813312
 346              		.cfi_endproc
 347              	.LFE4:
 348              		.size	LED_Strip_EnableTxInt, .-LED_Strip_EnableTxInt
 349              		.section	.text.LED_Strip_EnableRxInt,"ax",%progbits
 350              		.align	2
 351              		.global	LED_Strip_EnableRxInt
 352              		.thumb
 353              		.thumb_func
 354              		.type	LED_Strip_EnableRxInt, %function
 355              	LED_Strip_EnableRxInt:
 356              	.LFB5:
 233:.\Generated_Source\PSoC5/LED_Strip.c **** 
 234:.\Generated_Source\PSoC5/LED_Strip.c **** 
 235:.\Generated_Source\PSoC5/LED_Strip.c **** /*******************************************************************************
 236:.\Generated_Source\PSoC5/LED_Strip.c **** * Function Name: LED_Strip_EnableRxInt
 237:.\Generated_Source\PSoC5/LED_Strip.c **** ********************************************************************************
 238:.\Generated_Source\PSoC5/LED_Strip.c **** *
 239:.\Generated_Source\PSoC5/LED_Strip.c **** * Summary:
 240:.\Generated_Source\PSoC5/LED_Strip.c **** *  Enable internal Rx interrupt generation.
 241:.\Generated_Source\PSoC5/LED_Strip.c **** *
 242:.\Generated_Source\PSoC5/LED_Strip.c **** * Parameters:
 243:.\Generated_Source\PSoC5/LED_Strip.c **** *  None.
 244:.\Generated_Source\PSoC5/LED_Strip.c **** *
 245:.\Generated_Source\PSoC5/LED_Strip.c **** * Return:
 246:.\Generated_Source\PSoC5/LED_Strip.c **** *  None.
 247:.\Generated_Source\PSoC5/LED_Strip.c **** *
 248:.\Generated_Source\PSoC5/LED_Strip.c **** * Theory:
 249:.\Generated_Source\PSoC5/LED_Strip.c **** *  Enable the internal Rx interrupt output -or- the interrupt component itself.
 250:.\Generated_Source\PSoC5/LED_Strip.c **** *
 251:.\Generated_Source\PSoC5/LED_Strip.c **** *******************************************************************************/
 252:.\Generated_Source\PSoC5/LED_Strip.c **** void LED_Strip_EnableRxInt(void) 
 253:.\Generated_Source\PSoC5/LED_Strip.c **** {
 357              		.loc 1 253 0
 358              		.cfi_startproc
 359              		@ args = 0, pretend = 0, frame = 0
 360              		@ frame_needed = 1, uses_anonymous_args = 0
 361              		@ link register save eliminated.
 362 0000 80B4     		push	{r7}
 363              		.cfi_def_cfa_offset 4
 364              		.cfi_offset 7, -4
 365 0002 00AF     		add	r7, sp, #0
 366              		.cfi_def_cfa_register 7
 254:.\Generated_Source\PSoC5/LED_Strip.c ****     #if(0u != LED_Strip_INTERNAL_RX_INT_ENABLED)
 255:.\Generated_Source\PSoC5/LED_Strip.c ****         CyIntEnable(LED_Strip_RX_ISR_NUMBER);
 367              		.loc 1 255 0
 368 0004 034B     		ldr	r3, .L18
 369 0006 0822     		movs	r2, #8
 370 0008 1A60     		str	r2, [r3]
 256:.\Generated_Source\PSoC5/LED_Strip.c ****     #endif /* (0u != LED_Strip_INTERNAL_RX_INT_ENABLED) */
 257:.\Generated_Source\PSoC5/LED_Strip.c **** }
ARM GAS  C:\Users\khjtony\AppData\Local\Temp\cc4iX0Bg.s 			page 12


 371              		.loc 1 257 0
 372 000a BD46     		mov	sp, r7
 373              		@ sp needed
 374 000c 5DF8047B 		ldr	r7, [sp], #4
 375 0010 7047     		bx	lr
 376              	.L19:
 377 0012 00BF     		.align	2
 378              	.L18:
 379 0014 00E100E0 		.word	-536813312
 380              		.cfi_endproc
 381              	.LFE5:
 382              		.size	LED_Strip_EnableRxInt, .-LED_Strip_EnableRxInt
 383              		.section	.text.LED_Strip_DisableTxInt,"ax",%progbits
 384              		.align	2
 385              		.global	LED_Strip_DisableTxInt
 386              		.thumb
 387              		.thumb_func
 388              		.type	LED_Strip_DisableTxInt, %function
 389              	LED_Strip_DisableTxInt:
 390              	.LFB6:
 258:.\Generated_Source\PSoC5/LED_Strip.c **** 
 259:.\Generated_Source\PSoC5/LED_Strip.c **** 
 260:.\Generated_Source\PSoC5/LED_Strip.c **** /*******************************************************************************
 261:.\Generated_Source\PSoC5/LED_Strip.c **** * Function Name: LED_Strip_DisableTxInt
 262:.\Generated_Source\PSoC5/LED_Strip.c **** ********************************************************************************
 263:.\Generated_Source\PSoC5/LED_Strip.c **** *
 264:.\Generated_Source\PSoC5/LED_Strip.c **** * Summary:
 265:.\Generated_Source\PSoC5/LED_Strip.c **** *  Disable internal Tx interrupt generation.
 266:.\Generated_Source\PSoC5/LED_Strip.c **** *
 267:.\Generated_Source\PSoC5/LED_Strip.c **** * Parameters:
 268:.\Generated_Source\PSoC5/LED_Strip.c **** *  None.
 269:.\Generated_Source\PSoC5/LED_Strip.c **** *
 270:.\Generated_Source\PSoC5/LED_Strip.c **** * Return:
 271:.\Generated_Source\PSoC5/LED_Strip.c **** *  None.
 272:.\Generated_Source\PSoC5/LED_Strip.c **** *
 273:.\Generated_Source\PSoC5/LED_Strip.c **** * Theory:
 274:.\Generated_Source\PSoC5/LED_Strip.c **** *  Disable the internal Tx interrupt output -or- the interrupt component itself.
 275:.\Generated_Source\PSoC5/LED_Strip.c **** *
 276:.\Generated_Source\PSoC5/LED_Strip.c **** *******************************************************************************/
 277:.\Generated_Source\PSoC5/LED_Strip.c **** void LED_Strip_DisableTxInt(void) 
 278:.\Generated_Source\PSoC5/LED_Strip.c **** {
 391              		.loc 1 278 0
 392              		.cfi_startproc
 393              		@ args = 0, pretend = 0, frame = 0
 394              		@ frame_needed = 1, uses_anonymous_args = 0
 395              		@ link register save eliminated.
 396 0000 80B4     		push	{r7}
 397              		.cfi_def_cfa_offset 4
 398              		.cfi_offset 7, -4
 399 0002 00AF     		add	r7, sp, #0
 400              		.cfi_def_cfa_register 7
 279:.\Generated_Source\PSoC5/LED_Strip.c ****     #if(0u != LED_Strip_INTERNAL_TX_INT_ENABLED)
 280:.\Generated_Source\PSoC5/LED_Strip.c ****         CyIntDisable(LED_Strip_TX_ISR_NUMBER);
 401              		.loc 1 280 0
 402 0004 034B     		ldr	r3, .L21
 403 0006 1022     		movs	r2, #16
 404 0008 1A60     		str	r2, [r3]
ARM GAS  C:\Users\khjtony\AppData\Local\Temp\cc4iX0Bg.s 			page 13


 281:.\Generated_Source\PSoC5/LED_Strip.c ****     #endif /* (0u != LED_Strip_INTERNAL_TX_INT_ENABLED) */
 282:.\Generated_Source\PSoC5/LED_Strip.c **** }
 405              		.loc 1 282 0
 406 000a BD46     		mov	sp, r7
 407              		@ sp needed
 408 000c 5DF8047B 		ldr	r7, [sp], #4
 409 0010 7047     		bx	lr
 410              	.L22:
 411 0012 00BF     		.align	2
 412              	.L21:
 413 0014 80E100E0 		.word	-536813184
 414              		.cfi_endproc
 415              	.LFE6:
 416              		.size	LED_Strip_DisableTxInt, .-LED_Strip_DisableTxInt
 417              		.section	.text.LED_Strip_DisableRxInt,"ax",%progbits
 418              		.align	2
 419              		.global	LED_Strip_DisableRxInt
 420              		.thumb
 421              		.thumb_func
 422              		.type	LED_Strip_DisableRxInt, %function
 423              	LED_Strip_DisableRxInt:
 424              	.LFB7:
 283:.\Generated_Source\PSoC5/LED_Strip.c **** 
 284:.\Generated_Source\PSoC5/LED_Strip.c **** 
 285:.\Generated_Source\PSoC5/LED_Strip.c **** /*******************************************************************************
 286:.\Generated_Source\PSoC5/LED_Strip.c **** * Function Name: LED_Strip_DisableRxInt
 287:.\Generated_Source\PSoC5/LED_Strip.c **** ********************************************************************************
 288:.\Generated_Source\PSoC5/LED_Strip.c **** *
 289:.\Generated_Source\PSoC5/LED_Strip.c **** * Summary:
 290:.\Generated_Source\PSoC5/LED_Strip.c **** *  Disable internal Rx interrupt generation.
 291:.\Generated_Source\PSoC5/LED_Strip.c **** *
 292:.\Generated_Source\PSoC5/LED_Strip.c **** * Parameters:
 293:.\Generated_Source\PSoC5/LED_Strip.c **** *  None.
 294:.\Generated_Source\PSoC5/LED_Strip.c **** *
 295:.\Generated_Source\PSoC5/LED_Strip.c **** * Return:
 296:.\Generated_Source\PSoC5/LED_Strip.c **** *  None.
 297:.\Generated_Source\PSoC5/LED_Strip.c **** *
 298:.\Generated_Source\PSoC5/LED_Strip.c **** * Theory:
 299:.\Generated_Source\PSoC5/LED_Strip.c **** *  Disable the internal Rx interrupt output -or- the interrupt component itself.
 300:.\Generated_Source\PSoC5/LED_Strip.c **** *
 301:.\Generated_Source\PSoC5/LED_Strip.c **** *******************************************************************************/
 302:.\Generated_Source\PSoC5/LED_Strip.c **** void LED_Strip_DisableRxInt(void) 
 303:.\Generated_Source\PSoC5/LED_Strip.c **** {
 425              		.loc 1 303 0
 426              		.cfi_startproc
 427              		@ args = 0, pretend = 0, frame = 0
 428              		@ frame_needed = 1, uses_anonymous_args = 0
 429              		@ link register save eliminated.
 430 0000 80B4     		push	{r7}
 431              		.cfi_def_cfa_offset 4
 432              		.cfi_offset 7, -4
 433 0002 00AF     		add	r7, sp, #0
 434              		.cfi_def_cfa_register 7
 304:.\Generated_Source\PSoC5/LED_Strip.c ****     #if(0u != LED_Strip_INTERNAL_RX_INT_ENABLED)
 305:.\Generated_Source\PSoC5/LED_Strip.c ****         CyIntDisable(LED_Strip_RX_ISR_NUMBER);
 435              		.loc 1 305 0
 436 0004 034B     		ldr	r3, .L24
ARM GAS  C:\Users\khjtony\AppData\Local\Temp\cc4iX0Bg.s 			page 14


 437 0006 0822     		movs	r2, #8
 438 0008 1A60     		str	r2, [r3]
 306:.\Generated_Source\PSoC5/LED_Strip.c ****     #endif /* (0u != LED_Strip_INTERNAL_RX_INT_ENABLED) */
 307:.\Generated_Source\PSoC5/LED_Strip.c **** }
 439              		.loc 1 307 0
 440 000a BD46     		mov	sp, r7
 441              		@ sp needed
 442 000c 5DF8047B 		ldr	r7, [sp], #4
 443 0010 7047     		bx	lr
 444              	.L25:
 445 0012 00BF     		.align	2
 446              	.L24:
 447 0014 80E100E0 		.word	-536813184
 448              		.cfi_endproc
 449              	.LFE7:
 450              		.size	LED_Strip_DisableRxInt, .-LED_Strip_DisableRxInt
 451              		.section	.text.LED_Strip_SetTxInterruptMode,"ax",%progbits
 452              		.align	2
 453              		.global	LED_Strip_SetTxInterruptMode
 454              		.thumb
 455              		.thumb_func
 456              		.type	LED_Strip_SetTxInterruptMode, %function
 457              	LED_Strip_SetTxInterruptMode:
 458              	.LFB8:
 308:.\Generated_Source\PSoC5/LED_Strip.c **** 
 309:.\Generated_Source\PSoC5/LED_Strip.c **** 
 310:.\Generated_Source\PSoC5/LED_Strip.c **** /*******************************************************************************
 311:.\Generated_Source\PSoC5/LED_Strip.c **** * Function Name: LED_Strip_SetTxInterruptMode
 312:.\Generated_Source\PSoC5/LED_Strip.c **** ********************************************************************************
 313:.\Generated_Source\PSoC5/LED_Strip.c **** *
 314:.\Generated_Source\PSoC5/LED_Strip.c **** * Summary:
 315:.\Generated_Source\PSoC5/LED_Strip.c **** *  Configure which status bits trigger an interrupt event.
 316:.\Generated_Source\PSoC5/LED_Strip.c **** *
 317:.\Generated_Source\PSoC5/LED_Strip.c **** * Parameters:
 318:.\Generated_Source\PSoC5/LED_Strip.c **** *  intSrc: An or'd combination of the desired status bit masks (defined in the
 319:.\Generated_Source\PSoC5/LED_Strip.c **** *  header file).
 320:.\Generated_Source\PSoC5/LED_Strip.c **** *
 321:.\Generated_Source\PSoC5/LED_Strip.c **** * Return:
 322:.\Generated_Source\PSoC5/LED_Strip.c **** *  None.
 323:.\Generated_Source\PSoC5/LED_Strip.c **** *
 324:.\Generated_Source\PSoC5/LED_Strip.c **** * Theory:
 325:.\Generated_Source\PSoC5/LED_Strip.c **** *  Enables the output of specific status bits to the interrupt controller.
 326:.\Generated_Source\PSoC5/LED_Strip.c **** *
 327:.\Generated_Source\PSoC5/LED_Strip.c **** *******************************************************************************/
 328:.\Generated_Source\PSoC5/LED_Strip.c **** void LED_Strip_SetTxInterruptMode(uint8 intSrc) 
 329:.\Generated_Source\PSoC5/LED_Strip.c **** {
 459              		.loc 1 329 0
 460              		.cfi_startproc
 461              		@ args = 0, pretend = 0, frame = 8
 462              		@ frame_needed = 1, uses_anonymous_args = 0
 463              		@ link register save eliminated.
 464 0000 80B4     		push	{r7}
 465              		.cfi_def_cfa_offset 4
 466              		.cfi_offset 7, -4
 467 0002 83B0     		sub	sp, sp, #12
 468              		.cfi_def_cfa_offset 16
 469 0004 00AF     		add	r7, sp, #0
ARM GAS  C:\Users\khjtony\AppData\Local\Temp\cc4iX0Bg.s 			page 15


 470              		.cfi_def_cfa_register 7
 471 0006 0346     		mov	r3, r0
 472 0008 FB71     		strb	r3, [r7, #7]
 330:.\Generated_Source\PSoC5/LED_Strip.c ****     LED_Strip_TX_STATUS_MASK_REG = intSrc;
 473              		.loc 1 330 0
 474 000a 044B     		ldr	r3, .L27
 475 000c FA79     		ldrb	r2, [r7, #7]
 476 000e 1A70     		strb	r2, [r3]
 331:.\Generated_Source\PSoC5/LED_Strip.c **** }
 477              		.loc 1 331 0
 478 0010 0C37     		adds	r7, r7, #12
 479 0012 BD46     		mov	sp, r7
 480              		@ sp needed
 481 0014 5DF8047B 		ldr	r7, [sp], #4
 482 0018 7047     		bx	lr
 483              	.L28:
 484 001a 00BF     		.align	2
 485              	.L27:
 486 001c 84640040 		.word	1073767556
 487              		.cfi_endproc
 488              	.LFE8:
 489              		.size	LED_Strip_SetTxInterruptMode, .-LED_Strip_SetTxInterruptMode
 490              		.section	.text.LED_Strip_SetRxInterruptMode,"ax",%progbits
 491              		.align	2
 492              		.global	LED_Strip_SetRxInterruptMode
 493              		.thumb
 494              		.thumb_func
 495              		.type	LED_Strip_SetRxInterruptMode, %function
 496              	LED_Strip_SetRxInterruptMode:
 497              	.LFB9:
 332:.\Generated_Source\PSoC5/LED_Strip.c **** 
 333:.\Generated_Source\PSoC5/LED_Strip.c **** 
 334:.\Generated_Source\PSoC5/LED_Strip.c **** /*******************************************************************************
 335:.\Generated_Source\PSoC5/LED_Strip.c **** * Function Name: LED_Strip_SetRxInterruptMode
 336:.\Generated_Source\PSoC5/LED_Strip.c **** ********************************************************************************
 337:.\Generated_Source\PSoC5/LED_Strip.c **** *
 338:.\Generated_Source\PSoC5/LED_Strip.c **** * Summary:
 339:.\Generated_Source\PSoC5/LED_Strip.c **** *  Configure which status bits trigger an interrupt event.
 340:.\Generated_Source\PSoC5/LED_Strip.c **** *
 341:.\Generated_Source\PSoC5/LED_Strip.c **** * Parameters:
 342:.\Generated_Source\PSoC5/LED_Strip.c **** *  intSrc: An or'd combination of the desired status bit masks (defined in the
 343:.\Generated_Source\PSoC5/LED_Strip.c **** *  header file).
 344:.\Generated_Source\PSoC5/LED_Strip.c **** *
 345:.\Generated_Source\PSoC5/LED_Strip.c **** * Return:
 346:.\Generated_Source\PSoC5/LED_Strip.c **** *  None.
 347:.\Generated_Source\PSoC5/LED_Strip.c **** *
 348:.\Generated_Source\PSoC5/LED_Strip.c **** * Theory:
 349:.\Generated_Source\PSoC5/LED_Strip.c **** *  Enables the output of specific status bits to the interrupt controller.
 350:.\Generated_Source\PSoC5/LED_Strip.c **** *
 351:.\Generated_Source\PSoC5/LED_Strip.c **** *******************************************************************************/
 352:.\Generated_Source\PSoC5/LED_Strip.c **** void LED_Strip_SetRxInterruptMode(uint8 intSrc) 
 353:.\Generated_Source\PSoC5/LED_Strip.c **** {
 498              		.loc 1 353 0
 499              		.cfi_startproc
 500              		@ args = 0, pretend = 0, frame = 8
 501              		@ frame_needed = 1, uses_anonymous_args = 0
 502              		@ link register save eliminated.
ARM GAS  C:\Users\khjtony\AppData\Local\Temp\cc4iX0Bg.s 			page 16


 503 0000 80B4     		push	{r7}
 504              		.cfi_def_cfa_offset 4
 505              		.cfi_offset 7, -4
 506 0002 83B0     		sub	sp, sp, #12
 507              		.cfi_def_cfa_offset 16
 508 0004 00AF     		add	r7, sp, #0
 509              		.cfi_def_cfa_register 7
 510 0006 0346     		mov	r3, r0
 511 0008 FB71     		strb	r3, [r7, #7]
 354:.\Generated_Source\PSoC5/LED_Strip.c ****     LED_Strip_RX_STATUS_MASK_REG  = intSrc;
 512              		.loc 1 354 0
 513 000a 044B     		ldr	r3, .L30
 514 000c FA79     		ldrb	r2, [r7, #7]
 515 000e 1A70     		strb	r2, [r3]
 355:.\Generated_Source\PSoC5/LED_Strip.c **** }
 516              		.loc 1 355 0
 517 0010 0C37     		adds	r7, r7, #12
 518 0012 BD46     		mov	sp, r7
 519              		@ sp needed
 520 0014 5DF8047B 		ldr	r7, [sp], #4
 521 0018 7047     		bx	lr
 522              	.L31:
 523 001a 00BF     		.align	2
 524              	.L30:
 525 001c 80640040 		.word	1073767552
 526              		.cfi_endproc
 527              	.LFE9:
 528              		.size	LED_Strip_SetRxInterruptMode, .-LED_Strip_SetRxInterruptMode
 529              		.section	.text.LED_Strip_ReadTxStatus,"ax",%progbits
 530              		.align	2
 531              		.global	LED_Strip_ReadTxStatus
 532              		.thumb
 533              		.thumb_func
 534              		.type	LED_Strip_ReadTxStatus, %function
 535              	LED_Strip_ReadTxStatus:
 536              	.LFB10:
 356:.\Generated_Source\PSoC5/LED_Strip.c **** 
 357:.\Generated_Source\PSoC5/LED_Strip.c **** 
 358:.\Generated_Source\PSoC5/LED_Strip.c **** /*******************************************************************************
 359:.\Generated_Source\PSoC5/LED_Strip.c **** * Function Name: LED_Strip_ReadTxStatus
 360:.\Generated_Source\PSoC5/LED_Strip.c **** ********************************************************************************
 361:.\Generated_Source\PSoC5/LED_Strip.c **** *
 362:.\Generated_Source\PSoC5/LED_Strip.c **** * Summary:
 363:.\Generated_Source\PSoC5/LED_Strip.c **** *  Read the Tx status register for the component.
 364:.\Generated_Source\PSoC5/LED_Strip.c **** *
 365:.\Generated_Source\PSoC5/LED_Strip.c **** * Parameters:
 366:.\Generated_Source\PSoC5/LED_Strip.c **** *  None.
 367:.\Generated_Source\PSoC5/LED_Strip.c **** *
 368:.\Generated_Source\PSoC5/LED_Strip.c **** * Return:
 369:.\Generated_Source\PSoC5/LED_Strip.c **** *  Contents of the Tx status register.
 370:.\Generated_Source\PSoC5/LED_Strip.c **** *
 371:.\Generated_Source\PSoC5/LED_Strip.c **** * Global variables:
 372:.\Generated_Source\PSoC5/LED_Strip.c **** *  LED_Strip_swStatusTx - used to store in software status register,
 373:.\Generated_Source\PSoC5/LED_Strip.c **** *  modified every function call - resets to zero.
 374:.\Generated_Source\PSoC5/LED_Strip.c **** *
 375:.\Generated_Source\PSoC5/LED_Strip.c **** * Theory:
 376:.\Generated_Source\PSoC5/LED_Strip.c **** *  Allows the user and the API to read the Tx status register for error
ARM GAS  C:\Users\khjtony\AppData\Local\Temp\cc4iX0Bg.s 			page 17


 377:.\Generated_Source\PSoC5/LED_Strip.c **** *  detection and flow control.
 378:.\Generated_Source\PSoC5/LED_Strip.c **** *
 379:.\Generated_Source\PSoC5/LED_Strip.c **** * Side Effects:
 380:.\Generated_Source\PSoC5/LED_Strip.c **** *  Clear Tx status register of the component.
 381:.\Generated_Source\PSoC5/LED_Strip.c **** *
 382:.\Generated_Source\PSoC5/LED_Strip.c **** * Reentrant:
 383:.\Generated_Source\PSoC5/LED_Strip.c **** *  No.
 384:.\Generated_Source\PSoC5/LED_Strip.c **** *
 385:.\Generated_Source\PSoC5/LED_Strip.c **** *******************************************************************************/
 386:.\Generated_Source\PSoC5/LED_Strip.c **** uint8 LED_Strip_ReadTxStatus(void) 
 387:.\Generated_Source\PSoC5/LED_Strip.c **** {
 537              		.loc 1 387 0
 538              		.cfi_startproc
 539              		@ args = 0, pretend = 0, frame = 8
 540              		@ frame_needed = 1, uses_anonymous_args = 0
 541 0000 80B5     		push	{r7, lr}
 542              		.cfi_def_cfa_offset 8
 543              		.cfi_offset 7, -8
 544              		.cfi_offset 14, -4
 545 0002 82B0     		sub	sp, sp, #8
 546              		.cfi_def_cfa_offset 16
 547 0004 00AF     		add	r7, sp, #0
 548              		.cfi_def_cfa_register 7
 388:.\Generated_Source\PSoC5/LED_Strip.c ****     uint8 tmpStatus;
 389:.\Generated_Source\PSoC5/LED_Strip.c **** 
 390:.\Generated_Source\PSoC5/LED_Strip.c ****     #if(LED_Strip_TX_SOFTWARE_BUF_ENABLED)
 391:.\Generated_Source\PSoC5/LED_Strip.c ****         /* Disable TX interrupt to protect global veriables */
 392:.\Generated_Source\PSoC5/LED_Strip.c ****         LED_Strip_DisableTxInt();
 549              		.loc 1 392 0
 550 0006 FFF7FEFF 		bl	LED_Strip_DisableTxInt
 393:.\Generated_Source\PSoC5/LED_Strip.c **** 
 394:.\Generated_Source\PSoC5/LED_Strip.c ****         tmpStatus = LED_Strip_GET_STATUS_TX(LED_Strip_swStatusTx);
 551              		.loc 1 394 0
 552 000a 0A4B     		ldr	r3, .L34
 553 000c 1B78     		ldrb	r3, [r3]
 554 000e DAB2     		uxtb	r2, r3
 555 0010 094B     		ldr	r3, .L34+4
 556 0012 1B78     		ldrb	r3, [r3]
 557 0014 DBB2     		uxtb	r3, r3
 558 0016 03F00903 		and	r3, r3, #9
 559 001a DBB2     		uxtb	r3, r3
 560 001c 1343     		orrs	r3, r3, r2
 561 001e FB71     		strb	r3, [r7, #7]
 395:.\Generated_Source\PSoC5/LED_Strip.c ****         LED_Strip_swStatusTx = 0u;
 562              		.loc 1 395 0
 563 0020 054B     		ldr	r3, .L34+4
 564 0022 0022     		movs	r2, #0
 565 0024 1A70     		strb	r2, [r3]
 396:.\Generated_Source\PSoC5/LED_Strip.c **** 
 397:.\Generated_Source\PSoC5/LED_Strip.c ****         LED_Strip_EnableTxInt();
 566              		.loc 1 397 0
 567 0026 FFF7FEFF 		bl	LED_Strip_EnableTxInt
 398:.\Generated_Source\PSoC5/LED_Strip.c **** 
 399:.\Generated_Source\PSoC5/LED_Strip.c ****     #else
 400:.\Generated_Source\PSoC5/LED_Strip.c **** 
 401:.\Generated_Source\PSoC5/LED_Strip.c ****         tmpStatus = LED_Strip_TX_STATUS_REG;
 402:.\Generated_Source\PSoC5/LED_Strip.c **** 
ARM GAS  C:\Users\khjtony\AppData\Local\Temp\cc4iX0Bg.s 			page 18


 403:.\Generated_Source\PSoC5/LED_Strip.c ****     #endif /* (LED_Strip_TX_SOFTWARE_BUF_ENABLED) */
 404:.\Generated_Source\PSoC5/LED_Strip.c **** 
 405:.\Generated_Source\PSoC5/LED_Strip.c ****     return(tmpStatus);
 568              		.loc 1 405 0
 569 002a FB79     		ldrb	r3, [r7, #7]	@ zero_extendqisi2
 406:.\Generated_Source\PSoC5/LED_Strip.c **** }
 570              		.loc 1 406 0
 571 002c 1846     		mov	r0, r3
 572 002e 0837     		adds	r7, r7, #8
 573 0030 BD46     		mov	sp, r7
 574              		@ sp needed
 575 0032 80BD     		pop	{r7, pc}
 576              	.L35:
 577              		.align	2
 578              	.L34:
 579 0034 64640040 		.word	1073767524
 580 0038 00000000 		.word	LED_Strip_swStatusTx
 581              		.cfi_endproc
 582              	.LFE10:
 583              		.size	LED_Strip_ReadTxStatus, .-LED_Strip_ReadTxStatus
 584              		.section	.text.LED_Strip_ReadRxStatus,"ax",%progbits
 585              		.align	2
 586              		.global	LED_Strip_ReadRxStatus
 587              		.thumb
 588              		.thumb_func
 589              		.type	LED_Strip_ReadRxStatus, %function
 590              	LED_Strip_ReadRxStatus:
 591              	.LFB11:
 407:.\Generated_Source\PSoC5/LED_Strip.c **** 
 408:.\Generated_Source\PSoC5/LED_Strip.c **** 
 409:.\Generated_Source\PSoC5/LED_Strip.c **** /*******************************************************************************
 410:.\Generated_Source\PSoC5/LED_Strip.c **** * Function Name: LED_Strip_ReadRxStatus
 411:.\Generated_Source\PSoC5/LED_Strip.c **** ********************************************************************************
 412:.\Generated_Source\PSoC5/LED_Strip.c **** *
 413:.\Generated_Source\PSoC5/LED_Strip.c **** * Summary:
 414:.\Generated_Source\PSoC5/LED_Strip.c **** *  Read the Rx status register for the component.
 415:.\Generated_Source\PSoC5/LED_Strip.c **** *
 416:.\Generated_Source\PSoC5/LED_Strip.c **** * Parameters:
 417:.\Generated_Source\PSoC5/LED_Strip.c **** *  None.
 418:.\Generated_Source\PSoC5/LED_Strip.c **** *
 419:.\Generated_Source\PSoC5/LED_Strip.c **** * Return:
 420:.\Generated_Source\PSoC5/LED_Strip.c **** *  Contents of the Rx status register.
 421:.\Generated_Source\PSoC5/LED_Strip.c **** *
 422:.\Generated_Source\PSoC5/LED_Strip.c **** * Global variables:
 423:.\Generated_Source\PSoC5/LED_Strip.c **** *  LED_Strip_swStatusRx - used to store in software Rx status register,
 424:.\Generated_Source\PSoC5/LED_Strip.c **** *  modified every function call - resets to zero.
 425:.\Generated_Source\PSoC5/LED_Strip.c **** *
 426:.\Generated_Source\PSoC5/LED_Strip.c **** * Theory:
 427:.\Generated_Source\PSoC5/LED_Strip.c **** *  Allows the user and the API to read the Rx status register for error
 428:.\Generated_Source\PSoC5/LED_Strip.c **** *  detection and flow control.
 429:.\Generated_Source\PSoC5/LED_Strip.c **** *
 430:.\Generated_Source\PSoC5/LED_Strip.c **** * Side Effects:
 431:.\Generated_Source\PSoC5/LED_Strip.c **** *  Clear Rx status register of the component.
 432:.\Generated_Source\PSoC5/LED_Strip.c **** *
 433:.\Generated_Source\PSoC5/LED_Strip.c **** * Reentrant:
 434:.\Generated_Source\PSoC5/LED_Strip.c **** *  No.
 435:.\Generated_Source\PSoC5/LED_Strip.c **** *
ARM GAS  C:\Users\khjtony\AppData\Local\Temp\cc4iX0Bg.s 			page 19


 436:.\Generated_Source\PSoC5/LED_Strip.c **** *******************************************************************************/
 437:.\Generated_Source\PSoC5/LED_Strip.c **** uint8 LED_Strip_ReadRxStatus(void) 
 438:.\Generated_Source\PSoC5/LED_Strip.c **** {
 592              		.loc 1 438 0
 593              		.cfi_startproc
 594              		@ args = 0, pretend = 0, frame = 8
 595              		@ frame_needed = 1, uses_anonymous_args = 0
 596 0000 80B5     		push	{r7, lr}
 597              		.cfi_def_cfa_offset 8
 598              		.cfi_offset 7, -8
 599              		.cfi_offset 14, -4
 600 0002 82B0     		sub	sp, sp, #8
 601              		.cfi_def_cfa_offset 16
 602 0004 00AF     		add	r7, sp, #0
 603              		.cfi_def_cfa_register 7
 439:.\Generated_Source\PSoC5/LED_Strip.c ****     uint8 tmpStatus;
 440:.\Generated_Source\PSoC5/LED_Strip.c **** 
 441:.\Generated_Source\PSoC5/LED_Strip.c ****     #if(LED_Strip_RX_SOFTWARE_BUF_ENABLED)
 442:.\Generated_Source\PSoC5/LED_Strip.c ****         /* Disable RX interrupt to protect global veriables */
 443:.\Generated_Source\PSoC5/LED_Strip.c ****         LED_Strip_DisableRxInt();
 604              		.loc 1 443 0
 605 0006 FFF7FEFF 		bl	LED_Strip_DisableRxInt
 444:.\Generated_Source\PSoC5/LED_Strip.c **** 
 445:.\Generated_Source\PSoC5/LED_Strip.c ****         tmpStatus = LED_Strip_GET_STATUS_RX(LED_Strip_swStatusRx);
 606              		.loc 1 445 0
 607 000a 0A4B     		ldr	r3, .L38
 608 000c 1B78     		ldrb	r3, [r3]
 609 000e DAB2     		uxtb	r2, r3
 610 0010 094B     		ldr	r3, .L38+4
 611 0012 1B78     		ldrb	r3, [r3]
 612 0014 DBB2     		uxtb	r3, r3
 613 0016 03F04003 		and	r3, r3, #64
 614 001a DBB2     		uxtb	r3, r3
 615 001c 1343     		orrs	r3, r3, r2
 616 001e FB71     		strb	r3, [r7, #7]
 446:.\Generated_Source\PSoC5/LED_Strip.c ****         LED_Strip_swStatusRx = 0u;
 617              		.loc 1 446 0
 618 0020 054B     		ldr	r3, .L38+4
 619 0022 0022     		movs	r2, #0
 620 0024 1A70     		strb	r2, [r3]
 447:.\Generated_Source\PSoC5/LED_Strip.c **** 
 448:.\Generated_Source\PSoC5/LED_Strip.c ****         LED_Strip_EnableRxInt();
 621              		.loc 1 448 0
 622 0026 FFF7FEFF 		bl	LED_Strip_EnableRxInt
 449:.\Generated_Source\PSoC5/LED_Strip.c **** 
 450:.\Generated_Source\PSoC5/LED_Strip.c ****     #else
 451:.\Generated_Source\PSoC5/LED_Strip.c **** 
 452:.\Generated_Source\PSoC5/LED_Strip.c ****         tmpStatus = LED_Strip_RX_STATUS_REG;
 453:.\Generated_Source\PSoC5/LED_Strip.c **** 
 454:.\Generated_Source\PSoC5/LED_Strip.c ****     #endif /* (LED_Strip_RX_SOFTWARE_BUF_ENABLED) */
 455:.\Generated_Source\PSoC5/LED_Strip.c **** 
 456:.\Generated_Source\PSoC5/LED_Strip.c ****     return(tmpStatus);
 623              		.loc 1 456 0
 624 002a FB79     		ldrb	r3, [r7, #7]	@ zero_extendqisi2
 457:.\Generated_Source\PSoC5/LED_Strip.c **** }
 625              		.loc 1 457 0
 626 002c 1846     		mov	r0, r3
ARM GAS  C:\Users\khjtony\AppData\Local\Temp\cc4iX0Bg.s 			page 20


 627 002e 0837     		adds	r7, r7, #8
 628 0030 BD46     		mov	sp, r7
 629              		@ sp needed
 630 0032 80BD     		pop	{r7, pc}
 631              	.L39:
 632              		.align	2
 633              	.L38:
 634 0034 60640040 		.word	1073767520
 635 0038 00000000 		.word	LED_Strip_swStatusRx
 636              		.cfi_endproc
 637              	.LFE11:
 638              		.size	LED_Strip_ReadRxStatus, .-LED_Strip_ReadRxStatus
 639              		.section	.text.LED_Strip_WriteTxData,"ax",%progbits
 640              		.align	2
 641              		.global	LED_Strip_WriteTxData
 642              		.thumb
 643              		.thumb_func
 644              		.type	LED_Strip_WriteTxData, %function
 645              	LED_Strip_WriteTxData:
 646              	.LFB12:
 458:.\Generated_Source\PSoC5/LED_Strip.c **** 
 459:.\Generated_Source\PSoC5/LED_Strip.c **** 
 460:.\Generated_Source\PSoC5/LED_Strip.c **** /*******************************************************************************
 461:.\Generated_Source\PSoC5/LED_Strip.c **** * Function Name: LED_Strip_WriteTxData
 462:.\Generated_Source\PSoC5/LED_Strip.c **** ********************************************************************************
 463:.\Generated_Source\PSoC5/LED_Strip.c **** *
 464:.\Generated_Source\PSoC5/LED_Strip.c **** * Summary:
 465:.\Generated_Source\PSoC5/LED_Strip.c **** *  Write a byte of data to be sent across the SPI.
 466:.\Generated_Source\PSoC5/LED_Strip.c **** *
 467:.\Generated_Source\PSoC5/LED_Strip.c **** * Parameters:
 468:.\Generated_Source\PSoC5/LED_Strip.c **** *  txDataByte: The data value to send across the SPI.
 469:.\Generated_Source\PSoC5/LED_Strip.c **** *
 470:.\Generated_Source\PSoC5/LED_Strip.c **** * Return:
 471:.\Generated_Source\PSoC5/LED_Strip.c **** *  None.
 472:.\Generated_Source\PSoC5/LED_Strip.c **** *
 473:.\Generated_Source\PSoC5/LED_Strip.c **** * Global variables:
 474:.\Generated_Source\PSoC5/LED_Strip.c **** *  LED_Strip_txBufferWrite - used for the account of the bytes which
 475:.\Generated_Source\PSoC5/LED_Strip.c **** *  have been written down in the TX software buffer, modified every function
 476:.\Generated_Source\PSoC5/LED_Strip.c **** *  call if TX Software Buffer is used.
 477:.\Generated_Source\PSoC5/LED_Strip.c **** *  LED_Strip_txBufferRead - used for the account of the bytes which
 478:.\Generated_Source\PSoC5/LED_Strip.c **** *  have been read from the TX software buffer.
 479:.\Generated_Source\PSoC5/LED_Strip.c **** *  LED_Strip_txBuffer[LED_Strip_TX_BUFFER_SIZE] - used to store
 480:.\Generated_Source\PSoC5/LED_Strip.c **** *  data to sending, modified every function call if TX Software Buffer is used.
 481:.\Generated_Source\PSoC5/LED_Strip.c **** *
 482:.\Generated_Source\PSoC5/LED_Strip.c **** * Theory:
 483:.\Generated_Source\PSoC5/LED_Strip.c **** *  Allows the user to transmit any byte of data in a single transfer.
 484:.\Generated_Source\PSoC5/LED_Strip.c **** *
 485:.\Generated_Source\PSoC5/LED_Strip.c **** * Side Effects:
 486:.\Generated_Source\PSoC5/LED_Strip.c **** *  If this function is called again before the previous byte is finished then
 487:.\Generated_Source\PSoC5/LED_Strip.c **** *  the next byte will be appended to the transfer with no time between
 488:.\Generated_Source\PSoC5/LED_Strip.c **** *  the byte transfers. Clear Tx status register of the component.
 489:.\Generated_Source\PSoC5/LED_Strip.c **** *
 490:.\Generated_Source\PSoC5/LED_Strip.c **** * Reentrant:
 491:.\Generated_Source\PSoC5/LED_Strip.c **** *  No.
 492:.\Generated_Source\PSoC5/LED_Strip.c **** *
 493:.\Generated_Source\PSoC5/LED_Strip.c **** *******************************************************************************/
 494:.\Generated_Source\PSoC5/LED_Strip.c **** void LED_Strip_WriteTxData(uint8 txData) 
ARM GAS  C:\Users\khjtony\AppData\Local\Temp\cc4iX0Bg.s 			page 21


 495:.\Generated_Source\PSoC5/LED_Strip.c **** {
 647              		.loc 1 495 0
 648              		.cfi_startproc
 649              		@ args = 0, pretend = 0, frame = 16
 650              		@ frame_needed = 1, uses_anonymous_args = 0
 651 0000 80B5     		push	{r7, lr}
 652              		.cfi_def_cfa_offset 8
 653              		.cfi_offset 7, -8
 654              		.cfi_offset 14, -4
 655 0002 84B0     		sub	sp, sp, #16
 656              		.cfi_def_cfa_offset 24
 657 0004 00AF     		add	r7, sp, #0
 658              		.cfi_def_cfa_register 7
 659 0006 0346     		mov	r3, r0
 660 0008 FB71     		strb	r3, [r7, #7]
 661              	.L43:
 496:.\Generated_Source\PSoC5/LED_Strip.c ****     #if(LED_Strip_TX_SOFTWARE_BUF_ENABLED)
 497:.\Generated_Source\PSoC5/LED_Strip.c **** 
 498:.\Generated_Source\PSoC5/LED_Strip.c ****         uint8 tempStatus;
 499:.\Generated_Source\PSoC5/LED_Strip.c ****         uint8 tmpTxBufferRead;
 500:.\Generated_Source\PSoC5/LED_Strip.c **** 
 501:.\Generated_Source\PSoC5/LED_Strip.c ****         /* Block if TX buffer is FULL: don't overwrite */
 502:.\Generated_Source\PSoC5/LED_Strip.c ****         do
 503:.\Generated_Source\PSoC5/LED_Strip.c ****         {
 504:.\Generated_Source\PSoC5/LED_Strip.c ****             tmpTxBufferRead = LED_Strip_txBufferRead;
 662              		.loc 1 504 0
 663 000a 384B     		ldr	r3, .L49
 664 000c 1B78     		ldrb	r3, [r3]
 665 000e FB73     		strb	r3, [r7, #15]
 505:.\Generated_Source\PSoC5/LED_Strip.c ****             if(0u == tmpTxBufferRead)
 666              		.loc 1 505 0
 667 0010 FB7B     		ldrb	r3, [r7, #15]	@ zero_extendqisi2
 668 0012 002B     		cmp	r3, #0
 669 0014 02D1     		bne	.L41
 506:.\Generated_Source\PSoC5/LED_Strip.c ****             {
 507:.\Generated_Source\PSoC5/LED_Strip.c ****                 tmpTxBufferRead = (LED_Strip_TX_BUFFER_SIZE - 1u);
 670              		.loc 1 507 0
 671 0016 3F23     		movs	r3, #63
 672 0018 FB73     		strb	r3, [r7, #15]
 673 001a 02E0     		b	.L42
 674              	.L41:
 508:.\Generated_Source\PSoC5/LED_Strip.c ****             }
 509:.\Generated_Source\PSoC5/LED_Strip.c ****             else
 510:.\Generated_Source\PSoC5/LED_Strip.c ****             {
 511:.\Generated_Source\PSoC5/LED_Strip.c ****                 tmpTxBufferRead--;
 675              		.loc 1 511 0
 676 001c FB7B     		ldrb	r3, [r7, #15]	@ zero_extendqisi2
 677 001e 013B     		subs	r3, r3, #1
 678 0020 FB73     		strb	r3, [r7, #15]
 679              	.L42:
 512:.\Generated_Source\PSoC5/LED_Strip.c ****             }
 513:.\Generated_Source\PSoC5/LED_Strip.c **** 
 514:.\Generated_Source\PSoC5/LED_Strip.c ****         }while(tmpTxBufferRead == LED_Strip_txBufferWrite);
 680              		.loc 1 514 0
 681 0022 334B     		ldr	r3, .L49+4
 682 0024 1B78     		ldrb	r3, [r3]
 683 0026 DBB2     		uxtb	r3, r3
ARM GAS  C:\Users\khjtony\AppData\Local\Temp\cc4iX0Bg.s 			page 22


 684 0028 FA7B     		ldrb	r2, [r7, #15]	@ zero_extendqisi2
 685 002a 9A42     		cmp	r2, r3
 686 002c EDD0     		beq	.L43
 515:.\Generated_Source\PSoC5/LED_Strip.c **** 
 516:.\Generated_Source\PSoC5/LED_Strip.c ****         /* Disable TX interrupt to protect global veriables */
 517:.\Generated_Source\PSoC5/LED_Strip.c ****         LED_Strip_DisableTxInt();
 687              		.loc 1 517 0
 688 002e FFF7FEFF 		bl	LED_Strip_DisableTxInt
 518:.\Generated_Source\PSoC5/LED_Strip.c **** 
 519:.\Generated_Source\PSoC5/LED_Strip.c ****         tempStatus = LED_Strip_GET_STATUS_TX(LED_Strip_swStatusTx);
 689              		.loc 1 519 0
 690 0032 304B     		ldr	r3, .L49+8
 691 0034 1B78     		ldrb	r3, [r3]
 692 0036 DAB2     		uxtb	r2, r3
 693 0038 2F4B     		ldr	r3, .L49+12
 694 003a 1B78     		ldrb	r3, [r3]
 695 003c DBB2     		uxtb	r3, r3
 696 003e 03F00903 		and	r3, r3, #9
 697 0042 DBB2     		uxtb	r3, r3
 698 0044 1343     		orrs	r3, r3, r2
 699 0046 BB73     		strb	r3, [r7, #14]
 520:.\Generated_Source\PSoC5/LED_Strip.c ****         LED_Strip_swStatusTx = tempStatus;
 700              		.loc 1 520 0
 701 0048 2B4B     		ldr	r3, .L49+12
 702 004a BA7B     		ldrb	r2, [r7, #14]
 703 004c 1A70     		strb	r2, [r3]
 521:.\Generated_Source\PSoC5/LED_Strip.c **** 
 522:.\Generated_Source\PSoC5/LED_Strip.c **** 
 523:.\Generated_Source\PSoC5/LED_Strip.c ****         if((LED_Strip_txBufferRead == LED_Strip_txBufferWrite) &&
 704              		.loc 1 523 0
 705 004e 274B     		ldr	r3, .L49
 706 0050 1B78     		ldrb	r3, [r3]
 707 0052 DAB2     		uxtb	r2, r3
 708 0054 264B     		ldr	r3, .L49+4
 709 0056 1B78     		ldrb	r3, [r3]
 710 0058 DBB2     		uxtb	r3, r3
 711 005a 9A42     		cmp	r2, r3
 712 005c 0AD1     		bne	.L44
 524:.\Generated_Source\PSoC5/LED_Strip.c ****            (0u != (LED_Strip_swStatusTx & LED_Strip_STS_TX_FIFO_NOT_FULL)))
 713              		.loc 1 524 0 discriminator 1
 714 005e 264B     		ldr	r3, .L49+12
 715 0060 1B78     		ldrb	r3, [r3]
 716 0062 DBB2     		uxtb	r3, r3
 717 0064 03F00403 		and	r3, r3, #4
 523:.\Generated_Source\PSoC5/LED_Strip.c ****         if((LED_Strip_txBufferRead == LED_Strip_txBufferWrite) &&
 718              		.loc 1 523 0 discriminator 1
 719 0068 002B     		cmp	r3, #0
 720 006a 03D0     		beq	.L44
 525:.\Generated_Source\PSoC5/LED_Strip.c ****         {
 526:.\Generated_Source\PSoC5/LED_Strip.c ****             /* Put data element into the TX FIFO */
 527:.\Generated_Source\PSoC5/LED_Strip.c ****             CY_SET_REG8(LED_Strip_TXDATA_PTR, txData);
 721              		.loc 1 527 0
 722 006c 234B     		ldr	r3, .L49+16
 723 006e FA79     		ldrb	r2, [r7, #7]
 724 0070 1A70     		strb	r2, [r3]
 725 0072 36E0     		b	.L45
 726              	.L44:
ARM GAS  C:\Users\khjtony\AppData\Local\Temp\cc4iX0Bg.s 			page 23


 528:.\Generated_Source\PSoC5/LED_Strip.c ****         }
 529:.\Generated_Source\PSoC5/LED_Strip.c ****         else
 530:.\Generated_Source\PSoC5/LED_Strip.c ****         {
 531:.\Generated_Source\PSoC5/LED_Strip.c ****             /* Add to the TX software buffer */
 532:.\Generated_Source\PSoC5/LED_Strip.c ****             LED_Strip_txBufferWrite++;
 727              		.loc 1 532 0
 728 0074 1E4B     		ldr	r3, .L49+4
 729 0076 1B78     		ldrb	r3, [r3]
 730 0078 DBB2     		uxtb	r3, r3
 731 007a 0133     		adds	r3, r3, #1
 732 007c DAB2     		uxtb	r2, r3
 733 007e 1C4B     		ldr	r3, .L49+4
 734 0080 1A70     		strb	r2, [r3]
 533:.\Generated_Source\PSoC5/LED_Strip.c ****             if(LED_Strip_txBufferWrite >= LED_Strip_TX_BUFFER_SIZE)
 735              		.loc 1 533 0
 736 0082 1B4B     		ldr	r3, .L49+4
 737 0084 1B78     		ldrb	r3, [r3]
 738 0086 DBB2     		uxtb	r3, r3
 739 0088 3F2B     		cmp	r3, #63
 740 008a 02D9     		bls	.L46
 534:.\Generated_Source\PSoC5/LED_Strip.c ****             {
 535:.\Generated_Source\PSoC5/LED_Strip.c ****                 LED_Strip_txBufferWrite = 0u;
 741              		.loc 1 535 0
 742 008c 184B     		ldr	r3, .L49+4
 743 008e 0022     		movs	r2, #0
 744 0090 1A70     		strb	r2, [r3]
 745              	.L46:
 536:.\Generated_Source\PSoC5/LED_Strip.c ****             }
 537:.\Generated_Source\PSoC5/LED_Strip.c **** 
 538:.\Generated_Source\PSoC5/LED_Strip.c ****             if(LED_Strip_txBufferWrite == LED_Strip_txBufferRead)
 746              		.loc 1 538 0
 747 0092 174B     		ldr	r3, .L49+4
 748 0094 1B78     		ldrb	r3, [r3]
 749 0096 DAB2     		uxtb	r2, r3
 750 0098 144B     		ldr	r3, .L49
 751 009a 1B78     		ldrb	r3, [r3]
 752 009c DBB2     		uxtb	r3, r3
 753 009e 9A42     		cmp	r2, r3
 754 00a0 11D1     		bne	.L47
 539:.\Generated_Source\PSoC5/LED_Strip.c ****             {
 540:.\Generated_Source\PSoC5/LED_Strip.c ****                 LED_Strip_txBufferRead++;
 755              		.loc 1 540 0
 756 00a2 124B     		ldr	r3, .L49
 757 00a4 1B78     		ldrb	r3, [r3]
 758 00a6 DBB2     		uxtb	r3, r3
 759 00a8 0133     		adds	r3, r3, #1
 760 00aa DAB2     		uxtb	r2, r3
 761 00ac 0F4B     		ldr	r3, .L49
 762 00ae 1A70     		strb	r2, [r3]
 541:.\Generated_Source\PSoC5/LED_Strip.c ****                 if(LED_Strip_txBufferRead >= LED_Strip_TX_BUFFER_SIZE)
 763              		.loc 1 541 0
 764 00b0 0E4B     		ldr	r3, .L49
 765 00b2 1B78     		ldrb	r3, [r3]
 766 00b4 DBB2     		uxtb	r3, r3
 767 00b6 3F2B     		cmp	r3, #63
 768 00b8 02D9     		bls	.L48
 542:.\Generated_Source\PSoC5/LED_Strip.c ****                 {
ARM GAS  C:\Users\khjtony\AppData\Local\Temp\cc4iX0Bg.s 			page 24


 543:.\Generated_Source\PSoC5/LED_Strip.c ****                     LED_Strip_txBufferRead = 0u;
 769              		.loc 1 543 0
 770 00ba 0C4B     		ldr	r3, .L49
 771 00bc 0022     		movs	r2, #0
 772 00be 1A70     		strb	r2, [r3]
 773              	.L48:
 544:.\Generated_Source\PSoC5/LED_Strip.c ****                 }
 545:.\Generated_Source\PSoC5/LED_Strip.c ****                 LED_Strip_txBufferFull = 1u;
 774              		.loc 1 545 0
 775 00c0 0F4B     		ldr	r3, .L49+20
 776 00c2 0122     		movs	r2, #1
 777 00c4 1A70     		strb	r2, [r3]
 778              	.L47:
 546:.\Generated_Source\PSoC5/LED_Strip.c ****             }
 547:.\Generated_Source\PSoC5/LED_Strip.c **** 
 548:.\Generated_Source\PSoC5/LED_Strip.c ****             LED_Strip_txBuffer[LED_Strip_txBufferWrite] = txData;
 779              		.loc 1 548 0
 780 00c6 0A4B     		ldr	r3, .L49+4
 781 00c8 1B78     		ldrb	r3, [r3]
 782 00ca DBB2     		uxtb	r3, r3
 783 00cc 0D4A     		ldr	r2, .L49+24
 784 00ce F979     		ldrb	r1, [r7, #7]
 785 00d0 D154     		strb	r1, [r2, r3]
 549:.\Generated_Source\PSoC5/LED_Strip.c **** 
 550:.\Generated_Source\PSoC5/LED_Strip.c ****             LED_Strip_TX_STATUS_MASK_REG |= LED_Strip_STS_TX_FIFO_NOT_FULL;
 786              		.loc 1 550 0
 787 00d2 0D4B     		ldr	r3, .L49+28
 788 00d4 0C4A     		ldr	r2, .L49+28
 789 00d6 1278     		ldrb	r2, [r2]
 790 00d8 D2B2     		uxtb	r2, r2
 791 00da 42F00402 		orr	r2, r2, #4
 792 00de D2B2     		uxtb	r2, r2
 793 00e0 1A70     		strb	r2, [r3]
 794              	.L45:
 551:.\Generated_Source\PSoC5/LED_Strip.c ****         }
 552:.\Generated_Source\PSoC5/LED_Strip.c **** 
 553:.\Generated_Source\PSoC5/LED_Strip.c ****         LED_Strip_EnableTxInt();
 795              		.loc 1 553 0
 796 00e2 FFF7FEFF 		bl	LED_Strip_EnableTxInt
 554:.\Generated_Source\PSoC5/LED_Strip.c **** 
 555:.\Generated_Source\PSoC5/LED_Strip.c ****     #else
 556:.\Generated_Source\PSoC5/LED_Strip.c ****         /* Wait until TX FIFO has a place */
 557:.\Generated_Source\PSoC5/LED_Strip.c ****         while(0u == (LED_Strip_TX_STATUS_REG & LED_Strip_STS_TX_FIFO_NOT_FULL))
 558:.\Generated_Source\PSoC5/LED_Strip.c ****         {
 559:.\Generated_Source\PSoC5/LED_Strip.c ****         }
 560:.\Generated_Source\PSoC5/LED_Strip.c **** 
 561:.\Generated_Source\PSoC5/LED_Strip.c ****         /* Put data element into the TX FIFO */
 562:.\Generated_Source\PSoC5/LED_Strip.c ****         CY_SET_REG8(LED_Strip_TXDATA_PTR, txData);
 563:.\Generated_Source\PSoC5/LED_Strip.c **** 
 564:.\Generated_Source\PSoC5/LED_Strip.c ****     #endif /* (LED_Strip_TX_SOFTWARE_BUF_ENABLED) */
 565:.\Generated_Source\PSoC5/LED_Strip.c **** }
 797              		.loc 1 565 0
 798 00e6 1037     		adds	r7, r7, #16
 799 00e8 BD46     		mov	sp, r7
 800              		@ sp needed
 801 00ea 80BD     		pop	{r7, pc}
 802              	.L50:
ARM GAS  C:\Users\khjtony\AppData\Local\Temp\cc4iX0Bg.s 			page 25


 803              		.align	2
 804              	.L49:
 805 00ec 00000000 		.word	LED_Strip_txBufferRead
 806 00f0 00000000 		.word	LED_Strip_txBufferWrite
 807 00f4 64640040 		.word	1073767524
 808 00f8 00000000 		.word	LED_Strip_swStatusTx
 809 00fc 43640040 		.word	1073767491
 810 0100 00000000 		.word	LED_Strip_txBufferFull
 811 0104 00000000 		.word	LED_Strip_txBuffer
 812 0108 84640040 		.word	1073767556
 813              		.cfi_endproc
 814              	.LFE12:
 815              		.size	LED_Strip_WriteTxData, .-LED_Strip_WriteTxData
 816              		.section	.text.LED_Strip_ReadRxData,"ax",%progbits
 817              		.align	2
 818              		.global	LED_Strip_ReadRxData
 819              		.thumb
 820              		.thumb_func
 821              		.type	LED_Strip_ReadRxData, %function
 822              	LED_Strip_ReadRxData:
 823              	.LFB13:
 566:.\Generated_Source\PSoC5/LED_Strip.c **** 
 567:.\Generated_Source\PSoC5/LED_Strip.c **** 
 568:.\Generated_Source\PSoC5/LED_Strip.c **** /*******************************************************************************
 569:.\Generated_Source\PSoC5/LED_Strip.c **** * Function Name: LED_Strip_ReadRxData
 570:.\Generated_Source\PSoC5/LED_Strip.c **** ********************************************************************************
 571:.\Generated_Source\PSoC5/LED_Strip.c **** *
 572:.\Generated_Source\PSoC5/LED_Strip.c **** * Summary:
 573:.\Generated_Source\PSoC5/LED_Strip.c **** *  Read the next byte of data received across the SPI.
 574:.\Generated_Source\PSoC5/LED_Strip.c **** *
 575:.\Generated_Source\PSoC5/LED_Strip.c **** * Parameters:
 576:.\Generated_Source\PSoC5/LED_Strip.c **** *  None.
 577:.\Generated_Source\PSoC5/LED_Strip.c **** *
 578:.\Generated_Source\PSoC5/LED_Strip.c **** * Return:
 579:.\Generated_Source\PSoC5/LED_Strip.c **** *  The next byte of data read from the FIFO.
 580:.\Generated_Source\PSoC5/LED_Strip.c **** *
 581:.\Generated_Source\PSoC5/LED_Strip.c **** * Global variables:
 582:.\Generated_Source\PSoC5/LED_Strip.c **** *  LED_Strip_rxBufferWrite - used for the account of the bytes which
 583:.\Generated_Source\PSoC5/LED_Strip.c **** *  have been written down in the RX software buffer.
 584:.\Generated_Source\PSoC5/LED_Strip.c **** *  LED_Strip_rxBufferRead - used for the account of the bytes which
 585:.\Generated_Source\PSoC5/LED_Strip.c **** *  have been read from the RX software buffer, modified every function
 586:.\Generated_Source\PSoC5/LED_Strip.c **** *  call if RX Software Buffer is used.
 587:.\Generated_Source\PSoC5/LED_Strip.c **** *  LED_Strip_rxBuffer[LED_Strip_RX_BUFFER_SIZE] - used to store
 588:.\Generated_Source\PSoC5/LED_Strip.c **** *  received data.
 589:.\Generated_Source\PSoC5/LED_Strip.c **** *
 590:.\Generated_Source\PSoC5/LED_Strip.c **** * Theory:
 591:.\Generated_Source\PSoC5/LED_Strip.c **** *  Allows the user to read a byte of data received.
 592:.\Generated_Source\PSoC5/LED_Strip.c **** *
 593:.\Generated_Source\PSoC5/LED_Strip.c **** * Side Effects:
 594:.\Generated_Source\PSoC5/LED_Strip.c **** *  Will return invalid data if the FIFO is empty. The user should Call
 595:.\Generated_Source\PSoC5/LED_Strip.c **** *  GetRxBufferSize() and if it returns a non-zero value then it is safe to call
 596:.\Generated_Source\PSoC5/LED_Strip.c **** *  ReadByte() function.
 597:.\Generated_Source\PSoC5/LED_Strip.c **** *
 598:.\Generated_Source\PSoC5/LED_Strip.c **** * Reentrant:
 599:.\Generated_Source\PSoC5/LED_Strip.c **** *  No.
 600:.\Generated_Source\PSoC5/LED_Strip.c **** *
 601:.\Generated_Source\PSoC5/LED_Strip.c **** *******************************************************************************/
ARM GAS  C:\Users\khjtony\AppData\Local\Temp\cc4iX0Bg.s 			page 26


 602:.\Generated_Source\PSoC5/LED_Strip.c **** uint8 LED_Strip_ReadRxData(void) 
 603:.\Generated_Source\PSoC5/LED_Strip.c **** {
 824              		.loc 1 603 0
 825              		.cfi_startproc
 826              		@ args = 0, pretend = 0, frame = 8
 827              		@ frame_needed = 1, uses_anonymous_args = 0
 828 0000 80B5     		push	{r7, lr}
 829              		.cfi_def_cfa_offset 8
 830              		.cfi_offset 7, -8
 831              		.cfi_offset 14, -4
 832 0002 82B0     		sub	sp, sp, #8
 833              		.cfi_def_cfa_offset 16
 834 0004 00AF     		add	r7, sp, #0
 835              		.cfi_def_cfa_register 7
 604:.\Generated_Source\PSoC5/LED_Strip.c ****     uint8 rxData;
 605:.\Generated_Source\PSoC5/LED_Strip.c **** 
 606:.\Generated_Source\PSoC5/LED_Strip.c ****     #if(LED_Strip_RX_SOFTWARE_BUF_ENABLED)
 607:.\Generated_Source\PSoC5/LED_Strip.c **** 
 608:.\Generated_Source\PSoC5/LED_Strip.c ****         /* Disable RX interrupt to protect global veriables */
 609:.\Generated_Source\PSoC5/LED_Strip.c ****         LED_Strip_DisableRxInt();
 836              		.loc 1 609 0
 837 0006 FFF7FEFF 		bl	LED_Strip_DisableRxInt
 610:.\Generated_Source\PSoC5/LED_Strip.c **** 
 611:.\Generated_Source\PSoC5/LED_Strip.c ****         if(LED_Strip_rxBufferRead != LED_Strip_rxBufferWrite)
 838              		.loc 1 611 0
 839 000a 164B     		ldr	r3, .L56
 840 000c 1B78     		ldrb	r3, [r3]
 841 000e DAB2     		uxtb	r2, r3
 842 0010 154B     		ldr	r3, .L56+4
 843 0012 1B78     		ldrb	r3, [r3]
 844 0014 DBB2     		uxtb	r3, r3
 845 0016 9A42     		cmp	r2, r3
 846 0018 17D0     		beq	.L52
 612:.\Generated_Source\PSoC5/LED_Strip.c ****         {
 613:.\Generated_Source\PSoC5/LED_Strip.c ****             if(0u == LED_Strip_rxBufferFull)
 847              		.loc 1 613 0
 848 001a 144B     		ldr	r3, .L56+8
 849 001c 1B78     		ldrb	r3, [r3]
 850 001e DBB2     		uxtb	r3, r3
 851 0020 002B     		cmp	r3, #0
 852 0022 0FD1     		bne	.L53
 614:.\Generated_Source\PSoC5/LED_Strip.c ****             {
 615:.\Generated_Source\PSoC5/LED_Strip.c ****                 LED_Strip_rxBufferRead++;
 853              		.loc 1 615 0
 854 0024 0F4B     		ldr	r3, .L56
 855 0026 1B78     		ldrb	r3, [r3]
 856 0028 DBB2     		uxtb	r3, r3
 857 002a 0133     		adds	r3, r3, #1
 858 002c DAB2     		uxtb	r2, r3
 859 002e 0D4B     		ldr	r3, .L56
 860 0030 1A70     		strb	r2, [r3]
 616:.\Generated_Source\PSoC5/LED_Strip.c ****                 if(LED_Strip_rxBufferRead >= LED_Strip_RX_BUFFER_SIZE)
 861              		.loc 1 616 0
 862 0032 0C4B     		ldr	r3, .L56
 863 0034 1B78     		ldrb	r3, [r3]
 864 0036 DBB2     		uxtb	r3, r3
 865 0038 3F2B     		cmp	r3, #63
ARM GAS  C:\Users\khjtony\AppData\Local\Temp\cc4iX0Bg.s 			page 27


 866 003a 06D9     		bls	.L52
 617:.\Generated_Source\PSoC5/LED_Strip.c ****                 {
 618:.\Generated_Source\PSoC5/LED_Strip.c ****                     LED_Strip_rxBufferRead = 0u;
 867              		.loc 1 618 0
 868 003c 094B     		ldr	r3, .L56
 869 003e 0022     		movs	r2, #0
 870 0040 1A70     		strb	r2, [r3]
 871 0042 02E0     		b	.L52
 872              	.L53:
 619:.\Generated_Source\PSoC5/LED_Strip.c ****                 }
 620:.\Generated_Source\PSoC5/LED_Strip.c ****             }
 621:.\Generated_Source\PSoC5/LED_Strip.c ****             else
 622:.\Generated_Source\PSoC5/LED_Strip.c ****             {
 623:.\Generated_Source\PSoC5/LED_Strip.c ****                 LED_Strip_rxBufferFull = 0u;
 873              		.loc 1 623 0
 874 0044 094B     		ldr	r3, .L56+8
 875 0046 0022     		movs	r2, #0
 876 0048 1A70     		strb	r2, [r3]
 877              	.L52:
 624:.\Generated_Source\PSoC5/LED_Strip.c ****             }
 625:.\Generated_Source\PSoC5/LED_Strip.c ****         }
 626:.\Generated_Source\PSoC5/LED_Strip.c **** 
 627:.\Generated_Source\PSoC5/LED_Strip.c ****         rxData = LED_Strip_rxBuffer[LED_Strip_rxBufferRead];
 878              		.loc 1 627 0
 879 004a 064B     		ldr	r3, .L56
 880 004c 1B78     		ldrb	r3, [r3]
 881 004e DBB2     		uxtb	r3, r3
 882 0050 074A     		ldr	r2, .L56+12
 883 0052 D35C     		ldrb	r3, [r2, r3]
 884 0054 FB71     		strb	r3, [r7, #7]
 628:.\Generated_Source\PSoC5/LED_Strip.c **** 
 629:.\Generated_Source\PSoC5/LED_Strip.c ****         LED_Strip_EnableRxInt();
 885              		.loc 1 629 0
 886 0056 FFF7FEFF 		bl	LED_Strip_EnableRxInt
 630:.\Generated_Source\PSoC5/LED_Strip.c **** 
 631:.\Generated_Source\PSoC5/LED_Strip.c ****     #else
 632:.\Generated_Source\PSoC5/LED_Strip.c **** 
 633:.\Generated_Source\PSoC5/LED_Strip.c ****         rxData = CY_GET_REG8(LED_Strip_RXDATA_PTR);
 634:.\Generated_Source\PSoC5/LED_Strip.c **** 
 635:.\Generated_Source\PSoC5/LED_Strip.c ****     #endif /* (LED_Strip_RX_SOFTWARE_BUF_ENABLED) */
 636:.\Generated_Source\PSoC5/LED_Strip.c **** 
 637:.\Generated_Source\PSoC5/LED_Strip.c ****     return(rxData);
 887              		.loc 1 637 0
 888 005a FB79     		ldrb	r3, [r7, #7]	@ zero_extendqisi2
 638:.\Generated_Source\PSoC5/LED_Strip.c **** }
 889              		.loc 1 638 0
 890 005c 1846     		mov	r0, r3
 891 005e 0837     		adds	r7, r7, #8
 892 0060 BD46     		mov	sp, r7
 893              		@ sp needed
 894 0062 80BD     		pop	{r7, pc}
 895              	.L57:
 896              		.align	2
 897              	.L56:
 898 0064 00000000 		.word	LED_Strip_rxBufferRead
 899 0068 00000000 		.word	LED_Strip_rxBufferWrite
 900 006c 00000000 		.word	LED_Strip_rxBufferFull
ARM GAS  C:\Users\khjtony\AppData\Local\Temp\cc4iX0Bg.s 			page 28


 901 0070 00000000 		.word	LED_Strip_rxBuffer
 902              		.cfi_endproc
 903              	.LFE13:
 904              		.size	LED_Strip_ReadRxData, .-LED_Strip_ReadRxData
 905              		.section	.text.LED_Strip_GetRxBufferSize,"ax",%progbits
 906              		.align	2
 907              		.global	LED_Strip_GetRxBufferSize
 908              		.thumb
 909              		.thumb_func
 910              		.type	LED_Strip_GetRxBufferSize, %function
 911              	LED_Strip_GetRxBufferSize:
 912              	.LFB14:
 639:.\Generated_Source\PSoC5/LED_Strip.c **** 
 640:.\Generated_Source\PSoC5/LED_Strip.c **** 
 641:.\Generated_Source\PSoC5/LED_Strip.c **** /*******************************************************************************
 642:.\Generated_Source\PSoC5/LED_Strip.c **** * Function Name: LED_Strip_GetRxBufferSize
 643:.\Generated_Source\PSoC5/LED_Strip.c **** ********************************************************************************
 644:.\Generated_Source\PSoC5/LED_Strip.c **** *
 645:.\Generated_Source\PSoC5/LED_Strip.c **** * Summary:
 646:.\Generated_Source\PSoC5/LED_Strip.c **** *  Returns the number of bytes/words of data currently held in the RX buffer.
 647:.\Generated_Source\PSoC5/LED_Strip.c **** *  If RX Software Buffer not used then function return 0 if FIFO empty or 1 if
 648:.\Generated_Source\PSoC5/LED_Strip.c **** *  FIFO not empty. In another case function return size of RX Software Buffer.
 649:.\Generated_Source\PSoC5/LED_Strip.c **** *
 650:.\Generated_Source\PSoC5/LED_Strip.c **** * Parameters:
 651:.\Generated_Source\PSoC5/LED_Strip.c **** *  None.
 652:.\Generated_Source\PSoC5/LED_Strip.c **** *
 653:.\Generated_Source\PSoC5/LED_Strip.c **** * Return:
 654:.\Generated_Source\PSoC5/LED_Strip.c **** *  Integer count of the number of bytes/words in the RX buffer.
 655:.\Generated_Source\PSoC5/LED_Strip.c **** *
 656:.\Generated_Source\PSoC5/LED_Strip.c **** * Global variables:
 657:.\Generated_Source\PSoC5/LED_Strip.c **** *  LED_Strip_rxBufferWrite - used for the account of the bytes which
 658:.\Generated_Source\PSoC5/LED_Strip.c **** *  have been written down in the RX software buffer.
 659:.\Generated_Source\PSoC5/LED_Strip.c **** *  LED_Strip_rxBufferRead - used for the account of the bytes which
 660:.\Generated_Source\PSoC5/LED_Strip.c **** *  have been read from the RX software buffer.
 661:.\Generated_Source\PSoC5/LED_Strip.c **** *
 662:.\Generated_Source\PSoC5/LED_Strip.c **** * Side Effects:
 663:.\Generated_Source\PSoC5/LED_Strip.c **** *  Clear status register of the component.
 664:.\Generated_Source\PSoC5/LED_Strip.c **** *
 665:.\Generated_Source\PSoC5/LED_Strip.c **** *******************************************************************************/
 666:.\Generated_Source\PSoC5/LED_Strip.c **** uint8 LED_Strip_GetRxBufferSize(void) 
 667:.\Generated_Source\PSoC5/LED_Strip.c **** {
 913              		.loc 1 667 0
 914              		.cfi_startproc
 915              		@ args = 0, pretend = 0, frame = 8
 916              		@ frame_needed = 1, uses_anonymous_args = 0
 917 0000 80B5     		push	{r7, lr}
 918              		.cfi_def_cfa_offset 8
 919              		.cfi_offset 7, -8
 920              		.cfi_offset 14, -4
 921 0002 82B0     		sub	sp, sp, #8
 922              		.cfi_def_cfa_offset 16
 923 0004 00AF     		add	r7, sp, #0
 924              		.cfi_def_cfa_register 7
 668:.\Generated_Source\PSoC5/LED_Strip.c ****     uint8 size;
 669:.\Generated_Source\PSoC5/LED_Strip.c **** 
 670:.\Generated_Source\PSoC5/LED_Strip.c ****     #if(LED_Strip_RX_SOFTWARE_BUF_ENABLED)
 671:.\Generated_Source\PSoC5/LED_Strip.c **** 
ARM GAS  C:\Users\khjtony\AppData\Local\Temp\cc4iX0Bg.s 			page 29


 672:.\Generated_Source\PSoC5/LED_Strip.c ****         /* Disable RX interrupt to protect global veriables */
 673:.\Generated_Source\PSoC5/LED_Strip.c ****         LED_Strip_DisableRxInt();
 925              		.loc 1 673 0
 926 0006 FFF7FEFF 		bl	LED_Strip_DisableRxInt
 674:.\Generated_Source\PSoC5/LED_Strip.c **** 
 675:.\Generated_Source\PSoC5/LED_Strip.c ****         if(LED_Strip_rxBufferRead == LED_Strip_rxBufferWrite)
 927              		.loc 1 675 0
 928 000a 164B     		ldr	r3, .L63
 929 000c 1B78     		ldrb	r3, [r3]
 930 000e DAB2     		uxtb	r2, r3
 931 0010 154B     		ldr	r3, .L63+4
 932 0012 1B78     		ldrb	r3, [r3]
 933 0014 DBB2     		uxtb	r3, r3
 934 0016 9A42     		cmp	r2, r3
 935 0018 02D1     		bne	.L59
 676:.\Generated_Source\PSoC5/LED_Strip.c ****         {
 677:.\Generated_Source\PSoC5/LED_Strip.c ****             size = 0u;
 936              		.loc 1 677 0
 937 001a 0023     		movs	r3, #0
 938 001c FB71     		strb	r3, [r7, #7]
 939 001e 1AE0     		b	.L60
 940              	.L59:
 678:.\Generated_Source\PSoC5/LED_Strip.c ****         }
 679:.\Generated_Source\PSoC5/LED_Strip.c ****         else if(LED_Strip_rxBufferRead < LED_Strip_rxBufferWrite)
 941              		.loc 1 679 0
 942 0020 104B     		ldr	r3, .L63
 943 0022 1B78     		ldrb	r3, [r3]
 944 0024 DAB2     		uxtb	r2, r3
 945 0026 104B     		ldr	r3, .L63+4
 946 0028 1B78     		ldrb	r3, [r3]
 947 002a DBB2     		uxtb	r3, r3
 948 002c 9A42     		cmp	r2, r3
 949 002e 08D2     		bcs	.L61
 680:.\Generated_Source\PSoC5/LED_Strip.c ****         {
 681:.\Generated_Source\PSoC5/LED_Strip.c ****             size = (LED_Strip_rxBufferWrite - LED_Strip_rxBufferRead);
 950              		.loc 1 681 0
 951 0030 0D4B     		ldr	r3, .L63+4
 952 0032 1B78     		ldrb	r3, [r3]
 953 0034 DAB2     		uxtb	r2, r3
 954 0036 0B4B     		ldr	r3, .L63
 955 0038 1B78     		ldrb	r3, [r3]
 956 003a DBB2     		uxtb	r3, r3
 957 003c D31A     		subs	r3, r2, r3
 958 003e FB71     		strb	r3, [r7, #7]
 959 0040 09E0     		b	.L60
 960              	.L61:
 682:.\Generated_Source\PSoC5/LED_Strip.c ****         }
 683:.\Generated_Source\PSoC5/LED_Strip.c ****         else
 684:.\Generated_Source\PSoC5/LED_Strip.c ****         {
 685:.\Generated_Source\PSoC5/LED_Strip.c ****             size = (LED_Strip_RX_BUFFER_SIZE - LED_Strip_rxBufferRead) + LED_Strip_rxBufferWrite;
 961              		.loc 1 685 0
 962 0042 094B     		ldr	r3, .L63+4
 963 0044 1B78     		ldrb	r3, [r3]
 964 0046 DAB2     		uxtb	r2, r3
 965 0048 064B     		ldr	r3, .L63
 966 004a 1B78     		ldrb	r3, [r3]
 967 004c DBB2     		uxtb	r3, r3
ARM GAS  C:\Users\khjtony\AppData\Local\Temp\cc4iX0Bg.s 			page 30


 968 004e D31A     		subs	r3, r2, r3
 969 0050 DBB2     		uxtb	r3, r3
 970 0052 4033     		adds	r3, r3, #64
 971 0054 FB71     		strb	r3, [r7, #7]
 972              	.L60:
 686:.\Generated_Source\PSoC5/LED_Strip.c ****         }
 687:.\Generated_Source\PSoC5/LED_Strip.c **** 
 688:.\Generated_Source\PSoC5/LED_Strip.c ****         LED_Strip_EnableRxInt();
 973              		.loc 1 688 0
 974 0056 FFF7FEFF 		bl	LED_Strip_EnableRxInt
 689:.\Generated_Source\PSoC5/LED_Strip.c **** 
 690:.\Generated_Source\PSoC5/LED_Strip.c ****     #else
 691:.\Generated_Source\PSoC5/LED_Strip.c **** 
 692:.\Generated_Source\PSoC5/LED_Strip.c ****         /* We can only know if there is data in the RX FIFO */
 693:.\Generated_Source\PSoC5/LED_Strip.c ****         size = (0u != (LED_Strip_RX_STATUS_REG & LED_Strip_STS_RX_FIFO_NOT_EMPTY)) ? 1u : 0u;
 694:.\Generated_Source\PSoC5/LED_Strip.c **** 
 695:.\Generated_Source\PSoC5/LED_Strip.c ****     #endif /* (LED_Strip_TX_SOFTWARE_BUF_ENABLED) */
 696:.\Generated_Source\PSoC5/LED_Strip.c **** 
 697:.\Generated_Source\PSoC5/LED_Strip.c ****     return(size);
 975              		.loc 1 697 0
 976 005a FB79     		ldrb	r3, [r7, #7]	@ zero_extendqisi2
 698:.\Generated_Source\PSoC5/LED_Strip.c **** }
 977              		.loc 1 698 0
 978 005c 1846     		mov	r0, r3
 979 005e 0837     		adds	r7, r7, #8
 980 0060 BD46     		mov	sp, r7
 981              		@ sp needed
 982 0062 80BD     		pop	{r7, pc}
 983              	.L64:
 984              		.align	2
 985              	.L63:
 986 0064 00000000 		.word	LED_Strip_rxBufferRead
 987 0068 00000000 		.word	LED_Strip_rxBufferWrite
 988              		.cfi_endproc
 989              	.LFE14:
 990              		.size	LED_Strip_GetRxBufferSize, .-LED_Strip_GetRxBufferSize
 991              		.section	.text.LED_Strip_GetTxBufferSize,"ax",%progbits
 992              		.align	2
 993              		.global	LED_Strip_GetTxBufferSize
 994              		.thumb
 995              		.thumb_func
 996              		.type	LED_Strip_GetTxBufferSize, %function
 997              	LED_Strip_GetTxBufferSize:
 998              	.LFB15:
 699:.\Generated_Source\PSoC5/LED_Strip.c **** 
 700:.\Generated_Source\PSoC5/LED_Strip.c **** 
 701:.\Generated_Source\PSoC5/LED_Strip.c **** /*******************************************************************************
 702:.\Generated_Source\PSoC5/LED_Strip.c **** * Function Name: LED_Strip_GetTxBufferSize
 703:.\Generated_Source\PSoC5/LED_Strip.c **** ********************************************************************************
 704:.\Generated_Source\PSoC5/LED_Strip.c **** *
 705:.\Generated_Source\PSoC5/LED_Strip.c **** * Summary:
 706:.\Generated_Source\PSoC5/LED_Strip.c **** *  Returns the number of bytes/words of data currently held in the TX buffer.
 707:.\Generated_Source\PSoC5/LED_Strip.c **** *  If TX Software Buffer not used then function return 0 - if FIFO empty, 1 - if
 708:.\Generated_Source\PSoC5/LED_Strip.c **** *  FIFO not full, 4 - if FIFO full. In another case function return size of TX
 709:.\Generated_Source\PSoC5/LED_Strip.c **** *  Software Buffer.
 710:.\Generated_Source\PSoC5/LED_Strip.c **** *
 711:.\Generated_Source\PSoC5/LED_Strip.c **** * Parameters:
ARM GAS  C:\Users\khjtony\AppData\Local\Temp\cc4iX0Bg.s 			page 31


 712:.\Generated_Source\PSoC5/LED_Strip.c **** *  None.
 713:.\Generated_Source\PSoC5/LED_Strip.c **** *
 714:.\Generated_Source\PSoC5/LED_Strip.c **** * Return:
 715:.\Generated_Source\PSoC5/LED_Strip.c **** *  Integer count of the number of bytes/words in the TX buffer.
 716:.\Generated_Source\PSoC5/LED_Strip.c **** *
 717:.\Generated_Source\PSoC5/LED_Strip.c **** * Global variables:
 718:.\Generated_Source\PSoC5/LED_Strip.c **** *  LED_Strip_txBufferWrite - used for the account of the bytes which
 719:.\Generated_Source\PSoC5/LED_Strip.c **** *  have been written down in the TX software buffer.
 720:.\Generated_Source\PSoC5/LED_Strip.c **** *  LED_Strip_txBufferRead - used for the account of the bytes which
 721:.\Generated_Source\PSoC5/LED_Strip.c **** *  have been read from the TX software buffer.
 722:.\Generated_Source\PSoC5/LED_Strip.c **** *
 723:.\Generated_Source\PSoC5/LED_Strip.c **** * Side Effects:
 724:.\Generated_Source\PSoC5/LED_Strip.c **** *  Clear status register of the component.
 725:.\Generated_Source\PSoC5/LED_Strip.c **** *
 726:.\Generated_Source\PSoC5/LED_Strip.c **** *******************************************************************************/
 727:.\Generated_Source\PSoC5/LED_Strip.c **** uint8  LED_Strip_GetTxBufferSize(void) 
 728:.\Generated_Source\PSoC5/LED_Strip.c **** {
 999              		.loc 1 728 0
 1000              		.cfi_startproc
 1001              		@ args = 0, pretend = 0, frame = 8
 1002              		@ frame_needed = 1, uses_anonymous_args = 0
 1003 0000 80B5     		push	{r7, lr}
 1004              		.cfi_def_cfa_offset 8
 1005              		.cfi_offset 7, -8
 1006              		.cfi_offset 14, -4
 1007 0002 82B0     		sub	sp, sp, #8
 1008              		.cfi_def_cfa_offset 16
 1009 0004 00AF     		add	r7, sp, #0
 1010              		.cfi_def_cfa_register 7
 729:.\Generated_Source\PSoC5/LED_Strip.c ****     uint8 size;
 730:.\Generated_Source\PSoC5/LED_Strip.c **** 
 731:.\Generated_Source\PSoC5/LED_Strip.c ****     #if(LED_Strip_TX_SOFTWARE_BUF_ENABLED)
 732:.\Generated_Source\PSoC5/LED_Strip.c ****         /* Disable TX interrupt to protect global veriables */
 733:.\Generated_Source\PSoC5/LED_Strip.c ****         LED_Strip_DisableTxInt();
 1011              		.loc 1 733 0
 1012 0006 FFF7FEFF 		bl	LED_Strip_DisableTxInt
 734:.\Generated_Source\PSoC5/LED_Strip.c **** 
 735:.\Generated_Source\PSoC5/LED_Strip.c ****         if(LED_Strip_txBufferRead == LED_Strip_txBufferWrite)
 1013              		.loc 1 735 0
 1014 000a 164B     		ldr	r3, .L70
 1015 000c 1B78     		ldrb	r3, [r3]
 1016 000e DAB2     		uxtb	r2, r3
 1017 0010 154B     		ldr	r3, .L70+4
 1018 0012 1B78     		ldrb	r3, [r3]
 1019 0014 DBB2     		uxtb	r3, r3
 1020 0016 9A42     		cmp	r2, r3
 1021 0018 02D1     		bne	.L66
 736:.\Generated_Source\PSoC5/LED_Strip.c ****         {
 737:.\Generated_Source\PSoC5/LED_Strip.c ****             size = 0u;
 1022              		.loc 1 737 0
 1023 001a 0023     		movs	r3, #0
 1024 001c FB71     		strb	r3, [r7, #7]
 1025 001e 1AE0     		b	.L67
 1026              	.L66:
 738:.\Generated_Source\PSoC5/LED_Strip.c ****         }
 739:.\Generated_Source\PSoC5/LED_Strip.c ****         else if(LED_Strip_txBufferRead < LED_Strip_txBufferWrite)
 1027              		.loc 1 739 0
ARM GAS  C:\Users\khjtony\AppData\Local\Temp\cc4iX0Bg.s 			page 32


 1028 0020 104B     		ldr	r3, .L70
 1029 0022 1B78     		ldrb	r3, [r3]
 1030 0024 DAB2     		uxtb	r2, r3
 1031 0026 104B     		ldr	r3, .L70+4
 1032 0028 1B78     		ldrb	r3, [r3]
 1033 002a DBB2     		uxtb	r3, r3
 1034 002c 9A42     		cmp	r2, r3
 1035 002e 08D2     		bcs	.L68
 740:.\Generated_Source\PSoC5/LED_Strip.c ****         {
 741:.\Generated_Source\PSoC5/LED_Strip.c ****             size = (LED_Strip_txBufferWrite - LED_Strip_txBufferRead);
 1036              		.loc 1 741 0
 1037 0030 0D4B     		ldr	r3, .L70+4
 1038 0032 1B78     		ldrb	r3, [r3]
 1039 0034 DAB2     		uxtb	r2, r3
 1040 0036 0B4B     		ldr	r3, .L70
 1041 0038 1B78     		ldrb	r3, [r3]
 1042 003a DBB2     		uxtb	r3, r3
 1043 003c D31A     		subs	r3, r2, r3
 1044 003e FB71     		strb	r3, [r7, #7]
 1045 0040 09E0     		b	.L67
 1046              	.L68:
 742:.\Generated_Source\PSoC5/LED_Strip.c ****         }
 743:.\Generated_Source\PSoC5/LED_Strip.c ****         else
 744:.\Generated_Source\PSoC5/LED_Strip.c ****         {
 745:.\Generated_Source\PSoC5/LED_Strip.c ****             size = (LED_Strip_TX_BUFFER_SIZE - LED_Strip_txBufferRead) + LED_Strip_txBufferWrite;
 1047              		.loc 1 745 0
 1048 0042 094B     		ldr	r3, .L70+4
 1049 0044 1B78     		ldrb	r3, [r3]
 1050 0046 DAB2     		uxtb	r2, r3
 1051 0048 064B     		ldr	r3, .L70
 1052 004a 1B78     		ldrb	r3, [r3]
 1053 004c DBB2     		uxtb	r3, r3
 1054 004e D31A     		subs	r3, r2, r3
 1055 0050 DBB2     		uxtb	r3, r3
 1056 0052 4033     		adds	r3, r3, #64
 1057 0054 FB71     		strb	r3, [r7, #7]
 1058              	.L67:
 746:.\Generated_Source\PSoC5/LED_Strip.c ****         }
 747:.\Generated_Source\PSoC5/LED_Strip.c **** 
 748:.\Generated_Source\PSoC5/LED_Strip.c ****         LED_Strip_EnableTxInt();
 1059              		.loc 1 748 0
 1060 0056 FFF7FEFF 		bl	LED_Strip_EnableTxInt
 749:.\Generated_Source\PSoC5/LED_Strip.c **** 
 750:.\Generated_Source\PSoC5/LED_Strip.c ****     #else
 751:.\Generated_Source\PSoC5/LED_Strip.c **** 
 752:.\Generated_Source\PSoC5/LED_Strip.c ****         size = LED_Strip_TX_STATUS_REG;
 753:.\Generated_Source\PSoC5/LED_Strip.c **** 
 754:.\Generated_Source\PSoC5/LED_Strip.c ****         if(0u != (size & LED_Strip_STS_TX_FIFO_EMPTY))
 755:.\Generated_Source\PSoC5/LED_Strip.c ****         {
 756:.\Generated_Source\PSoC5/LED_Strip.c ****             size = 0u;
 757:.\Generated_Source\PSoC5/LED_Strip.c ****         }
 758:.\Generated_Source\PSoC5/LED_Strip.c ****         else if(0u != (size & LED_Strip_STS_TX_FIFO_NOT_FULL))
 759:.\Generated_Source\PSoC5/LED_Strip.c ****         {
 760:.\Generated_Source\PSoC5/LED_Strip.c ****             size = 1u;
 761:.\Generated_Source\PSoC5/LED_Strip.c ****         }
 762:.\Generated_Source\PSoC5/LED_Strip.c ****         else
 763:.\Generated_Source\PSoC5/LED_Strip.c ****         {
ARM GAS  C:\Users\khjtony\AppData\Local\Temp\cc4iX0Bg.s 			page 33


 764:.\Generated_Source\PSoC5/LED_Strip.c ****             size = LED_Strip_FIFO_SIZE;
 765:.\Generated_Source\PSoC5/LED_Strip.c ****         }
 766:.\Generated_Source\PSoC5/LED_Strip.c **** 
 767:.\Generated_Source\PSoC5/LED_Strip.c ****     #endif /* (LED_Strip_TX_SOFTWARE_BUF_ENABLED) */
 768:.\Generated_Source\PSoC5/LED_Strip.c **** 
 769:.\Generated_Source\PSoC5/LED_Strip.c ****     return(size);
 1061              		.loc 1 769 0
 1062 005a FB79     		ldrb	r3, [r7, #7]	@ zero_extendqisi2
 770:.\Generated_Source\PSoC5/LED_Strip.c **** }
 1063              		.loc 1 770 0
 1064 005c 1846     		mov	r0, r3
 1065 005e 0837     		adds	r7, r7, #8
 1066 0060 BD46     		mov	sp, r7
 1067              		@ sp needed
 1068 0062 80BD     		pop	{r7, pc}
 1069              	.L71:
 1070              		.align	2
 1071              	.L70:
 1072 0064 00000000 		.word	LED_Strip_txBufferRead
 1073 0068 00000000 		.word	LED_Strip_txBufferWrite
 1074              		.cfi_endproc
 1075              	.LFE15:
 1076              		.size	LED_Strip_GetTxBufferSize, .-LED_Strip_GetTxBufferSize
 1077              		.section	.text.LED_Strip_ClearRxBuffer,"ax",%progbits
 1078              		.align	2
 1079              		.global	LED_Strip_ClearRxBuffer
 1080              		.thumb
 1081              		.thumb_func
 1082              		.type	LED_Strip_ClearRxBuffer, %function
 1083              	LED_Strip_ClearRxBuffer:
 1084              	.LFB16:
 771:.\Generated_Source\PSoC5/LED_Strip.c **** 
 772:.\Generated_Source\PSoC5/LED_Strip.c **** 
 773:.\Generated_Source\PSoC5/LED_Strip.c **** /*******************************************************************************
 774:.\Generated_Source\PSoC5/LED_Strip.c **** * Function Name: LED_Strip_ClearRxBuffer
 775:.\Generated_Source\PSoC5/LED_Strip.c **** ********************************************************************************
 776:.\Generated_Source\PSoC5/LED_Strip.c **** *
 777:.\Generated_Source\PSoC5/LED_Strip.c **** * Summary:
 778:.\Generated_Source\PSoC5/LED_Strip.c **** *  Clear the RX RAM buffer by setting the read and write pointers both to zero.
 779:.\Generated_Source\PSoC5/LED_Strip.c **** *
 780:.\Generated_Source\PSoC5/LED_Strip.c **** * Parameters:
 781:.\Generated_Source\PSoC5/LED_Strip.c **** *  None.
 782:.\Generated_Source\PSoC5/LED_Strip.c **** *
 783:.\Generated_Source\PSoC5/LED_Strip.c **** * Return:
 784:.\Generated_Source\PSoC5/LED_Strip.c **** *  None.
 785:.\Generated_Source\PSoC5/LED_Strip.c **** *
 786:.\Generated_Source\PSoC5/LED_Strip.c **** * Global variables:
 787:.\Generated_Source\PSoC5/LED_Strip.c **** *  LED_Strip_rxBufferWrite - used for the account of the bytes which
 788:.\Generated_Source\PSoC5/LED_Strip.c **** *  have been written down in the RX software buffer, modified every function
 789:.\Generated_Source\PSoC5/LED_Strip.c **** *  call - resets to zero.
 790:.\Generated_Source\PSoC5/LED_Strip.c **** *  LED_Strip_rxBufferRead - used for the account of the bytes which
 791:.\Generated_Source\PSoC5/LED_Strip.c **** *  have been read from the RX software buffer, modified every function call -
 792:.\Generated_Source\PSoC5/LED_Strip.c **** *  resets to zero.
 793:.\Generated_Source\PSoC5/LED_Strip.c **** *
 794:.\Generated_Source\PSoC5/LED_Strip.c **** * Theory:
 795:.\Generated_Source\PSoC5/LED_Strip.c **** *  Setting the pointers to zero makes the system believe there is no data to
 796:.\Generated_Source\PSoC5/LED_Strip.c **** *  read and writing will resume at address 0 overwriting any data that may have
ARM GAS  C:\Users\khjtony\AppData\Local\Temp\cc4iX0Bg.s 			page 34


 797:.\Generated_Source\PSoC5/LED_Strip.c **** *  remained in the RAM.
 798:.\Generated_Source\PSoC5/LED_Strip.c **** *
 799:.\Generated_Source\PSoC5/LED_Strip.c **** * Side Effects:
 800:.\Generated_Source\PSoC5/LED_Strip.c **** *  Any received data not read from the RAM buffer will be lost when overwritten.
 801:.\Generated_Source\PSoC5/LED_Strip.c **** *
 802:.\Generated_Source\PSoC5/LED_Strip.c **** * Reentrant:
 803:.\Generated_Source\PSoC5/LED_Strip.c **** *  No.
 804:.\Generated_Source\PSoC5/LED_Strip.c **** *
 805:.\Generated_Source\PSoC5/LED_Strip.c **** *******************************************************************************/
 806:.\Generated_Source\PSoC5/LED_Strip.c **** void LED_Strip_ClearRxBuffer(void) 
 807:.\Generated_Source\PSoC5/LED_Strip.c **** {
 1085              		.loc 1 807 0
 1086              		.cfi_startproc
 1087              		@ args = 0, pretend = 0, frame = 0
 1088              		@ frame_needed = 1, uses_anonymous_args = 0
 1089 0000 80B5     		push	{r7, lr}
 1090              		.cfi_def_cfa_offset 8
 1091              		.cfi_offset 7, -8
 1092              		.cfi_offset 14, -4
 1093 0002 00AF     		add	r7, sp, #0
 1094              		.cfi_def_cfa_register 7
 808:.\Generated_Source\PSoC5/LED_Strip.c ****     /* Clear Hardware RX FIFO */
 809:.\Generated_Source\PSoC5/LED_Strip.c ****     while(0u !=(LED_Strip_RX_STATUS_REG & LED_Strip_STS_RX_FIFO_NOT_EMPTY))
 1095              		.loc 1 809 0
 1096 0004 01E0     		b	.L73
 1097              	.L74:
 810:.\Generated_Source\PSoC5/LED_Strip.c ****     {
 811:.\Generated_Source\PSoC5/LED_Strip.c ****         (void) CY_GET_REG8(LED_Strip_RXDATA_PTR);
 1098              		.loc 1 811 0
 1099 0006 0B4B     		ldr	r3, .L75
 1100 0008 1B78     		ldrb	r3, [r3]
 1101              	.L73:
 809:.\Generated_Source\PSoC5/LED_Strip.c ****     while(0u !=(LED_Strip_RX_STATUS_REG & LED_Strip_STS_RX_FIFO_NOT_EMPTY))
 1102              		.loc 1 809 0 discriminator 1
 1103 000a 0B4B     		ldr	r3, .L75+4
 1104 000c 1B78     		ldrb	r3, [r3]
 1105 000e DBB2     		uxtb	r3, r3
 1106 0010 03F02003 		and	r3, r3, #32
 1107 0014 002B     		cmp	r3, #0
 1108 0016 F6D1     		bne	.L74
 812:.\Generated_Source\PSoC5/LED_Strip.c ****     }
 813:.\Generated_Source\PSoC5/LED_Strip.c **** 
 814:.\Generated_Source\PSoC5/LED_Strip.c ****     #if(LED_Strip_RX_SOFTWARE_BUF_ENABLED)
 815:.\Generated_Source\PSoC5/LED_Strip.c ****         /* Disable RX interrupt to protect global veriables */
 816:.\Generated_Source\PSoC5/LED_Strip.c ****         LED_Strip_DisableRxInt();
 1109              		.loc 1 816 0
 1110 0018 FFF7FEFF 		bl	LED_Strip_DisableRxInt
 817:.\Generated_Source\PSoC5/LED_Strip.c **** 
 818:.\Generated_Source\PSoC5/LED_Strip.c ****         LED_Strip_rxBufferFull  = 0u;
 1111              		.loc 1 818 0
 1112 001c 074B     		ldr	r3, .L75+8
 1113 001e 0022     		movs	r2, #0
 1114 0020 1A70     		strb	r2, [r3]
 819:.\Generated_Source\PSoC5/LED_Strip.c ****         LED_Strip_rxBufferRead  = 0u;
 1115              		.loc 1 819 0
 1116 0022 074B     		ldr	r3, .L75+12
 1117 0024 0022     		movs	r2, #0
ARM GAS  C:\Users\khjtony\AppData\Local\Temp\cc4iX0Bg.s 			page 35


 1118 0026 1A70     		strb	r2, [r3]
 820:.\Generated_Source\PSoC5/LED_Strip.c ****         LED_Strip_rxBufferWrite = 0u;
 1119              		.loc 1 820 0
 1120 0028 064B     		ldr	r3, .L75+16
 1121 002a 0022     		movs	r2, #0
 1122 002c 1A70     		strb	r2, [r3]
 821:.\Generated_Source\PSoC5/LED_Strip.c **** 
 822:.\Generated_Source\PSoC5/LED_Strip.c ****         LED_Strip_EnableRxInt();
 1123              		.loc 1 822 0
 1124 002e FFF7FEFF 		bl	LED_Strip_EnableRxInt
 823:.\Generated_Source\PSoC5/LED_Strip.c ****     #endif /* (LED_Strip_RX_SOFTWARE_BUF_ENABLED) */
 824:.\Generated_Source\PSoC5/LED_Strip.c **** }
 1125              		.loc 1 824 0
 1126 0032 80BD     		pop	{r7, pc}
 1127              	.L76:
 1128              		.align	2
 1129              	.L75:
 1130 0034 53640040 		.word	1073767507
 1131 0038 60640040 		.word	1073767520
 1132 003c 00000000 		.word	LED_Strip_rxBufferFull
 1133 0040 00000000 		.word	LED_Strip_rxBufferRead
 1134 0044 00000000 		.word	LED_Strip_rxBufferWrite
 1135              		.cfi_endproc
 1136              	.LFE16:
 1137              		.size	LED_Strip_ClearRxBuffer, .-LED_Strip_ClearRxBuffer
 1138              		.section	.text.LED_Strip_ClearTxBuffer,"ax",%progbits
 1139              		.align	2
 1140              		.global	LED_Strip_ClearTxBuffer
 1141              		.thumb
 1142              		.thumb_func
 1143              		.type	LED_Strip_ClearTxBuffer, %function
 1144              	LED_Strip_ClearTxBuffer:
 1145              	.LFB17:
 825:.\Generated_Source\PSoC5/LED_Strip.c **** 
 826:.\Generated_Source\PSoC5/LED_Strip.c **** 
 827:.\Generated_Source\PSoC5/LED_Strip.c **** /*******************************************************************************
 828:.\Generated_Source\PSoC5/LED_Strip.c **** * Function Name: LED_Strip_ClearTxBuffer
 829:.\Generated_Source\PSoC5/LED_Strip.c **** ********************************************************************************
 830:.\Generated_Source\PSoC5/LED_Strip.c **** *
 831:.\Generated_Source\PSoC5/LED_Strip.c **** * Summary:
 832:.\Generated_Source\PSoC5/LED_Strip.c **** *  Clear the TX RAM buffer by setting the read and write pointers both to zero.
 833:.\Generated_Source\PSoC5/LED_Strip.c **** *
 834:.\Generated_Source\PSoC5/LED_Strip.c **** * Parameters:
 835:.\Generated_Source\PSoC5/LED_Strip.c **** *  None.
 836:.\Generated_Source\PSoC5/LED_Strip.c **** *
 837:.\Generated_Source\PSoC5/LED_Strip.c **** * Return:
 838:.\Generated_Source\PSoC5/LED_Strip.c **** *  None.
 839:.\Generated_Source\PSoC5/LED_Strip.c **** *
 840:.\Generated_Source\PSoC5/LED_Strip.c **** * Global variables:
 841:.\Generated_Source\PSoC5/LED_Strip.c **** *  LED_Strip_txBufferWrite - used for the account of the bytes which
 842:.\Generated_Source\PSoC5/LED_Strip.c **** *  have been written down in the TX software buffer, modified every function
 843:.\Generated_Source\PSoC5/LED_Strip.c **** *  call - resets to zero.
 844:.\Generated_Source\PSoC5/LED_Strip.c **** *  LED_Strip_txBufferRead - used for the account of the bytes which
 845:.\Generated_Source\PSoC5/LED_Strip.c **** *  have been read from the TX software buffer, modified every function call -
 846:.\Generated_Source\PSoC5/LED_Strip.c **** *  resets to zero.
 847:.\Generated_Source\PSoC5/LED_Strip.c **** *
 848:.\Generated_Source\PSoC5/LED_Strip.c **** * Theory:
ARM GAS  C:\Users\khjtony\AppData\Local\Temp\cc4iX0Bg.s 			page 36


 849:.\Generated_Source\PSoC5/LED_Strip.c **** *  Setting the pointers to zero makes the system believe there is no data to
 850:.\Generated_Source\PSoC5/LED_Strip.c **** *  read and writing will resume at address 0 overwriting any data that may have
 851:.\Generated_Source\PSoC5/LED_Strip.c **** *  remained in the RAM.
 852:.\Generated_Source\PSoC5/LED_Strip.c **** *
 853:.\Generated_Source\PSoC5/LED_Strip.c **** * Side Effects:
 854:.\Generated_Source\PSoC5/LED_Strip.c **** *  Any data not yet transmitted from the RAM buffer will be lost when
 855:.\Generated_Source\PSoC5/LED_Strip.c **** *  overwritten.
 856:.\Generated_Source\PSoC5/LED_Strip.c **** *
 857:.\Generated_Source\PSoC5/LED_Strip.c **** * Reentrant:
 858:.\Generated_Source\PSoC5/LED_Strip.c **** *  No.
 859:.\Generated_Source\PSoC5/LED_Strip.c **** *
 860:.\Generated_Source\PSoC5/LED_Strip.c **** *******************************************************************************/
 861:.\Generated_Source\PSoC5/LED_Strip.c **** void LED_Strip_ClearTxBuffer(void) 
 862:.\Generated_Source\PSoC5/LED_Strip.c **** {
 1146              		.loc 1 862 0
 1147              		.cfi_startproc
 1148              		@ args = 0, pretend = 0, frame = 8
 1149              		@ frame_needed = 1, uses_anonymous_args = 0
 1150 0000 80B5     		push	{r7, lr}
 1151              		.cfi_def_cfa_offset 8
 1152              		.cfi_offset 7, -8
 1153              		.cfi_offset 14, -4
 1154 0002 82B0     		sub	sp, sp, #8
 1155              		.cfi_def_cfa_offset 16
 1156 0004 00AF     		add	r7, sp, #0
 1157              		.cfi_def_cfa_register 7
 863:.\Generated_Source\PSoC5/LED_Strip.c ****     uint8 enableInterrupts;
 864:.\Generated_Source\PSoC5/LED_Strip.c **** 
 865:.\Generated_Source\PSoC5/LED_Strip.c ****     enableInterrupts = CyEnterCriticalSection();
 1158              		.loc 1 865 0
 1159 0006 FFF7FEFF 		bl	CyEnterCriticalSection
 1160 000a 0346     		mov	r3, r0
 1161 000c FB71     		strb	r3, [r7, #7]
 866:.\Generated_Source\PSoC5/LED_Strip.c ****     /* Clear TX FIFO */
 867:.\Generated_Source\PSoC5/LED_Strip.c ****     LED_Strip_AUX_CONTROL_DP0_REG |= ((uint8)  LED_Strip_TX_FIFO_CLR);
 1162              		.loc 1 867 0
 1163 000e 164B     		ldr	r3, .L78
 1164 0010 154A     		ldr	r2, .L78
 1165 0012 1278     		ldrb	r2, [r2]
 1166 0014 D2B2     		uxtb	r2, r2
 1167 0016 42F00102 		orr	r2, r2, #1
 1168 001a D2B2     		uxtb	r2, r2
 1169 001c 1A70     		strb	r2, [r3]
 868:.\Generated_Source\PSoC5/LED_Strip.c ****     LED_Strip_AUX_CONTROL_DP0_REG &= ((uint8) ~LED_Strip_TX_FIFO_CLR);
 1170              		.loc 1 868 0
 1171 001e 124B     		ldr	r3, .L78
 1172 0020 114A     		ldr	r2, .L78
 1173 0022 1278     		ldrb	r2, [r2]
 1174 0024 D2B2     		uxtb	r2, r2
 1175 0026 22F00102 		bic	r2, r2, #1
 1176 002a D2B2     		uxtb	r2, r2
 1177 002c 1A70     		strb	r2, [r3]
 869:.\Generated_Source\PSoC5/LED_Strip.c **** 
 870:.\Generated_Source\PSoC5/LED_Strip.c ****     #if(LED_Strip_USE_SECOND_DATAPATH)
 871:.\Generated_Source\PSoC5/LED_Strip.c ****         /* Clear TX FIFO for 2nd Datapath */
 872:.\Generated_Source\PSoC5/LED_Strip.c ****         LED_Strip_AUX_CONTROL_DP1_REG |= ((uint8)  LED_Strip_TX_FIFO_CLR);
 873:.\Generated_Source\PSoC5/LED_Strip.c ****         LED_Strip_AUX_CONTROL_DP1_REG &= ((uint8) ~LED_Strip_TX_FIFO_CLR);
ARM GAS  C:\Users\khjtony\AppData\Local\Temp\cc4iX0Bg.s 			page 37


 874:.\Generated_Source\PSoC5/LED_Strip.c ****     #endif /* (LED_Strip_USE_SECOND_DATAPATH) */
 875:.\Generated_Source\PSoC5/LED_Strip.c ****     CyExitCriticalSection(enableInterrupts);
 1178              		.loc 1 875 0
 1179 002e FB79     		ldrb	r3, [r7, #7]	@ zero_extendqisi2
 1180 0030 1846     		mov	r0, r3
 1181 0032 FFF7FEFF 		bl	CyExitCriticalSection
 876:.\Generated_Source\PSoC5/LED_Strip.c **** 
 877:.\Generated_Source\PSoC5/LED_Strip.c ****     #if(LED_Strip_TX_SOFTWARE_BUF_ENABLED)
 878:.\Generated_Source\PSoC5/LED_Strip.c ****         /* Disable TX interrupt to protect global veriables */
 879:.\Generated_Source\PSoC5/LED_Strip.c ****         LED_Strip_DisableTxInt();
 1182              		.loc 1 879 0
 1183 0036 FFF7FEFF 		bl	LED_Strip_DisableTxInt
 880:.\Generated_Source\PSoC5/LED_Strip.c **** 
 881:.\Generated_Source\PSoC5/LED_Strip.c ****         LED_Strip_txBufferFull  = 0u;
 1184              		.loc 1 881 0
 1185 003a 0C4B     		ldr	r3, .L78+4
 1186 003c 0022     		movs	r2, #0
 1187 003e 1A70     		strb	r2, [r3]
 882:.\Generated_Source\PSoC5/LED_Strip.c ****         LED_Strip_txBufferRead  = 0u;
 1188              		.loc 1 882 0
 1189 0040 0B4B     		ldr	r3, .L78+8
 1190 0042 0022     		movs	r2, #0
 1191 0044 1A70     		strb	r2, [r3]
 883:.\Generated_Source\PSoC5/LED_Strip.c ****         LED_Strip_txBufferWrite = 0u;
 1192              		.loc 1 883 0
 1193 0046 0B4B     		ldr	r3, .L78+12
 1194 0048 0022     		movs	r2, #0
 1195 004a 1A70     		strb	r2, [r3]
 884:.\Generated_Source\PSoC5/LED_Strip.c **** 
 885:.\Generated_Source\PSoC5/LED_Strip.c ****         /* Buffer is EMPTY: disable TX FIFO NOT FULL interrupt */
 886:.\Generated_Source\PSoC5/LED_Strip.c ****         LED_Strip_TX_STATUS_MASK_REG &= ((uint8) ~LED_Strip_STS_TX_FIFO_NOT_FULL);
 1196              		.loc 1 886 0
 1197 004c 0A4B     		ldr	r3, .L78+16
 1198 004e 0A4A     		ldr	r2, .L78+16
 1199 0050 1278     		ldrb	r2, [r2]
 1200 0052 D2B2     		uxtb	r2, r2
 1201 0054 22F00402 		bic	r2, r2, #4
 1202 0058 D2B2     		uxtb	r2, r2
 1203 005a 1A70     		strb	r2, [r3]
 887:.\Generated_Source\PSoC5/LED_Strip.c **** 
 888:.\Generated_Source\PSoC5/LED_Strip.c ****         LED_Strip_EnableTxInt();
 1204              		.loc 1 888 0
 1205 005c FFF7FEFF 		bl	LED_Strip_EnableTxInt
 889:.\Generated_Source\PSoC5/LED_Strip.c ****     #endif /* (LED_Strip_TX_SOFTWARE_BUF_ENABLED) */
 890:.\Generated_Source\PSoC5/LED_Strip.c **** }
 1206              		.loc 1 890 0
 1207 0060 0837     		adds	r7, r7, #8
 1208 0062 BD46     		mov	sp, r7
 1209              		@ sp needed
 1210 0064 80BD     		pop	{r7, pc}
 1211              	.L79:
 1212 0066 00BF     		.align	2
 1213              	.L78:
 1214 0068 93640040 		.word	1073767571
 1215 006c 00000000 		.word	LED_Strip_txBufferFull
 1216 0070 00000000 		.word	LED_Strip_txBufferRead
 1217 0074 00000000 		.word	LED_Strip_txBufferWrite
ARM GAS  C:\Users\khjtony\AppData\Local\Temp\cc4iX0Bg.s 			page 38


 1218 0078 84640040 		.word	1073767556
 1219              		.cfi_endproc
 1220              	.LFE17:
 1221              		.size	LED_Strip_ClearTxBuffer, .-LED_Strip_ClearTxBuffer
 1222              		.section	.text.LED_Strip_PutArray,"ax",%progbits
 1223              		.align	2
 1224              		.global	LED_Strip_PutArray
 1225              		.thumb
 1226              		.thumb_func
 1227              		.type	LED_Strip_PutArray, %function
 1228              	LED_Strip_PutArray:
 1229              	.LFB18:
 891:.\Generated_Source\PSoC5/LED_Strip.c **** 
 892:.\Generated_Source\PSoC5/LED_Strip.c **** 
 893:.\Generated_Source\PSoC5/LED_Strip.c **** #if(0u != LED_Strip_BIDIRECTIONAL_MODE)
 894:.\Generated_Source\PSoC5/LED_Strip.c ****     /*******************************************************************************
 895:.\Generated_Source\PSoC5/LED_Strip.c ****     * Function Name: LED_Strip_TxEnable
 896:.\Generated_Source\PSoC5/LED_Strip.c ****     ********************************************************************************
 897:.\Generated_Source\PSoC5/LED_Strip.c ****     *
 898:.\Generated_Source\PSoC5/LED_Strip.c ****     * Summary:
 899:.\Generated_Source\PSoC5/LED_Strip.c ****     *  If the SPI master is configured to use a single bi-directional pin then this
 900:.\Generated_Source\PSoC5/LED_Strip.c ****     *  will set the bi-directional pin to transmit.
 901:.\Generated_Source\PSoC5/LED_Strip.c ****     *
 902:.\Generated_Source\PSoC5/LED_Strip.c ****     * Parameters:
 903:.\Generated_Source\PSoC5/LED_Strip.c ****     *  None.
 904:.\Generated_Source\PSoC5/LED_Strip.c ****     *
 905:.\Generated_Source\PSoC5/LED_Strip.c ****     * Return:
 906:.\Generated_Source\PSoC5/LED_Strip.c ****     *  None.
 907:.\Generated_Source\PSoC5/LED_Strip.c ****     *
 908:.\Generated_Source\PSoC5/LED_Strip.c ****     *******************************************************************************/
 909:.\Generated_Source\PSoC5/LED_Strip.c ****     void LED_Strip_TxEnable(void) 
 910:.\Generated_Source\PSoC5/LED_Strip.c ****     {
 911:.\Generated_Source\PSoC5/LED_Strip.c ****         LED_Strip_CONTROL_REG |= LED_Strip_CTRL_TX_SIGNAL_EN;
 912:.\Generated_Source\PSoC5/LED_Strip.c ****     }
 913:.\Generated_Source\PSoC5/LED_Strip.c **** 
 914:.\Generated_Source\PSoC5/LED_Strip.c **** 
 915:.\Generated_Source\PSoC5/LED_Strip.c ****     /*******************************************************************************
 916:.\Generated_Source\PSoC5/LED_Strip.c ****     * Function Name: LED_Strip_TxDisable
 917:.\Generated_Source\PSoC5/LED_Strip.c ****     ********************************************************************************
 918:.\Generated_Source\PSoC5/LED_Strip.c ****     *
 919:.\Generated_Source\PSoC5/LED_Strip.c ****     * Summary:
 920:.\Generated_Source\PSoC5/LED_Strip.c ****     *  If the SPI master is configured to use a single bi-directional pin then this
 921:.\Generated_Source\PSoC5/LED_Strip.c ****     *  will set the bi-directional pin to receive.
 922:.\Generated_Source\PSoC5/LED_Strip.c ****     *
 923:.\Generated_Source\PSoC5/LED_Strip.c ****     * Parameters:
 924:.\Generated_Source\PSoC5/LED_Strip.c ****     *  None.
 925:.\Generated_Source\PSoC5/LED_Strip.c ****     *
 926:.\Generated_Source\PSoC5/LED_Strip.c ****     * Return:
 927:.\Generated_Source\PSoC5/LED_Strip.c ****     *  None.
 928:.\Generated_Source\PSoC5/LED_Strip.c ****     *
 929:.\Generated_Source\PSoC5/LED_Strip.c ****     *******************************************************************************/
 930:.\Generated_Source\PSoC5/LED_Strip.c ****     void LED_Strip_TxDisable(void) 
 931:.\Generated_Source\PSoC5/LED_Strip.c ****     {
 932:.\Generated_Source\PSoC5/LED_Strip.c ****         LED_Strip_CONTROL_REG &= ((uint8) ~LED_Strip_CTRL_TX_SIGNAL_EN);
 933:.\Generated_Source\PSoC5/LED_Strip.c ****     }
 934:.\Generated_Source\PSoC5/LED_Strip.c **** 
 935:.\Generated_Source\PSoC5/LED_Strip.c **** #endif /* (0u != LED_Strip_BIDIRECTIONAL_MODE) */
ARM GAS  C:\Users\khjtony\AppData\Local\Temp\cc4iX0Bg.s 			page 39


 936:.\Generated_Source\PSoC5/LED_Strip.c **** 
 937:.\Generated_Source\PSoC5/LED_Strip.c **** 
 938:.\Generated_Source\PSoC5/LED_Strip.c **** /*******************************************************************************
 939:.\Generated_Source\PSoC5/LED_Strip.c **** * Function Name: LED_Strip_PutArray
 940:.\Generated_Source\PSoC5/LED_Strip.c **** ********************************************************************************
 941:.\Generated_Source\PSoC5/LED_Strip.c **** *
 942:.\Generated_Source\PSoC5/LED_Strip.c **** * Summary:
 943:.\Generated_Source\PSoC5/LED_Strip.c **** *  Write available data from ROM/RAM to the TX buffer while space is available
 944:.\Generated_Source\PSoC5/LED_Strip.c **** *  in the TX buffer. Keep trying until all data is passed to the TX buffer.
 945:.\Generated_Source\PSoC5/LED_Strip.c **** *
 946:.\Generated_Source\PSoC5/LED_Strip.c **** * Parameters:
 947:.\Generated_Source\PSoC5/LED_Strip.c **** *  *buffer: Pointer to the location in RAM containing the data to send
 948:.\Generated_Source\PSoC5/LED_Strip.c **** *  byteCount: The number of bytes to move to the transmit buffer.
 949:.\Generated_Source\PSoC5/LED_Strip.c **** *
 950:.\Generated_Source\PSoC5/LED_Strip.c **** * Return:
 951:.\Generated_Source\PSoC5/LED_Strip.c **** *  None.
 952:.\Generated_Source\PSoC5/LED_Strip.c **** *
 953:.\Generated_Source\PSoC5/LED_Strip.c **** * Side Effects:
 954:.\Generated_Source\PSoC5/LED_Strip.c **** *  Will stay in this routine until all data has been sent.  May get locked in
 955:.\Generated_Source\PSoC5/LED_Strip.c **** *  this loop if data is not being initiated by the master if there is not
 956:.\Generated_Source\PSoC5/LED_Strip.c **** *  enough room in the TX FIFO.
 957:.\Generated_Source\PSoC5/LED_Strip.c **** *
 958:.\Generated_Source\PSoC5/LED_Strip.c **** * Reentrant:
 959:.\Generated_Source\PSoC5/LED_Strip.c **** *  No.
 960:.\Generated_Source\PSoC5/LED_Strip.c **** *
 961:.\Generated_Source\PSoC5/LED_Strip.c **** *******************************************************************************/
 962:.\Generated_Source\PSoC5/LED_Strip.c **** void LED_Strip_PutArray(const uint8 buffer[], uint8 byteCount)
 963:.\Generated_Source\PSoC5/LED_Strip.c ****                                                                           
 964:.\Generated_Source\PSoC5/LED_Strip.c **** {
 1230              		.loc 1 964 0
 1231              		.cfi_startproc
 1232              		@ args = 0, pretend = 0, frame = 16
 1233              		@ frame_needed = 1, uses_anonymous_args = 0
 1234 0000 80B5     		push	{r7, lr}
 1235              		.cfi_def_cfa_offset 8
 1236              		.cfi_offset 7, -8
 1237              		.cfi_offset 14, -4
 1238 0002 84B0     		sub	sp, sp, #16
 1239              		.cfi_def_cfa_offset 24
 1240 0004 00AF     		add	r7, sp, #0
 1241              		.cfi_def_cfa_register 7
 1242 0006 7860     		str	r0, [r7, #4]
 1243 0008 0B46     		mov	r3, r1
 1244 000a FB70     		strb	r3, [r7, #3]
 965:.\Generated_Source\PSoC5/LED_Strip.c ****     uint8 bufIndex;
 966:.\Generated_Source\PSoC5/LED_Strip.c **** 
 967:.\Generated_Source\PSoC5/LED_Strip.c ****     bufIndex = 0u;
 1245              		.loc 1 967 0
 1246 000c 0023     		movs	r3, #0
 1247 000e FB73     		strb	r3, [r7, #15]
 968:.\Generated_Source\PSoC5/LED_Strip.c **** 
 969:.\Generated_Source\PSoC5/LED_Strip.c ****     while(byteCount > 0u)
 1248              		.loc 1 969 0
 1249 0010 0CE0     		b	.L81
 1250              	.L82:
 970:.\Generated_Source\PSoC5/LED_Strip.c ****     {
 971:.\Generated_Source\PSoC5/LED_Strip.c ****         LED_Strip_WriteTxData(buffer[bufIndex]);
ARM GAS  C:\Users\khjtony\AppData\Local\Temp\cc4iX0Bg.s 			page 40


 1251              		.loc 1 971 0
 1252 0012 FB7B     		ldrb	r3, [r7, #15]	@ zero_extendqisi2
 1253 0014 7A68     		ldr	r2, [r7, #4]
 1254 0016 1344     		add	r3, r3, r2
 1255 0018 1B78     		ldrb	r3, [r3]	@ zero_extendqisi2
 1256 001a 1846     		mov	r0, r3
 1257 001c FFF7FEFF 		bl	LED_Strip_WriteTxData
 972:.\Generated_Source\PSoC5/LED_Strip.c ****         bufIndex++;
 1258              		.loc 1 972 0
 1259 0020 FB7B     		ldrb	r3, [r7, #15]	@ zero_extendqisi2
 1260 0022 0133     		adds	r3, r3, #1
 1261 0024 FB73     		strb	r3, [r7, #15]
 973:.\Generated_Source\PSoC5/LED_Strip.c ****         byteCount--;
 1262              		.loc 1 973 0
 1263 0026 FB78     		ldrb	r3, [r7, #3]	@ zero_extendqisi2
 1264 0028 013B     		subs	r3, r3, #1
 1265 002a FB70     		strb	r3, [r7, #3]
 1266              	.L81:
 969:.\Generated_Source\PSoC5/LED_Strip.c ****     while(byteCount > 0u)
 1267              		.loc 1 969 0 discriminator 1
 1268 002c FB78     		ldrb	r3, [r7, #3]	@ zero_extendqisi2
 1269 002e 002B     		cmp	r3, #0
 1270 0030 EFD1     		bne	.L82
 974:.\Generated_Source\PSoC5/LED_Strip.c ****     }
 975:.\Generated_Source\PSoC5/LED_Strip.c **** }
 1271              		.loc 1 975 0
 1272 0032 1037     		adds	r7, r7, #16
 1273 0034 BD46     		mov	sp, r7
 1274              		@ sp needed
 1275 0036 80BD     		pop	{r7, pc}
 1276              		.cfi_endproc
 1277              	.LFE18:
 1278              		.size	LED_Strip_PutArray, .-LED_Strip_PutArray
 1279              		.section	.text.LED_Strip_ClearFIFO,"ax",%progbits
 1280              		.align	2
 1281              		.global	LED_Strip_ClearFIFO
 1282              		.thumb
 1283              		.thumb_func
 1284              		.type	LED_Strip_ClearFIFO, %function
 1285              	LED_Strip_ClearFIFO:
 1286              	.LFB19:
 976:.\Generated_Source\PSoC5/LED_Strip.c **** 
 977:.\Generated_Source\PSoC5/LED_Strip.c **** 
 978:.\Generated_Source\PSoC5/LED_Strip.c **** /*******************************************************************************
 979:.\Generated_Source\PSoC5/LED_Strip.c **** * Function Name: LED_Strip_ClearFIFO
 980:.\Generated_Source\PSoC5/LED_Strip.c **** ********************************************************************************
 981:.\Generated_Source\PSoC5/LED_Strip.c **** *
 982:.\Generated_Source\PSoC5/LED_Strip.c **** * Summary:
 983:.\Generated_Source\PSoC5/LED_Strip.c **** *  Clear the RX and TX FIFO's of all data for a fresh start.
 984:.\Generated_Source\PSoC5/LED_Strip.c **** *
 985:.\Generated_Source\PSoC5/LED_Strip.c **** * Parameters:
 986:.\Generated_Source\PSoC5/LED_Strip.c **** *  None.
 987:.\Generated_Source\PSoC5/LED_Strip.c **** *
 988:.\Generated_Source\PSoC5/LED_Strip.c **** * Return:
 989:.\Generated_Source\PSoC5/LED_Strip.c **** *  None.
 990:.\Generated_Source\PSoC5/LED_Strip.c **** *
 991:.\Generated_Source\PSoC5/LED_Strip.c **** * Side Effects:
ARM GAS  C:\Users\khjtony\AppData\Local\Temp\cc4iX0Bg.s 			page 41


 992:.\Generated_Source\PSoC5/LED_Strip.c **** *  Clear status register of the component.
 993:.\Generated_Source\PSoC5/LED_Strip.c **** *
 994:.\Generated_Source\PSoC5/LED_Strip.c **** *******************************************************************************/
 995:.\Generated_Source\PSoC5/LED_Strip.c **** void LED_Strip_ClearFIFO(void) 
 996:.\Generated_Source\PSoC5/LED_Strip.c **** {
 1287              		.loc 1 996 0
 1288              		.cfi_startproc
 1289              		@ args = 0, pretend = 0, frame = 8
 1290              		@ frame_needed = 1, uses_anonymous_args = 0
 1291 0000 80B5     		push	{r7, lr}
 1292              		.cfi_def_cfa_offset 8
 1293              		.cfi_offset 7, -8
 1294              		.cfi_offset 14, -4
 1295 0002 82B0     		sub	sp, sp, #8
 1296              		.cfi_def_cfa_offset 16
 1297 0004 00AF     		add	r7, sp, #0
 1298              		.cfi_def_cfa_register 7
 997:.\Generated_Source\PSoC5/LED_Strip.c ****     uint8 enableInterrupts;
 998:.\Generated_Source\PSoC5/LED_Strip.c **** 
 999:.\Generated_Source\PSoC5/LED_Strip.c ****     /* Clear Hardware RX FIFO */
1000:.\Generated_Source\PSoC5/LED_Strip.c ****     while(0u !=(LED_Strip_RX_STATUS_REG & LED_Strip_STS_RX_FIFO_NOT_EMPTY))
 1299              		.loc 1 1000 0
 1300 0006 01E0     		b	.L84
 1301              	.L85:
1001:.\Generated_Source\PSoC5/LED_Strip.c ****     {
1002:.\Generated_Source\PSoC5/LED_Strip.c ****         (void) CY_GET_REG8(LED_Strip_RXDATA_PTR);
 1302              		.loc 1 1002 0
 1303 0008 114B     		ldr	r3, .L86
 1304 000a 1B78     		ldrb	r3, [r3]
 1305              	.L84:
1000:.\Generated_Source\PSoC5/LED_Strip.c ****     while(0u !=(LED_Strip_RX_STATUS_REG & LED_Strip_STS_RX_FIFO_NOT_EMPTY))
 1306              		.loc 1 1000 0 discriminator 1
 1307 000c 114B     		ldr	r3, .L86+4
 1308 000e 1B78     		ldrb	r3, [r3]
 1309 0010 DBB2     		uxtb	r3, r3
 1310 0012 03F02003 		and	r3, r3, #32
 1311 0016 002B     		cmp	r3, #0
 1312 0018 F6D1     		bne	.L85
1003:.\Generated_Source\PSoC5/LED_Strip.c ****     }
1004:.\Generated_Source\PSoC5/LED_Strip.c **** 
1005:.\Generated_Source\PSoC5/LED_Strip.c ****     enableInterrupts = CyEnterCriticalSection();
 1313              		.loc 1 1005 0
 1314 001a FFF7FEFF 		bl	CyEnterCriticalSection
 1315 001e 0346     		mov	r3, r0
 1316 0020 FB71     		strb	r3, [r7, #7]
1006:.\Generated_Source\PSoC5/LED_Strip.c ****     /* Clear TX FIFO */
1007:.\Generated_Source\PSoC5/LED_Strip.c ****     LED_Strip_AUX_CONTROL_DP0_REG |= ((uint8)  LED_Strip_TX_FIFO_CLR);
 1317              		.loc 1 1007 0
 1318 0022 0D4B     		ldr	r3, .L86+8
 1319 0024 0C4A     		ldr	r2, .L86+8
 1320 0026 1278     		ldrb	r2, [r2]
 1321 0028 D2B2     		uxtb	r2, r2
 1322 002a 42F00102 		orr	r2, r2, #1
 1323 002e D2B2     		uxtb	r2, r2
 1324 0030 1A70     		strb	r2, [r3]
1008:.\Generated_Source\PSoC5/LED_Strip.c ****     LED_Strip_AUX_CONTROL_DP0_REG &= ((uint8) ~LED_Strip_TX_FIFO_CLR);
 1325              		.loc 1 1008 0
ARM GAS  C:\Users\khjtony\AppData\Local\Temp\cc4iX0Bg.s 			page 42


 1326 0032 094B     		ldr	r3, .L86+8
 1327 0034 084A     		ldr	r2, .L86+8
 1328 0036 1278     		ldrb	r2, [r2]
 1329 0038 D2B2     		uxtb	r2, r2
 1330 003a 22F00102 		bic	r2, r2, #1
 1331 003e D2B2     		uxtb	r2, r2
 1332 0040 1A70     		strb	r2, [r3]
1009:.\Generated_Source\PSoC5/LED_Strip.c **** 
1010:.\Generated_Source\PSoC5/LED_Strip.c ****     #if(LED_Strip_USE_SECOND_DATAPATH)
1011:.\Generated_Source\PSoC5/LED_Strip.c ****         /* Clear TX FIFO for 2nd Datapath */
1012:.\Generated_Source\PSoC5/LED_Strip.c ****         LED_Strip_AUX_CONTROL_DP1_REG |= ((uint8)  LED_Strip_TX_FIFO_CLR);
1013:.\Generated_Source\PSoC5/LED_Strip.c ****         LED_Strip_AUX_CONTROL_DP1_REG &= ((uint8) ~LED_Strip_TX_FIFO_CLR);
1014:.\Generated_Source\PSoC5/LED_Strip.c ****     #endif /* (LED_Strip_USE_SECOND_DATAPATH) */
1015:.\Generated_Source\PSoC5/LED_Strip.c ****     CyExitCriticalSection(enableInterrupts);
 1333              		.loc 1 1015 0
 1334 0042 FB79     		ldrb	r3, [r7, #7]	@ zero_extendqisi2
 1335 0044 1846     		mov	r0, r3
 1336 0046 FFF7FEFF 		bl	CyExitCriticalSection
1016:.\Generated_Source\PSoC5/LED_Strip.c **** }
 1337              		.loc 1 1016 0
 1338 004a 0837     		adds	r7, r7, #8
 1339 004c BD46     		mov	sp, r7
 1340              		@ sp needed
 1341 004e 80BD     		pop	{r7, pc}
 1342              	.L87:
 1343              		.align	2
 1344              	.L86:
 1345 0050 53640040 		.word	1073767507
 1346 0054 60640040 		.word	1073767520
 1347 0058 93640040 		.word	1073767571
 1348              		.cfi_endproc
 1349              	.LFE19:
 1350              		.size	LED_Strip_ClearFIFO, .-LED_Strip_ClearFIFO
 1351              		.section	.text.LED_Strip_EnableInt,"ax",%progbits
 1352              		.align	2
 1353              		.global	LED_Strip_EnableInt
 1354              		.thumb
 1355              		.thumb_func
 1356              		.type	LED_Strip_EnableInt, %function
 1357              	LED_Strip_EnableInt:
 1358              	.LFB20:
1017:.\Generated_Source\PSoC5/LED_Strip.c **** 
1018:.\Generated_Source\PSoC5/LED_Strip.c **** 
1019:.\Generated_Source\PSoC5/LED_Strip.c **** /* Following functions are for version Compatibility, they are obsolete.
1020:.\Generated_Source\PSoC5/LED_Strip.c **** *  Please do not use it in new projects.
1021:.\Generated_Source\PSoC5/LED_Strip.c **** */
1022:.\Generated_Source\PSoC5/LED_Strip.c **** 
1023:.\Generated_Source\PSoC5/LED_Strip.c **** 
1024:.\Generated_Source\PSoC5/LED_Strip.c **** /*******************************************************************************
1025:.\Generated_Source\PSoC5/LED_Strip.c **** * Function Name: LED_Strip_EnableInt
1026:.\Generated_Source\PSoC5/LED_Strip.c **** ********************************************************************************
1027:.\Generated_Source\PSoC5/LED_Strip.c **** *
1028:.\Generated_Source\PSoC5/LED_Strip.c **** * Summary:
1029:.\Generated_Source\PSoC5/LED_Strip.c **** *  Enable internal interrupt generation.
1030:.\Generated_Source\PSoC5/LED_Strip.c **** *
1031:.\Generated_Source\PSoC5/LED_Strip.c **** * Parameters:
1032:.\Generated_Source\PSoC5/LED_Strip.c **** *  None.
ARM GAS  C:\Users\khjtony\AppData\Local\Temp\cc4iX0Bg.s 			page 43


1033:.\Generated_Source\PSoC5/LED_Strip.c **** *
1034:.\Generated_Source\PSoC5/LED_Strip.c **** * Return:
1035:.\Generated_Source\PSoC5/LED_Strip.c **** *  None.
1036:.\Generated_Source\PSoC5/LED_Strip.c **** *
1037:.\Generated_Source\PSoC5/LED_Strip.c **** * Theory:
1038:.\Generated_Source\PSoC5/LED_Strip.c **** *  Enable the internal interrupt output -or- the interrupt component itself.
1039:.\Generated_Source\PSoC5/LED_Strip.c **** *
1040:.\Generated_Source\PSoC5/LED_Strip.c **** *******************************************************************************/
1041:.\Generated_Source\PSoC5/LED_Strip.c **** void LED_Strip_EnableInt(void) 
1042:.\Generated_Source\PSoC5/LED_Strip.c **** {
 1359              		.loc 1 1042 0
 1360              		.cfi_startproc
 1361              		@ args = 0, pretend = 0, frame = 0
 1362              		@ frame_needed = 1, uses_anonymous_args = 0
 1363 0000 80B5     		push	{r7, lr}
 1364              		.cfi_def_cfa_offset 8
 1365              		.cfi_offset 7, -8
 1366              		.cfi_offset 14, -4
 1367 0002 00AF     		add	r7, sp, #0
 1368              		.cfi_def_cfa_register 7
1043:.\Generated_Source\PSoC5/LED_Strip.c ****     LED_Strip_EnableRxInt();
 1369              		.loc 1 1043 0
 1370 0004 FFF7FEFF 		bl	LED_Strip_EnableRxInt
1044:.\Generated_Source\PSoC5/LED_Strip.c ****     LED_Strip_EnableTxInt();
 1371              		.loc 1 1044 0
 1372 0008 FFF7FEFF 		bl	LED_Strip_EnableTxInt
1045:.\Generated_Source\PSoC5/LED_Strip.c **** }
 1373              		.loc 1 1045 0
 1374 000c 80BD     		pop	{r7, pc}
 1375              		.cfi_endproc
 1376              	.LFE20:
 1377              		.size	LED_Strip_EnableInt, .-LED_Strip_EnableInt
 1378 000e 00BF     		.section	.text.LED_Strip_DisableInt,"ax",%progbits
 1379              		.align	2
 1380              		.global	LED_Strip_DisableInt
 1381              		.thumb
 1382              		.thumb_func
 1383              		.type	LED_Strip_DisableInt, %function
 1384              	LED_Strip_DisableInt:
 1385              	.LFB21:
1046:.\Generated_Source\PSoC5/LED_Strip.c **** 
1047:.\Generated_Source\PSoC5/LED_Strip.c **** 
1048:.\Generated_Source\PSoC5/LED_Strip.c **** /*******************************************************************************
1049:.\Generated_Source\PSoC5/LED_Strip.c **** * Function Name: LED_Strip_DisableInt
1050:.\Generated_Source\PSoC5/LED_Strip.c **** ********************************************************************************
1051:.\Generated_Source\PSoC5/LED_Strip.c **** *
1052:.\Generated_Source\PSoC5/LED_Strip.c **** * Summary:
1053:.\Generated_Source\PSoC5/LED_Strip.c **** *  Disable internal interrupt generation.
1054:.\Generated_Source\PSoC5/LED_Strip.c **** *
1055:.\Generated_Source\PSoC5/LED_Strip.c **** * Parameters:
1056:.\Generated_Source\PSoC5/LED_Strip.c **** *  None.
1057:.\Generated_Source\PSoC5/LED_Strip.c **** *
1058:.\Generated_Source\PSoC5/LED_Strip.c **** * Return:
1059:.\Generated_Source\PSoC5/LED_Strip.c **** *  None.
1060:.\Generated_Source\PSoC5/LED_Strip.c **** *
1061:.\Generated_Source\PSoC5/LED_Strip.c **** * Theory:
1062:.\Generated_Source\PSoC5/LED_Strip.c **** *  Disable the internal interrupt output -or- the interrupt component itself.
ARM GAS  C:\Users\khjtony\AppData\Local\Temp\cc4iX0Bg.s 			page 44


1063:.\Generated_Source\PSoC5/LED_Strip.c **** *
1064:.\Generated_Source\PSoC5/LED_Strip.c **** *******************************************************************************/
1065:.\Generated_Source\PSoC5/LED_Strip.c **** void LED_Strip_DisableInt(void) 
1066:.\Generated_Source\PSoC5/LED_Strip.c **** {
 1386              		.loc 1 1066 0
 1387              		.cfi_startproc
 1388              		@ args = 0, pretend = 0, frame = 0
 1389              		@ frame_needed = 1, uses_anonymous_args = 0
 1390 0000 80B5     		push	{r7, lr}
 1391              		.cfi_def_cfa_offset 8
 1392              		.cfi_offset 7, -8
 1393              		.cfi_offset 14, -4
 1394 0002 00AF     		add	r7, sp, #0
 1395              		.cfi_def_cfa_register 7
1067:.\Generated_Source\PSoC5/LED_Strip.c ****     LED_Strip_DisableTxInt();
 1396              		.loc 1 1067 0
 1397 0004 FFF7FEFF 		bl	LED_Strip_DisableTxInt
1068:.\Generated_Source\PSoC5/LED_Strip.c ****     LED_Strip_DisableRxInt();
 1398              		.loc 1 1068 0
 1399 0008 FFF7FEFF 		bl	LED_Strip_DisableRxInt
1069:.\Generated_Source\PSoC5/LED_Strip.c **** }
 1400              		.loc 1 1069 0
 1401 000c 80BD     		pop	{r7, pc}
 1402              		.cfi_endproc
 1403              	.LFE21:
 1404              		.size	LED_Strip_DisableInt, .-LED_Strip_DisableInt
 1405 000e 00BF     		.section	.text.LED_Strip_SetInterruptMode,"ax",%progbits
 1406              		.align	2
 1407              		.global	LED_Strip_SetInterruptMode
 1408              		.thumb
 1409              		.thumb_func
 1410              		.type	LED_Strip_SetInterruptMode, %function
 1411              	LED_Strip_SetInterruptMode:
 1412              	.LFB22:
1070:.\Generated_Source\PSoC5/LED_Strip.c **** 
1071:.\Generated_Source\PSoC5/LED_Strip.c **** 
1072:.\Generated_Source\PSoC5/LED_Strip.c **** /*******************************************************************************
1073:.\Generated_Source\PSoC5/LED_Strip.c **** * Function Name: LED_Strip_SetInterruptMode
1074:.\Generated_Source\PSoC5/LED_Strip.c **** ********************************************************************************
1075:.\Generated_Source\PSoC5/LED_Strip.c **** *
1076:.\Generated_Source\PSoC5/LED_Strip.c **** * Summary:
1077:.\Generated_Source\PSoC5/LED_Strip.c **** *  Configure which status bits trigger an interrupt event.
1078:.\Generated_Source\PSoC5/LED_Strip.c **** *
1079:.\Generated_Source\PSoC5/LED_Strip.c **** * Parameters:
1080:.\Generated_Source\PSoC5/LED_Strip.c **** *  intSrc: An or'd combination of the desired status bit masks (defined in the
1081:.\Generated_Source\PSoC5/LED_Strip.c **** *  header file).
1082:.\Generated_Source\PSoC5/LED_Strip.c **** *
1083:.\Generated_Source\PSoC5/LED_Strip.c **** * Return:
1084:.\Generated_Source\PSoC5/LED_Strip.c **** *  None.
1085:.\Generated_Source\PSoC5/LED_Strip.c **** *
1086:.\Generated_Source\PSoC5/LED_Strip.c **** * Theory:
1087:.\Generated_Source\PSoC5/LED_Strip.c **** *  Enables the output of specific status bits to the interrupt controller.
1088:.\Generated_Source\PSoC5/LED_Strip.c **** *
1089:.\Generated_Source\PSoC5/LED_Strip.c **** *******************************************************************************/
1090:.\Generated_Source\PSoC5/LED_Strip.c **** void LED_Strip_SetInterruptMode(uint8 intSrc) 
1091:.\Generated_Source\PSoC5/LED_Strip.c **** {
 1413              		.loc 1 1091 0
ARM GAS  C:\Users\khjtony\AppData\Local\Temp\cc4iX0Bg.s 			page 45


 1414              		.cfi_startproc
 1415              		@ args = 0, pretend = 0, frame = 8
 1416              		@ frame_needed = 1, uses_anonymous_args = 0
 1417              		@ link register save eliminated.
 1418 0000 80B4     		push	{r7}
 1419              		.cfi_def_cfa_offset 4
 1420              		.cfi_offset 7, -4
 1421 0002 83B0     		sub	sp, sp, #12
 1422              		.cfi_def_cfa_offset 16
 1423 0004 00AF     		add	r7, sp, #0
 1424              		.cfi_def_cfa_register 7
 1425 0006 0346     		mov	r3, r0
 1426 0008 FB71     		strb	r3, [r7, #7]
1092:.\Generated_Source\PSoC5/LED_Strip.c ****     LED_Strip_TX_STATUS_MASK_REG  = (intSrc & ((uint8) ~LED_Strip_STS_SPI_IDLE));
 1427              		.loc 1 1092 0
 1428 000a 074B     		ldr	r3, .L91
 1429 000c FA79     		ldrb	r2, [r7, #7]
 1430 000e 22F01002 		bic	r2, r2, #16
 1431 0012 D2B2     		uxtb	r2, r2
 1432 0014 1A70     		strb	r2, [r3]
1093:.\Generated_Source\PSoC5/LED_Strip.c ****     LED_Strip_RX_STATUS_MASK_REG  =  intSrc;
 1433              		.loc 1 1093 0
 1434 0016 054B     		ldr	r3, .L91+4
 1435 0018 FA79     		ldrb	r2, [r7, #7]
 1436 001a 1A70     		strb	r2, [r3]
1094:.\Generated_Source\PSoC5/LED_Strip.c **** }
 1437              		.loc 1 1094 0
 1438 001c 0C37     		adds	r7, r7, #12
 1439 001e BD46     		mov	sp, r7
 1440              		@ sp needed
 1441 0020 5DF8047B 		ldr	r7, [sp], #4
 1442 0024 7047     		bx	lr
 1443              	.L92:
 1444 0026 00BF     		.align	2
 1445              	.L91:
 1446 0028 84640040 		.word	1073767556
 1447 002c 80640040 		.word	1073767552
 1448              		.cfi_endproc
 1449              	.LFE22:
 1450              		.size	LED_Strip_SetInterruptMode, .-LED_Strip_SetInterruptMode
 1451              		.section	.text.LED_Strip_ReadStatus,"ax",%progbits
 1452              		.align	2
 1453              		.global	LED_Strip_ReadStatus
 1454              		.thumb
 1455              		.thumb_func
 1456              		.type	LED_Strip_ReadStatus, %function
 1457              	LED_Strip_ReadStatus:
 1458              	.LFB23:
1095:.\Generated_Source\PSoC5/LED_Strip.c **** 
1096:.\Generated_Source\PSoC5/LED_Strip.c **** 
1097:.\Generated_Source\PSoC5/LED_Strip.c **** /*******************************************************************************
1098:.\Generated_Source\PSoC5/LED_Strip.c **** * Function Name: LED_Strip_ReadStatus
1099:.\Generated_Source\PSoC5/LED_Strip.c **** ********************************************************************************
1100:.\Generated_Source\PSoC5/LED_Strip.c **** *
1101:.\Generated_Source\PSoC5/LED_Strip.c **** * Summary:
1102:.\Generated_Source\PSoC5/LED_Strip.c **** *  Read the status register for the component.
1103:.\Generated_Source\PSoC5/LED_Strip.c **** *
ARM GAS  C:\Users\khjtony\AppData\Local\Temp\cc4iX0Bg.s 			page 46


1104:.\Generated_Source\PSoC5/LED_Strip.c **** * Parameters:
1105:.\Generated_Source\PSoC5/LED_Strip.c **** *  None.
1106:.\Generated_Source\PSoC5/LED_Strip.c **** *
1107:.\Generated_Source\PSoC5/LED_Strip.c **** * Return:
1108:.\Generated_Source\PSoC5/LED_Strip.c **** *  Contents of the status register.
1109:.\Generated_Source\PSoC5/LED_Strip.c **** *
1110:.\Generated_Source\PSoC5/LED_Strip.c **** * Global variables:
1111:.\Generated_Source\PSoC5/LED_Strip.c **** *  LED_Strip_swStatus - used to store in software status register,
1112:.\Generated_Source\PSoC5/LED_Strip.c **** *  modified every function call - resets to zero.
1113:.\Generated_Source\PSoC5/LED_Strip.c **** *
1114:.\Generated_Source\PSoC5/LED_Strip.c **** * Theory:
1115:.\Generated_Source\PSoC5/LED_Strip.c **** *  Allows the user and the API to read the status register for error detection
1116:.\Generated_Source\PSoC5/LED_Strip.c **** *  and flow control.
1117:.\Generated_Source\PSoC5/LED_Strip.c **** *
1118:.\Generated_Source\PSoC5/LED_Strip.c **** * Side Effects:
1119:.\Generated_Source\PSoC5/LED_Strip.c **** *  Clear status register of the component.
1120:.\Generated_Source\PSoC5/LED_Strip.c **** *
1121:.\Generated_Source\PSoC5/LED_Strip.c **** * Reentrant:
1122:.\Generated_Source\PSoC5/LED_Strip.c **** *  No.
1123:.\Generated_Source\PSoC5/LED_Strip.c **** *
1124:.\Generated_Source\PSoC5/LED_Strip.c **** *******************************************************************************/
1125:.\Generated_Source\PSoC5/LED_Strip.c **** uint8 LED_Strip_ReadStatus(void) 
1126:.\Generated_Source\PSoC5/LED_Strip.c **** {
 1459              		.loc 1 1126 0
 1460              		.cfi_startproc
 1461              		@ args = 0, pretend = 0, frame = 8
 1462              		@ frame_needed = 1, uses_anonymous_args = 0
 1463 0000 80B5     		push	{r7, lr}
 1464              		.cfi_def_cfa_offset 8
 1465              		.cfi_offset 7, -8
 1466              		.cfi_offset 14, -4
 1467 0002 82B0     		sub	sp, sp, #8
 1468              		.cfi_def_cfa_offset 16
 1469 0004 00AF     		add	r7, sp, #0
 1470              		.cfi_def_cfa_register 7
1127:.\Generated_Source\PSoC5/LED_Strip.c ****     uint8 tmpStatus;
1128:.\Generated_Source\PSoC5/LED_Strip.c **** 
1129:.\Generated_Source\PSoC5/LED_Strip.c ****     #if(LED_Strip_TX_SOFTWARE_BUF_ENABLED || LED_Strip_RX_SOFTWARE_BUF_ENABLED)
1130:.\Generated_Source\PSoC5/LED_Strip.c **** 
1131:.\Generated_Source\PSoC5/LED_Strip.c ****         LED_Strip_DisableInt();
 1471              		.loc 1 1131 0
 1472 0006 FFF7FEFF 		bl	LED_Strip_DisableInt
1132:.\Generated_Source\PSoC5/LED_Strip.c **** 
1133:.\Generated_Source\PSoC5/LED_Strip.c ****         tmpStatus  = LED_Strip_GET_STATUS_RX(LED_Strip_swStatusRx);
 1473              		.loc 1 1133 0
 1474 000a 154B     		ldr	r3, .L95
 1475 000c 1B78     		ldrb	r3, [r3]
 1476 000e DAB2     		uxtb	r2, r3
 1477 0010 144B     		ldr	r3, .L95+4
 1478 0012 1B78     		ldrb	r3, [r3]
 1479 0014 DBB2     		uxtb	r3, r3
 1480 0016 03F04003 		and	r3, r3, #64
 1481 001a DBB2     		uxtb	r3, r3
 1482 001c 1343     		orrs	r3, r3, r2
 1483 001e FB71     		strb	r3, [r7, #7]
1134:.\Generated_Source\PSoC5/LED_Strip.c ****         tmpStatus |= LED_Strip_GET_STATUS_TX(LED_Strip_swStatusTx);
 1484              		.loc 1 1134 0
ARM GAS  C:\Users\khjtony\AppData\Local\Temp\cc4iX0Bg.s 			page 47


 1485 0020 114B     		ldr	r3, .L95+8
 1486 0022 1B78     		ldrb	r3, [r3]
 1487 0024 DAB2     		uxtb	r2, r3
 1488 0026 114B     		ldr	r3, .L95+12
 1489 0028 1B78     		ldrb	r3, [r3]
 1490 002a DBB2     		uxtb	r3, r3
 1491 002c 03F00903 		and	r3, r3, #9
 1492 0030 DBB2     		uxtb	r3, r3
 1493 0032 1343     		orrs	r3, r3, r2
 1494 0034 DAB2     		uxtb	r2, r3
 1495 0036 FB79     		ldrb	r3, [r7, #7]
 1496 0038 1343     		orrs	r3, r3, r2
 1497 003a FB71     		strb	r3, [r7, #7]
1135:.\Generated_Source\PSoC5/LED_Strip.c ****         tmpStatus &= ((uint8) ~LED_Strip_STS_SPI_IDLE);
 1498              		.loc 1 1135 0
 1499 003c FB79     		ldrb	r3, [r7, #7]
 1500 003e 23F01003 		bic	r3, r3, #16
 1501 0042 FB71     		strb	r3, [r7, #7]
1136:.\Generated_Source\PSoC5/LED_Strip.c **** 
1137:.\Generated_Source\PSoC5/LED_Strip.c ****         LED_Strip_swStatusTx = 0u;
 1502              		.loc 1 1137 0
 1503 0044 094B     		ldr	r3, .L95+12
 1504 0046 0022     		movs	r2, #0
 1505 0048 1A70     		strb	r2, [r3]
1138:.\Generated_Source\PSoC5/LED_Strip.c ****         LED_Strip_swStatusRx = 0u;
 1506              		.loc 1 1138 0
 1507 004a 064B     		ldr	r3, .L95+4
 1508 004c 0022     		movs	r2, #0
 1509 004e 1A70     		strb	r2, [r3]
1139:.\Generated_Source\PSoC5/LED_Strip.c **** 
1140:.\Generated_Source\PSoC5/LED_Strip.c ****         LED_Strip_EnableInt();
 1510              		.loc 1 1140 0
 1511 0050 FFF7FEFF 		bl	LED_Strip_EnableInt
1141:.\Generated_Source\PSoC5/LED_Strip.c **** 
1142:.\Generated_Source\PSoC5/LED_Strip.c ****     #else
1143:.\Generated_Source\PSoC5/LED_Strip.c **** 
1144:.\Generated_Source\PSoC5/LED_Strip.c ****         tmpStatus  = LED_Strip_RX_STATUS_REG;
1145:.\Generated_Source\PSoC5/LED_Strip.c ****         tmpStatus |= LED_Strip_TX_STATUS_REG;
1146:.\Generated_Source\PSoC5/LED_Strip.c ****         tmpStatus &= ((uint8) ~LED_Strip_STS_SPI_IDLE);
1147:.\Generated_Source\PSoC5/LED_Strip.c **** 
1148:.\Generated_Source\PSoC5/LED_Strip.c ****     #endif /* (LED_Strip_TX_SOFTWARE_BUF_ENABLED || LED_Strip_RX_SOFTWARE_BUF_ENABLED) */
1149:.\Generated_Source\PSoC5/LED_Strip.c **** 
1150:.\Generated_Source\PSoC5/LED_Strip.c ****     return(tmpStatus);
 1512              		.loc 1 1150 0
 1513 0054 FB79     		ldrb	r3, [r7, #7]	@ zero_extendqisi2
1151:.\Generated_Source\PSoC5/LED_Strip.c **** }
 1514              		.loc 1 1151 0
 1515 0056 1846     		mov	r0, r3
 1516 0058 0837     		adds	r7, r7, #8
 1517 005a BD46     		mov	sp, r7
 1518              		@ sp needed
 1519 005c 80BD     		pop	{r7, pc}
 1520              	.L96:
 1521 005e 00BF     		.align	2
 1522              	.L95:
 1523 0060 60640040 		.word	1073767520
 1524 0064 00000000 		.word	LED_Strip_swStatusRx
ARM GAS  C:\Users\khjtony\AppData\Local\Temp\cc4iX0Bg.s 			page 48


 1525 0068 64640040 		.word	1073767524
 1526 006c 00000000 		.word	LED_Strip_swStatusTx
 1527              		.cfi_endproc
 1528              	.LFE23:
 1529              		.size	LED_Strip_ReadStatus, .-LED_Strip_ReadStatus
 1530              		.text
 1531              	.Letext0:
 1532              		.file 2 ".\\Generated_Source\\PSoC5\\cytypes.h"
 1533              		.section	.debug_info,"",%progbits
 1534              	.Ldebug_info0:
 1535 0000 C4040000 		.4byte	0x4c4
 1536 0004 0400     		.2byte	0x4
 1537 0006 00000000 		.4byte	.Ldebug_abbrev0
 1538 000a 04       		.byte	0x4
 1539 000b 01       		.uleb128 0x1
 1540 000c E8010000 		.4byte	.LASF63
 1541 0010 01       		.byte	0x1
 1542 0011 8D030000 		.4byte	.LASF64
 1543 0015 28030000 		.4byte	.LASF65
 1544 0019 00000000 		.4byte	.Ldebug_ranges0+0
 1545 001d 00000000 		.4byte	0
 1546 0021 00000000 		.4byte	.Ldebug_line0
 1547 0025 02       		.uleb128 0x2
 1548 0026 01       		.byte	0x1
 1549 0027 06       		.byte	0x6
 1550 0028 5A000000 		.4byte	.LASF0
 1551 002c 02       		.uleb128 0x2
 1552 002d 01       		.byte	0x1
 1553 002e 08       		.byte	0x8
 1554 002f DC020000 		.4byte	.LASF1
 1555 0033 02       		.uleb128 0x2
 1556 0034 02       		.byte	0x2
 1557 0035 05       		.byte	0x5
 1558 0036 EA020000 		.4byte	.LASF2
 1559 003a 02       		.uleb128 0x2
 1560 003b 02       		.byte	0x2
 1561 003c 07       		.byte	0x7
 1562 003d 7B010000 		.4byte	.LASF3
 1563 0041 02       		.uleb128 0x2
 1564 0042 04       		.byte	0x4
 1565 0043 05       		.byte	0x5
 1566 0044 94000000 		.4byte	.LASF4
 1567 0048 02       		.uleb128 0x2
 1568 0049 04       		.byte	0x4
 1569 004a 07       		.byte	0x7
 1570 004b 64010000 		.4byte	.LASF5
 1571 004f 02       		.uleb128 0x2
 1572 0050 08       		.byte	0x8
 1573 0051 05       		.byte	0x5
 1574 0052 4C000000 		.4byte	.LASF6
 1575 0056 02       		.uleb128 0x2
 1576 0057 08       		.byte	0x8
 1577 0058 07       		.byte	0x7
 1578 0059 16000000 		.4byte	.LASF7
 1579 005d 03       		.uleb128 0x3
 1580 005e 04       		.byte	0x4
 1581 005f 05       		.byte	0x5
ARM GAS  C:\Users\khjtony\AppData\Local\Temp\cc4iX0Bg.s 			page 49


 1582 0060 696E7400 		.ascii	"int\000"
 1583 0064 02       		.uleb128 0x2
 1584 0065 04       		.byte	0x4
 1585 0066 07       		.byte	0x7
 1586 0067 48010000 		.4byte	.LASF8
 1587 006b 04       		.uleb128 0x4
 1588 006c C5000000 		.4byte	.LASF9
 1589 0070 02       		.byte	0x2
 1590 0071 A1       		.byte	0xa1
 1591 0072 2C000000 		.4byte	0x2c
 1592 0076 04       		.uleb128 0x4
 1593 0077 06010000 		.4byte	.LASF10
 1594 007b 02       		.byte	0x2
 1595 007c A3       		.byte	0xa3
 1596 007d 48000000 		.4byte	0x48
 1597 0081 02       		.uleb128 0x2
 1598 0082 04       		.byte	0x4
 1599 0083 04       		.byte	0x4
 1600 0084 B6020000 		.4byte	.LASF11
 1601 0088 02       		.uleb128 0x2
 1602 0089 08       		.byte	0x8
 1603 008a 04       		.byte	0x4
 1604 008b E8000000 		.4byte	.LASF12
 1605 008f 02       		.uleb128 0x2
 1606 0090 01       		.byte	0x1
 1607 0091 08       		.byte	0x8
 1608 0092 DC030000 		.4byte	.LASF13
 1609 0096 05       		.uleb128 0x5
 1610 0097 BC020000 		.4byte	.LASF14
 1611 009b 02       		.byte	0x2
 1612 009c 4B01     		.2byte	0x14b
 1613 009e A2000000 		.4byte	0xa2
 1614 00a2 06       		.uleb128 0x6
 1615 00a3 6B000000 		.4byte	0x6b
 1616 00a7 05       		.uleb128 0x5
 1617 00a8 C8010000 		.4byte	.LASF15
 1618 00ac 02       		.byte	0x2
 1619 00ad 4D01     		.2byte	0x14d
 1620 00af B3000000 		.4byte	0xb3
 1621 00b3 06       		.uleb128 0x6
 1622 00b4 76000000 		.4byte	0x76
 1623 00b8 02       		.uleb128 0x2
 1624 00b9 04       		.byte	0x4
 1625 00ba 07       		.byte	0x7
 1626 00bb DF010000 		.4byte	.LASF16
 1627 00bf 07       		.uleb128 0x7
 1628 00c0 7E030000 		.4byte	.LASF17
 1629 00c4 01       		.byte	0x1
 1630 00c5 3F       		.byte	0x3f
 1631 00c6 00000000 		.4byte	.LFB0
 1632 00ca A4000000 		.4byte	.LFE0-.LFB0
 1633 00ce 01       		.uleb128 0x1
 1634 00cf 9C       		.byte	0x9c
 1635 00d0 08       		.uleb128 0x8
 1636 00d1 CE010000 		.4byte	.LASF19
 1637 00d5 01       		.byte	0x1
 1638 00d6 78       		.byte	0x78
ARM GAS  C:\Users\khjtony\AppData\Local\Temp\cc4iX0Bg.s 			page 50


 1639 00d7 00000000 		.4byte	.LFB1
 1640 00db 64000000 		.4byte	.LFE1-.LFB1
 1641 00df 01       		.uleb128 0x1
 1642 00e0 9C       		.byte	0x9c
 1643 00e1 F4000000 		.4byte	0xf4
 1644 00e5 09       		.uleb128 0x9
 1645 00e6 43040000 		.4byte	.LASF21
 1646 00ea 01       		.byte	0x1
 1647 00eb 7A       		.byte	0x7a
 1648 00ec 6B000000 		.4byte	0x6b
 1649 00f0 02       		.uleb128 0x2
 1650 00f1 91       		.byte	0x91
 1651 00f2 77       		.sleb128 -9
 1652 00f3 00       		.byte	0
 1653 00f4 07       		.uleb128 0x7
 1654 00f5 23010000 		.4byte	.LASF18
 1655 00f9 01       		.byte	0x1
 1656 00fa A3       		.byte	0xa3
 1657 00fb 00000000 		.4byte	.LFB2
 1658 00ff 20000000 		.4byte	.LFE2-.LFB2
 1659 0103 01       		.uleb128 0x1
 1660 0104 9C       		.byte	0x9c
 1661 0105 08       		.uleb128 0x8
 1662 0106 55010000 		.4byte	.LASF20
 1663 010a 01       		.byte	0x1
 1664 010b C0       		.byte	0xc0
 1665 010c 00000000 		.4byte	.LFB3
 1666 0110 50000000 		.4byte	.LFE3-.LFB3
 1667 0114 01       		.uleb128 0x1
 1668 0115 9C       		.byte	0x9c
 1669 0116 29010000 		.4byte	0x129
 1670 011a 09       		.uleb128 0x9
 1671 011b 43040000 		.4byte	.LASF21
 1672 011f 01       		.byte	0x1
 1673 0120 C2       		.byte	0xc2
 1674 0121 6B000000 		.4byte	0x6b
 1675 0125 02       		.uleb128 0x2
 1676 0126 91       		.byte	0x91
 1677 0127 77       		.sleb128 -9
 1678 0128 00       		.byte	0
 1679 0129 0A       		.uleb128 0xa
 1680 012a 64020000 		.4byte	.LASF22
 1681 012e 01       		.byte	0x1
 1682 012f E3       		.byte	0xe3
 1683 0130 00000000 		.4byte	.LFB4
 1684 0134 18000000 		.4byte	.LFE4-.LFB4
 1685 0138 01       		.uleb128 0x1
 1686 0139 9C       		.byte	0x9c
 1687 013a 0A       		.uleb128 0xa
 1688 013b 0D010000 		.4byte	.LASF23
 1689 013f 01       		.byte	0x1
 1690 0140 FC       		.byte	0xfc
 1691 0141 00000000 		.4byte	.LFB5
 1692 0145 18000000 		.4byte	.LFE5-.LFB5
 1693 0149 01       		.uleb128 0x1
 1694 014a 9C       		.byte	0x9c
 1695 014b 0B       		.uleb128 0xb
ARM GAS  C:\Users\khjtony\AppData\Local\Temp\cc4iX0Bg.s 			page 51


 1696 014c E0040000 		.4byte	.LASF24
 1697 0150 01       		.byte	0x1
 1698 0151 1501     		.2byte	0x115
 1699 0153 00000000 		.4byte	.LFB6
 1700 0157 18000000 		.4byte	.LFE6-.LFB6
 1701 015b 01       		.uleb128 0x1
 1702 015c 9C       		.byte	0x9c
 1703 015d 0B       		.uleb128 0xb
 1704 015e B2030000 		.4byte	.LASF25
 1705 0162 01       		.byte	0x1
 1706 0163 2E01     		.2byte	0x12e
 1707 0165 00000000 		.4byte	.LFB7
 1708 0169 18000000 		.4byte	.LFE7-.LFB7
 1709 016d 01       		.uleb128 0x1
 1710 016e 9C       		.byte	0x9c
 1711 016f 0C       		.uleb128 0xc
 1712 0170 CB000000 		.4byte	.LASF26
 1713 0174 01       		.byte	0x1
 1714 0175 4801     		.2byte	0x148
 1715 0177 00000000 		.4byte	.LFB8
 1716 017b 20000000 		.4byte	.LFE8-.LFB8
 1717 017f 01       		.uleb128 0x1
 1718 0180 9C       		.byte	0x9c
 1719 0181 95010000 		.4byte	0x195
 1720 0185 0D       		.uleb128 0xd
 1721 0186 AF010000 		.4byte	.LASF28
 1722 018a 01       		.byte	0x1
 1723 018b 4801     		.2byte	0x148
 1724 018d 6B000000 		.4byte	0x6b
 1725 0191 02       		.uleb128 0x2
 1726 0192 91       		.byte	0x91
 1727 0193 77       		.sleb128 -9
 1728 0194 00       		.byte	0
 1729 0195 0C       		.uleb128 0xc
 1730 0196 7D040000 		.4byte	.LASF27
 1731 019a 01       		.byte	0x1
 1732 019b 6001     		.2byte	0x160
 1733 019d 00000000 		.4byte	.LFB9
 1734 01a1 20000000 		.4byte	.LFE9-.LFB9
 1735 01a5 01       		.uleb128 0x1
 1736 01a6 9C       		.byte	0x9c
 1737 01a7 BB010000 		.4byte	0x1bb
 1738 01ab 0D       		.uleb128 0xd
 1739 01ac AF010000 		.4byte	.LASF28
 1740 01b0 01       		.byte	0x1
 1741 01b1 6001     		.2byte	0x160
 1742 01b3 6B000000 		.4byte	0x6b
 1743 01b7 02       		.uleb128 0x2
 1744 01b8 91       		.byte	0x91
 1745 01b9 77       		.sleb128 -9
 1746 01ba 00       		.byte	0
 1747 01bb 0E       		.uleb128 0xe
 1748 01bc C9040000 		.4byte	.LASF30
 1749 01c0 01       		.byte	0x1
 1750 01c1 8201     		.2byte	0x182
 1751 01c3 6B000000 		.4byte	0x6b
 1752 01c7 00000000 		.4byte	.LFB10
ARM GAS  C:\Users\khjtony\AppData\Local\Temp\cc4iX0Bg.s 			page 52


 1753 01cb 3C000000 		.4byte	.LFE10-.LFB10
 1754 01cf 01       		.uleb128 0x1
 1755 01d0 9C       		.byte	0x9c
 1756 01d1 E5010000 		.4byte	0x1e5
 1757 01d5 0F       		.uleb128 0xf
 1758 01d6 2D000000 		.4byte	.LASF29
 1759 01da 01       		.byte	0x1
 1760 01db 8401     		.2byte	0x184
 1761 01dd 6B000000 		.4byte	0x6b
 1762 01e1 02       		.uleb128 0x2
 1763 01e2 91       		.byte	0x91
 1764 01e3 77       		.sleb128 -9
 1765 01e4 00       		.byte	0
 1766 01e5 0E       		.uleb128 0xe
 1767 01e6 7D000000 		.4byte	.LASF31
 1768 01ea 01       		.byte	0x1
 1769 01eb B501     		.2byte	0x1b5
 1770 01ed 6B000000 		.4byte	0x6b
 1771 01f1 00000000 		.4byte	.LFB11
 1772 01f5 3C000000 		.4byte	.LFE11-.LFB11
 1773 01f9 01       		.uleb128 0x1
 1774 01fa 9C       		.byte	0x9c
 1775 01fb 0F020000 		.4byte	0x20f
 1776 01ff 0F       		.uleb128 0xf
 1777 0200 2D000000 		.4byte	.LASF29
 1778 0204 01       		.byte	0x1
 1779 0205 B701     		.2byte	0x1b7
 1780 0207 6B000000 		.4byte	0x6b
 1781 020b 02       		.uleb128 0x2
 1782 020c 91       		.byte	0x91
 1783 020d 77       		.sleb128 -9
 1784 020e 00       		.byte	0
 1785 020f 10       		.uleb128 0x10
 1786 0210 00000000 		.4byte	.LASF32
 1787 0214 01       		.byte	0x1
 1788 0215 EE01     		.2byte	0x1ee
 1789 0217 00000000 		.4byte	.LFB12
 1790 021b 0C010000 		.4byte	.LFE12-.LFB12
 1791 021f 01       		.uleb128 0x1
 1792 0220 9C       		.byte	0x9c
 1793 0221 53020000 		.4byte	0x253
 1794 0225 0D       		.uleb128 0xd
 1795 0226 AF040000 		.4byte	.LASF33
 1796 022a 01       		.byte	0x1
 1797 022b EE01     		.2byte	0x1ee
 1798 022d 6B000000 		.4byte	0x6b
 1799 0231 02       		.uleb128 0x2
 1800 0232 91       		.byte	0x91
 1801 0233 6F       		.sleb128 -17
 1802 0234 0F       		.uleb128 0xf
 1803 0235 7A020000 		.4byte	.LASF34
 1804 0239 01       		.byte	0x1
 1805 023a F201     		.2byte	0x1f2
 1806 023c 6B000000 		.4byte	0x6b
 1807 0240 02       		.uleb128 0x2
 1808 0241 91       		.byte	0x91
 1809 0242 76       		.sleb128 -10
ARM GAS  C:\Users\khjtony\AppData\Local\Temp\cc4iX0Bg.s 			page 53


 1810 0243 0F       		.uleb128 0xf
 1811 0244 9D000000 		.4byte	.LASF35
 1812 0248 01       		.byte	0x1
 1813 0249 F301     		.2byte	0x1f3
 1814 024b 6B000000 		.4byte	0x6b
 1815 024f 02       		.uleb128 0x2
 1816 0250 91       		.byte	0x91
 1817 0251 77       		.sleb128 -9
 1818 0252 00       		.byte	0
 1819 0253 0E       		.uleb128 0xe
 1820 0254 14040000 		.4byte	.LASF36
 1821 0258 01       		.byte	0x1
 1822 0259 5A02     		.2byte	0x25a
 1823 025b 6B000000 		.4byte	0x6b
 1824 025f 00000000 		.4byte	.LFB13
 1825 0263 74000000 		.4byte	.LFE13-.LFB13
 1826 0267 01       		.uleb128 0x1
 1827 0268 9C       		.byte	0x9c
 1828 0269 7D020000 		.4byte	0x27d
 1829 026d 0F       		.uleb128 0xf
 1830 026e 77030000 		.4byte	.LASF37
 1831 0272 01       		.byte	0x1
 1832 0273 5C02     		.2byte	0x25c
 1833 0275 6B000000 		.4byte	0x6b
 1834 0279 02       		.uleb128 0x2
 1835 027a 91       		.byte	0x91
 1836 027b 77       		.sleb128 -9
 1837 027c 00       		.byte	0
 1838 027d 0E       		.uleb128 0xe
 1839 027e 29040000 		.4byte	.LASF38
 1840 0282 01       		.byte	0x1
 1841 0283 9A02     		.2byte	0x29a
 1842 0285 6B000000 		.4byte	0x6b
 1843 0289 00000000 		.4byte	.LFB14
 1844 028d 6C000000 		.4byte	.LFE14-.LFB14
 1845 0291 01       		.uleb128 0x1
 1846 0292 9C       		.byte	0x9c
 1847 0293 A7020000 		.4byte	0x2a7
 1848 0297 0F       		.uleb128 0xf
 1849 0298 76010000 		.4byte	.LASF39
 1850 029c 01       		.byte	0x1
 1851 029d 9C02     		.2byte	0x29c
 1852 029f 6B000000 		.4byte	0x6b
 1853 02a3 02       		.uleb128 0x2
 1854 02a4 91       		.byte	0x91
 1855 02a5 77       		.sleb128 -9
 1856 02a6 00       		.byte	0
 1857 02a7 0E       		.uleb128 0xe
 1858 02a8 9C020000 		.4byte	.LASF40
 1859 02ac 01       		.byte	0x1
 1860 02ad D702     		.2byte	0x2d7
 1861 02af 6B000000 		.4byte	0x6b
 1862 02b3 00000000 		.4byte	.LFB15
 1863 02b7 6C000000 		.4byte	.LFE15-.LFB15
 1864 02bb 01       		.uleb128 0x1
 1865 02bc 9C       		.byte	0x9c
 1866 02bd D1020000 		.4byte	0x2d1
ARM GAS  C:\Users\khjtony\AppData\Local\Temp\cc4iX0Bg.s 			page 54


 1867 02c1 0F       		.uleb128 0xf
 1868 02c2 76010000 		.4byte	.LASF39
 1869 02c6 01       		.byte	0x1
 1870 02c7 D902     		.2byte	0x2d9
 1871 02c9 6B000000 		.4byte	0x6b
 1872 02cd 02       		.uleb128 0x2
 1873 02ce 91       		.byte	0x91
 1874 02cf 77       		.sleb128 -9
 1875 02d0 00       		.byte	0
 1876 02d1 11       		.uleb128 0x11
 1877 02d2 8E010000 		.4byte	.LASF41
 1878 02d6 01       		.byte	0x1
 1879 02d7 2603     		.2byte	0x326
 1880 02d9 00000000 		.4byte	.LFB16
 1881 02dd 48000000 		.4byte	.LFE16-.LFB16
 1882 02e1 01       		.uleb128 0x1
 1883 02e2 9C       		.byte	0x9c
 1884 02e3 10       		.uleb128 0x10
 1885 02e4 FC030000 		.4byte	.LASF42
 1886 02e8 01       		.byte	0x1
 1887 02e9 5D03     		.2byte	0x35d
 1888 02eb 00000000 		.4byte	.LFB17
 1889 02ef 7C000000 		.4byte	.LFE17-.LFB17
 1890 02f3 01       		.uleb128 0x1
 1891 02f4 9C       		.byte	0x9c
 1892 02f5 09030000 		.4byte	0x309
 1893 02f9 0F       		.uleb128 0xf
 1894 02fa 43040000 		.4byte	.LASF21
 1895 02fe 01       		.byte	0x1
 1896 02ff 5F03     		.2byte	0x35f
 1897 0301 6B000000 		.4byte	0x6b
 1898 0305 02       		.uleb128 0x2
 1899 0306 91       		.byte	0x91
 1900 0307 77       		.sleb128 -9
 1901 0308 00       		.byte	0
 1902 0309 10       		.uleb128 0x10
 1903 030a C9030000 		.4byte	.LASF43
 1904 030e 01       		.byte	0x1
 1905 030f C203     		.2byte	0x3c2
 1906 0311 00000000 		.4byte	.LFB18
 1907 0315 38000000 		.4byte	.LFE18-.LFB18
 1908 0319 01       		.uleb128 0x1
 1909 031a 9C       		.byte	0x9c
 1910 031b 4D030000 		.4byte	0x34d
 1911 031f 0D       		.uleb128 0xd
 1912 0320 F5030000 		.4byte	.LASF44
 1913 0324 01       		.byte	0x1
 1914 0325 C203     		.2byte	0x3c2
 1915 0327 4D030000 		.4byte	0x34d
 1916 032b 02       		.uleb128 0x2
 1917 032c 91       		.byte	0x91
 1918 032d 6C       		.sleb128 -20
 1919 032e 0D       		.uleb128 0xd
 1920 032f 1E030000 		.4byte	.LASF45
 1921 0333 01       		.byte	0x1
 1922 0334 C203     		.2byte	0x3c2
 1923 0336 6B000000 		.4byte	0x6b
ARM GAS  C:\Users\khjtony\AppData\Local\Temp\cc4iX0Bg.s 			page 55


 1924 033a 02       		.uleb128 0x2
 1925 033b 91       		.byte	0x91
 1926 033c 6B       		.sleb128 -21
 1927 033d 0F       		.uleb128 0xf
 1928 033e A6010000 		.4byte	.LASF46
 1929 0342 01       		.byte	0x1
 1930 0343 C503     		.2byte	0x3c5
 1931 0345 6B000000 		.4byte	0x6b
 1932 0349 02       		.uleb128 0x2
 1933 034a 91       		.byte	0x91
 1934 034b 77       		.sleb128 -9
 1935 034c 00       		.byte	0
 1936 034d 12       		.uleb128 0x12
 1937 034e 04       		.byte	0x4
 1938 034f 53030000 		.4byte	0x353
 1939 0353 13       		.uleb128 0x13
 1940 0354 6B000000 		.4byte	0x6b
 1941 0358 10       		.uleb128 0x10
 1942 0359 54040000 		.4byte	.LASF47
 1943 035d 01       		.byte	0x1
 1944 035e E303     		.2byte	0x3e3
 1945 0360 00000000 		.4byte	.LFB19
 1946 0364 5C000000 		.4byte	.LFE19-.LFB19
 1947 0368 01       		.uleb128 0x1
 1948 0369 9C       		.byte	0x9c
 1949 036a 7E030000 		.4byte	0x37e
 1950 036e 0F       		.uleb128 0xf
 1951 036f 43040000 		.4byte	.LASF21
 1952 0373 01       		.byte	0x1
 1953 0374 E503     		.2byte	0x3e5
 1954 0376 6B000000 		.4byte	0x6b
 1955 037a 02       		.uleb128 0x2
 1956 037b 91       		.byte	0x91
 1957 037c 77       		.sleb128 -9
 1958 037d 00       		.byte	0
 1959 037e 11       		.uleb128 0x11
 1960 037f E1030000 		.4byte	.LASF48
 1961 0383 01       		.byte	0x1
 1962 0384 1104     		.2byte	0x411
 1963 0386 00000000 		.4byte	.LFB20
 1964 038a 0E000000 		.4byte	.LFE20-.LFB20
 1965 038e 01       		.uleb128 0x1
 1966 038f 9C       		.byte	0x9c
 1967 0390 11       		.uleb128 0x11
 1968 0391 37000000 		.4byte	.LASF49
 1969 0395 01       		.byte	0x1
 1970 0396 2904     		.2byte	0x429
 1971 0398 00000000 		.4byte	.LFB21
 1972 039c 0E000000 		.4byte	.LFE21-.LFB21
 1973 03a0 01       		.uleb128 0x1
 1974 03a1 9C       		.byte	0x9c
 1975 03a2 0C       		.uleb128 0xc
 1976 03a3 C1020000 		.4byte	.LASF50
 1977 03a7 01       		.byte	0x1
 1978 03a8 4204     		.2byte	0x442
 1979 03aa 00000000 		.4byte	.LFB22
 1980 03ae 30000000 		.4byte	.LFE22-.LFB22
ARM GAS  C:\Users\khjtony\AppData\Local\Temp\cc4iX0Bg.s 			page 56


 1981 03b2 01       		.uleb128 0x1
 1982 03b3 9C       		.byte	0x9c
 1983 03b4 C8030000 		.4byte	0x3c8
 1984 03b8 0D       		.uleb128 0xd
 1985 03b9 AF010000 		.4byte	.LASF28
 1986 03bd 01       		.byte	0x1
 1987 03be 4204     		.2byte	0x442
 1988 03c0 6B000000 		.4byte	0x6b
 1989 03c4 02       		.uleb128 0x2
 1990 03c5 91       		.byte	0x91
 1991 03c6 77       		.sleb128 -9
 1992 03c7 00       		.byte	0
 1993 03c8 0E       		.uleb128 0xe
 1994 03c9 9A040000 		.4byte	.LASF51
 1995 03cd 01       		.byte	0x1
 1996 03ce 6504     		.2byte	0x465
 1997 03d0 6B000000 		.4byte	0x6b
 1998 03d4 00000000 		.4byte	.LFB23
 1999 03d8 70000000 		.4byte	.LFE23-.LFB23
 2000 03dc 01       		.uleb128 0x1
 2001 03dd 9C       		.byte	0x9c
 2002 03de F2030000 		.4byte	0x3f2
 2003 03e2 0F       		.uleb128 0xf
 2004 03e3 2D000000 		.4byte	.LASF29
 2005 03e7 01       		.byte	0x1
 2006 03e8 6704     		.2byte	0x467
 2007 03ea 6B000000 		.4byte	0x6b
 2008 03ee 02       		.uleb128 0x2
 2009 03ef 91       		.byte	0x91
 2010 03f0 77       		.sleb128 -9
 2011 03f1 00       		.byte	0
 2012 03f2 14       		.uleb128 0x14
 2013 03f3 B6010000 		.4byte	.LASF52
 2014 03f7 01       		.byte	0x1
 2015 03f8 22       		.byte	0x22
 2016 03f9 6B000000 		.4byte	0x6b
 2017 03fd 05       		.uleb128 0x5
 2018 03fe 03       		.byte	0x3
 2019 03ff 00000000 		.4byte	LED_Strip_initVar
 2020 0403 14       		.uleb128 0x14
 2021 0404 68040000 		.4byte	.LASF53
 2022 0408 01       		.byte	0x1
 2023 0409 24       		.byte	0x24
 2024 040a A2000000 		.4byte	0xa2
 2025 040e 05       		.uleb128 0x5
 2026 040f 03       		.byte	0x3
 2027 0410 00000000 		.4byte	LED_Strip_swStatusTx
 2028 0414 14       		.uleb128 0x14
 2029 0415 33010000 		.4byte	.LASF54
 2030 0419 01       		.byte	0x1
 2031 041a 25       		.byte	0x25
 2032 041b A2000000 		.4byte	0xa2
 2033 041f 05       		.uleb128 0x5
 2034 0420 03       		.byte	0x3
 2035 0421 00000000 		.4byte	LED_Strip_swStatusRx
 2036 0425 15       		.uleb128 0x15
 2037 0426 6B000000 		.4byte	0x6b
ARM GAS  C:\Users\khjtony\AppData\Local\Temp\cc4iX0Bg.s 			page 57


 2038 042a 35040000 		.4byte	0x435
 2039 042e 16       		.uleb128 0x16
 2040 042f B8000000 		.4byte	0xb8
 2041 0433 3F       		.byte	0x3f
 2042 0434 00       		.byte	0
 2043 0435 14       		.uleb128 0x14
 2044 0436 F4020000 		.4byte	.LASF55
 2045 043a 01       		.byte	0x1
 2046 043b 15       		.byte	0x15
 2047 043c 46040000 		.4byte	0x446
 2048 0440 05       		.uleb128 0x5
 2049 0441 03       		.byte	0x3
 2050 0442 00000000 		.4byte	LED_Strip_txBuffer
 2051 0446 06       		.uleb128 0x6
 2052 0447 25040000 		.4byte	0x425
 2053 044b 14       		.uleb128 0x14
 2054 044c 07030000 		.4byte	.LASF56
 2055 0450 01       		.byte	0x1
 2056 0451 17       		.byte	0x17
 2057 0452 A2000000 		.4byte	0xa2
 2058 0456 05       		.uleb128 0x5
 2059 0457 03       		.byte	0x3
 2060 0458 00000000 		.4byte	LED_Strip_txBufferRead
 2061 045c 14       		.uleb128 0x14
 2062 045d AD000000 		.4byte	.LASF57
 2063 0461 01       		.byte	0x1
 2064 0462 18       		.byte	0x18
 2065 0463 A2000000 		.4byte	0xa2
 2066 0467 05       		.uleb128 0x5
 2067 0468 03       		.byte	0x3
 2068 0469 00000000 		.4byte	LED_Strip_txBufferWrite
 2069 046d 14       		.uleb128 0x14
 2070 046e 85020000 		.4byte	.LASF58
 2071 0472 01       		.byte	0x1
 2072 0473 16       		.byte	0x16
 2073 0474 A2000000 		.4byte	0xa2
 2074 0478 05       		.uleb128 0x5
 2075 0479 03       		.byte	0x3
 2076 047a 00000000 		.4byte	LED_Strip_txBufferFull
 2077 047e 14       		.uleb128 0x14
 2078 047f B6040000 		.4byte	.LASF59
 2079 0483 01       		.byte	0x1
 2080 0484 1C       		.byte	0x1c
 2081 0485 8F040000 		.4byte	0x48f
 2082 0489 05       		.uleb128 0x5
 2083 048a 03       		.byte	0x3
 2084 048b 00000000 		.4byte	LED_Strip_rxBuffer
 2085 048f 06       		.uleb128 0x6
 2086 0490 25040000 		.4byte	0x425
 2087 0494 14       		.uleb128 0x14
 2088 0495 EF000000 		.4byte	.LASF60
 2089 0499 01       		.byte	0x1
 2090 049a 1E       		.byte	0x1e
 2091 049b A2000000 		.4byte	0xa2
 2092 049f 05       		.uleb128 0x5
 2093 04a0 03       		.byte	0x3
 2094 04a1 00000000 		.4byte	LED_Strip_rxBufferRead
ARM GAS  C:\Users\khjtony\AppData\Local\Temp\cc4iX0Bg.s 			page 58


 2095 04a5 14       		.uleb128 0x14
 2096 04a6 5F030000 		.4byte	.LASF61
 2097 04aa 01       		.byte	0x1
 2098 04ab 1F       		.byte	0x1f
 2099 04ac A2000000 		.4byte	0xa2
 2100 04b0 05       		.uleb128 0x5
 2101 04b1 03       		.byte	0x3
 2102 04b2 00000000 		.4byte	LED_Strip_rxBufferWrite
 2103 04b6 14       		.uleb128 0x14
 2104 04b7 66000000 		.4byte	.LASF62
 2105 04bb 01       		.byte	0x1
 2106 04bc 1D       		.byte	0x1d
 2107 04bd A2000000 		.4byte	0xa2
 2108 04c1 05       		.uleb128 0x5
 2109 04c2 03       		.byte	0x3
 2110 04c3 00000000 		.4byte	LED_Strip_rxBufferFull
 2111 04c7 00       		.byte	0
 2112              		.section	.debug_abbrev,"",%progbits
 2113              	.Ldebug_abbrev0:
 2114 0000 01       		.uleb128 0x1
 2115 0001 11       		.uleb128 0x11
 2116 0002 01       		.byte	0x1
 2117 0003 25       		.uleb128 0x25
 2118 0004 0E       		.uleb128 0xe
 2119 0005 13       		.uleb128 0x13
 2120 0006 0B       		.uleb128 0xb
 2121 0007 03       		.uleb128 0x3
 2122 0008 0E       		.uleb128 0xe
 2123 0009 1B       		.uleb128 0x1b
 2124 000a 0E       		.uleb128 0xe
 2125 000b 55       		.uleb128 0x55
 2126 000c 17       		.uleb128 0x17
 2127 000d 11       		.uleb128 0x11
 2128 000e 01       		.uleb128 0x1
 2129 000f 10       		.uleb128 0x10
 2130 0010 17       		.uleb128 0x17
 2131 0011 00       		.byte	0
 2132 0012 00       		.byte	0
 2133 0013 02       		.uleb128 0x2
 2134 0014 24       		.uleb128 0x24
 2135 0015 00       		.byte	0
 2136 0016 0B       		.uleb128 0xb
 2137 0017 0B       		.uleb128 0xb
 2138 0018 3E       		.uleb128 0x3e
 2139 0019 0B       		.uleb128 0xb
 2140 001a 03       		.uleb128 0x3
 2141 001b 0E       		.uleb128 0xe
 2142 001c 00       		.byte	0
 2143 001d 00       		.byte	0
 2144 001e 03       		.uleb128 0x3
 2145 001f 24       		.uleb128 0x24
 2146 0020 00       		.byte	0
 2147 0021 0B       		.uleb128 0xb
 2148 0022 0B       		.uleb128 0xb
 2149 0023 3E       		.uleb128 0x3e
 2150 0024 0B       		.uleb128 0xb
 2151 0025 03       		.uleb128 0x3
ARM GAS  C:\Users\khjtony\AppData\Local\Temp\cc4iX0Bg.s 			page 59


 2152 0026 08       		.uleb128 0x8
 2153 0027 00       		.byte	0
 2154 0028 00       		.byte	0
 2155 0029 04       		.uleb128 0x4
 2156 002a 16       		.uleb128 0x16
 2157 002b 00       		.byte	0
 2158 002c 03       		.uleb128 0x3
 2159 002d 0E       		.uleb128 0xe
 2160 002e 3A       		.uleb128 0x3a
 2161 002f 0B       		.uleb128 0xb
 2162 0030 3B       		.uleb128 0x3b
 2163 0031 0B       		.uleb128 0xb
 2164 0032 49       		.uleb128 0x49
 2165 0033 13       		.uleb128 0x13
 2166 0034 00       		.byte	0
 2167 0035 00       		.byte	0
 2168 0036 05       		.uleb128 0x5
 2169 0037 16       		.uleb128 0x16
 2170 0038 00       		.byte	0
 2171 0039 03       		.uleb128 0x3
 2172 003a 0E       		.uleb128 0xe
 2173 003b 3A       		.uleb128 0x3a
 2174 003c 0B       		.uleb128 0xb
 2175 003d 3B       		.uleb128 0x3b
 2176 003e 05       		.uleb128 0x5
 2177 003f 49       		.uleb128 0x49
 2178 0040 13       		.uleb128 0x13
 2179 0041 00       		.byte	0
 2180 0042 00       		.byte	0
 2181 0043 06       		.uleb128 0x6
 2182 0044 35       		.uleb128 0x35
 2183 0045 00       		.byte	0
 2184 0046 49       		.uleb128 0x49
 2185 0047 13       		.uleb128 0x13
 2186 0048 00       		.byte	0
 2187 0049 00       		.byte	0
 2188 004a 07       		.uleb128 0x7
 2189 004b 2E       		.uleb128 0x2e
 2190 004c 00       		.byte	0
 2191 004d 3F       		.uleb128 0x3f
 2192 004e 19       		.uleb128 0x19
 2193 004f 03       		.uleb128 0x3
 2194 0050 0E       		.uleb128 0xe
 2195 0051 3A       		.uleb128 0x3a
 2196 0052 0B       		.uleb128 0xb
 2197 0053 3B       		.uleb128 0x3b
 2198 0054 0B       		.uleb128 0xb
 2199 0055 27       		.uleb128 0x27
 2200 0056 19       		.uleb128 0x19
 2201 0057 11       		.uleb128 0x11
 2202 0058 01       		.uleb128 0x1
 2203 0059 12       		.uleb128 0x12
 2204 005a 06       		.uleb128 0x6
 2205 005b 40       		.uleb128 0x40
 2206 005c 18       		.uleb128 0x18
 2207 005d 9642     		.uleb128 0x2116
 2208 005f 19       		.uleb128 0x19
ARM GAS  C:\Users\khjtony\AppData\Local\Temp\cc4iX0Bg.s 			page 60


 2209 0060 00       		.byte	0
 2210 0061 00       		.byte	0
 2211 0062 08       		.uleb128 0x8
 2212 0063 2E       		.uleb128 0x2e
 2213 0064 01       		.byte	0x1
 2214 0065 3F       		.uleb128 0x3f
 2215 0066 19       		.uleb128 0x19
 2216 0067 03       		.uleb128 0x3
 2217 0068 0E       		.uleb128 0xe
 2218 0069 3A       		.uleb128 0x3a
 2219 006a 0B       		.uleb128 0xb
 2220 006b 3B       		.uleb128 0x3b
 2221 006c 0B       		.uleb128 0xb
 2222 006d 27       		.uleb128 0x27
 2223 006e 19       		.uleb128 0x19
 2224 006f 11       		.uleb128 0x11
 2225 0070 01       		.uleb128 0x1
 2226 0071 12       		.uleb128 0x12
 2227 0072 06       		.uleb128 0x6
 2228 0073 40       		.uleb128 0x40
 2229 0074 18       		.uleb128 0x18
 2230 0075 9642     		.uleb128 0x2116
 2231 0077 19       		.uleb128 0x19
 2232 0078 01       		.uleb128 0x1
 2233 0079 13       		.uleb128 0x13
 2234 007a 00       		.byte	0
 2235 007b 00       		.byte	0
 2236 007c 09       		.uleb128 0x9
 2237 007d 34       		.uleb128 0x34
 2238 007e 00       		.byte	0
 2239 007f 03       		.uleb128 0x3
 2240 0080 0E       		.uleb128 0xe
 2241 0081 3A       		.uleb128 0x3a
 2242 0082 0B       		.uleb128 0xb
 2243 0083 3B       		.uleb128 0x3b
 2244 0084 0B       		.uleb128 0xb
 2245 0085 49       		.uleb128 0x49
 2246 0086 13       		.uleb128 0x13
 2247 0087 02       		.uleb128 0x2
 2248 0088 18       		.uleb128 0x18
 2249 0089 00       		.byte	0
 2250 008a 00       		.byte	0
 2251 008b 0A       		.uleb128 0xa
 2252 008c 2E       		.uleb128 0x2e
 2253 008d 00       		.byte	0
 2254 008e 3F       		.uleb128 0x3f
 2255 008f 19       		.uleb128 0x19
 2256 0090 03       		.uleb128 0x3
 2257 0091 0E       		.uleb128 0xe
 2258 0092 3A       		.uleb128 0x3a
 2259 0093 0B       		.uleb128 0xb
 2260 0094 3B       		.uleb128 0x3b
 2261 0095 0B       		.uleb128 0xb
 2262 0096 27       		.uleb128 0x27
 2263 0097 19       		.uleb128 0x19
 2264 0098 11       		.uleb128 0x11
 2265 0099 01       		.uleb128 0x1
ARM GAS  C:\Users\khjtony\AppData\Local\Temp\cc4iX0Bg.s 			page 61


 2266 009a 12       		.uleb128 0x12
 2267 009b 06       		.uleb128 0x6
 2268 009c 40       		.uleb128 0x40
 2269 009d 18       		.uleb128 0x18
 2270 009e 9742     		.uleb128 0x2117
 2271 00a0 19       		.uleb128 0x19
 2272 00a1 00       		.byte	0
 2273 00a2 00       		.byte	0
 2274 00a3 0B       		.uleb128 0xb
 2275 00a4 2E       		.uleb128 0x2e
 2276 00a5 00       		.byte	0
 2277 00a6 3F       		.uleb128 0x3f
 2278 00a7 19       		.uleb128 0x19
 2279 00a8 03       		.uleb128 0x3
 2280 00a9 0E       		.uleb128 0xe
 2281 00aa 3A       		.uleb128 0x3a
 2282 00ab 0B       		.uleb128 0xb
 2283 00ac 3B       		.uleb128 0x3b
 2284 00ad 05       		.uleb128 0x5
 2285 00ae 27       		.uleb128 0x27
 2286 00af 19       		.uleb128 0x19
 2287 00b0 11       		.uleb128 0x11
 2288 00b1 01       		.uleb128 0x1
 2289 00b2 12       		.uleb128 0x12
 2290 00b3 06       		.uleb128 0x6
 2291 00b4 40       		.uleb128 0x40
 2292 00b5 18       		.uleb128 0x18
 2293 00b6 9742     		.uleb128 0x2117
 2294 00b8 19       		.uleb128 0x19
 2295 00b9 00       		.byte	0
 2296 00ba 00       		.byte	0
 2297 00bb 0C       		.uleb128 0xc
 2298 00bc 2E       		.uleb128 0x2e
 2299 00bd 01       		.byte	0x1
 2300 00be 3F       		.uleb128 0x3f
 2301 00bf 19       		.uleb128 0x19
 2302 00c0 03       		.uleb128 0x3
 2303 00c1 0E       		.uleb128 0xe
 2304 00c2 3A       		.uleb128 0x3a
 2305 00c3 0B       		.uleb128 0xb
 2306 00c4 3B       		.uleb128 0x3b
 2307 00c5 05       		.uleb128 0x5
 2308 00c6 27       		.uleb128 0x27
 2309 00c7 19       		.uleb128 0x19
 2310 00c8 11       		.uleb128 0x11
 2311 00c9 01       		.uleb128 0x1
 2312 00ca 12       		.uleb128 0x12
 2313 00cb 06       		.uleb128 0x6
 2314 00cc 40       		.uleb128 0x40
 2315 00cd 18       		.uleb128 0x18
 2316 00ce 9742     		.uleb128 0x2117
 2317 00d0 19       		.uleb128 0x19
 2318 00d1 01       		.uleb128 0x1
 2319 00d2 13       		.uleb128 0x13
 2320 00d3 00       		.byte	0
 2321 00d4 00       		.byte	0
 2322 00d5 0D       		.uleb128 0xd
ARM GAS  C:\Users\khjtony\AppData\Local\Temp\cc4iX0Bg.s 			page 62


 2323 00d6 05       		.uleb128 0x5
 2324 00d7 00       		.byte	0
 2325 00d8 03       		.uleb128 0x3
 2326 00d9 0E       		.uleb128 0xe
 2327 00da 3A       		.uleb128 0x3a
 2328 00db 0B       		.uleb128 0xb
 2329 00dc 3B       		.uleb128 0x3b
 2330 00dd 05       		.uleb128 0x5
 2331 00de 49       		.uleb128 0x49
 2332 00df 13       		.uleb128 0x13
 2333 00e0 02       		.uleb128 0x2
 2334 00e1 18       		.uleb128 0x18
 2335 00e2 00       		.byte	0
 2336 00e3 00       		.byte	0
 2337 00e4 0E       		.uleb128 0xe
 2338 00e5 2E       		.uleb128 0x2e
 2339 00e6 01       		.byte	0x1
 2340 00e7 3F       		.uleb128 0x3f
 2341 00e8 19       		.uleb128 0x19
 2342 00e9 03       		.uleb128 0x3
 2343 00ea 0E       		.uleb128 0xe
 2344 00eb 3A       		.uleb128 0x3a
 2345 00ec 0B       		.uleb128 0xb
 2346 00ed 3B       		.uleb128 0x3b
 2347 00ee 05       		.uleb128 0x5
 2348 00ef 27       		.uleb128 0x27
 2349 00f0 19       		.uleb128 0x19
 2350 00f1 49       		.uleb128 0x49
 2351 00f2 13       		.uleb128 0x13
 2352 00f3 11       		.uleb128 0x11
 2353 00f4 01       		.uleb128 0x1
 2354 00f5 12       		.uleb128 0x12
 2355 00f6 06       		.uleb128 0x6
 2356 00f7 40       		.uleb128 0x40
 2357 00f8 18       		.uleb128 0x18
 2358 00f9 9642     		.uleb128 0x2116
 2359 00fb 19       		.uleb128 0x19
 2360 00fc 01       		.uleb128 0x1
 2361 00fd 13       		.uleb128 0x13
 2362 00fe 00       		.byte	0
 2363 00ff 00       		.byte	0
 2364 0100 0F       		.uleb128 0xf
 2365 0101 34       		.uleb128 0x34
 2366 0102 00       		.byte	0
 2367 0103 03       		.uleb128 0x3
 2368 0104 0E       		.uleb128 0xe
 2369 0105 3A       		.uleb128 0x3a
 2370 0106 0B       		.uleb128 0xb
 2371 0107 3B       		.uleb128 0x3b
 2372 0108 05       		.uleb128 0x5
 2373 0109 49       		.uleb128 0x49
 2374 010a 13       		.uleb128 0x13
 2375 010b 02       		.uleb128 0x2
 2376 010c 18       		.uleb128 0x18
 2377 010d 00       		.byte	0
 2378 010e 00       		.byte	0
 2379 010f 10       		.uleb128 0x10
ARM GAS  C:\Users\khjtony\AppData\Local\Temp\cc4iX0Bg.s 			page 63


 2380 0110 2E       		.uleb128 0x2e
 2381 0111 01       		.byte	0x1
 2382 0112 3F       		.uleb128 0x3f
 2383 0113 19       		.uleb128 0x19
 2384 0114 03       		.uleb128 0x3
 2385 0115 0E       		.uleb128 0xe
 2386 0116 3A       		.uleb128 0x3a
 2387 0117 0B       		.uleb128 0xb
 2388 0118 3B       		.uleb128 0x3b
 2389 0119 05       		.uleb128 0x5
 2390 011a 27       		.uleb128 0x27
 2391 011b 19       		.uleb128 0x19
 2392 011c 11       		.uleb128 0x11
 2393 011d 01       		.uleb128 0x1
 2394 011e 12       		.uleb128 0x12
 2395 011f 06       		.uleb128 0x6
 2396 0120 40       		.uleb128 0x40
 2397 0121 18       		.uleb128 0x18
 2398 0122 9642     		.uleb128 0x2116
 2399 0124 19       		.uleb128 0x19
 2400 0125 01       		.uleb128 0x1
 2401 0126 13       		.uleb128 0x13
 2402 0127 00       		.byte	0
 2403 0128 00       		.byte	0
 2404 0129 11       		.uleb128 0x11
 2405 012a 2E       		.uleb128 0x2e
 2406 012b 00       		.byte	0
 2407 012c 3F       		.uleb128 0x3f
 2408 012d 19       		.uleb128 0x19
 2409 012e 03       		.uleb128 0x3
 2410 012f 0E       		.uleb128 0xe
 2411 0130 3A       		.uleb128 0x3a
 2412 0131 0B       		.uleb128 0xb
 2413 0132 3B       		.uleb128 0x3b
 2414 0133 05       		.uleb128 0x5
 2415 0134 27       		.uleb128 0x27
 2416 0135 19       		.uleb128 0x19
 2417 0136 11       		.uleb128 0x11
 2418 0137 01       		.uleb128 0x1
 2419 0138 12       		.uleb128 0x12
 2420 0139 06       		.uleb128 0x6
 2421 013a 40       		.uleb128 0x40
 2422 013b 18       		.uleb128 0x18
 2423 013c 9642     		.uleb128 0x2116
 2424 013e 19       		.uleb128 0x19
 2425 013f 00       		.byte	0
 2426 0140 00       		.byte	0
 2427 0141 12       		.uleb128 0x12
 2428 0142 0F       		.uleb128 0xf
 2429 0143 00       		.byte	0
 2430 0144 0B       		.uleb128 0xb
 2431 0145 0B       		.uleb128 0xb
 2432 0146 49       		.uleb128 0x49
 2433 0147 13       		.uleb128 0x13
 2434 0148 00       		.byte	0
 2435 0149 00       		.byte	0
 2436 014a 13       		.uleb128 0x13
ARM GAS  C:\Users\khjtony\AppData\Local\Temp\cc4iX0Bg.s 			page 64


 2437 014b 26       		.uleb128 0x26
 2438 014c 00       		.byte	0
 2439 014d 49       		.uleb128 0x49
 2440 014e 13       		.uleb128 0x13
 2441 014f 00       		.byte	0
 2442 0150 00       		.byte	0
 2443 0151 14       		.uleb128 0x14
 2444 0152 34       		.uleb128 0x34
 2445 0153 00       		.byte	0
 2446 0154 03       		.uleb128 0x3
 2447 0155 0E       		.uleb128 0xe
 2448 0156 3A       		.uleb128 0x3a
 2449 0157 0B       		.uleb128 0xb
 2450 0158 3B       		.uleb128 0x3b
 2451 0159 0B       		.uleb128 0xb
 2452 015a 49       		.uleb128 0x49
 2453 015b 13       		.uleb128 0x13
 2454 015c 3F       		.uleb128 0x3f
 2455 015d 19       		.uleb128 0x19
 2456 015e 02       		.uleb128 0x2
 2457 015f 18       		.uleb128 0x18
 2458 0160 00       		.byte	0
 2459 0161 00       		.byte	0
 2460 0162 15       		.uleb128 0x15
 2461 0163 01       		.uleb128 0x1
 2462 0164 01       		.byte	0x1
 2463 0165 49       		.uleb128 0x49
 2464 0166 13       		.uleb128 0x13
 2465 0167 01       		.uleb128 0x1
 2466 0168 13       		.uleb128 0x13
 2467 0169 00       		.byte	0
 2468 016a 00       		.byte	0
 2469 016b 16       		.uleb128 0x16
 2470 016c 21       		.uleb128 0x21
 2471 016d 00       		.byte	0
 2472 016e 49       		.uleb128 0x49
 2473 016f 13       		.uleb128 0x13
 2474 0170 2F       		.uleb128 0x2f
 2475 0171 0B       		.uleb128 0xb
 2476 0172 00       		.byte	0
 2477 0173 00       		.byte	0
 2478 0174 00       		.byte	0
 2479              		.section	.debug_aranges,"",%progbits
 2480 0000 D4000000 		.4byte	0xd4
 2481 0004 0200     		.2byte	0x2
 2482 0006 00000000 		.4byte	.Ldebug_info0
 2483 000a 04       		.byte	0x4
 2484 000b 00       		.byte	0
 2485 000c 0000     		.2byte	0
 2486 000e 0000     		.2byte	0
 2487 0010 00000000 		.4byte	.LFB0
 2488 0014 A4000000 		.4byte	.LFE0-.LFB0
 2489 0018 00000000 		.4byte	.LFB1
 2490 001c 64000000 		.4byte	.LFE1-.LFB1
 2491 0020 00000000 		.4byte	.LFB2
 2492 0024 20000000 		.4byte	.LFE2-.LFB2
 2493 0028 00000000 		.4byte	.LFB3
ARM GAS  C:\Users\khjtony\AppData\Local\Temp\cc4iX0Bg.s 			page 65


 2494 002c 50000000 		.4byte	.LFE3-.LFB3
 2495 0030 00000000 		.4byte	.LFB4
 2496 0034 18000000 		.4byte	.LFE4-.LFB4
 2497 0038 00000000 		.4byte	.LFB5
 2498 003c 18000000 		.4byte	.LFE5-.LFB5
 2499 0040 00000000 		.4byte	.LFB6
 2500 0044 18000000 		.4byte	.LFE6-.LFB6
 2501 0048 00000000 		.4byte	.LFB7
 2502 004c 18000000 		.4byte	.LFE7-.LFB7
 2503 0050 00000000 		.4byte	.LFB8
 2504 0054 20000000 		.4byte	.LFE8-.LFB8
 2505 0058 00000000 		.4byte	.LFB9
 2506 005c 20000000 		.4byte	.LFE9-.LFB9
 2507 0060 00000000 		.4byte	.LFB10
 2508 0064 3C000000 		.4byte	.LFE10-.LFB10
 2509 0068 00000000 		.4byte	.LFB11
 2510 006c 3C000000 		.4byte	.LFE11-.LFB11
 2511 0070 00000000 		.4byte	.LFB12
 2512 0074 0C010000 		.4byte	.LFE12-.LFB12
 2513 0078 00000000 		.4byte	.LFB13
 2514 007c 74000000 		.4byte	.LFE13-.LFB13
 2515 0080 00000000 		.4byte	.LFB14
 2516 0084 6C000000 		.4byte	.LFE14-.LFB14
 2517 0088 00000000 		.4byte	.LFB15
 2518 008c 6C000000 		.4byte	.LFE15-.LFB15
 2519 0090 00000000 		.4byte	.LFB16
 2520 0094 48000000 		.4byte	.LFE16-.LFB16
 2521 0098 00000000 		.4byte	.LFB17
 2522 009c 7C000000 		.4byte	.LFE17-.LFB17
 2523 00a0 00000000 		.4byte	.LFB18
 2524 00a4 38000000 		.4byte	.LFE18-.LFB18
 2525 00a8 00000000 		.4byte	.LFB19
 2526 00ac 5C000000 		.4byte	.LFE19-.LFB19
 2527 00b0 00000000 		.4byte	.LFB20
 2528 00b4 0E000000 		.4byte	.LFE20-.LFB20
 2529 00b8 00000000 		.4byte	.LFB21
 2530 00bc 0E000000 		.4byte	.LFE21-.LFB21
 2531 00c0 00000000 		.4byte	.LFB22
 2532 00c4 30000000 		.4byte	.LFE22-.LFB22
 2533 00c8 00000000 		.4byte	.LFB23
 2534 00cc 70000000 		.4byte	.LFE23-.LFB23
 2535 00d0 00000000 		.4byte	0
 2536 00d4 00000000 		.4byte	0
 2537              		.section	.debug_ranges,"",%progbits
 2538              	.Ldebug_ranges0:
 2539 0000 00000000 		.4byte	.LFB0
 2540 0004 A4000000 		.4byte	.LFE0
 2541 0008 00000000 		.4byte	.LFB1
 2542 000c 64000000 		.4byte	.LFE1
 2543 0010 00000000 		.4byte	.LFB2
 2544 0014 20000000 		.4byte	.LFE2
 2545 0018 00000000 		.4byte	.LFB3
 2546 001c 50000000 		.4byte	.LFE3
 2547 0020 00000000 		.4byte	.LFB4
 2548 0024 18000000 		.4byte	.LFE4
 2549 0028 00000000 		.4byte	.LFB5
 2550 002c 18000000 		.4byte	.LFE5
ARM GAS  C:\Users\khjtony\AppData\Local\Temp\cc4iX0Bg.s 			page 66


 2551 0030 00000000 		.4byte	.LFB6
 2552 0034 18000000 		.4byte	.LFE6
 2553 0038 00000000 		.4byte	.LFB7
 2554 003c 18000000 		.4byte	.LFE7
 2555 0040 00000000 		.4byte	.LFB8
 2556 0044 20000000 		.4byte	.LFE8
 2557 0048 00000000 		.4byte	.LFB9
 2558 004c 20000000 		.4byte	.LFE9
 2559 0050 00000000 		.4byte	.LFB10
 2560 0054 3C000000 		.4byte	.LFE10
 2561 0058 00000000 		.4byte	.LFB11
 2562 005c 3C000000 		.4byte	.LFE11
 2563 0060 00000000 		.4byte	.LFB12
 2564 0064 0C010000 		.4byte	.LFE12
 2565 0068 00000000 		.4byte	.LFB13
 2566 006c 74000000 		.4byte	.LFE13
 2567 0070 00000000 		.4byte	.LFB14
 2568 0074 6C000000 		.4byte	.LFE14
 2569 0078 00000000 		.4byte	.LFB15
 2570 007c 6C000000 		.4byte	.LFE15
 2571 0080 00000000 		.4byte	.LFB16
 2572 0084 48000000 		.4byte	.LFE16
 2573 0088 00000000 		.4byte	.LFB17
 2574 008c 7C000000 		.4byte	.LFE17
 2575 0090 00000000 		.4byte	.LFB18
 2576 0094 38000000 		.4byte	.LFE18
 2577 0098 00000000 		.4byte	.LFB19
 2578 009c 5C000000 		.4byte	.LFE19
 2579 00a0 00000000 		.4byte	.LFB20
 2580 00a4 0E000000 		.4byte	.LFE20
 2581 00a8 00000000 		.4byte	.LFB21
 2582 00ac 0E000000 		.4byte	.LFE21
 2583 00b0 00000000 		.4byte	.LFB22
 2584 00b4 30000000 		.4byte	.LFE22
 2585 00b8 00000000 		.4byte	.LFB23
 2586 00bc 70000000 		.4byte	.LFE23
 2587 00c0 00000000 		.4byte	0
 2588 00c4 00000000 		.4byte	0
 2589              		.section	.debug_line,"",%progbits
 2590              	.Ldebug_line0:
 2591 0000 96020000 		.section	.debug_str,"MS",%progbits,1
 2591      02004800 
 2591      00000201 
 2591      FB0E0D00 
 2591      01010101 
 2592              	.LASF32:
 2593 0000 4C45445F 		.ascii	"LED_Strip_WriteTxData\000"
 2593      53747269 
 2593      705F5772 
 2593      69746554 
 2593      78446174 
 2594              	.LASF7:
 2595 0016 6C6F6E67 		.ascii	"long long unsigned int\000"
 2595      206C6F6E 
 2595      6720756E 
 2595      7369676E 
 2595      65642069 
ARM GAS  C:\Users\khjtony\AppData\Local\Temp\cc4iX0Bg.s 			page 67


 2596              	.LASF29:
 2597 002d 746D7053 		.ascii	"tmpStatus\000"
 2597      74617475 
 2597      7300
 2598              	.LASF49:
 2599 0037 4C45445F 		.ascii	"LED_Strip_DisableInt\000"
 2599      53747269 
 2599      705F4469 
 2599      7361626C 
 2599      65496E74 
 2600              	.LASF6:
 2601 004c 6C6F6E67 		.ascii	"long long int\000"
 2601      206C6F6E 
 2601      6720696E 
 2601      7400
 2602              	.LASF0:
 2603 005a 7369676E 		.ascii	"signed char\000"
 2603      65642063 
 2603      68617200 
 2604              	.LASF62:
 2605 0066 4C45445F 		.ascii	"LED_Strip_rxBufferFull\000"
 2605      53747269 
 2605      705F7278 
 2605      42756666 
 2605      65724675 
 2606              	.LASF31:
 2607 007d 4C45445F 		.ascii	"LED_Strip_ReadRxStatus\000"
 2607      53747269 
 2607      705F5265 
 2607      61645278 
 2607      53746174 
 2608              	.LASF4:
 2609 0094 6C6F6E67 		.ascii	"long int\000"
 2609      20696E74 
 2609      00
 2610              	.LASF35:
 2611 009d 746D7054 		.ascii	"tmpTxBufferRead\000"
 2611      78427566 
 2611      66657252 
 2611      65616400 
 2612              	.LASF57:
 2613 00ad 4C45445F 		.ascii	"LED_Strip_txBufferWrite\000"
 2613      53747269 
 2613      705F7478 
 2613      42756666 
 2613      65725772 
 2614              	.LASF9:
 2615 00c5 75696E74 		.ascii	"uint8\000"
 2615      3800
 2616              	.LASF26:
 2617 00cb 4C45445F 		.ascii	"LED_Strip_SetTxInterruptMode\000"
 2617      53747269 
 2617      705F5365 
 2617      74547849 
 2617      6E746572 
 2618              	.LASF12:
 2619 00e8 646F7562 		.ascii	"double\000"
ARM GAS  C:\Users\khjtony\AppData\Local\Temp\cc4iX0Bg.s 			page 68


 2619      6C6500
 2620              	.LASF60:
 2621 00ef 4C45445F 		.ascii	"LED_Strip_rxBufferRead\000"
 2621      53747269 
 2621      705F7278 
 2621      42756666 
 2621      65725265 
 2622              	.LASF10:
 2623 0106 75696E74 		.ascii	"uint32\000"
 2623      333200
 2624              	.LASF23:
 2625 010d 4C45445F 		.ascii	"LED_Strip_EnableRxInt\000"
 2625      53747269 
 2625      705F456E 
 2625      61626C65 
 2625      5278496E 
 2626              	.LASF18:
 2627 0123 4C45445F 		.ascii	"LED_Strip_Start\000"
 2627      53747269 
 2627      705F5374 
 2627      61727400 
 2628              	.LASF54:
 2629 0133 4C45445F 		.ascii	"LED_Strip_swStatusRx\000"
 2629      53747269 
 2629      705F7377 
 2629      53746174 
 2629      75735278 
 2630              	.LASF8:
 2631 0148 756E7369 		.ascii	"unsigned int\000"
 2631      676E6564 
 2631      20696E74 
 2631      00
 2632              	.LASF20:
 2633 0155 4C45445F 		.ascii	"LED_Strip_Stop\000"
 2633      53747269 
 2633      705F5374 
 2633      6F7000
 2634              	.LASF5:
 2635 0164 6C6F6E67 		.ascii	"long unsigned int\000"
 2635      20756E73 
 2635      69676E65 
 2635      6420696E 
 2635      7400
 2636              	.LASF39:
 2637 0176 73697A65 		.ascii	"size\000"
 2637      00
 2638              	.LASF3:
 2639 017b 73686F72 		.ascii	"short unsigned int\000"
 2639      7420756E 
 2639      7369676E 
 2639      65642069 
 2639      6E7400
 2640              	.LASF41:
 2641 018e 4C45445F 		.ascii	"LED_Strip_ClearRxBuffer\000"
 2641      53747269 
 2641      705F436C 
 2641      65617252 
ARM GAS  C:\Users\khjtony\AppData\Local\Temp\cc4iX0Bg.s 			page 69


 2641      78427566 
 2642              	.LASF46:
 2643 01a6 62756649 		.ascii	"bufIndex\000"
 2643      6E646578 
 2643      00
 2644              	.LASF28:
 2645 01af 696E7453 		.ascii	"intSrc\000"
 2645      726300
 2646              	.LASF52:
 2647 01b6 4C45445F 		.ascii	"LED_Strip_initVar\000"
 2647      53747269 
 2647      705F696E 
 2647      69745661 
 2647      7200
 2648              	.LASF15:
 2649 01c8 72656733 		.ascii	"reg32\000"
 2649      3200
 2650              	.LASF19:
 2651 01ce 4C45445F 		.ascii	"LED_Strip_Enable\000"
 2651      53747269 
 2651      705F456E 
 2651      61626C65 
 2651      00
 2652              	.LASF16:
 2653 01df 73697A65 		.ascii	"sizetype\000"
 2653      74797065 
 2653      00
 2654              	.LASF63:
 2655 01e8 474E5520 		.ascii	"GNU C 4.8.4 20140526 (release) [ARM/embedded-4_8-br"
 2655      4320342E 
 2655      382E3420 
 2655      32303134 
 2655      30353236 
 2656 021b 616E6368 		.ascii	"anch revision 211358] -mcpu=cortex-m3 -mthumb -g -O"
 2656      20726576 
 2656      6973696F 
 2656      6E203231 
 2656      31333538 
 2657 024e 30202D66 		.ascii	"0 -ffunction-sections\000"
 2657      66756E63 
 2657      74696F6E 
 2657      2D736563 
 2657      74696F6E 
 2658              	.LASF22:
 2659 0264 4C45445F 		.ascii	"LED_Strip_EnableTxInt\000"
 2659      53747269 
 2659      705F456E 
 2659      61626C65 
 2659      5478496E 
 2660              	.LASF34:
 2661 027a 74656D70 		.ascii	"tempStatus\000"
 2661      53746174 
 2661      757300
 2662              	.LASF58:
 2663 0285 4C45445F 		.ascii	"LED_Strip_txBufferFull\000"
 2663      53747269 
 2663      705F7478 
ARM GAS  C:\Users\khjtony\AppData\Local\Temp\cc4iX0Bg.s 			page 70


 2663      42756666 
 2663      65724675 
 2664              	.LASF40:
 2665 029c 4C45445F 		.ascii	"LED_Strip_GetTxBufferSize\000"
 2665      53747269 
 2665      705F4765 
 2665      74547842 
 2665      75666665 
 2666              	.LASF11:
 2667 02b6 666C6F61 		.ascii	"float\000"
 2667      7400
 2668              	.LASF14:
 2669 02bc 72656738 		.ascii	"reg8\000"
 2669      00
 2670              	.LASF50:
 2671 02c1 4C45445F 		.ascii	"LED_Strip_SetInterruptMode\000"
 2671      53747269 
 2671      705F5365 
 2671      74496E74 
 2671      65727275 
 2672              	.LASF1:
 2673 02dc 756E7369 		.ascii	"unsigned char\000"
 2673      676E6564 
 2673      20636861 
 2673      7200
 2674              	.LASF2:
 2675 02ea 73686F72 		.ascii	"short int\000"
 2675      7420696E 
 2675      7400
 2676              	.LASF55:
 2677 02f4 4C45445F 		.ascii	"LED_Strip_txBuffer\000"
 2677      53747269 
 2677      705F7478 
 2677      42756666 
 2677      657200
 2678              	.LASF56:
 2679 0307 4C45445F 		.ascii	"LED_Strip_txBufferRead\000"
 2679      53747269 
 2679      705F7478 
 2679      42756666 
 2679      65725265 
 2680              	.LASF45:
 2681 031e 62797465 		.ascii	"byteCount\000"
 2681      436F756E 
 2681      7400
 2682              	.LASF65:
 2683 0328 443A5C77 		.ascii	"D:\\workspace\\Super-Eagle\\Super-Eagle\\Super-Eagl"
 2683      6F726B73 
 2683      70616365 
 2683      5C537570 
 2683      65722D45 
 2684 0357 652E6379 		.ascii	"e.cydsn\000"
 2684      64736E00 
 2685              	.LASF61:
 2686 035f 4C45445F 		.ascii	"LED_Strip_rxBufferWrite\000"
 2686      53747269 
 2686      705F7278 
ARM GAS  C:\Users\khjtony\AppData\Local\Temp\cc4iX0Bg.s 			page 71


 2686      42756666 
 2686      65725772 
 2687              	.LASF37:
 2688 0377 72784461 		.ascii	"rxData\000"
 2688      746100
 2689              	.LASF17:
 2690 037e 4C45445F 		.ascii	"LED_Strip_Init\000"
 2690      53747269 
 2690      705F496E 
 2690      697400
 2691              	.LASF64:
 2692 038d 2E5C4765 		.ascii	".\\Generated_Source\\PSoC5\\LED_Strip.c\000"
 2692      6E657261 
 2692      7465645F 
 2692      536F7572 
 2692      63655C50 
 2693              	.LASF25:
 2694 03b2 4C45445F 		.ascii	"LED_Strip_DisableRxInt\000"
 2694      53747269 
 2694      705F4469 
 2694      7361626C 
 2694      65527849 
 2695              	.LASF43:
 2696 03c9 4C45445F 		.ascii	"LED_Strip_PutArray\000"
 2696      53747269 
 2696      705F5075 
 2696      74417272 
 2696      617900
 2697              	.LASF13:
 2698 03dc 63686172 		.ascii	"char\000"
 2698      00
 2699              	.LASF48:
 2700 03e1 4C45445F 		.ascii	"LED_Strip_EnableInt\000"
 2700      53747269 
 2700      705F456E 
 2700      61626C65 
 2700      496E7400 
 2701              	.LASF44:
 2702 03f5 62756666 		.ascii	"buffer\000"
 2702      657200
 2703              	.LASF42:
 2704 03fc 4C45445F 		.ascii	"LED_Strip_ClearTxBuffer\000"
 2704      53747269 
 2704      705F436C 
 2704      65617254 
 2704      78427566 
 2705              	.LASF36:
 2706 0414 4C45445F 		.ascii	"LED_Strip_ReadRxData\000"
 2706      53747269 
 2706      705F5265 
 2706      61645278 
 2706      44617461 
 2707              	.LASF38:
 2708 0429 4C45445F 		.ascii	"LED_Strip_GetRxBufferSize\000"
 2708      53747269 
 2708      705F4765 
 2708      74527842 
ARM GAS  C:\Users\khjtony\AppData\Local\Temp\cc4iX0Bg.s 			page 72


 2708      75666665 
 2709              	.LASF21:
 2710 0443 656E6162 		.ascii	"enableInterrupts\000"
 2710      6C65496E 
 2710      74657272 
 2710      75707473 
 2710      00
 2711              	.LASF47:
 2712 0454 4C45445F 		.ascii	"LED_Strip_ClearFIFO\000"
 2712      53747269 
 2712      705F436C 
 2712      65617246 
 2712      49464F00 
 2713              	.LASF53:
 2714 0468 4C45445F 		.ascii	"LED_Strip_swStatusTx\000"
 2714      53747269 
 2714      705F7377 
 2714      53746174 
 2714      75735478 
 2715              	.LASF27:
 2716 047d 4C45445F 		.ascii	"LED_Strip_SetRxInterruptMode\000"
 2716      53747269 
 2716      705F5365 
 2716      74527849 
 2716      6E746572 
 2717              	.LASF51:
 2718 049a 4C45445F 		.ascii	"LED_Strip_ReadStatus\000"
 2718      53747269 
 2718      705F5265 
 2718      61645374 
 2718      61747573 
 2719              	.LASF33:
 2720 04af 74784461 		.ascii	"txData\000"
 2720      746100
 2721              	.LASF59:
 2722 04b6 4C45445F 		.ascii	"LED_Strip_rxBuffer\000"
 2722      53747269 
 2722      705F7278 
 2722      42756666 
 2722      657200
 2723              	.LASF30:
 2724 04c9 4C45445F 		.ascii	"LED_Strip_ReadTxStatus\000"
 2724      53747269 
 2724      705F5265 
 2724      61645478 
 2724      53746174 
 2725              	.LASF24:
 2726 04e0 4C45445F 		.ascii	"LED_Strip_DisableTxInt\000"
 2726      53747269 
 2726      705F4469 
 2726      7361626C 
 2726      65547849 
 2727              		.ident	"GCC: (GNU Tools for ARM Embedded Processors) 4.8.4 20140526 (release) [ARM/embedded-4_8-br
