ARM GAS  C:\Users\KHJTON~1\AppData\Local\Temp\cc9RuzZG.s 			page 1


   1              		.syntax unified
   2              		.cpu cortex-m3
   3              		.fpu softvfp
   4              		.eabi_attribute 20, 1
   5              		.eabi_attribute 21, 1
   6              		.eabi_attribute 23, 3
   7              		.eabi_attribute 24, 1
   8              		.eabi_attribute 25, 1
   9              		.eabi_attribute 26, 1
  10              		.eabi_attribute 30, 6
  11              		.eabi_attribute 34, 1
  12              		.eabi_attribute 18, 4
  13              		.thumb
  14              		.file	"main.c"
  15              		.text
  16              	.Ltext0:
  17              		.cfi_sections	.debug_frame
  18              		.global	event
  19              		.bss
  20              		.align	1
  21              		.type	event, %object
  22              		.size	event, 2
  23              	event:
  24 0000 0000     		.space	2
  25              		.global	state
  26              		.type	state, %object
  27              		.size	state, 1
  28              	state:
  29 0002 00       		.space	1
  30              		.global	current_page
  31              		.type	current_page, %object
  32              		.size	current_page, 1
  33              	current_page:
  34 0003 00       		.space	1
  35              		.comm	throttle,1,1
  36              		.global	battery
  37              		.data
  38              		.type	battery, %object
  39              		.size	battery, 1
  40              	battery:
  41 0000 64       		.byte	100
  42              		.comm	brake,1,1
  43              		.global	mode
  44              		.bss
  45              		.type	mode, %object
  46              		.size	mode, 1
  47              	mode:
  48 0004 00       		.space	1
  49 0005 00       		.section	.text.fatal_fault,"ax",%progbits
  50              		.align	2
  51              		.global	fatal_fault
  52              		.thumb
  53              		.thumb_func
  54              		.type	fatal_fault, %function
  55              	fatal_fault:
  56              	.LFB56:
  57              		.file 1 ".\\main.c"
ARM GAS  C:\Users\KHJTON~1\AppData\Local\Temp\cc9RuzZG.s 			page 2


   1:.\main.c      **** /*******************************************************************************
   2:.\main.c      **** * File Name: main.c
   3:.\main.c      **** *
   4:.\main.c      **** * Version: 2.0
   5:.\main.c      **** *
   6:.\main.c      **** * Description:
   7:.\main.c      **** *  Series of horizontal bar graphs are drawn, left to right. First, row 0 is 
   8:.\main.c      **** *  filled followed by a clear display. The bars move towards right, becoming 
   9:.\main.c      **** *  shorter and shorter. The same happens in row 1. Finally a text on the 
  10:.\main.c      **** *  display indicates completion of the demo. 
  11:.\main.c      **** *
  12:.\main.c      **** ********************************************************************************
  13:.\main.c      **** * Copyright 2012, Cypress Semiconductor Corporation. All rights reserved.
  14:.\main.c      **** * This software is owned by Cypress Semiconductor Corporation and is protected
  15:.\main.c      **** * by and subject to worldwide patent and copyright laws and treaties.
  16:.\main.c      **** * Therefore, you may use this software only as provided in the license agreement
  17:.\main.c      **** * accompanying the software package from which you obtained this software.
  18:.\main.c      **** * CYPRESS AND ITS SUPPLIERS MAKE NO WARRANTY OF ANY KIND, EXPRESS OR IMPLIED,
  19:.\main.c      **** * WITH REGARD TO THIS SOFTWARE, INCLUDING, BUT NOT LIMITED TO, NONINFRINGEMENT,
  20:.\main.c      **** * IMPLIED WARRANTIES OF MERCHANTABILITY AND FITNESS FOR A PARTICULAR PURPOSE.
  21:.\main.c      **** *******************************************************************************/
  22:.\main.c      **** 
  23:.\main.c      **** #include <device.h>
  24:.\main.c      **** #include "LCD_Bar.h"
  25:.\main.c      **** #include "state_event.h"
  26:.\main.c      **** #include "dash_board.h"
  27:.\main.c      **** #include "can_manager.h"
  28:.\main.c      **** 
  29:.\main.c      **** extern uint8 const CYCODE LCD_customFonts[];
  30:.\main.c      **** volatile uint16_t event = 0x00;
  31:.\main.c      **** volatile uint8_t state = 0x0;
  32:.\main.c      **** volatile uint8_t current_page=0x0;
  33:.\main.c      **** volatile uint8_t throttle;
  34:.\main.c      **** volatile uint8_t battery=100;
  35:.\main.c      **** volatile uint8_t brake;
  36:.\main.c      **** volatile uint8_t current_page;
  37:.\main.c      **** volatile Dash_Mode mode = COMMON;
  38:.\main.c      **** 
  39:.\main.c      **** 
  40:.\main.c      **** 
  41:.\main.c      **** /*******************************************************************************
  42:.\main.c      **** * Function Name: main
  43:.\main.c      **** ********************************************************************************
  44:.\main.c      **** *
  45:.\main.c      **** * Summary:
  46:.\main.c      **** *  The main program does the following
  47:.\main.c      **** *  1. Initializes the LCD.
  48:.\main.c      **** *  2. Loads custom fonts. This step is required to create a bar graph.
  49:.\main.c      **** *  3. Prints start of a demo string on the LCD.
  50:.\main.c      **** *  4. For each row, displays a bar graph from left to right with the initial position 
  51:.\main.c      **** *     moving towards right. After each graph the display is cleared.
  52:.\main.c      **** *  5. Displays completion of the demo.
  53:.\main.c      **** *
  54:.\main.c      **** * Parameters:
  55:.\main.c      **** *  None.
  56:.\main.c      **** *
  57:.\main.c      **** * Return:
ARM GAS  C:\Users\KHJTON~1\AppData\Local\Temp\cc9RuzZG.s 			page 3


  58:.\main.c      **** *  None.
  59:.\main.c      **** *
  60:.\main.c      **** *******************************************************************************/
  61:.\main.c      **** 
  62:.\main.c      **** /******************************************************************************
  63:.\main.c      **** //volatile list
  64:.\main.c      **** *******************************************************************************/
  65:.\main.c      **** void fatal_fault(){
  58              		.loc 1 65 0
  59              		.cfi_startproc
  60              		@ args = 0, pretend = 0, frame = 0
  61              		@ frame_needed = 1, uses_anonymous_args = 0
  62              		@ link register save eliminated.
  63 0000 80B4     		push	{r7}
  64              		.cfi_def_cfa_offset 4
  65              		.cfi_offset 7, -4
  66 0002 00AF     		add	r7, sp, #0
  67              		.cfi_def_cfa_register 7
  66:.\main.c      ****     CyGlobalIntDisable;
  68              		.loc 1 66 0
  69              	@ 66 ".\main.c" 1
  70 0004 72B6     		CPSID   i
  71              	@ 0 "" 2
  72              		.thumb
  73              	.L2:
  67:.\main.c      ****     for (;;){
  68:.\main.c      ****     }
  74              		.loc 1 68 0 discriminator 1
  75 0006 FEE7     		b	.L2
  76              		.cfi_endproc
  77              	.LFE56:
  78              		.size	fatal_fault, .-fatal_fault
  79              		.section	.text.isr_rotary,"ax",%progbits
  80              		.align	2
  81              		.global	isr_rotary
  82              		.thumb
  83              		.thumb_func
  84              		.type	isr_rotary, %function
  85              	isr_rotary:
  86              	.LFB57:
  69:.\main.c      ****     return;
  70:.\main.c      **** }
  71:.\main.c      **** 
  72:.\main.c      **** CY_ISR(isr_rotary)
  73:.\main.c      **** {
  87              		.loc 1 73 0
  88              		.cfi_startproc
  89              		@ args = 0, pretend = 0, frame = 0
  90              		@ frame_needed = 1, uses_anonymous_args = 0
  91              		@ link register save eliminated.
  92 0000 80B4     		push	{r7}
  93              		.cfi_def_cfa_offset 4
  94              		.cfi_offset 7, -4
  95 0002 00AF     		add	r7, sp, #0
  96              		.cfi_def_cfa_register 7
  74:.\main.c      ****     if (mode == INFO){
  97              		.loc 1 74 0
ARM GAS  C:\Users\KHJTON~1\AppData\Local\Temp\cc9RuzZG.s 			page 4


  98 0004 0C4B     		ldr	r3, .L6
  99 0006 1B78     		ldrb	r3, [r3]
 100 0008 DBB2     		uxtb	r3, r3
 101 000a 012B     		cmp	r3, #1
 102 000c 0ED1     		bne	.L4
  75:.\main.c      ****         current_page += 1;
 103              		.loc 1 75 0
 104 000e 0B4B     		ldr	r3, .L6+4
 105 0010 1B78     		ldrb	r3, [r3]
 106 0012 DBB2     		uxtb	r3, r3
 107 0014 0133     		adds	r3, r3, #1
 108 0016 DAB2     		uxtb	r2, r3
 109 0018 084B     		ldr	r3, .L6+4
 110 001a 1A70     		strb	r2, [r3]
  76:.\main.c      ****         if (current_page > MAX_PAGE){
 111              		.loc 1 76 0
 112 001c 074B     		ldr	r3, .L6+4
 113 001e 1B78     		ldrb	r3, [r3]
 114 0020 DBB2     		uxtb	r3, r3
 115 0022 052B     		cmp	r3, #5
 116 0024 02D9     		bls	.L4
  77:.\main.c      ****             current_page = 1;
 117              		.loc 1 77 0
 118 0026 054B     		ldr	r3, .L6+4
 119 0028 0122     		movs	r2, #1
 120 002a 1A70     		strb	r2, [r3]
 121              	.L4:
  78:.\main.c      ****         }
  79:.\main.c      ****     }
  80:.\main.c      ****     return; 
 122              		.loc 1 80 0
 123 002c 00BF     		nop
  81:.\main.c      **** }
 124              		.loc 1 81 0
 125 002e BD46     		mov	sp, r7
 126              		@ sp needed
 127 0030 5DF8047B 		ldr	r7, [sp], #4
 128 0034 7047     		bx	lr
 129              	.L7:
 130 0036 00BF     		.align	2
 131              	.L6:
 132 0038 00000000 		.word	mode
 133 003c 00000000 		.word	current_page
 134              		.cfi_endproc
 135              	.LFE57:
 136              		.size	isr_rotary, .-isr_rotary
 137              		.section	.text.isr_OK,"ax",%progbits
 138              		.align	2
 139              		.global	isr_OK
 140              		.thumb
 141              		.thumb_func
 142              		.type	isr_OK, %function
 143              	isr_OK:
 144              	.LFB58:
  82:.\main.c      **** 
  83:.\main.c      **** CY_ISR(isr_OK)
  84:.\main.c      **** {   
ARM GAS  C:\Users\KHJTON~1\AppData\Local\Temp\cc9RuzZG.s 			page 5


 145              		.loc 1 84 0
 146              		.cfi_startproc
 147              		@ args = 0, pretend = 0, frame = 0
 148              		@ frame_needed = 1, uses_anonymous_args = 0
 149              		@ link register save eliminated.
 150 0000 80B4     		push	{r7}
 151              		.cfi_def_cfa_offset 4
 152              		.cfi_offset 7, -4
 153 0002 00AF     		add	r7, sp, #0
 154              		.cfi_def_cfa_register 7
  85:.\main.c      ****     if (mode == COMMON){
 155              		.loc 1 85 0
 156 0004 084B     		ldr	r3, .L12
 157 0006 1B78     		ldrb	r3, [r3]
 158 0008 DBB2     		uxtb	r3, r3
 159 000a 002B     		cmp	r3, #0
 160 000c 03D1     		bne	.L9
  86:.\main.c      ****         mode = INFO;
 161              		.loc 1 86 0
 162 000e 064B     		ldr	r3, .L12
 163 0010 0122     		movs	r2, #1
 164 0012 1A70     		strb	r2, [r3]
 165 0014 02E0     		b	.L10
 166              	.L9:
  87:.\main.c      ****     }else{
  88:.\main.c      ****         mode = COMMON;
 167              		.loc 1 88 0
 168 0016 044B     		ldr	r3, .L12
 169 0018 0022     		movs	r2, #0
 170 001a 1A70     		strb	r2, [r3]
 171              	.L10:
  89:.\main.c      ****     }
  90:.\main.c      ****     return; 
 172              		.loc 1 90 0
 173 001c 00BF     		nop
  91:.\main.c      **** }
 174              		.loc 1 91 0
 175 001e BD46     		mov	sp, r7
 176              		@ sp needed
 177 0020 5DF8047B 		ldr	r7, [sp], #4
 178 0024 7047     		bx	lr
 179              	.L13:
 180 0026 00BF     		.align	2
 181              	.L12:
 182 0028 00000000 		.word	mode
 183              		.cfi_endproc
 184              	.LFE58:
 185              		.size	isr_OK, .-isr_OK
 186              		.section	.text.isr_back,"ax",%progbits
 187              		.align	2
 188              		.global	isr_back
 189              		.thumb
 190              		.thumb_func
 191              		.type	isr_back, %function
 192              	isr_back:
 193              	.LFB59:
  92:.\main.c      **** 
ARM GAS  C:\Users\KHJTON~1\AppData\Local\Temp\cc9RuzZG.s 			page 6


  93:.\main.c      **** CY_ISR(isr_back)
  94:.\main.c      **** {   
 194              		.loc 1 94 0
 195              		.cfi_startproc
 196              		@ args = 0, pretend = 0, frame = 0
 197              		@ frame_needed = 1, uses_anonymous_args = 0
 198              		@ link register save eliminated.
 199 0000 80B4     		push	{r7}
 200              		.cfi_def_cfa_offset 4
 201              		.cfi_offset 7, -4
 202 0002 00AF     		add	r7, sp, #0
 203              		.cfi_def_cfa_register 7
  95:.\main.c      ****     mode = COMMON;
 204              		.loc 1 95 0
 205 0004 034B     		ldr	r3, .L16
 206 0006 0022     		movs	r2, #0
 207 0008 1A70     		strb	r2, [r3]
  96:.\main.c      ****     return;
 208              		.loc 1 96 0
 209 000a 00BF     		nop
  97:.\main.c      **** }
 210              		.loc 1 97 0
 211 000c BD46     		mov	sp, r7
 212              		@ sp needed
 213 000e 5DF8047B 		ldr	r7, [sp], #4
 214 0012 7047     		bx	lr
 215              	.L17:
 216              		.align	2
 217              	.L16:
 218 0014 00000000 		.word	mode
 219              		.cfi_endproc
 220              	.LFE59:
 221              		.size	isr_back, .-isr_back
 222              		.section	.text.LCD_Handler,"ax",%progbits
 223              		.align	2
 224              		.global	LCD_Handler
 225              		.thumb
 226              		.thumb_func
 227              		.type	LCD_Handler, %function
 228              	LCD_Handler:
 229              	.LFB60:
  98:.\main.c      **** 
  99:.\main.c      **** 
 100:.\main.c      **** CY_ISR(LCD_Handler)
 101:.\main.c      **** {
 230              		.loc 1 101 0
 231              		.cfi_startproc
 232              		@ args = 0, pretend = 0, frame = 0
 233              		@ frame_needed = 1, uses_anonymous_args = 0
 234 0000 80B5     		push	{r7, lr}
 235              		.cfi_def_cfa_offset 8
 236              		.cfi_offset 7, -8
 237              		.cfi_offset 14, -4
 238 0002 00AF     		add	r7, sp, #0
 239              		.cfi_def_cfa_register 7
 102:.\main.c      ****     LCD_Timer_STATUS;
 240              		.loc 1 102 0
ARM GAS  C:\Users\KHJTON~1\AppData\Local\Temp\cc9RuzZG.s 			page 7


 241 0004 0A4B     		ldr	r3, .L20
 242 0006 1B78     		ldrb	r3, [r3]
 103:.\main.c      ****     LCD_ClearDisplay();
 243              		.loc 1 103 0
 244 0008 0120     		movs	r0, #1
 245 000a FFF7FEFF 		bl	LCD_WriteControl
 104:.\main.c      ****     Dash_display_Mode(mode);
 246              		.loc 1 104 0
 247 000e 094B     		ldr	r3, .L20+4
 248 0010 1B78     		ldrb	r3, [r3]
 249 0012 DBB2     		uxtb	r3, r3
 250 0014 1846     		mov	r0, r3
 251 0016 FFF7FEFF 		bl	Dash_display_Mode
 105:.\main.c      ****     Dash_display_State(state);
 252              		.loc 1 105 0
 253 001a 074B     		ldr	r3, .L20+8
 254 001c 1B78     		ldrb	r3, [r3]
 255 001e DBB2     		uxtb	r3, r3
 256 0020 1846     		mov	r0, r3
 257 0022 FFF7FEFF 		bl	Dash_display_State
 106:.\main.c      ****     Dash_display_Value();
 258              		.loc 1 106 0
 259 0026 FFF7FEFF 		bl	Dash_display_Value
 107:.\main.c      ****     return;
 260              		.loc 1 107 0
 261 002a 00BF     		nop
 108:.\main.c      **** }
 262              		.loc 1 108 0
 263 002c 80BD     		pop	{r7, pc}
 264              	.L21:
 265 002e 00BF     		.align	2
 266              	.L20:
 267 0030 66650040 		.word	1073767782
 268 0034 00000000 		.word	mode
 269 0038 00000000 		.word	state
 270              		.cfi_endproc
 271              	.LFE60:
 272              		.size	LCD_Handler, .-LCD_Handler
 273              		.section	.text.Fake_Handler,"ax",%progbits
 274              		.align	2
 275              		.global	Fake_Handler
 276              		.thumb
 277              		.thumb_func
 278              		.type	Fake_Handler, %function
 279              	Fake_Handler:
 280              	.LFB61:
 109:.\main.c      **** 
 110:.\main.c      **** CY_ISR(Fake_Handler)
 111:.\main.c      **** {
 281              		.loc 1 111 0
 282              		.cfi_startproc
 283              		@ args = 0, pretend = 0, frame = 0
 284              		@ frame_needed = 1, uses_anonymous_args = 0
 285              		@ link register save eliminated.
 286 0000 80B4     		push	{r7}
 287              		.cfi_def_cfa_offset 4
 288              		.cfi_offset 7, -4
ARM GAS  C:\Users\KHJTON~1\AppData\Local\Temp\cc9RuzZG.s 			page 8


 289 0002 00AF     		add	r7, sp, #0
 290              		.cfi_def_cfa_register 7
 112:.\main.c      ****     Fake_Timer_STATUS;
 291              		.loc 1 112 0
 292 0004 034B     		ldr	r3, .L24
 293 0006 1B78     		ldrb	r3, [r3]
 113:.\main.c      ****     return;
 294              		.loc 1 113 0
 295 0008 00BF     		nop
 114:.\main.c      **** }
 296              		.loc 1 114 0
 297 000a BD46     		mov	sp, r7
 298              		@ sp needed
 299 000c 5DF8047B 		ldr	r7, [sp], #4
 300 0010 7047     		bx	lr
 301              	.L25:
 302 0012 00BF     		.align	2
 303              	.L24:
 304 0014 6A650040 		.word	1073767786
 305              		.cfi_endproc
 306              	.LFE61:
 307              		.size	Fake_Handler, .-Fake_Handler
 308              		.section	.text.FSM_Handler,"ax",%progbits
 309              		.align	2
 310              		.global	FSM_Handler
 311              		.thumb
 312              		.thumb_func
 313              		.type	FSM_Handler, %function
 314              	FSM_Handler:
 315              	.LFB62:
 115:.\main.c      **** 
 116:.\main.c      **** 
 117:.\main.c      **** CY_ISR(FSM_Handler){
 316              		.loc 1 117 0
 317              		.cfi_startproc
 318              		@ args = 0, pretend = 0, frame = 0
 319              		@ frame_needed = 1, uses_anonymous_args = 0
 320 0000 80B5     		push	{r7, lr}
 321              		.cfi_def_cfa_offset 8
 322              		.cfi_offset 7, -8
 323              		.cfi_offset 14, -4
 324 0002 00AF     		add	r7, sp, #0
 325              		.cfi_def_cfa_register 7
 118:.\main.c      ****     FSM_Timer_STATUS;
 326              		.loc 1 118 0
 327 0004 104B     		ldr	r3, .L38
 328 0006 1B78     		ldrb	r3, [r3]
 119:.\main.c      ****     switch(state)// FSM, should be in the highest int priority
 329              		.loc 1 119 0
 330 0008 104B     		ldr	r3, .L38+4
 331 000a 1B78     		ldrb	r3, [r3]
 332 000c DBB2     		uxtb	r3, r3
 333 000e 062B     		cmp	r3, #6
 334 0010 11D8     		bhi	.L27
 335 0012 01A2     		adr	r2, .L29
 336 0014 52F823F0 		ldr	pc, [r2, r3, lsl #2]
 337              		.p2align 2
ARM GAS  C:\Users\KHJTON~1\AppData\Local\Temp\cc9RuzZG.s 			page 9


 338              	.L29:
 339 0018 3D000000 		.word	.L37+1
 340 001c 3D000000 		.word	.L37+1
 341 0020 3D000000 		.word	.L37+1
 342 0024 3D000000 		.word	.L37+1
 343 0028 3D000000 		.word	.L37+1
 344 002c 3D000000 		.word	.L37+1
 345 0030 35000000 		.word	.L35+1
 346              		.p2align 1
 347              	.L35:
 120:.\main.c      **** 		{
 121:.\main.c      **** 			case STARTUP:
 122:.\main.c      **** 				break;
 123:.\main.c      **** 			case NEUTRAL:
 124:.\main.c      **** 				break;
 125:.\main.c      **** 			case DRIVE:
 126:.\main.c      **** 				break;
 127:.\main.c      **** 			case PRECHARGE:
 128:.\main.c      **** 				break;
 129:.\main.c      **** 			case CHARGING:
 130:.\main.c      **** 				break;
 131:.\main.c      **** 			case SOFT_FAULT:
 132:.\main.c      **** 				break;
 133:.\main.c      **** 			case HARD_FAULT:
 134:.\main.c      **** 				for(;;);	// trap fault
 348              		.loc 1 134 0 discriminator 1
 349 0034 FEE7     		b	.L35
 350              	.L27:
 135:.\main.c      **** 				break;
 136:.\main.c      **** 			default: // INVALID STATE
 137:.\main.c      **** 				fatal_fault();
 351              		.loc 1 137 0
 352 0036 FFF7FEFF 		bl	fatal_fault
 138:.\main.c      **** 				break;
 353              		.loc 1 138 0
 354 003a 00E0     		b	.L36
 355              	.L37:
 122:.\main.c      **** 				break;
 356              		.loc 1 122 0
 357 003c 00BF     		nop
 358              	.L36:
 139:.\main.c      ****         }; // switch state
 140:.\main.c      ****         event=0x0; //wipe the event signal
 359              		.loc 1 140 0
 360 003e 044B     		ldr	r3, .L38+8
 361 0040 0022     		movs	r2, #0
 362 0042 1A80     		strh	r2, [r3]	@ movhi
 141:.\main.c      **** }
 363              		.loc 1 141 0
 364 0044 80BD     		pop	{r7, pc}
 365              	.L39:
 366 0046 00BF     		.align	2
 367              	.L38:
 368 0048 65640040 		.word	1073767525
 369 004c 00000000 		.word	state
 370 0050 00000000 		.word	event
 371              		.cfi_endproc
ARM GAS  C:\Users\KHJTON~1\AppData\Local\Temp\cc9RuzZG.s 			page 10


 372              	.LFE62:
 373              		.size	FSM_Handler, .-FSM_Handler
 374              		.section	.text.main,"ax",%progbits
 375              		.align	2
 376              		.global	main
 377              		.thumb
 378              		.thumb_func
 379              		.type	main, %function
 380              	main:
 381              	.LFB63:
 142:.\main.c      **** 
 143:.\main.c      **** 
 144:.\main.c      **** 
 145:.\main.c      **** 
 146:.\main.c      **** 
 147:.\main.c      **** int main()
 148:.\main.c      **** {   
 382              		.loc 1 148 0
 383              		.cfi_startproc
 384              		@ args = 0, pretend = 0, frame = 0
 385              		@ frame_needed = 1, uses_anonymous_args = 0
 386 0000 80B5     		push	{r7, lr}
 387              		.cfi_def_cfa_offset 8
 388              		.cfi_offset 7, -8
 389              		.cfi_offset 14, -4
 390 0002 00AF     		add	r7, sp, #0
 391              		.cfi_def_cfa_register 7
 149:.\main.c      ****     /* Enable the global interrupt */
 150:.\main.c      ****     CyGlobalIntEnable;
 392              		.loc 1 150 0
 393              	@ 150 ".\main.c" 1
 394 0004 62B6     		CPSIE   i
 395              	@ 0 "" 2
 151:.\main.c      ****     
 152:.\main.c      ****     //setup startup state
 153:.\main.c      ****     state = STARTUP;
 396              		.loc 1 153 0
 397              		.thumb
 398 0006 134B     		ldr	r3, .L42
 399 0008 0022     		movs	r2, #0
 400 000a 1A70     		strb	r2, [r3]
 154:.\main.c      ****     mode = COMMON;
 401              		.loc 1 154 0
 402 000c 124B     		ldr	r3, .L42+4
 403 000e 0022     		movs	r2, #0
 404 0010 1A70     		strb	r2, [r3]
 155:.\main.c      ****     
 156:.\main.c      ****     /* Enable the Interrupt component connected to Timer interrupt */
 157:.\main.c      ****     FSM_ISR_StartEx(FSM_Handler);
 405              		.loc 1 157 0
 406 0012 1248     		ldr	r0, .L42+8
 407 0014 FFF7FEFF 		bl	FSM_ISR_StartEx
 158:.\main.c      ****     LCD_ISR_StartEx(LCD_Handler);
 408              		.loc 1 158 0
 409 0018 1148     		ldr	r0, .L42+12
 410 001a FFF7FEFF 		bl	LCD_ISR_StartEx
 159:.\main.c      ****     isr_OK_StartEx(isr_OK);
ARM GAS  C:\Users\KHJTON~1\AppData\Local\Temp\cc9RuzZG.s 			page 11


 411              		.loc 1 159 0
 412 001e 1148     		ldr	r0, .L42+16
 413 0020 FFF7FEFF 		bl	isr_OK_StartEx
 160:.\main.c      ****     isr_back_StartEx(isr_back);
 414              		.loc 1 160 0
 415 0024 1048     		ldr	r0, .L42+20
 416 0026 FFF7FEFF 		bl	isr_back_StartEx
 161:.\main.c      ****     isr_rotary_StartEx(isr_rotary);
 417              		.loc 1 161 0
 418 002a 1048     		ldr	r0, .L42+24
 419 002c FFF7FEFF 		bl	isr_rotary_StartEx
 162:.\main.c      ****     Fake_ISR_StartEx(Fake_Handler);
 420              		.loc 1 162 0
 421 0030 0F48     		ldr	r0, .L42+28
 422 0032 FFF7FEFF 		bl	Fake_ISR_StartEx
 163:.\main.c      **** 
 164:.\main.c      **** 	
 165:.\main.c      ****     
 166:.\main.c      ****     /* Start the components */
 167:.\main.c      ****     FSM_Timer_Start();
 423              		.loc 1 167 0
 424 0036 FFF7FEFF 		bl	FSM_Timer_Start
 168:.\main.c      ****     LCD_Timer_Start();
 425              		.loc 1 168 0
 426 003a FFF7FEFF 		bl	LCD_Timer_Start
 169:.\main.c      ****     Fake_Timer_Start();
 427              		.loc 1 169 0
 428 003e FFF7FEFF 		bl	Fake_Timer_Start
 170:.\main.c      ****     can_init();
 429              		.loc 1 170 0
 430 0042 FFF7FEFF 		bl	can_init
 171:.\main.c      ****     
 172:.\main.c      ****     
 173:.\main.c      ****     
 174:.\main.c      ****     /* Start LCD */
 175:.\main.c      ****     LCD_Start();
 431              		.loc 1 175 0
 432 0046 FFF7FEFF 		bl	LCD_Start
 433              	.L41:
 176:.\main.c      ****     
 177:.\main.c      ****     for(;;)
 178:.\main.c      **** 	{
 179:.\main.c      ****       
 180:.\main.c      ****         CyDelay(10u);
 434              		.loc 1 180 0 discriminator 1
 435 004a 0A20     		movs	r0, #10
 436 004c FFF7FEFF 		bl	CyDelay
 181:.\main.c      **** 	} // main loop
 437              		.loc 1 181 0 discriminator 1
 438 0050 FBE7     		b	.L41
 439              	.L43:
 440 0052 00BF     		.align	2
 441              	.L42:
 442 0054 00000000 		.word	state
 443 0058 00000000 		.word	mode
 444 005c 00000000 		.word	FSM_Handler
 445 0060 00000000 		.word	LCD_Handler
ARM GAS  C:\Users\KHJTON~1\AppData\Local\Temp\cc9RuzZG.s 			page 12


 446 0064 00000000 		.word	isr_OK
 447 0068 00000000 		.word	isr_back
 448 006c 00000000 		.word	isr_rotary
 449 0070 00000000 		.word	Fake_Handler
 450              		.cfi_endproc
 451              	.LFE63:
 452              		.size	main, .-main
 453              		.text
 454              	.Letext0:
 455              		.file 2 "d:\\software\\psoccreator\\psoc creator\\3.1\\psoc creator\\import\\gnu_cs\\arm\\4.8.4\\a
 456              		.file 3 "d:\\software\\psoccreator\\psoc creator\\3.1\\psoc creator\\import\\gnu_cs\\arm\\4.8.4\\a
 457              		.file 4 ".\\Generated_Source\\PSoC5/cytypes.h"
 458              		.file 5 ".\\state_event.h"
 459              		.file 6 ".\\Generated_Source\\PSoC5/core_cm3.h"