ARM GAS  C:\Users\KHJTON~1\AppData\Local\Temp\ccM10BBE.s 			page 1


   1              		.syntax unified
   2              		.cpu cortex-m3
   3              		.fpu softvfp
   4              		.eabi_attribute 20, 1
   5              		.eabi_attribute 21, 1
   6              		.eabi_attribute 23, 3
   7              		.eabi_attribute 24, 1
   8              		.eabi_attribute 25, 1
   9              		.eabi_attribute 26, 1
  10              		.eabi_attribute 30, 6
  11              		.eabi_attribute 34, 1
  12              		.eabi_attribute 18, 4
  13              		.thumb
  14              		.file	"Rotary.c"
  15              		.text
  16              	.Ltext0:
  17              		.cfi_sections	.debug_frame
  18              		.section	.text.Rotary_Write,"ax",%progbits
  19              		.align	2
  20              		.global	Rotary_Write
  21              		.thumb
  22              		.thumb_func
  23              		.type	Rotary_Write, %function
  24              	Rotary_Write:
  25              	.LFB0:
  26              		.file 1 ".\\Generated_Source\\PSoC5\\Rotary.c"
   1:.\Generated_Source\PSoC5/Rotary.c **** /*******************************************************************************
   2:.\Generated_Source\PSoC5/Rotary.c **** * File Name: Rotary.c  
   3:.\Generated_Source\PSoC5/Rotary.c **** * Version 2.10
   4:.\Generated_Source\PSoC5/Rotary.c **** *
   5:.\Generated_Source\PSoC5/Rotary.c **** * Description:
   6:.\Generated_Source\PSoC5/Rotary.c **** *  This file contains API to enable firmware control of a Pins component.
   7:.\Generated_Source\PSoC5/Rotary.c **** *
   8:.\Generated_Source\PSoC5/Rotary.c **** * Note:
   9:.\Generated_Source\PSoC5/Rotary.c **** *
  10:.\Generated_Source\PSoC5/Rotary.c **** ********************************************************************************
  11:.\Generated_Source\PSoC5/Rotary.c **** * Copyright 2008-2014, Cypress Semiconductor Corporation.  All rights reserved.
  12:.\Generated_Source\PSoC5/Rotary.c **** * You may use this file only in accordance with the license, terms, conditions, 
  13:.\Generated_Source\PSoC5/Rotary.c **** * disclaimers, and limitations in the end user license agreement accompanying 
  14:.\Generated_Source\PSoC5/Rotary.c **** * the software package with which this file was provided.
  15:.\Generated_Source\PSoC5/Rotary.c **** *******************************************************************************/
  16:.\Generated_Source\PSoC5/Rotary.c **** 
  17:.\Generated_Source\PSoC5/Rotary.c **** #include "cytypes.h"
  18:.\Generated_Source\PSoC5/Rotary.c **** #include "Rotary.h"
  19:.\Generated_Source\PSoC5/Rotary.c **** 
  20:.\Generated_Source\PSoC5/Rotary.c **** /* APIs are not generated for P15[7:6] on PSoC 5 */
  21:.\Generated_Source\PSoC5/Rotary.c **** #if !(CY_PSOC5A &&\
  22:.\Generated_Source\PSoC5/Rotary.c **** 	 Rotary__PORT == 15 && ((Rotary__MASK & 0xC0) != 0))
  23:.\Generated_Source\PSoC5/Rotary.c **** 
  24:.\Generated_Source\PSoC5/Rotary.c **** 
  25:.\Generated_Source\PSoC5/Rotary.c **** /*******************************************************************************
  26:.\Generated_Source\PSoC5/Rotary.c **** * Function Name: Rotary_Write
  27:.\Generated_Source\PSoC5/Rotary.c **** ********************************************************************************
  28:.\Generated_Source\PSoC5/Rotary.c **** *
  29:.\Generated_Source\PSoC5/Rotary.c **** * Summary:
  30:.\Generated_Source\PSoC5/Rotary.c **** *  Assign a new value to the digital port's data output register.  
  31:.\Generated_Source\PSoC5/Rotary.c **** *
ARM GAS  C:\Users\KHJTON~1\AppData\Local\Temp\ccM10BBE.s 			page 2


  32:.\Generated_Source\PSoC5/Rotary.c **** * Parameters:  
  33:.\Generated_Source\PSoC5/Rotary.c **** *  prtValue:  The value to be assigned to the Digital Port. 
  34:.\Generated_Source\PSoC5/Rotary.c **** *
  35:.\Generated_Source\PSoC5/Rotary.c **** * Return: 
  36:.\Generated_Source\PSoC5/Rotary.c **** *  None
  37:.\Generated_Source\PSoC5/Rotary.c **** *  
  38:.\Generated_Source\PSoC5/Rotary.c **** *******************************************************************************/
  39:.\Generated_Source\PSoC5/Rotary.c **** void Rotary_Write(uint8 value) 
  40:.\Generated_Source\PSoC5/Rotary.c **** {
  27              		.loc 1 40 0
  28              		.cfi_startproc
  29              		@ args = 0, pretend = 0, frame = 16
  30              		@ frame_needed = 1, uses_anonymous_args = 0
  31              		@ link register save eliminated.
  32 0000 80B4     		push	{r7}
  33              		.cfi_def_cfa_offset 4
  34              		.cfi_offset 7, -4
  35 0002 85B0     		sub	sp, sp, #20
  36              		.cfi_def_cfa_offset 24
  37 0004 00AF     		add	r7, sp, #0
  38              		.cfi_def_cfa_register 7
  39 0006 0346     		mov	r3, r0
  40 0008 FB71     		strb	r3, [r7, #7]
  41:.\Generated_Source\PSoC5/Rotary.c ****     uint8 staticBits = (Rotary_DR & (uint8)(~Rotary_MASK));
  41              		.loc 1 41 0
  42 000a 0A4B     		ldr	r3, .L2
  43 000c 1B78     		ldrb	r3, [r3]
  44 000e DBB2     		uxtb	r3, r3
  45 0010 23F00103 		bic	r3, r3, #1
  46 0014 FB73     		strb	r3, [r7, #15]
  42:.\Generated_Source\PSoC5/Rotary.c ****     Rotary_DR = staticBits | ((uint8)(value << Rotary_SHIFT) & Rotary_MASK);
  47              		.loc 1 42 0
  48 0016 074B     		ldr	r3, .L2
  49 0018 FA79     		ldrb	r2, [r7, #7]
  50 001a 02F00102 		and	r2, r2, #1
  51 001e D1B2     		uxtb	r1, r2
  52 0020 FA7B     		ldrb	r2, [r7, #15]
  53 0022 0A43     		orrs	r2, r2, r1
  54 0024 D2B2     		uxtb	r2, r2
  55 0026 1A70     		strb	r2, [r3]
  43:.\Generated_Source\PSoC5/Rotary.c **** }
  56              		.loc 1 43 0
  57 0028 1437     		adds	r7, r7, #20
  58 002a BD46     		mov	sp, r7
  59              		@ sp needed
  60 002c 5DF8047B 		ldr	r7, [sp], #4
  61 0030 7047     		bx	lr
  62              	.L3:
  63 0032 00BF     		.align	2
  64              	.L2:
  65 0034 50510040 		.word	1073762640
  66              		.cfi_endproc
  67              	.LFE0:
  68              		.size	Rotary_Write, .-Rotary_Write
  69              		.section	.text.Rotary_SetDriveMode,"ax",%progbits
  70              		.align	2
  71              		.global	Rotary_SetDriveMode
ARM GAS  C:\Users\KHJTON~1\AppData\Local\Temp\ccM10BBE.s 			page 3


  72              		.thumb
  73              		.thumb_func
  74              		.type	Rotary_SetDriveMode, %function
  75              	Rotary_SetDriveMode:
  76              	.LFB1:
  44:.\Generated_Source\PSoC5/Rotary.c **** 
  45:.\Generated_Source\PSoC5/Rotary.c **** 
  46:.\Generated_Source\PSoC5/Rotary.c **** /*******************************************************************************
  47:.\Generated_Source\PSoC5/Rotary.c **** * Function Name: Rotary_SetDriveMode
  48:.\Generated_Source\PSoC5/Rotary.c **** ********************************************************************************
  49:.\Generated_Source\PSoC5/Rotary.c **** *
  50:.\Generated_Source\PSoC5/Rotary.c **** * Summary:
  51:.\Generated_Source\PSoC5/Rotary.c **** *  Change the drive mode on the pins of the port.
  52:.\Generated_Source\PSoC5/Rotary.c **** * 
  53:.\Generated_Source\PSoC5/Rotary.c **** * Parameters:  
  54:.\Generated_Source\PSoC5/Rotary.c **** *  mode:  Change the pins to one of the following drive modes.
  55:.\Generated_Source\PSoC5/Rotary.c **** *
  56:.\Generated_Source\PSoC5/Rotary.c **** *  Rotary_DM_STRONG     Strong Drive 
  57:.\Generated_Source\PSoC5/Rotary.c **** *  Rotary_DM_OD_HI      Open Drain, Drives High 
  58:.\Generated_Source\PSoC5/Rotary.c **** *  Rotary_DM_OD_LO      Open Drain, Drives Low 
  59:.\Generated_Source\PSoC5/Rotary.c **** *  Rotary_DM_RES_UP     Resistive Pull Up 
  60:.\Generated_Source\PSoC5/Rotary.c **** *  Rotary_DM_RES_DWN    Resistive Pull Down 
  61:.\Generated_Source\PSoC5/Rotary.c **** *  Rotary_DM_RES_UPDWN  Resistive Pull Up/Down 
  62:.\Generated_Source\PSoC5/Rotary.c **** *  Rotary_DM_DIG_HIZ    High Impedance Digital 
  63:.\Generated_Source\PSoC5/Rotary.c **** *  Rotary_DM_ALG_HIZ    High Impedance Analog 
  64:.\Generated_Source\PSoC5/Rotary.c **** *
  65:.\Generated_Source\PSoC5/Rotary.c **** * Return: 
  66:.\Generated_Source\PSoC5/Rotary.c **** *  None
  67:.\Generated_Source\PSoC5/Rotary.c **** *
  68:.\Generated_Source\PSoC5/Rotary.c **** *******************************************************************************/
  69:.\Generated_Source\PSoC5/Rotary.c **** void Rotary_SetDriveMode(uint8 mode) 
  70:.\Generated_Source\PSoC5/Rotary.c **** {
  77              		.loc 1 70 0
  78              		.cfi_startproc
  79              		@ args = 0, pretend = 0, frame = 8
  80              		@ frame_needed = 1, uses_anonymous_args = 0
  81              		@ link register save eliminated.
  82 0000 80B4     		push	{r7}
  83              		.cfi_def_cfa_offset 4
  84              		.cfi_offset 7, -4
  85 0002 83B0     		sub	sp, sp, #12
  86              		.cfi_def_cfa_offset 16
  87 0004 00AF     		add	r7, sp, #0
  88              		.cfi_def_cfa_register 7
  89 0006 0346     		mov	r3, r0
  90 0008 FB71     		strb	r3, [r7, #7]
  71:.\Generated_Source\PSoC5/Rotary.c **** 	CyPins_SetPinDriveMode(Rotary_0, mode);
  91              		.loc 1 71 0
  92 000a 0A4B     		ldr	r3, .L5
  93 000c 094A     		ldr	r2, .L5
  94 000e 1278     		ldrb	r2, [r2]
  95 0010 D2B2     		uxtb	r2, r2
  96 0012 D2B2     		uxtb	r2, r2
  97 0014 22F00E02 		bic	r2, r2, #14
  98 0018 D1B2     		uxtb	r1, r2
  99 001a FA79     		ldrb	r2, [r7, #7]	@ zero_extendqisi2
 100 001c 02F00E02 		and	r2, r2, #14
ARM GAS  C:\Users\KHJTON~1\AppData\Local\Temp\ccM10BBE.s 			page 4


 101 0020 D2B2     		uxtb	r2, r2
 102 0022 0A43     		orrs	r2, r2, r1
 103 0024 D2B2     		uxtb	r2, r2
 104 0026 D2B2     		uxtb	r2, r2
 105 0028 1A70     		strb	r2, [r3]
  72:.\Generated_Source\PSoC5/Rotary.c **** }
 106              		.loc 1 72 0
 107 002a 0C37     		adds	r7, r7, #12
 108 002c BD46     		mov	sp, r7
 109              		@ sp needed
 110 002e 5DF8047B 		ldr	r7, [sp], #4
 111 0032 7047     		bx	lr
 112              	.L6:
 113              		.align	2
 114              	.L5:
 115 0034 28500040 		.word	1073762344
 116              		.cfi_endproc
 117              	.LFE1:
 118              		.size	Rotary_SetDriveMode, .-Rotary_SetDriveMode
 119              		.section	.text.Rotary_Read,"ax",%progbits
 120              		.align	2
 121              		.global	Rotary_Read
 122              		.thumb
 123              		.thumb_func
 124              		.type	Rotary_Read, %function
 125              	Rotary_Read:
 126              	.LFB2:
  73:.\Generated_Source\PSoC5/Rotary.c **** 
  74:.\Generated_Source\PSoC5/Rotary.c **** 
  75:.\Generated_Source\PSoC5/Rotary.c **** /*******************************************************************************
  76:.\Generated_Source\PSoC5/Rotary.c **** * Function Name: Rotary_Read
  77:.\Generated_Source\PSoC5/Rotary.c **** ********************************************************************************
  78:.\Generated_Source\PSoC5/Rotary.c **** *
  79:.\Generated_Source\PSoC5/Rotary.c **** * Summary:
  80:.\Generated_Source\PSoC5/Rotary.c **** *  Read the current value on the pins of the Digital Port in right justified 
  81:.\Generated_Source\PSoC5/Rotary.c **** *  form.
  82:.\Generated_Source\PSoC5/Rotary.c **** *
  83:.\Generated_Source\PSoC5/Rotary.c **** * Parameters:  
  84:.\Generated_Source\PSoC5/Rotary.c **** *  None
  85:.\Generated_Source\PSoC5/Rotary.c **** *
  86:.\Generated_Source\PSoC5/Rotary.c **** * Return: 
  87:.\Generated_Source\PSoC5/Rotary.c **** *  Returns the current value of the Digital Port as a right justified number
  88:.\Generated_Source\PSoC5/Rotary.c **** *  
  89:.\Generated_Source\PSoC5/Rotary.c **** * Note:
  90:.\Generated_Source\PSoC5/Rotary.c **** *  Macro Rotary_ReadPS calls this function. 
  91:.\Generated_Source\PSoC5/Rotary.c **** *  
  92:.\Generated_Source\PSoC5/Rotary.c **** *******************************************************************************/
  93:.\Generated_Source\PSoC5/Rotary.c **** uint8 Rotary_Read(void) 
  94:.\Generated_Source\PSoC5/Rotary.c **** {
 127              		.loc 1 94 0
 128              		.cfi_startproc
 129              		@ args = 0, pretend = 0, frame = 0
 130              		@ frame_needed = 1, uses_anonymous_args = 0
 131              		@ link register save eliminated.
 132 0000 80B4     		push	{r7}
 133              		.cfi_def_cfa_offset 4
 134              		.cfi_offset 7, -4
ARM GAS  C:\Users\KHJTON~1\AppData\Local\Temp\ccM10BBE.s 			page 5


 135 0002 00AF     		add	r7, sp, #0
 136              		.cfi_def_cfa_register 7
  95:.\Generated_Source\PSoC5/Rotary.c ****     return (Rotary_PS & Rotary_MASK) >> Rotary_SHIFT;
 137              		.loc 1 95 0
 138 0004 054B     		ldr	r3, .L9
 139 0006 1B78     		ldrb	r3, [r3]
 140 0008 DBB2     		uxtb	r3, r3
 141 000a 03F00103 		and	r3, r3, #1
 142 000e DBB2     		uxtb	r3, r3
  96:.\Generated_Source\PSoC5/Rotary.c **** }
 143              		.loc 1 96 0
 144 0010 1846     		mov	r0, r3
 145 0012 BD46     		mov	sp, r7
 146              		@ sp needed
 147 0014 5DF8047B 		ldr	r7, [sp], #4
 148 0018 7047     		bx	lr
 149              	.L10:
 150 001a 00BF     		.align	2
 151              	.L9:
 152 001c 51510040 		.word	1073762641
 153              		.cfi_endproc
 154              	.LFE2:
 155              		.size	Rotary_Read, .-Rotary_Read
 156              		.section	.text.Rotary_ReadDataReg,"ax",%progbits
 157              		.align	2
 158              		.global	Rotary_ReadDataReg
 159              		.thumb
 160              		.thumb_func
 161              		.type	Rotary_ReadDataReg, %function
 162              	Rotary_ReadDataReg:
 163              	.LFB3:
  97:.\Generated_Source\PSoC5/Rotary.c **** 
  98:.\Generated_Source\PSoC5/Rotary.c **** 
  99:.\Generated_Source\PSoC5/Rotary.c **** /*******************************************************************************
 100:.\Generated_Source\PSoC5/Rotary.c **** * Function Name: Rotary_ReadDataReg
 101:.\Generated_Source\PSoC5/Rotary.c **** ********************************************************************************
 102:.\Generated_Source\PSoC5/Rotary.c **** *
 103:.\Generated_Source\PSoC5/Rotary.c **** * Summary:
 104:.\Generated_Source\PSoC5/Rotary.c **** *  Read the current value assigned to a Digital Port's data output register
 105:.\Generated_Source\PSoC5/Rotary.c **** *
 106:.\Generated_Source\PSoC5/Rotary.c **** * Parameters:  
 107:.\Generated_Source\PSoC5/Rotary.c **** *  None 
 108:.\Generated_Source\PSoC5/Rotary.c **** *
 109:.\Generated_Source\PSoC5/Rotary.c **** * Return: 
 110:.\Generated_Source\PSoC5/Rotary.c **** *  Returns the current value assigned to the Digital Port's data output register
 111:.\Generated_Source\PSoC5/Rotary.c **** *  
 112:.\Generated_Source\PSoC5/Rotary.c **** *******************************************************************************/
 113:.\Generated_Source\PSoC5/Rotary.c **** uint8 Rotary_ReadDataReg(void) 
 114:.\Generated_Source\PSoC5/Rotary.c **** {
 164              		.loc 1 114 0
 165              		.cfi_startproc
 166              		@ args = 0, pretend = 0, frame = 0
 167              		@ frame_needed = 1, uses_anonymous_args = 0
 168              		@ link register save eliminated.
 169 0000 80B4     		push	{r7}
 170              		.cfi_def_cfa_offset 4
 171              		.cfi_offset 7, -4
ARM GAS  C:\Users\KHJTON~1\AppData\Local\Temp\ccM10BBE.s 			page 6


 172 0002 00AF     		add	r7, sp, #0
 173              		.cfi_def_cfa_register 7
 115:.\Generated_Source\PSoC5/Rotary.c ****     return (Rotary_DR & Rotary_MASK) >> Rotary_SHIFT;
 174              		.loc 1 115 0
 175 0004 054B     		ldr	r3, .L13
 176 0006 1B78     		ldrb	r3, [r3]
 177 0008 DBB2     		uxtb	r3, r3
 178 000a 03F00103 		and	r3, r3, #1
 179 000e DBB2     		uxtb	r3, r3
 116:.\Generated_Source\PSoC5/Rotary.c **** }
 180              		.loc 1 116 0
 181 0010 1846     		mov	r0, r3
 182 0012 BD46     		mov	sp, r7
 183              		@ sp needed
 184 0014 5DF8047B 		ldr	r7, [sp], #4
 185 0018 7047     		bx	lr
 186              	.L14:
 187 001a 00BF     		.align	2
 188              	.L13:
 189 001c 50510040 		.word	1073762640
 190              		.cfi_endproc
 191              	.LFE3:
 192              		.size	Rotary_ReadDataReg, .-Rotary_ReadDataReg
 193              		.section	.text.Rotary_ClearInterrupt,"ax",%progbits
 194              		.align	2
 195              		.global	Rotary_ClearInterrupt
 196              		.thumb
 197              		.thumb_func
 198              		.type	Rotary_ClearInterrupt, %function
 199              	Rotary_ClearInterrupt:
 200              	.LFB4:
 117:.\Generated_Source\PSoC5/Rotary.c **** 
 118:.\Generated_Source\PSoC5/Rotary.c **** 
 119:.\Generated_Source\PSoC5/Rotary.c **** /* If Interrupts Are Enabled for this Pins component */ 
 120:.\Generated_Source\PSoC5/Rotary.c **** #if defined(Rotary_INTSTAT) 
 121:.\Generated_Source\PSoC5/Rotary.c **** 
 122:.\Generated_Source\PSoC5/Rotary.c ****     /*******************************************************************************
 123:.\Generated_Source\PSoC5/Rotary.c ****     * Function Name: Rotary_ClearInterrupt
 124:.\Generated_Source\PSoC5/Rotary.c ****     ********************************************************************************
 125:.\Generated_Source\PSoC5/Rotary.c ****     * Summary:
 126:.\Generated_Source\PSoC5/Rotary.c ****     *  Clears any active interrupts attached to port and returns the value of the 
 127:.\Generated_Source\PSoC5/Rotary.c ****     *  interrupt status register.
 128:.\Generated_Source\PSoC5/Rotary.c ****     *
 129:.\Generated_Source\PSoC5/Rotary.c ****     * Parameters:  
 130:.\Generated_Source\PSoC5/Rotary.c ****     *  None 
 131:.\Generated_Source\PSoC5/Rotary.c ****     *
 132:.\Generated_Source\PSoC5/Rotary.c ****     * Return: 
 133:.\Generated_Source\PSoC5/Rotary.c ****     *  Returns the value of the interrupt status register
 134:.\Generated_Source\PSoC5/Rotary.c ****     *  
 135:.\Generated_Source\PSoC5/Rotary.c ****     *******************************************************************************/
 136:.\Generated_Source\PSoC5/Rotary.c ****     uint8 Rotary_ClearInterrupt(void) 
 137:.\Generated_Source\PSoC5/Rotary.c ****     {
 201              		.loc 1 137 0
 202              		.cfi_startproc
 203              		@ args = 0, pretend = 0, frame = 0
 204              		@ frame_needed = 1, uses_anonymous_args = 0
 205              		@ link register save eliminated.
ARM GAS  C:\Users\KHJTON~1\AppData\Local\Temp\ccM10BBE.s 			page 7


 206 0000 80B4     		push	{r7}
 207              		.cfi_def_cfa_offset 4
 208              		.cfi_offset 7, -4
 209 0002 00AF     		add	r7, sp, #0
 210              		.cfi_def_cfa_register 7
 138:.\Generated_Source\PSoC5/Rotary.c ****         return (Rotary_INTSTAT & Rotary_MASK) >> Rotary_SHIFT;
 211              		.loc 1 138 0
 212 0004 054B     		ldr	r3, .L17
 213 0006 1B78     		ldrb	r3, [r3]
 214 0008 DBB2     		uxtb	r3, r3
 215 000a 03F00103 		and	r3, r3, #1
 216 000e DBB2     		uxtb	r3, r3
 139:.\Generated_Source\PSoC5/Rotary.c ****     }
 217              		.loc 1 139 0
 218 0010 1846     		mov	r0, r3
 219 0012 BD46     		mov	sp, r7
 220              		@ sp needed
 221 0014 5DF8047B 		ldr	r7, [sp], #4
 222 0018 7047     		bx	lr
 223              	.L18:
 224 001a 00BF     		.align	2
 225              	.L17:
 226 001c 85450040 		.word	1073759621
 227              		.cfi_endproc
 228              	.LFE4:
 229              		.size	Rotary_ClearInterrupt, .-Rotary_ClearInterrupt
 230              		.text
 231              	.Letext0:
 232              		.file 2 ".\\Generated_Source\\PSoC5\\cytypes.h"