ARM GAS  C:\Users\KHJTON~1\AppData\Local\Temp\cc1B2trn.s 			page 1


   1              		.syntax unified
   2              		.cpu cortex-m3
   3              		.fpu softvfp
   4              		.eabi_attribute 20, 1
   5              		.eabi_attribute 21, 1
   6              		.eabi_attribute 23, 3
   7              		.eabi_attribute 24, 1
   8              		.eabi_attribute 25, 1
   9              		.eabi_attribute 26, 1
  10              		.eabi_attribute 30, 6
  11              		.eabi_attribute 34, 1
  12              		.eabi_attribute 18, 4
  13              		.thumb
  14              		.file	"state_event.c"
  15              		.text
  16              	.Ltext0:
  17              		.cfi_sections	.debug_frame
  18              		.section	.text.action_startup,"ax",%progbits
  19              		.align	2
  20              		.global	action_startup
  21              		.thumb
  22              		.thumb_func
  23              		.type	action_startup, %function
  24              	action_startup:
  25              	.LFB56:
  26              		.file 1 ".\\state_event.c"
   1:.\state_event.c **** /* ========================================
   2:.\state_event.c ****  *
   3:.\state_event.c ****  * Copyright YOUR COMPANY, THE YEAR
   4:.\state_event.c ****  * All Rights Reserved
   5:.\state_event.c ****  * UNPUBLISHED, LICENSED SOFTWARE.
   6:.\state_event.c ****  *
   7:.\state_event.c ****  * CONFIDENTIAL AND PROPRIETARY INFORMATION
   8:.\state_event.c ****  * WHICH IS THE PROPERTY OF your company.
   9:.\state_event.c ****  *
  10:.\state_event.c ****  * ========================================
  11:.\state_event.c **** */
  12:.\state_event.c **** 
  13:.\state_event.c **** #include "state_event.h"
  14:.\state_event.c **** #include "dash_board.h"
  15:.\state_event.c **** 
  16:.\state_event.c **** 
  17:.\state_event.c **** void action_startup(){
  27              		.loc 1 17 0
  28              		.cfi_startproc
  29              		@ args = 0, pretend = 0, frame = 0
  30              		@ frame_needed = 1, uses_anonymous_args = 0
  31              		@ link register save eliminated.
  32 0000 80B4     		push	{r7}
  33              		.cfi_def_cfa_offset 4
  34              		.cfi_offset 7, -4
  35 0002 00AF     		add	r7, sp, #0
  36              		.cfi_def_cfa_register 7
  18:.\state_event.c ****     return;
  37              		.loc 1 18 0
  38 0004 00BF     		nop
  19:.\state_event.c **** }
ARM GAS  C:\Users\KHJTON~1\AppData\Local\Temp\cc1B2trn.s 			page 2


  39              		.loc 1 19 0
  40 0006 BD46     		mov	sp, r7
  41              		@ sp needed
  42 0008 5DF8047B 		ldr	r7, [sp], #4
  43 000c 7047     		bx	lr
  44              		.cfi_endproc
  45              	.LFE56:
  46              		.size	action_startup, .-action_startup
  47 000e 00BF     		.section	.text.action_neutral,"ax",%progbits
  48              		.align	2
  49              		.global	action_neutral
  50              		.thumb
  51              		.thumb_func
  52              		.type	action_neutral, %function
  53              	action_neutral:
  54              	.LFB57:
  20:.\state_event.c **** 
  21:.\state_event.c **** void action_neutral(){
  55              		.loc 1 21 0
  56              		.cfi_startproc
  57              		@ args = 0, pretend = 0, frame = 0
  58              		@ frame_needed = 1, uses_anonymous_args = 0
  59              		@ link register save eliminated.
  60 0000 80B4     		push	{r7}
  61              		.cfi_def_cfa_offset 4
  62              		.cfi_offset 7, -4
  63 0002 00AF     		add	r7, sp, #0
  64              		.cfi_def_cfa_register 7
  22:.\state_event.c ****     return;
  65              		.loc 1 22 0
  66 0004 00BF     		nop
  23:.\state_event.c **** }
  67              		.loc 1 23 0
  68 0006 BD46     		mov	sp, r7
  69              		@ sp needed
  70 0008 5DF8047B 		ldr	r7, [sp], #4
  71 000c 7047     		bx	lr
  72              		.cfi_endproc
  73              	.LFE57:
  74              		.size	action_neutral, .-action_neutral
  75 000e 00BF     		.section	.text.action_drive,"ax",%progbits
  76              		.align	2
  77              		.global	action_drive
  78              		.thumb
  79              		.thumb_func
  80              		.type	action_drive, %function
  81              	action_drive:
  82              	.LFB58:
  24:.\state_event.c **** 
  25:.\state_event.c **** void action_drive(){
  83              		.loc 1 25 0
  84              		.cfi_startproc
  85              		@ args = 0, pretend = 0, frame = 0
  86              		@ frame_needed = 1, uses_anonymous_args = 0
  87              		@ link register save eliminated.
  88 0000 80B4     		push	{r7}
  89              		.cfi_def_cfa_offset 4
ARM GAS  C:\Users\KHJTON~1\AppData\Local\Temp\cc1B2trn.s 			page 3


  90              		.cfi_offset 7, -4
  91 0002 00AF     		add	r7, sp, #0
  92              		.cfi_def_cfa_register 7
  26:.\state_event.c ****     return;
  93              		.loc 1 26 0
  94 0004 00BF     		nop
  27:.\state_event.c **** }   //display, and put 
  95              		.loc 1 27 0
  96 0006 BD46     		mov	sp, r7
  97              		@ sp needed
  98 0008 5DF8047B 		ldr	r7, [sp], #4
  99 000c 7047     		bx	lr
 100              		.cfi_endproc
 101              	.LFE58:
 102              		.size	action_drive, .-action_drive
 103 000e 00BF     		.section	.text.action_precharge,"ax",%progbits
 104              		.align	2
 105              		.global	action_precharge
 106              		.thumb
 107              		.thumb_func
 108              		.type	action_precharge, %function
 109              	action_precharge:
 110              	.LFB59:
  28:.\state_event.c **** 
  29:.\state_event.c **** 
  30:.\state_event.c **** void action_precharge(){
 111              		.loc 1 30 0
 112              		.cfi_startproc
 113              		@ args = 0, pretend = 0, frame = 0
 114              		@ frame_needed = 1, uses_anonymous_args = 0
 115              		@ link register save eliminated.
 116 0000 80B4     		push	{r7}
 117              		.cfi_def_cfa_offset 4
 118              		.cfi_offset 7, -4
 119 0002 00AF     		add	r7, sp, #0
 120              		.cfi_def_cfa_register 7
  31:.\state_event.c ****     return;
 121              		.loc 1 31 0
 122 0004 00BF     		nop
  32:.\state_event.c **** }
 123              		.loc 1 32 0
 124 0006 BD46     		mov	sp, r7
 125              		@ sp needed
 126 0008 5DF8047B 		ldr	r7, [sp], #4
 127 000c 7047     		bx	lr
 128              		.cfi_endproc
 129              	.LFE59:
 130              		.size	action_precharge, .-action_precharge
 131 000e 00BF     		.section	.text.action_charging,"ax",%progbits
 132              		.align	2
 133              		.global	action_charging
 134              		.thumb
 135              		.thumb_func
 136              		.type	action_charging, %function
 137              	action_charging:
 138              	.LFB60:
  33:.\state_event.c **** 
ARM GAS  C:\Users\KHJTON~1\AppData\Local\Temp\cc1B2trn.s 			page 4


  34:.\state_event.c **** void action_charging(){
 139              		.loc 1 34 0
 140              		.cfi_startproc
 141              		@ args = 0, pretend = 0, frame = 0
 142              		@ frame_needed = 1, uses_anonymous_args = 0
 143              		@ link register save eliminated.
 144 0000 80B4     		push	{r7}
 145              		.cfi_def_cfa_offset 4
 146              		.cfi_offset 7, -4
 147 0002 00AF     		add	r7, sp, #0
 148              		.cfi_def_cfa_register 7
  35:.\state_event.c ****     return;
 149              		.loc 1 35 0
 150 0004 00BF     		nop
  36:.\state_event.c **** }
 151              		.loc 1 36 0
 152 0006 BD46     		mov	sp, r7
 153              		@ sp needed
 154 0008 5DF8047B 		ldr	r7, [sp], #4
 155 000c 7047     		bx	lr
 156              		.cfi_endproc
 157              	.LFE60:
 158              		.size	action_charging, .-action_charging
 159 000e 00BF     		.section	.text.action_soft_fault,"ax",%progbits
 160              		.align	2
 161              		.global	action_soft_fault
 162              		.thumb
 163              		.thumb_func
 164              		.type	action_soft_fault, %function
 165              	action_soft_fault:
 166              	.LFB61:
  37:.\state_event.c **** 
  38:.\state_event.c **** void action_soft_fault(){
 167              		.loc 1 38 0
 168              		.cfi_startproc
 169              		@ args = 0, pretend = 0, frame = 0
 170              		@ frame_needed = 1, uses_anonymous_args = 0
 171              		@ link register save eliminated.
 172 0000 80B4     		push	{r7}
 173              		.cfi_def_cfa_offset 4
 174              		.cfi_offset 7, -4
 175 0002 00AF     		add	r7, sp, #0
 176              		.cfi_def_cfa_register 7
  39:.\state_event.c ****     return;
 177              		.loc 1 39 0
 178 0004 00BF     		nop
  40:.\state_event.c **** }
 179              		.loc 1 40 0
 180 0006 BD46     		mov	sp, r7
 181              		@ sp needed
 182 0008 5DF8047B 		ldr	r7, [sp], #4
 183 000c 7047     		bx	lr
 184              		.cfi_endproc
 185              	.LFE61:
 186              		.size	action_soft_fault, .-action_soft_fault
 187 000e 00BF     		.section	.text.action_hard_fault,"ax",%progbits
 188              		.align	2
ARM GAS  C:\Users\KHJTON~1\AppData\Local\Temp\cc1B2trn.s 			page 5


 189              		.global	action_hard_fault
 190              		.thumb
 191              		.thumb_func
 192              		.type	action_hard_fault, %function
 193              	action_hard_fault:
 194              	.LFB62:
  41:.\state_event.c **** 
  42:.\state_event.c **** void action_hard_fault(){
 195              		.loc 1 42 0
 196              		.cfi_startproc
 197              		@ args = 0, pretend = 0, frame = 0
 198              		@ frame_needed = 1, uses_anonymous_args = 0
 199              		@ link register save eliminated.
 200 0000 80B4     		push	{r7}
 201              		.cfi_def_cfa_offset 4
 202              		.cfi_offset 7, -4
 203 0002 00AF     		add	r7, sp, #0
 204              		.cfi_def_cfa_register 7
  43:.\state_event.c ****     return;
 205              		.loc 1 43 0
 206 0004 00BF     		nop
  44:.\state_event.c **** }
 207              		.loc 1 44 0
 208 0006 BD46     		mov	sp, r7
 209              		@ sp needed
 210 0008 5DF8047B 		ldr	r7, [sp], #4
 211 000c 7047     		bx	lr
 212              		.cfi_endproc
 213              	.LFE62:
 214              		.size	action_hard_fault, .-action_hard_fault
 215 000e 00BF     		.section	.text.reset_drive_sound,"ax",%progbits
 216              		.align	2
 217              		.global	reset_drive_sound
 218              		.thumb
 219              		.thumb_func
 220              		.type	reset_drive_sound, %function
 221              	reset_drive_sound:
 222              	.LFB63:
  45:.\state_event.c **** 
  46:.\state_event.c **** 
  47:.\state_event.c **** 
  48:.\state_event.c **** 
  49:.\state_event.c **** void reset_drive_sound(){
 223              		.loc 1 49 0
 224              		.cfi_startproc
 225              		@ args = 0, pretend = 0, frame = 0
 226              		@ frame_needed = 1, uses_anonymous_args = 0
 227              		@ link register save eliminated.
 228 0000 80B4     		push	{r7}
 229              		.cfi_def_cfa_offset 4
 230              		.cfi_offset 7, -4
 231 0002 00AF     		add	r7, sp, #0
 232              		.cfi_def_cfa_register 7
  50:.\state_event.c ****     return;
 233              		.loc 1 50 0
 234 0004 00BF     		nop
  51:.\state_event.c **** }
ARM GAS  C:\Users\KHJTON~1\AppData\Local\Temp\cc1B2trn.s 			page 6


 235              		.loc 1 51 0
 236 0006 BD46     		mov	sp, r7
 237              		@ sp needed
 238 0008 5DF8047B 		ldr	r7, [sp], #4
 239 000c 7047     		bx	lr
 240              		.cfi_endproc
 241              	.LFE63:
 242              		.size	reset_drive_sound, .-reset_drive_sound
 243 000e 00BF     		.section	.text.reset_precharge_timer,"ax",%progbits
 244              		.align	2
 245              		.global	reset_precharge_timer
 246              		.thumb
 247              		.thumb_func
 248              		.type	reset_precharge_timer, %function
 249              	reset_precharge_timer:
 250              	.LFB64:
  52:.\state_event.c **** 
  53:.\state_event.c **** 
  54:.\state_event.c **** void reset_precharge_timer(){
 251              		.loc 1 54 0
 252              		.cfi_startproc
 253              		@ args = 0, pretend = 0, frame = 0
 254              		@ frame_needed = 1, uses_anonymous_args = 0
 255              		@ link register save eliminated.
 256 0000 80B4     		push	{r7}
 257              		.cfi_def_cfa_offset 4
 258              		.cfi_offset 7, -4
 259 0002 00AF     		add	r7, sp, #0
 260              		.cfi_def_cfa_register 7
  55:.\state_event.c ****     return;   
 261              		.loc 1 55 0
 262 0004 00BF     		nop
  56:.\state_event.c **** }
 263              		.loc 1 56 0
 264 0006 BD46     		mov	sp, r7
 265              		@ sp needed
 266 0008 5DF8047B 		ldr	r7, [sp], #4
 267 000c 7047     		bx	lr
 268              		.cfi_endproc
 269              	.LFE64:
 270              		.size	reset_precharge_timer, .-reset_precharge_timer
 271 000e 00BF     		.section	.text.reset_fault_sound,"ax",%progbits
 272              		.align	2
 273              		.global	reset_fault_sound
 274              		.thumb
 275              		.thumb_func
 276              		.type	reset_fault_sound, %function
 277              	reset_fault_sound:
 278              	.LFB65:
  57:.\state_event.c **** 
  58:.\state_event.c **** void reset_fault_sound(){
 279              		.loc 1 58 0
 280              		.cfi_startproc
 281              		@ args = 0, pretend = 0, frame = 0
 282              		@ frame_needed = 1, uses_anonymous_args = 0
 283              		@ link register save eliminated.
 284 0000 80B4     		push	{r7}
ARM GAS  C:\Users\KHJTON~1\AppData\Local\Temp\cc1B2trn.s 			page 7


 285              		.cfi_def_cfa_offset 4
 286              		.cfi_offset 7, -4
 287 0002 00AF     		add	r7, sp, #0
 288              		.cfi_def_cfa_register 7
  59:.\state_event.c ****     return;
 289              		.loc 1 59 0
 290 0004 00BF     		nop
  60:.\state_event.c **** }
 291              		.loc 1 60 0
 292 0006 BD46     		mov	sp, r7
 293              		@ sp needed
 294 0008 5DF8047B 		ldr	r7, [sp], #4
 295 000c 7047     		bx	lr
 296              		.cfi_endproc
 297              	.LFE65:
 298              		.size	reset_fault_sound, .-reset_fault_sound
 299 000e 00BF     		.section	.text.get_CAN_error,"ax",%progbits
 300              		.align	2
 301              		.global	get_CAN_error
 302              		.thumb
 303              		.thumb_func
 304              		.type	get_CAN_error, %function
 305              	get_CAN_error:
 306              	.LFB66:
  61:.\state_event.c **** 
  62:.\state_event.c **** Events get_CAN_error(){
 307              		.loc 1 62 0
 308              		.cfi_startproc
 309              		@ args = 0, pretend = 0, frame = 0
 310              		@ frame_needed = 1, uses_anonymous_args = 0
 311              		@ link register save eliminated.
 312 0000 80B4     		push	{r7}
 313              		.cfi_def_cfa_offset 4
 314              		.cfi_offset 7, -4
 315 0002 00AF     		add	r7, sp, #0
 316              		.cfi_def_cfa_register 7
  63:.\state_event.c **** 
  64:.\state_event.c ****     return NONE;
 317              		.loc 1 64 0
 318 0004 0923     		movs	r3, #9
  65:.\state_event.c **** }
 319              		.loc 1 65 0
 320 0006 1846     		mov	r0, r3
 321 0008 BD46     		mov	sp, r7
 322              		@ sp needed
 323 000a 5DF8047B 		ldr	r7, [sp], #4
 324 000e 7047     		bx	lr
 325              		.cfi_endproc
 326              	.LFE66:
 327              		.size	get_CAN_error, .-get_CAN_error
 328              		.text
 329              	.Letext0:
 330              		.file 2 "d:\\software\\psoccreator\\psoc creator\\3.1\\psoc creator\\import\\gnu_cs\\arm\\4.8.4\\a
 331              		.file 3 "d:\\software\\psoccreator\\psoc creator\\3.1\\psoc creator\\import\\gnu_cs\\arm\\4.8.4\\a
 332              		.file 4 ".\\state_event.h"
 333              		.file 5 ".\\Generated_Source\\PSoC5/core_cm3.h"