ARM GAS  C:\Users\khjtony\AppData\Local\Temp\ccV9NdEC.s 			page 1


   1              		.syntax unified
   2              		.cpu cortex-m3
   3              		.fpu softvfp
   4              		.eabi_attribute 20, 1
   5              		.eabi_attribute 21, 1
   6              		.eabi_attribute 23, 3
   7              		.eabi_attribute 24, 1
   8              		.eabi_attribute 25, 1
   9              		.eabi_attribute 26, 1
  10              		.eabi_attribute 30, 6
  11              		.eabi_attribute 34, 1
  12              		.eabi_attribute 18, 4
  13              		.thumb
  14              		.file	"cyfitter_cfg.c"
  15              		.text
  16              	.Ltext0:
  17              		.cfi_sections	.debug_frame
  18              		.section	.text.CYMEMZERO,"ax",%progbits
  19              		.align	2
  20              		.thumb
  21              		.thumb_func
  22              		.type	CYMEMZERO, %function
  23              	CYMEMZERO:
  24              	.LFB0:
  25              		.file 1 ".\\Generated_Source\\PSoC5\\cyfitter_cfg.c"
   1:.\Generated_Source\PSoC5/cyfitter_cfg.c **** /*******************************************************************************
   2:.\Generated_Source\PSoC5/cyfitter_cfg.c **** * FILENAME: cyfitter_cfg.c
   3:.\Generated_Source\PSoC5/cyfitter_cfg.c **** * PSoC Creator  3.1
   4:.\Generated_Source\PSoC5/cyfitter_cfg.c **** *
   5:.\Generated_Source\PSoC5/cyfitter_cfg.c **** * Description:
   6:.\Generated_Source\PSoC5/cyfitter_cfg.c **** * This file is automatically generated by PSoC Creator with device 
   7:.\Generated_Source\PSoC5/cyfitter_cfg.c **** * initialization code.  Except for the user defined sections in
   8:.\Generated_Source\PSoC5/cyfitter_cfg.c **** * CyClockStartupError(), this file should not be modified.
   9:.\Generated_Source\PSoC5/cyfitter_cfg.c **** *
  10:.\Generated_Source\PSoC5/cyfitter_cfg.c **** ********************************************************************************
  11:.\Generated_Source\PSoC5/cyfitter_cfg.c **** * Copyright 2013, Cypress Semiconductor Corporation.  All rights reserved.
  12:.\Generated_Source\PSoC5/cyfitter_cfg.c **** * You may use this file only in accordance with the license, terms, conditions, 
  13:.\Generated_Source\PSoC5/cyfitter_cfg.c **** * disclaimers, and limitations in the end user license agreement accompanying 
  14:.\Generated_Source\PSoC5/cyfitter_cfg.c **** * the software package with which this file was provided.
  15:.\Generated_Source\PSoC5/cyfitter_cfg.c **** ********************************************************************************/
  16:.\Generated_Source\PSoC5/cyfitter_cfg.c **** 
  17:.\Generated_Source\PSoC5/cyfitter_cfg.c **** #include <string.h>
  18:.\Generated_Source\PSoC5/cyfitter_cfg.c **** #include <cytypes.h>
  19:.\Generated_Source\PSoC5/cyfitter_cfg.c **** #include <cydevice_trm.h>
  20:.\Generated_Source\PSoC5/cyfitter_cfg.c **** #include <cyfitter.h>
  21:.\Generated_Source\PSoC5/cyfitter_cfg.c **** #include <CyLib.h>
  22:.\Generated_Source\PSoC5/cyfitter_cfg.c **** #include <cyfitter_cfg.h>
  23:.\Generated_Source\PSoC5/cyfitter_cfg.c **** 
  24:.\Generated_Source\PSoC5/cyfitter_cfg.c **** #define CY_NEED_CYCLOCKSTARTUPERROR 1
  25:.\Generated_Source\PSoC5/cyfitter_cfg.c **** 
  26:.\Generated_Source\PSoC5/cyfitter_cfg.c **** 
  27:.\Generated_Source\PSoC5/cyfitter_cfg.c **** #if defined(__GNUC__) || defined(__ARMCC_VERSION)
  28:.\Generated_Source\PSoC5/cyfitter_cfg.c ****     #define CYPACKED 
  29:.\Generated_Source\PSoC5/cyfitter_cfg.c ****     #define CYPACKED_ATTR __attribute__ ((packed))
  30:.\Generated_Source\PSoC5/cyfitter_cfg.c ****     #define CYALIGNED __attribute__ ((aligned))
  31:.\Generated_Source\PSoC5/cyfitter_cfg.c ****     #define CY_CFG_UNUSED __attribute__ ((unused))
  32:.\Generated_Source\PSoC5/cyfitter_cfg.c ****     #define CY_CFG_SECTION __attribute__ ((section(".psocinit")))
ARM GAS  C:\Users\khjtony\AppData\Local\Temp\ccV9NdEC.s 			page 2


  33:.\Generated_Source\PSoC5/cyfitter_cfg.c ****     
  34:.\Generated_Source\PSoC5/cyfitter_cfg.c ****     #if defined(__ARMCC_VERSION)
  35:.\Generated_Source\PSoC5/cyfitter_cfg.c ****         #define CY_CFG_MEMORY_BARRIER() __memory_changed()
  36:.\Generated_Source\PSoC5/cyfitter_cfg.c ****     #else
  37:.\Generated_Source\PSoC5/cyfitter_cfg.c ****         #define CY_CFG_MEMORY_BARRIER() __sync_synchronize()
  38:.\Generated_Source\PSoC5/cyfitter_cfg.c ****     #endif
  39:.\Generated_Source\PSoC5/cyfitter_cfg.c ****     
  40:.\Generated_Source\PSoC5/cyfitter_cfg.c **** #elif defined(__ICCARM__)
  41:.\Generated_Source\PSoC5/cyfitter_cfg.c ****     #include <intrinsics.h>
  42:.\Generated_Source\PSoC5/cyfitter_cfg.c **** 
  43:.\Generated_Source\PSoC5/cyfitter_cfg.c ****     #define CYPACKED __packed
  44:.\Generated_Source\PSoC5/cyfitter_cfg.c ****     #define CYPACKED_ATTR 
  45:.\Generated_Source\PSoC5/cyfitter_cfg.c ****     #define CYALIGNED _Pragma("data_alignment=4")
  46:.\Generated_Source\PSoC5/cyfitter_cfg.c ****     #define CY_CFG_UNUSED _Pragma("diag_suppress=Pe177")
  47:.\Generated_Source\PSoC5/cyfitter_cfg.c ****     #define CY_CFG_SECTION _Pragma("location=\".psocinit\"")
  48:.\Generated_Source\PSoC5/cyfitter_cfg.c ****     
  49:.\Generated_Source\PSoC5/cyfitter_cfg.c ****     #define CY_CFG_MEMORY_BARRIER() __DMB()
  50:.\Generated_Source\PSoC5/cyfitter_cfg.c ****     
  51:.\Generated_Source\PSoC5/cyfitter_cfg.c **** #else
  52:.\Generated_Source\PSoC5/cyfitter_cfg.c ****     #error Unsupported toolchain
  53:.\Generated_Source\PSoC5/cyfitter_cfg.c **** #endif
  54:.\Generated_Source\PSoC5/cyfitter_cfg.c **** 
  55:.\Generated_Source\PSoC5/cyfitter_cfg.c **** 
  56:.\Generated_Source\PSoC5/cyfitter_cfg.c **** CY_CFG_UNUSED
  57:.\Generated_Source\PSoC5/cyfitter_cfg.c **** static void CYMEMZERO(void *s, size_t n);
  58:.\Generated_Source\PSoC5/cyfitter_cfg.c **** CY_CFG_UNUSED
  59:.\Generated_Source\PSoC5/cyfitter_cfg.c **** static void CYMEMZERO(void *s, size_t n)
  60:.\Generated_Source\PSoC5/cyfitter_cfg.c **** {
  26              		.loc 1 60 0
  27              		.cfi_startproc
  28              		@ args = 0, pretend = 0, frame = 8
  29              		@ frame_needed = 1, uses_anonymous_args = 0
  30 0000 80B5     		push	{r7, lr}
  31              		.cfi_def_cfa_offset 8
  32              		.cfi_offset 7, -8
  33              		.cfi_offset 14, -4
  34 0002 82B0     		sub	sp, sp, #8
  35              		.cfi_def_cfa_offset 16
  36 0004 00AF     		add	r7, sp, #0
  37              		.cfi_def_cfa_register 7
  38 0006 7860     		str	r0, [r7, #4]
  39 0008 3960     		str	r1, [r7]
  61:.\Generated_Source\PSoC5/cyfitter_cfg.c **** 	(void)memset(s, 0, n);
  40              		.loc 1 61 0
  41 000a 7868     		ldr	r0, [r7, #4]
  42 000c 0021     		movs	r1, #0
  43 000e 3A68     		ldr	r2, [r7]
  44 0010 FFF7FEFF 		bl	memset
  62:.\Generated_Source\PSoC5/cyfitter_cfg.c **** }
  45              		.loc 1 62 0
  46 0014 0837     		adds	r7, r7, #8
  47 0016 BD46     		mov	sp, r7
  48              		@ sp needed
  49 0018 80BD     		pop	{r7, pc}
  50              		.cfi_endproc
  51              	.LFE0:
  52              		.size	CYMEMZERO, .-CYMEMZERO
ARM GAS  C:\Users\khjtony\AppData\Local\Temp\ccV9NdEC.s 			page 3


  53 001a 00BF     		.section	.text.CYCONFIGCPY,"ax",%progbits
  54              		.align	2
  55              		.thumb
  56              		.thumb_func
  57              		.type	CYCONFIGCPY, %function
  58              	CYCONFIGCPY:
  59              	.LFB1:
  63:.\Generated_Source\PSoC5/cyfitter_cfg.c **** CY_CFG_UNUSED
  64:.\Generated_Source\PSoC5/cyfitter_cfg.c **** static void CYCONFIGCPY(void *dest, const void *src, size_t n);
  65:.\Generated_Source\PSoC5/cyfitter_cfg.c **** CY_CFG_UNUSED
  66:.\Generated_Source\PSoC5/cyfitter_cfg.c **** static void CYCONFIGCPY(void *dest, const void *src, size_t n)
  67:.\Generated_Source\PSoC5/cyfitter_cfg.c **** {
  60              		.loc 1 67 0
  61              		.cfi_startproc
  62              		@ args = 0, pretend = 0, frame = 16
  63              		@ frame_needed = 1, uses_anonymous_args = 0
  64 0000 80B5     		push	{r7, lr}
  65              		.cfi_def_cfa_offset 8
  66              		.cfi_offset 7, -8
  67              		.cfi_offset 14, -4
  68 0002 84B0     		sub	sp, sp, #16
  69              		.cfi_def_cfa_offset 24
  70 0004 00AF     		add	r7, sp, #0
  71              		.cfi_def_cfa_register 7
  72 0006 F860     		str	r0, [r7, #12]
  73 0008 B960     		str	r1, [r7, #8]
  74 000a 7A60     		str	r2, [r7, #4]
  68:.\Generated_Source\PSoC5/cyfitter_cfg.c **** 	(void)memcpy(dest, src, n);
  75              		.loc 1 68 0
  76 000c F868     		ldr	r0, [r7, #12]
  77 000e B968     		ldr	r1, [r7, #8]
  78 0010 7A68     		ldr	r2, [r7, #4]
  79 0012 FFF7FEFF 		bl	memcpy
  69:.\Generated_Source\PSoC5/cyfitter_cfg.c **** }
  80              		.loc 1 69 0
  81 0016 1037     		adds	r7, r7, #16
  82 0018 BD46     		mov	sp, r7
  83              		@ sp needed
  84 001a 80BD     		pop	{r7, pc}
  85              		.cfi_endproc
  86              	.LFE1:
  87              		.size	CYCONFIGCPY, .-CYCONFIGCPY
  88              		.section	.text.CYCONFIGCPYCODE,"ax",%progbits
  89              		.align	2
  90              		.thumb
  91              		.thumb_func
  92              		.type	CYCONFIGCPYCODE, %function
  93              	CYCONFIGCPYCODE:
  94              	.LFB2:
  70:.\Generated_Source\PSoC5/cyfitter_cfg.c **** CY_CFG_UNUSED
  71:.\Generated_Source\PSoC5/cyfitter_cfg.c **** static void CYCONFIGCPYCODE(void *dest, const void *src, size_t n);
  72:.\Generated_Source\PSoC5/cyfitter_cfg.c **** CY_CFG_UNUSED
  73:.\Generated_Source\PSoC5/cyfitter_cfg.c **** static void CYCONFIGCPYCODE(void *dest, const void *src, size_t n)
  74:.\Generated_Source\PSoC5/cyfitter_cfg.c **** {
  95              		.loc 1 74 0
  96              		.cfi_startproc
  97              		@ args = 0, pretend = 0, frame = 16
ARM GAS  C:\Users\khjtony\AppData\Local\Temp\ccV9NdEC.s 			page 4


  98              		@ frame_needed = 1, uses_anonymous_args = 0
  99 0000 80B5     		push	{r7, lr}
 100              		.cfi_def_cfa_offset 8
 101              		.cfi_offset 7, -8
 102              		.cfi_offset 14, -4
 103 0002 84B0     		sub	sp, sp, #16
 104              		.cfi_def_cfa_offset 24
 105 0004 00AF     		add	r7, sp, #0
 106              		.cfi_def_cfa_register 7
 107 0006 F860     		str	r0, [r7, #12]
 108 0008 B960     		str	r1, [r7, #8]
 109 000a 7A60     		str	r2, [r7, #4]
  75:.\Generated_Source\PSoC5/cyfitter_cfg.c **** 	(void)memcpy(dest, src, n);
 110              		.loc 1 75 0
 111 000c F868     		ldr	r0, [r7, #12]
 112 000e B968     		ldr	r1, [r7, #8]
 113 0010 7A68     		ldr	r2, [r7, #4]
 114 0012 FFF7FEFF 		bl	memcpy
  76:.\Generated_Source\PSoC5/cyfitter_cfg.c **** }
 115              		.loc 1 76 0
 116 0016 1037     		adds	r7, r7, #16
 117 0018 BD46     		mov	sp, r7
 118              		@ sp needed
 119 001a 80BD     		pop	{r7, pc}
 120              		.cfi_endproc
 121              	.LFE2:
 122              		.size	CYCONFIGCPYCODE, .-CYCONFIGCPYCODE
 123              		.section	.text.CyClockStartupError,"ax",%progbits
 124              		.align	2
 125              		.thumb
 126              		.thumb_func
 127              		.type	CyClockStartupError, %function
 128              	CyClockStartupError:
 129              	.LFB3:
  77:.\Generated_Source\PSoC5/cyfitter_cfg.c **** 
  78:.\Generated_Source\PSoC5/cyfitter_cfg.c **** 
  79:.\Generated_Source\PSoC5/cyfitter_cfg.c **** 
  80:.\Generated_Source\PSoC5/cyfitter_cfg.c **** /* Clock startup error codes                                                   */
  81:.\Generated_Source\PSoC5/cyfitter_cfg.c **** #define CYCLOCKSTART_NO_ERROR    0u
  82:.\Generated_Source\PSoC5/cyfitter_cfg.c **** #define CYCLOCKSTART_XTAL_ERROR  1u
  83:.\Generated_Source\PSoC5/cyfitter_cfg.c **** #define CYCLOCKSTART_32KHZ_ERROR 2u
  84:.\Generated_Source\PSoC5/cyfitter_cfg.c **** #define CYCLOCKSTART_PLL_ERROR   3u
  85:.\Generated_Source\PSoC5/cyfitter_cfg.c **** 
  86:.\Generated_Source\PSoC5/cyfitter_cfg.c **** #ifdef CY_NEED_CYCLOCKSTARTUPERROR
  87:.\Generated_Source\PSoC5/cyfitter_cfg.c **** /*******************************************************************************
  88:.\Generated_Source\PSoC5/cyfitter_cfg.c **** * Function Name: CyClockStartupError
  89:.\Generated_Source\PSoC5/cyfitter_cfg.c **** ********************************************************************************
  90:.\Generated_Source\PSoC5/cyfitter_cfg.c **** * Summary:
  91:.\Generated_Source\PSoC5/cyfitter_cfg.c **** *  If an error is encountered during clock configuration (crystal startup error,
  92:.\Generated_Source\PSoC5/cyfitter_cfg.c **** *  PLL lock error, etc.), the system will end up here.  Unless reimplemented by
  93:.\Generated_Source\PSoC5/cyfitter_cfg.c **** *  the customer, this function will stop in an infinite loop.
  94:.\Generated_Source\PSoC5/cyfitter_cfg.c **** *
  95:.\Generated_Source\PSoC5/cyfitter_cfg.c **** * Parameters:
  96:.\Generated_Source\PSoC5/cyfitter_cfg.c **** *   void
  97:.\Generated_Source\PSoC5/cyfitter_cfg.c **** *
  98:.\Generated_Source\PSoC5/cyfitter_cfg.c **** * Return:
  99:.\Generated_Source\PSoC5/cyfitter_cfg.c **** *   void
ARM GAS  C:\Users\khjtony\AppData\Local\Temp\ccV9NdEC.s 			page 5


 100:.\Generated_Source\PSoC5/cyfitter_cfg.c **** *
 101:.\Generated_Source\PSoC5/cyfitter_cfg.c **** *******************************************************************************/
 102:.\Generated_Source\PSoC5/cyfitter_cfg.c **** CY_CFG_UNUSED
 103:.\Generated_Source\PSoC5/cyfitter_cfg.c **** static void CyClockStartupError(uint8 errorCode);
 104:.\Generated_Source\PSoC5/cyfitter_cfg.c **** CY_CFG_UNUSED
 105:.\Generated_Source\PSoC5/cyfitter_cfg.c **** static void CyClockStartupError(uint8 errorCode)
 106:.\Generated_Source\PSoC5/cyfitter_cfg.c **** {
 130              		.loc 1 106 0
 131              		.cfi_startproc
 132              		@ args = 0, pretend = 0, frame = 8
 133              		@ frame_needed = 1, uses_anonymous_args = 0
 134              		@ link register save eliminated.
 135 0000 80B4     		push	{r7}
 136              		.cfi_def_cfa_offset 4
 137              		.cfi_offset 7, -4
 138 0002 83B0     		sub	sp, sp, #12
 139              		.cfi_def_cfa_offset 16
 140 0004 00AF     		add	r7, sp, #0
 141              		.cfi_def_cfa_register 7
 142 0006 0346     		mov	r3, r0
 143 0008 FB71     		strb	r3, [r7, #7]
 144              	.L5:
 107:.\Generated_Source\PSoC5/cyfitter_cfg.c ****     /* To remove the compiler warning if errorCode not used.                */
 108:.\Generated_Source\PSoC5/cyfitter_cfg.c ****     errorCode = errorCode;
 109:.\Generated_Source\PSoC5/cyfitter_cfg.c **** 
 110:.\Generated_Source\PSoC5/cyfitter_cfg.c ****     /* `#START CyClockStartupError` */
 111:.\Generated_Source\PSoC5/cyfitter_cfg.c **** 
 112:.\Generated_Source\PSoC5/cyfitter_cfg.c ****     /* If we have a clock startup error (bad MHz crystal, PLL lock, etc.),  */
 113:.\Generated_Source\PSoC5/cyfitter_cfg.c ****     /* we will end up here to allow the customer to implement something to  */
 114:.\Generated_Source\PSoC5/cyfitter_cfg.c ****     /* deal with the clock condition.                                       */
 115:.\Generated_Source\PSoC5/cyfitter_cfg.c **** 
 116:.\Generated_Source\PSoC5/cyfitter_cfg.c ****     /* `#END` */
 117:.\Generated_Source\PSoC5/cyfitter_cfg.c **** 
 118:.\Generated_Source\PSoC5/cyfitter_cfg.c ****     /* If nothing else, stop here since the clocks have not started         */
 119:.\Generated_Source\PSoC5/cyfitter_cfg.c ****     /* correctly.                                                           */
 120:.\Generated_Source\PSoC5/cyfitter_cfg.c ****     while(1) {}
 145              		.loc 1 120 0 discriminator 1
 146 000a FEE7     		b	.L5
 147              		.cfi_endproc
 148              	.LFE3:
 149              		.size	CyClockStartupError, .-CyClockStartupError
 150              		.section	.text.ClockSetup,"ax",%progbits
 151              		.align	2
 152              		.thumb
 153              		.thumb_func
 154              		.type	ClockSetup, %function
 155              	ClockSetup:
 156              	.LFB4:
 121:.\Generated_Source\PSoC5/cyfitter_cfg.c **** }
 122:.\Generated_Source\PSoC5/cyfitter_cfg.c **** #endif
 123:.\Generated_Source\PSoC5/cyfitter_cfg.c **** 
 124:.\Generated_Source\PSoC5/cyfitter_cfg.c **** 
 125:.\Generated_Source\PSoC5/cyfitter_cfg.c **** /*******************************************************************************
 126:.\Generated_Source\PSoC5/cyfitter_cfg.c **** * Function Name: ClockSetup
 127:.\Generated_Source\PSoC5/cyfitter_cfg.c **** ********************************************************************************
 128:.\Generated_Source\PSoC5/cyfitter_cfg.c **** *
 129:.\Generated_Source\PSoC5/cyfitter_cfg.c **** * Summary:
ARM GAS  C:\Users\khjtony\AppData\Local\Temp\ccV9NdEC.s 			page 6


 130:.\Generated_Source\PSoC5/cyfitter_cfg.c **** *  Performs the initialization of all of the clocks in the device based on the
 131:.\Generated_Source\PSoC5/cyfitter_cfg.c **** *  settings in the Clock tab of the DWR.  This includes enabling the requested
 132:.\Generated_Source\PSoC5/cyfitter_cfg.c **** *  clocks and setting the necessary dividers to produce the desired frequency. 
 133:.\Generated_Source\PSoC5/cyfitter_cfg.c **** *
 134:.\Generated_Source\PSoC5/cyfitter_cfg.c **** * Parameters:
 135:.\Generated_Source\PSoC5/cyfitter_cfg.c **** *  void
 136:.\Generated_Source\PSoC5/cyfitter_cfg.c **** *
 137:.\Generated_Source\PSoC5/cyfitter_cfg.c **** * Return:
 138:.\Generated_Source\PSoC5/cyfitter_cfg.c **** *  void
 139:.\Generated_Source\PSoC5/cyfitter_cfg.c **** *
 140:.\Generated_Source\PSoC5/cyfitter_cfg.c **** *******************************************************************************/
 141:.\Generated_Source\PSoC5/cyfitter_cfg.c **** static void ClockSetup(void);
 142:.\Generated_Source\PSoC5/cyfitter_cfg.c **** static void ClockSetup(void)
 143:.\Generated_Source\PSoC5/cyfitter_cfg.c **** {
 157              		.loc 1 143 0
 158              		.cfi_startproc
 159              		@ args = 0, pretend = 0, frame = 8
 160              		@ frame_needed = 1, uses_anonymous_args = 0
 161 0000 80B5     		push	{r7, lr}
 162              		.cfi_def_cfa_offset 8
 163              		.cfi_offset 7, -8
 164              		.cfi_offset 14, -4
 165 0002 82B0     		sub	sp, sp, #8
 166              		.cfi_def_cfa_offset 16
 167 0004 00AF     		add	r7, sp, #0
 168              		.cfi_def_cfa_register 7
 144:.\Generated_Source\PSoC5/cyfitter_cfg.c **** 	uint32 timeout;
 145:.\Generated_Source\PSoC5/cyfitter_cfg.c **** 	uint8 pllLock;
 146:.\Generated_Source\PSoC5/cyfitter_cfg.c **** 
 147:.\Generated_Source\PSoC5/cyfitter_cfg.c **** 
 148:.\Generated_Source\PSoC5/cyfitter_cfg.c **** 	/* Configure ILO based on settings from Clock DWR */
 149:.\Generated_Source\PSoC5/cyfitter_cfg.c **** 	CY_SET_XTND_REG8((void CYFAR *)(CYREG_SLOWCLK_ILO_CR0), 0x02u);
 169              		.loc 1 149 0
 170 0006 294B     		ldr	r3, .L11
 171 0008 0222     		movs	r2, #2
 172 000a 1A70     		strb	r2, [r3]
 150:.\Generated_Source\PSoC5/cyfitter_cfg.c **** 	CY_SET_XTND_REG8((void CYFAR *)(CYREG_CLKDIST_CR), 0x08u);
 173              		.loc 1 150 0
 174 000c 4FF04023 		mov	r3, #1073758208
 175 0010 0822     		movs	r2, #8
 176 0012 1A70     		strb	r2, [r3]
 151:.\Generated_Source\PSoC5/cyfitter_cfg.c **** 
 152:.\Generated_Source\PSoC5/cyfitter_cfg.c **** 	/* Configure IMO based on settings from Clock DWR */
 153:.\Generated_Source\PSoC5/cyfitter_cfg.c **** 	CY_SET_XTND_REG8((void CYFAR *)(CYREG_FASTCLK_IMO_CR), 0x03u);
 177              		.loc 1 153 0
 178 0014 264B     		ldr	r3, .L11+4
 179 0016 0322     		movs	r2, #3
 180 0018 1A70     		strb	r2, [r3]
 154:.\Generated_Source\PSoC5/cyfitter_cfg.c **** 	CY_SET_XTND_REG8((void CYFAR *)(CYREG_IMO_TR1), (CY_GET_XTND_REG8((void CYFAR *)CYREG_FLSHID_CUST_
 181              		.loc 1 154 0
 182 001a 264B     		ldr	r3, .L11+8
 183 001c 264A     		ldr	r2, .L11+12
 184 001e 1278     		ldrb	r2, [r2]
 185 0020 D2B2     		uxtb	r2, r2
 186 0022 1A70     		strb	r2, [r3]
 155:.\Generated_Source\PSoC5/cyfitter_cfg.c **** 
 156:.\Generated_Source\PSoC5/cyfitter_cfg.c **** 	/* Configure PLL based on settings from Clock DWR */
ARM GAS  C:\Users\khjtony\AppData\Local\Temp\ccV9NdEC.s 			page 7


 157:.\Generated_Source\PSoC5/cyfitter_cfg.c **** 	CY_SET_XTND_REG16((void CYFAR *)(CYREG_FASTCLK_PLL_P), 0x0008u);
 187              		.loc 1 157 0
 188 0024 254B     		ldr	r3, .L11+16
 189 0026 0822     		movs	r2, #8
 190 0028 1A80     		strh	r2, [r3]	@ movhi
 158:.\Generated_Source\PSoC5/cyfitter_cfg.c **** 	CY_SET_XTND_REG16((void CYFAR *)(CYREG_FASTCLK_PLL_CFG0), 0x1251u);
 191              		.loc 1 158 0
 192 002a 254B     		ldr	r3, .L11+20
 193 002c 41F25122 		movw	r2, #4689
 194 0030 1A80     		strh	r2, [r3]	@ movhi
 159:.\Generated_Source\PSoC5/cyfitter_cfg.c **** 	/* Wait up to 250us for the PLL to lock */
 160:.\Generated_Source\PSoC5/cyfitter_cfg.c **** 	pllLock = 0u;
 195              		.loc 1 160 0
 196 0032 0023     		movs	r3, #0
 197 0034 FB70     		strb	r3, [r7, #3]
 161:.\Generated_Source\PSoC5/cyfitter_cfg.c **** 	for (timeout = 250u / 10u; (timeout > 0u) && (pllLock != 0x03u); timeout--)
 198              		.loc 1 161 0
 199 0036 1923     		movs	r3, #25
 200 0038 7B60     		str	r3, [r7, #4]
 201 003a 14E0     		b	.L7
 202              	.L9:
 162:.\Generated_Source\PSoC5/cyfitter_cfg.c **** 	{ 
 163:.\Generated_Source\PSoC5/cyfitter_cfg.c **** 		pllLock = 0x03u & ((uint8)((uint8)pllLock << 1) | ((CY_GET_XTND_REG8((void CYFAR *)CYREG_FASTCLK_
 203              		.loc 1 163 0 discriminator 1
 204 003c FB78     		ldrb	r3, [r7, #3]
 205 003e 5B00     		lsls	r3, r3, #1
 206 0040 DAB2     		uxtb	r2, r3
 207 0042 204B     		ldr	r3, .L11+24
 208 0044 1B78     		ldrb	r3, [r3]
 209 0046 DBB2     		uxtb	r3, r3
 210 0048 03F00103 		and	r3, r3, #1
 211 004c DBB2     		uxtb	r3, r3
 212 004e 1343     		orrs	r3, r3, r2
 213 0050 DBB2     		uxtb	r3, r3
 214 0052 03F00303 		and	r3, r3, #3
 215 0056 FB70     		strb	r3, [r7, #3]
 164:.\Generated_Source\PSoC5/cyfitter_cfg.c **** 		CyDelayCycles(10u * 48u); /* Delay 10us based on 48MHz clock */
 216              		.loc 1 164 0 discriminator 1
 217 0058 4FF4F070 		mov	r0, #480
 218 005c FFF7FEFF 		bl	CyDelayCycles
 161:.\Generated_Source\PSoC5/cyfitter_cfg.c **** 	for (timeout = 250u / 10u; (timeout > 0u) && (pllLock != 0x03u); timeout--)
 219              		.loc 1 161 0 discriminator 1
 220 0060 7B68     		ldr	r3, [r7, #4]
 221 0062 013B     		subs	r3, r3, #1
 222 0064 7B60     		str	r3, [r7, #4]
 223              	.L7:
 224 0066 7B68     		ldr	r3, [r7, #4]
 225 0068 002B     		cmp	r3, #0
 226 006a 02D0     		beq	.L8
 161:.\Generated_Source\PSoC5/cyfitter_cfg.c **** 	for (timeout = 250u / 10u; (timeout > 0u) && (pllLock != 0x03u); timeout--)
 227              		.loc 1 161 0 is_stmt 0 discriminator 2
 228 006c FB78     		ldrb	r3, [r7, #3]	@ zero_extendqisi2
 229 006e 032B     		cmp	r3, #3
 230 0070 E4D1     		bne	.L9
 231              	.L8:
 165:.\Generated_Source\PSoC5/cyfitter_cfg.c **** 	}
 166:.\Generated_Source\PSoC5/cyfitter_cfg.c **** 	/* If we ran out of time the PLL didn't lock so go to the error function */
ARM GAS  C:\Users\khjtony\AppData\Local\Temp\ccV9NdEC.s 			page 8


 167:.\Generated_Source\PSoC5/cyfitter_cfg.c **** 	if (timeout == 0u)
 232              		.loc 1 167 0 is_stmt 1
 233 0072 7B68     		ldr	r3, [r7, #4]
 234 0074 002B     		cmp	r3, #0
 235 0076 02D1     		bne	.L10
 168:.\Generated_Source\PSoC5/cyfitter_cfg.c **** 	{
 169:.\Generated_Source\PSoC5/cyfitter_cfg.c **** 		CyClockStartupError(CYCLOCKSTART_PLL_ERROR);
 236              		.loc 1 169 0
 237 0078 0320     		movs	r0, #3
 238 007a FFF7FEFF 		bl	CyClockStartupError
 239              	.L10:
 170:.\Generated_Source\PSoC5/cyfitter_cfg.c **** 	}
 171:.\Generated_Source\PSoC5/cyfitter_cfg.c **** 
 172:.\Generated_Source\PSoC5/cyfitter_cfg.c **** 	/* Configure Bus/Master Clock based on settings from Clock DWR */
 173:.\Generated_Source\PSoC5/cyfitter_cfg.c **** 	CY_SET_XTND_REG16((void CYFAR *)(CYREG_CLKDIST_MSTR0), 0x0100u);
 240              		.loc 1 173 0
 241 007e 124B     		ldr	r3, .L11+28
 242 0080 4FF48072 		mov	r2, #256
 243 0084 1A80     		strh	r2, [r3]	@ movhi
 174:.\Generated_Source\PSoC5/cyfitter_cfg.c **** 	CY_SET_XTND_REG8((void CYFAR *)(CYREG_CLKDIST_MSTR0), 0x07u);
 244              		.loc 1 174 0
 245 0086 104B     		ldr	r3, .L11+28
 246 0088 0722     		movs	r2, #7
 247 008a 1A70     		strb	r2, [r3]
 175:.\Generated_Source\PSoC5/cyfitter_cfg.c **** 	CY_SET_XTND_REG8((void CYFAR *)(CYREG_CLKDIST_BCFG0), 0x00u);
 248              		.loc 1 175 0
 249 008c 0F4B     		ldr	r3, .L11+32
 250 008e 0022     		movs	r2, #0
 251 0090 1A70     		strb	r2, [r3]
 176:.\Generated_Source\PSoC5/cyfitter_cfg.c **** 	CY_SET_XTND_REG8((void CYFAR *)(CYREG_CLKDIST_BCFG2), 0x48u);
 252              		.loc 1 176 0
 253 0092 0F4B     		ldr	r3, .L11+36
 254 0094 4822     		movs	r2, #72
 255 0096 1A70     		strb	r2, [r3]
 177:.\Generated_Source\PSoC5/cyfitter_cfg.c **** 	CY_SET_XTND_REG8((void CYFAR *)(CYREG_CLKDIST_MSTR0), 0x00u);
 256              		.loc 1 177 0
 257 0098 0B4B     		ldr	r3, .L11+28
 258 009a 0022     		movs	r2, #0
 259 009c 1A70     		strb	r2, [r3]
 178:.\Generated_Source\PSoC5/cyfitter_cfg.c **** 	CY_SET_XTND_REG8((void CYFAR *)(CYREG_CLKDIST_LD), 0x02u);
 260              		.loc 1 178 0
 261 009e 0D4B     		ldr	r3, .L11+40
 262 00a0 0222     		movs	r2, #2
 263 00a2 1A70     		strb	r2, [r3]
 179:.\Generated_Source\PSoC5/cyfitter_cfg.c **** }
 264              		.loc 1 179 0
 265 00a4 0837     		adds	r7, r7, #8
 266 00a6 BD46     		mov	sp, r7
 267              		@ sp needed
 268 00a8 80BD     		pop	{r7, pc}
 269              	.L12:
 270 00aa 00BF     		.align	2
 271              	.L11:
 272 00ac 00430040 		.word	1073758976
 273 00b0 00420040 		.word	1073758720
 274 00b4 A1460040 		.word	1073759905
 275 00b8 08010049 		.word	1224737032
ARM GAS  C:\Users\khjtony\AppData\Local\Temp\ccV9NdEC.s 			page 9


 276 00bc 22420040 		.word	1073758754
 277 00c0 20420040 		.word	1073758752
 278 00c4 25420040 		.word	1073758757
 279 00c8 04400040 		.word	1073758212
 280 00cc 06400040 		.word	1073758214
 281 00d0 08400040 		.word	1073758216
 282 00d4 01400040 		.word	1073758209
 283              		.cfi_endproc
 284              	.LFE4:
 285              		.size	ClockSetup, .-ClockSetup
 286              		.section	.text.AnalogSetDefault,"ax",%progbits
 287              		.align	2
 288              		.thumb
 289              		.thumb_func
 290              		.type	AnalogSetDefault, %function
 291              	AnalogSetDefault:
 292              	.LFB5:
 180:.\Generated_Source\PSoC5/cyfitter_cfg.c **** 
 181:.\Generated_Source\PSoC5/cyfitter_cfg.c **** 
 182:.\Generated_Source\PSoC5/cyfitter_cfg.c **** /* Analog API Functions */
 183:.\Generated_Source\PSoC5/cyfitter_cfg.c **** 
 184:.\Generated_Source\PSoC5/cyfitter_cfg.c **** 
 185:.\Generated_Source\PSoC5/cyfitter_cfg.c **** /*******************************************************************************
 186:.\Generated_Source\PSoC5/cyfitter_cfg.c **** * Function Name: AnalogSetDefault
 187:.\Generated_Source\PSoC5/cyfitter_cfg.c **** ********************************************************************************
 188:.\Generated_Source\PSoC5/cyfitter_cfg.c **** *
 189:.\Generated_Source\PSoC5/cyfitter_cfg.c **** * Summary:
 190:.\Generated_Source\PSoC5/cyfitter_cfg.c **** *  Sets up the analog portions of the chip to default values based on chip
 191:.\Generated_Source\PSoC5/cyfitter_cfg.c **** *  configuration options from the project.
 192:.\Generated_Source\PSoC5/cyfitter_cfg.c **** *
 193:.\Generated_Source\PSoC5/cyfitter_cfg.c **** * Parameters:
 194:.\Generated_Source\PSoC5/cyfitter_cfg.c **** *  void
 195:.\Generated_Source\PSoC5/cyfitter_cfg.c **** *
 196:.\Generated_Source\PSoC5/cyfitter_cfg.c **** * Return:
 197:.\Generated_Source\PSoC5/cyfitter_cfg.c **** *  void
 198:.\Generated_Source\PSoC5/cyfitter_cfg.c **** *
 199:.\Generated_Source\PSoC5/cyfitter_cfg.c **** *******************************************************************************/
 200:.\Generated_Source\PSoC5/cyfitter_cfg.c **** static void AnalogSetDefault(void);
 201:.\Generated_Source\PSoC5/cyfitter_cfg.c **** static void AnalogSetDefault(void)
 202:.\Generated_Source\PSoC5/cyfitter_cfg.c **** {
 293              		.loc 1 202 0
 294              		.cfi_startproc
 295              		@ args = 0, pretend = 0, frame = 8
 296              		@ frame_needed = 1, uses_anonymous_args = 0
 297              		@ link register save eliminated.
 298 0000 80B4     		push	{r7}
 299              		.cfi_def_cfa_offset 4
 300              		.cfi_offset 7, -4
 301 0002 83B0     		sub	sp, sp, #12
 302              		.cfi_def_cfa_offset 16
 303 0004 00AF     		add	r7, sp, #0
 304              		.cfi_def_cfa_register 7
 203:.\Generated_Source\PSoC5/cyfitter_cfg.c **** 	uint8 bg_xover_inl_trim = CY_GET_XTND_REG8((void CYFAR *)(CYREG_FLSHID_MFG_CFG_BG_XOVER_INL_TRIM +
 305              		.loc 1 203 0
 306 0006 0B4B     		ldr	r3, .L14
 307 0008 1B78     		ldrb	r3, [r3]
 308 000a FB71     		strb	r3, [r7, #7]
ARM GAS  C:\Users\khjtony\AppData\Local\Temp\ccV9NdEC.s 			page 10


 204:.\Generated_Source\PSoC5/cyfitter_cfg.c **** 	CY_SET_XTND_REG8((void CYFAR *)(CYREG_BG_DFT0), (bg_xover_inl_trim & 0x07u));
 309              		.loc 1 204 0
 310 000c 0A4B     		ldr	r3, .L14+4
 311 000e FA79     		ldrb	r2, [r7, #7]
 312 0010 02F00702 		and	r2, r2, #7
 313 0014 D2B2     		uxtb	r2, r2
 314 0016 1A70     		strb	r2, [r3]
 205:.\Generated_Source\PSoC5/cyfitter_cfg.c **** 	CY_SET_XTND_REG8((void CYFAR *)(CYREG_BG_DFT1), ((bg_xover_inl_trim >> 4) & 0x0Fu));
 315              		.loc 1 205 0
 316 0018 084B     		ldr	r3, .L14+8
 317 001a FA79     		ldrb	r2, [r7, #7]	@ zero_extendqisi2
 318 001c 1209     		lsrs	r2, r2, #4
 319 001e D2B2     		uxtb	r2, r2
 320 0020 1A70     		strb	r2, [r3]
 206:.\Generated_Source\PSoC5/cyfitter_cfg.c **** 	CY_SET_XTND_REG8((void CYFAR *)CYREG_PUMP_CR0, 0x44u);
 321              		.loc 1 206 0
 322 0022 074B     		ldr	r3, .L14+12
 323 0024 4422     		movs	r2, #68
 324 0026 1A70     		strb	r2, [r3]
 207:.\Generated_Source\PSoC5/cyfitter_cfg.c **** }
 325              		.loc 1 207 0
 326 0028 0C37     		adds	r7, r7, #12
 327 002a BD46     		mov	sp, r7
 328              		@ sp needed
 329 002c 5DF8047B 		ldr	r7, [sp], #4
 330 0030 7047     		bx	lr
 331              	.L15:
 332 0032 00BF     		.align	2
 333              	.L14:
 334 0034 CF010049 		.word	1224737231
 335 0038 6E580040 		.word	1073764462
 336 003c 6F580040 		.word	1073764463
 337 0040 76580040 		.word	1073764470
 338              		.cfi_endproc
 339              	.LFE5:
 340              		.size	AnalogSetDefault, .-AnalogSetDefault
 341              		.section	.text.SetAnalogRoutingPumps,"ax",%progbits
 342              		.align	2
 343              		.global	SetAnalogRoutingPumps
 344              		.thumb
 345              		.thumb_func
 346              		.type	SetAnalogRoutingPumps, %function
 347              	SetAnalogRoutingPumps:
 348              	.LFB6:
 208:.\Generated_Source\PSoC5/cyfitter_cfg.c **** 
 209:.\Generated_Source\PSoC5/cyfitter_cfg.c **** 
 210:.\Generated_Source\PSoC5/cyfitter_cfg.c **** /*******************************************************************************
 211:.\Generated_Source\PSoC5/cyfitter_cfg.c **** * Function Name: SetAnalogRoutingPumps
 212:.\Generated_Source\PSoC5/cyfitter_cfg.c **** ********************************************************************************
 213:.\Generated_Source\PSoC5/cyfitter_cfg.c **** *
 214:.\Generated_Source\PSoC5/cyfitter_cfg.c **** * Summary:
 215:.\Generated_Source\PSoC5/cyfitter_cfg.c **** * Enables or disables the analog pumps feeding analog routing switches.
 216:.\Generated_Source\PSoC5/cyfitter_cfg.c **** * Intended to be called at startup, based on the Vdda system configuration;
 217:.\Generated_Source\PSoC5/cyfitter_cfg.c **** * may be called during operation when the user informs us that the Vdda voltage
 218:.\Generated_Source\PSoC5/cyfitter_cfg.c **** * crossed the pump threshold.
 219:.\Generated_Source\PSoC5/cyfitter_cfg.c **** *
 220:.\Generated_Source\PSoC5/cyfitter_cfg.c **** * Parameters:
ARM GAS  C:\Users\khjtony\AppData\Local\Temp\ccV9NdEC.s 			page 11


 221:.\Generated_Source\PSoC5/cyfitter_cfg.c **** *  enabled - 1 to enable the pumps, 0 to disable the pumps
 222:.\Generated_Source\PSoC5/cyfitter_cfg.c **** *
 223:.\Generated_Source\PSoC5/cyfitter_cfg.c **** * Return:
 224:.\Generated_Source\PSoC5/cyfitter_cfg.c **** *  void
 225:.\Generated_Source\PSoC5/cyfitter_cfg.c **** *
 226:.\Generated_Source\PSoC5/cyfitter_cfg.c **** *******************************************************************************/
 227:.\Generated_Source\PSoC5/cyfitter_cfg.c **** void SetAnalogRoutingPumps(uint8 enabled)
 228:.\Generated_Source\PSoC5/cyfitter_cfg.c **** {
 349              		.loc 1 228 0
 350              		.cfi_startproc
 351              		@ args = 0, pretend = 0, frame = 16
 352              		@ frame_needed = 1, uses_anonymous_args = 0
 353              		@ link register save eliminated.
 354 0000 80B4     		push	{r7}
 355              		.cfi_def_cfa_offset 4
 356              		.cfi_offset 7, -4
 357 0002 85B0     		sub	sp, sp, #20
 358              		.cfi_def_cfa_offset 24
 359 0004 00AF     		add	r7, sp, #0
 360              		.cfi_def_cfa_register 7
 361 0006 0346     		mov	r3, r0
 362 0008 FB71     		strb	r3, [r7, #7]
 229:.\Generated_Source\PSoC5/cyfitter_cfg.c **** 	uint8 regValue = CY_GET_XTND_REG8((void CYFAR *)CYREG_PUMP_CR0);
 363              		.loc 1 229 0
 364 000a 064B     		ldr	r3, .L19
 365 000c 1B78     		ldrb	r3, [r3]
 366 000e FB73     		strb	r3, [r7, #15]
 230:.\Generated_Source\PSoC5/cyfitter_cfg.c **** 	if (enabled != 0u)
 367              		.loc 1 230 0
 368 0010 FB79     		ldrb	r3, [r7, #7]	@ zero_extendqisi2
 369 0012 002B     		cmp	r3, #0
 231:.\Generated_Source\PSoC5/cyfitter_cfg.c **** 	{
 232:.\Generated_Source\PSoC5/cyfitter_cfg.c **** 		regValue |= 0x00u;
 233:.\Generated_Source\PSoC5/cyfitter_cfg.c **** 	}
 234:.\Generated_Source\PSoC5/cyfitter_cfg.c **** 	else
 235:.\Generated_Source\PSoC5/cyfitter_cfg.c **** 	{
 236:.\Generated_Source\PSoC5/cyfitter_cfg.c **** 		regValue &= (uint8)~0x00u;
 237:.\Generated_Source\PSoC5/cyfitter_cfg.c **** 	}
 238:.\Generated_Source\PSoC5/cyfitter_cfg.c **** 	CY_SET_XTND_REG8((void CYFAR *)CYREG_PUMP_CR0, regValue);
 370              		.loc 1 238 0
 371 0014 034B     		ldr	r3, .L19
 372 0016 FA7B     		ldrb	r2, [r7, #15]
 373 0018 1A70     		strb	r2, [r3]
 239:.\Generated_Source\PSoC5/cyfitter_cfg.c **** }
 374              		.loc 1 239 0
 375 001a 1437     		adds	r7, r7, #20
 376 001c BD46     		mov	sp, r7
 377              		@ sp needed
 378 001e 5DF8047B 		ldr	r7, [sp], #4
 379 0022 7047     		bx	lr
 380              	.L20:
 381              		.align	2
 382              	.L19:
 383 0024 76580040 		.word	1073764470
 384              		.cfi_endproc
 385              	.LFE6:
 386              		.size	SetAnalogRoutingPumps, .-SetAnalogRoutingPumps
ARM GAS  C:\Users\khjtony\AppData\Local\Temp\ccV9NdEC.s 			page 12


 387              		.section	.text.cyfitter_cfg,"ax",%progbits
 388              		.align	2
 389              		.global	cyfitter_cfg
 390              		.thumb
 391              		.thumb_func
 392              		.type	cyfitter_cfg, %function
 393              	cyfitter_cfg:
 394              	.LFB7:
 240:.\Generated_Source\PSoC5/cyfitter_cfg.c **** 
 241:.\Generated_Source\PSoC5/cyfitter_cfg.c **** #define CY_AMUX_UNUSED CYREG_BOOST_SR
 242:.\Generated_Source\PSoC5/cyfitter_cfg.c **** 
 243:.\Generated_Source\PSoC5/cyfitter_cfg.c **** 
 244:.\Generated_Source\PSoC5/cyfitter_cfg.c **** /*******************************************************************************
 245:.\Generated_Source\PSoC5/cyfitter_cfg.c **** * Function Name: cyfitter_cfg
 246:.\Generated_Source\PSoC5/cyfitter_cfg.c **** ********************************************************************************
 247:.\Generated_Source\PSoC5/cyfitter_cfg.c **** * Summary:
 248:.\Generated_Source\PSoC5/cyfitter_cfg.c **** *  This function is called by the start-up code for the selected device. It
 249:.\Generated_Source\PSoC5/cyfitter_cfg.c **** *  performs all of the necessary device configuration based on the design
 250:.\Generated_Source\PSoC5/cyfitter_cfg.c **** *  settings.  This includes settings from the Design Wide Resources (DWR) such
 251:.\Generated_Source\PSoC5/cyfitter_cfg.c **** *  as Clocks and Pins as well as any component configuration that is necessary.
 252:.\Generated_Source\PSoC5/cyfitter_cfg.c **** *
 253:.\Generated_Source\PSoC5/cyfitter_cfg.c **** * Parameters:  
 254:.\Generated_Source\PSoC5/cyfitter_cfg.c **** *   void
 255:.\Generated_Source\PSoC5/cyfitter_cfg.c **** *
 256:.\Generated_Source\PSoC5/cyfitter_cfg.c **** * Return:
 257:.\Generated_Source\PSoC5/cyfitter_cfg.c **** *   void
 258:.\Generated_Source\PSoC5/cyfitter_cfg.c **** *
 259:.\Generated_Source\PSoC5/cyfitter_cfg.c **** *******************************************************************************/
 260:.\Generated_Source\PSoC5/cyfitter_cfg.c **** 
 261:.\Generated_Source\PSoC5/cyfitter_cfg.c **** void cyfitter_cfg(void)
 262:.\Generated_Source\PSoC5/cyfitter_cfg.c **** {
 395              		.loc 1 262 0
 396              		.cfi_startproc
 397              		@ args = 0, pretend = 0, frame = 8
 398              		@ frame_needed = 1, uses_anonymous_args = 0
 399 0000 80B5     		push	{r7, lr}
 400              		.cfi_def_cfa_offset 8
 401              		.cfi_offset 7, -8
 402              		.cfi_offset 14, -4
 403 0002 82B0     		sub	sp, sp, #8
 404              		.cfi_def_cfa_offset 16
 405 0004 00AF     		add	r7, sp, #0
 406              		.cfi_def_cfa_register 7
 263:.\Generated_Source\PSoC5/cyfitter_cfg.c **** 	/* IOPINS0_2 Address: CYREG_PRT2_DM0 Size (bytes): 8 */
 264:.\Generated_Source\PSoC5/cyfitter_cfg.c **** 	static const uint8 CYCODE BS_IOPINS0_2_VAL[] = {
 265:.\Generated_Source\PSoC5/cyfitter_cfg.c **** 		0x00u, 0x7Fu, 0x7Fu, 0x00u, 0x00u, 0x00u, 0x00u, 0x00u};
 266:.\Generated_Source\PSoC5/cyfitter_cfg.c **** 
 267:.\Generated_Source\PSoC5/cyfitter_cfg.c **** #ifdef CYGlobalIntDisable
 268:.\Generated_Source\PSoC5/cyfitter_cfg.c **** 	/* Disable interrupts by default. Let user enable if/when they want. */
 269:.\Generated_Source\PSoC5/cyfitter_cfg.c **** 	CYGlobalIntDisable
 407              		.loc 1 269 0
 408              	@ 269 ".\Generated_Source\PSoC5\cyfitter_cfg.c" 1
 409 0006 72B6     		CPSID   i
 410              	@ 0 "" 2
 270:.\Generated_Source\PSoC5/cyfitter_cfg.c **** #endif
 271:.\Generated_Source\PSoC5/cyfitter_cfg.c **** 
 272:.\Generated_Source\PSoC5/cyfitter_cfg.c **** 	/* Enable/Disable Debug functionality based on settings from System DWR */
ARM GAS  C:\Users\khjtony\AppData\Local\Temp\ccV9NdEC.s 			page 13


 273:.\Generated_Source\PSoC5/cyfitter_cfg.c **** 	CY_SET_XTND_REG8((void CYFAR *)CYREG_MLOGIC_DEBUG, (CY_GET_XTND_REG8((void CYFAR *)CYREG_MLOGIC_DE
 411              		.loc 1 273 0
 412              		.thumb
 413 0008 314B     		ldr	r3, .L24
 414 000a 314A     		ldr	r2, .L24
 415 000c 1278     		ldrb	r2, [r2]
 416 000e D2B2     		uxtb	r2, r2
 417 0010 42F00402 		orr	r2, r2, #4
 418 0014 D2B2     		uxtb	r2, r2
 419 0016 1A70     		strb	r2, [r3]
 420              	.LBB2:
 274:.\Generated_Source\PSoC5/cyfitter_cfg.c **** 
 275:.\Generated_Source\PSoC5/cyfitter_cfg.c **** 	{
 276:.\Generated_Source\PSoC5/cyfitter_cfg.c **** 
 277:.\Generated_Source\PSoC5/cyfitter_cfg.c **** 		CYPACKED typedef struct {
 278:.\Generated_Source\PSoC5/cyfitter_cfg.c **** 			void CYFAR *address;
 279:.\Generated_Source\PSoC5/cyfitter_cfg.c **** 			uint16 size;
 280:.\Generated_Source\PSoC5/cyfitter_cfg.c **** 		} CYPACKED_ATTR cfg_memset_t;
 281:.\Generated_Source\PSoC5/cyfitter_cfg.c **** 
 282:.\Generated_Source\PSoC5/cyfitter_cfg.c **** 		static const cfg_memset_t CYCODE cfg_memset_list [] = {
 283:.\Generated_Source\PSoC5/cyfitter_cfg.c **** 			/* address, size */
 284:.\Generated_Source\PSoC5/cyfitter_cfg.c **** 			{(void CYFAR *)(CYREG_PRT0_DR), 32u},
 285:.\Generated_Source\PSoC5/cyfitter_cfg.c **** 			{(void CYFAR *)(CYREG_PRT3_DR), 64u},
 286:.\Generated_Source\PSoC5/cyfitter_cfg.c **** 			{(void CYFAR *)(CYREG_PRT12_DR), 16u},
 287:.\Generated_Source\PSoC5/cyfitter_cfg.c **** 			{(void CYFAR *)(CYREG_PRT15_DR), 16u},
 288:.\Generated_Source\PSoC5/cyfitter_cfg.c **** 			{(void CYFAR *)(CYDEV_UCFG_B0_P0_U0_BASE), 4096u},
 289:.\Generated_Source\PSoC5/cyfitter_cfg.c **** 			{(void CYFAR *)(CYDEV_UCFG_B1_P2_U0_BASE), 2048u},
 290:.\Generated_Source\PSoC5/cyfitter_cfg.c **** 			{(void CYFAR *)(CYDEV_UCFG_DSI0_BASE), 2560u},
 291:.\Generated_Source\PSoC5/cyfitter_cfg.c **** 			{(void CYFAR *)(CYDEV_UCFG_DSI12_BASE), 512u},
 292:.\Generated_Source\PSoC5/cyfitter_cfg.c **** 			{(void CYFAR *)(CYREG_BCTL0_MDCLK_EN), 32u},
 293:.\Generated_Source\PSoC5/cyfitter_cfg.c **** 		};
 294:.\Generated_Source\PSoC5/cyfitter_cfg.c **** 
 295:.\Generated_Source\PSoC5/cyfitter_cfg.c **** 		uint8 CYDATA i;
 296:.\Generated_Source\PSoC5/cyfitter_cfg.c **** 
 297:.\Generated_Source\PSoC5/cyfitter_cfg.c **** 		/* Zero out critical memory blocks before beginning configuration */
 298:.\Generated_Source\PSoC5/cyfitter_cfg.c **** 		for (i = 0u; i < (sizeof(cfg_memset_list)/sizeof(cfg_memset_list[0])); i++)
 421              		.loc 1 298 0
 422 0018 0023     		movs	r3, #0
 423 001a FB71     		strb	r3, [r7, #7]
 424 001c 13E0     		b	.L22
 425              	.L23:
 426              	.LBB3:
 299:.\Generated_Source\PSoC5/cyfitter_cfg.c **** 		{
 300:.\Generated_Source\PSoC5/cyfitter_cfg.c **** 			const cfg_memset_t CYCODE * CYDATA ms = &cfg_memset_list[i];
 427              		.loc 1 300 0 discriminator 2
 428 001e FA79     		ldrb	r2, [r7, #7]	@ zero_extendqisi2
 429 0020 1346     		mov	r3, r2
 430 0022 5B00     		lsls	r3, r3, #1
 431 0024 1344     		add	r3, r3, r2
 432 0026 5B00     		lsls	r3, r3, #1
 433 0028 2A4A     		ldr	r2, .L24+4
 434 002a 1344     		add	r3, r3, r2
 435 002c 3B60     		str	r3, [r7]
 301:.\Generated_Source\PSoC5/cyfitter_cfg.c **** 			CYMEMZERO(ms->address, (size_t)(uint32)(ms->size));
 436              		.loc 1 301 0 discriminator 2
 437 002e 3B68     		ldr	r3, [r7]
 438 0030 1A68     		ldr	r2, [r3]	@ unaligned
ARM GAS  C:\Users\khjtony\AppData\Local\Temp\ccV9NdEC.s 			page 14


 439 0032 3B68     		ldr	r3, [r7]
 440 0034 9B88     		ldrh	r3, [r3, #4]	@ unaligned
 441 0036 9BB2     		uxth	r3, r3
 442 0038 1046     		mov	r0, r2
 443 003a 1946     		mov	r1, r3
 444 003c FFF7FEFF 		bl	CYMEMZERO
 445              	.LBE3:
 298:.\Generated_Source\PSoC5/cyfitter_cfg.c **** 		for (i = 0u; i < (sizeof(cfg_memset_list)/sizeof(cfg_memset_list[0])); i++)
 446              		.loc 1 298 0 discriminator 2
 447 0040 FB79     		ldrb	r3, [r7, #7]	@ zero_extendqisi2
 448 0042 0133     		adds	r3, r3, #1
 449 0044 FB71     		strb	r3, [r7, #7]
 450              	.L22:
 298:.\Generated_Source\PSoC5/cyfitter_cfg.c **** 		for (i = 0u; i < (sizeof(cfg_memset_list)/sizeof(cfg_memset_list[0])); i++)
 451              		.loc 1 298 0 is_stmt 0 discriminator 1
 452 0046 FB79     		ldrb	r3, [r7, #7]	@ zero_extendqisi2
 453 0048 082B     		cmp	r3, #8
 454 004a E8D9     		bls	.L23
 302:.\Generated_Source\PSoC5/cyfitter_cfg.c **** 		}
 303:.\Generated_Source\PSoC5/cyfitter_cfg.c **** 
 304:.\Generated_Source\PSoC5/cyfitter_cfg.c **** 		/* Enable digital routing */
 305:.\Generated_Source\PSoC5/cyfitter_cfg.c **** 		CY_SET_XTND_REG8((void CYFAR *)CYREG_BCTL0_BANK_CTL, CY_GET_XTND_REG8((void CYFAR *)CYREG_BCTL0_B
 455              		.loc 1 305 0 is_stmt 1
 456 004c 224B     		ldr	r3, .L24+8
 457 004e 224A     		ldr	r2, .L24+8
 458 0050 1278     		ldrb	r2, [r2]
 459 0052 D2B2     		uxtb	r2, r2
 460 0054 42F00202 		orr	r2, r2, #2
 461 0058 D2B2     		uxtb	r2, r2
 462 005a 1A70     		strb	r2, [r3]
 306:.\Generated_Source\PSoC5/cyfitter_cfg.c **** 		CY_SET_XTND_REG8((void CYFAR *)CYREG_BCTL1_BANK_CTL, CY_GET_XTND_REG8((void CYFAR *)CYREG_BCTL1_B
 463              		.loc 1 306 0
 464 005c 1F4B     		ldr	r3, .L24+12
 465 005e 1F4A     		ldr	r2, .L24+12
 466 0060 1278     		ldrb	r2, [r2]
 467 0062 D2B2     		uxtb	r2, r2
 468 0064 42F00202 		orr	r2, r2, #2
 469 0068 D2B2     		uxtb	r2, r2
 470 006a 1A70     		strb	r2, [r3]
 307:.\Generated_Source\PSoC5/cyfitter_cfg.c **** 
 308:.\Generated_Source\PSoC5/cyfitter_cfg.c **** 		/* Enable UDB array */
 309:.\Generated_Source\PSoC5/cyfitter_cfg.c **** 		CY_SET_XTND_REG8((void CYFAR *)CYREG_PM_ACT_CFG0, CY_GET_XTND_REG8((void CYFAR *)CYREG_PM_ACT_CFG
 471              		.loc 1 309 0
 472 006c 1C4B     		ldr	r3, .L24+16
 473 006e 1C4A     		ldr	r2, .L24+16
 474 0070 1278     		ldrb	r2, [r2]
 475 0072 D2B2     		uxtb	r2, r2
 476 0074 42F04002 		orr	r2, r2, #64
 477 0078 D2B2     		uxtb	r2, r2
 478 007a 1A70     		strb	r2, [r3]
 310:.\Generated_Source\PSoC5/cyfitter_cfg.c **** 		CY_SET_XTND_REG8((void CYFAR *)CYREG_PM_AVAIL_CR2, CY_GET_XTND_REG8((void CYFAR *)CYREG_PM_AVAIL_
 479              		.loc 1 310 0
 480 007c 194B     		ldr	r3, .L24+20
 481 007e 194A     		ldr	r2, .L24+20
 482 0080 1278     		ldrb	r2, [r2]
 483 0082 D2B2     		uxtb	r2, r2
 484 0084 42F01002 		orr	r2, r2, #16
ARM GAS  C:\Users\khjtony\AppData\Local\Temp\ccV9NdEC.s 			page 15


 485 0088 D2B2     		uxtb	r2, r2
 486 008a 1A70     		strb	r2, [r3]
 487              	.LBE2:
 311:.\Generated_Source\PSoC5/cyfitter_cfg.c **** 	}
 312:.\Generated_Source\PSoC5/cyfitter_cfg.c **** 
 313:.\Generated_Source\PSoC5/cyfitter_cfg.c **** 	/* Perform second pass device configuration. These items must be configured in specific order afte
 314:.\Generated_Source\PSoC5/cyfitter_cfg.c **** 	CYCONFIGCPYCODE((void CYFAR *)(CYREG_PRT2_DM0), (const void CYCODE *)(BS_IOPINS0_2_VAL), 8u);
 488              		.loc 1 314 0
 489 008c 1648     		ldr	r0, .L24+24
 490 008e 1749     		ldr	r1, .L24+28
 491 0090 0822     		movs	r2, #8
 492 0092 FFF7FEFF 		bl	CYCONFIGCPYCODE
 315:.\Generated_Source\PSoC5/cyfitter_cfg.c **** 
 316:.\Generated_Source\PSoC5/cyfitter_cfg.c **** 	/* Switch Boost to the precision bandgap reference from its internal reference */
 317:.\Generated_Source\PSoC5/cyfitter_cfg.c **** 	CY_SET_REG8((void CYXDATA *)CYREG_BOOST_CR2, (CY_GET_REG8((void CYXDATA *)CYREG_BOOST_CR2) | 0x08u
 493              		.loc 1 317 0
 494 0096 164B     		ldr	r3, .L24+32
 495 0098 154A     		ldr	r2, .L24+32
 496 009a 1278     		ldrb	r2, [r2]
 497 009c D2B2     		uxtb	r2, r2
 498 009e 42F00802 		orr	r2, r2, #8
 499 00a2 D2B2     		uxtb	r2, r2
 500 00a4 1A70     		strb	r2, [r3]
 318:.\Generated_Source\PSoC5/cyfitter_cfg.c **** 
 319:.\Generated_Source\PSoC5/cyfitter_cfg.c **** 	/* Set Flash Cycles based on max possible frequency in case a glitch occurs during ClockSetup(). *
 320:.\Generated_Source\PSoC5/cyfitter_cfg.c **** 	CY_SET_XTND_REG8((void CYFAR *)(CYREG_CACHE_CC_CTL), (((CYDEV_INSTRUCT_CACHE_ENABLED) != 0) ? 0x01
 501              		.loc 1 320 0
 502 00a6 134B     		ldr	r3, .L24+36
 503 00a8 0022     		movs	r2, #0
 504 00aa 1A70     		strb	r2, [r3]
 321:.\Generated_Source\PSoC5/cyfitter_cfg.c **** 	/* Setup clocks based on selections from Clock DWR */
 322:.\Generated_Source\PSoC5/cyfitter_cfg.c **** 	ClockSetup();
 505              		.loc 1 322 0
 506 00ac FFF7FEFF 		bl	ClockSetup
 323:.\Generated_Source\PSoC5/cyfitter_cfg.c **** 	/* Set Flash Cycles based on newly configured 24.00MHz Bus Clock. */
 324:.\Generated_Source\PSoC5/cyfitter_cfg.c **** 	CY_SET_XTND_REG8((void CYFAR *)(CYREG_CACHE_CC_CTL), (((CYDEV_INSTRUCT_CACHE_ENABLED) != 0) ? 0x81
 507              		.loc 1 324 0
 508 00b0 104B     		ldr	r3, .L24+36
 509 00b2 8022     		movs	r2, #128
 510 00b4 1A70     		strb	r2, [r3]
 325:.\Generated_Source\PSoC5/cyfitter_cfg.c **** 	CY_SET_XTND_REG8((void CYFAR *)(CYREG_PANTHER_WAITPIPE), 0x01u);
 511              		.loc 1 325 0
 512 00b6 104B     		ldr	r3, .L24+40
 513 00b8 0122     		movs	r2, #1
 514 00ba 1A70     		strb	r2, [r3]
 326:.\Generated_Source\PSoC5/cyfitter_cfg.c **** 
 327:.\Generated_Source\PSoC5/cyfitter_cfg.c **** 	/* Perform basic analog initialization to defaults */
 328:.\Generated_Source\PSoC5/cyfitter_cfg.c **** 	AnalogSetDefault();
 515              		.loc 1 328 0
 516 00bc FFF7FEFF 		bl	AnalogSetDefault
 329:.\Generated_Source\PSoC5/cyfitter_cfg.c **** 
 330:.\Generated_Source\PSoC5/cyfitter_cfg.c **** 	/* Configure alternate active mode */
 331:.\Generated_Source\PSoC5/cyfitter_cfg.c **** 	CYCONFIGCPY((void CYFAR *)CYDEV_PM_STBY_BASE, (const void CYFAR *)CYDEV_PM_ACT_BASE, 14u);
 517              		.loc 1 331 0
 518 00c0 0E48     		ldr	r0, .L24+44
 519 00c2 0749     		ldr	r1, .L24+16
 520 00c4 0E22     		movs	r2, #14
ARM GAS  C:\Users\khjtony\AppData\Local\Temp\ccV9NdEC.s 			page 16


 521 00c6 FFF7FEFF 		bl	CYCONFIGCPY
 332:.\Generated_Source\PSoC5/cyfitter_cfg.c **** }
 522              		.loc 1 332 0
 523 00ca 0837     		adds	r7, r7, #8
 524 00cc BD46     		mov	sp, r7
 525              		@ sp needed
 526 00ce 80BD     		pop	{r7, pc}
 527              	.L25:
 528              		.align	2
 529              	.L24:
 530 00d0 E8460040 		.word	1073759976
 531 00d4 00000000 		.word	cfg_memset_list.4863
 532 00d8 03500140 		.word	1073827843
 533 00dc 13500140 		.word	1073827859
 534 00e0 A0430040 		.word	1073759136
 535 00e4 C2430040 		.word	1073759170
 536 00e8 22510040 		.word	1073762594
 537 00ec 38000000 		.word	BS_IOPINS0_2_VAL.4858
 538 00f0 22430040 		.word	1073759010
 539 00f4 00480040 		.word	1073760256
 540 00f8 04000840 		.word	1074266116
 541 00fc B0430040 		.word	1073759152
 542              		.cfi_endproc
 543              	.LFE7:
 544              		.size	cyfitter_cfg, .-cyfitter_cfg
 545              		.section	.rodata
 546              		.align	2
 547              		.type	cfg_memset_list.4863, %object
 548              		.size	cfg_memset_list.4863, 54
 549              	cfg_memset_list.4863:
 550 0000 00510040 		.word	1073762560
 551 0004 2000     		.short	32
 552 0006 30510040 		.4byte	1073762608
 553 000a 4000     		.short	64
 554 000c C0510040 		.word	1073762752
 555 0010 1000     		.short	16
 556 0012 F0510040 		.4byte	1073762800
 557 0016 1000     		.short	16
 558 0018 00000140 		.word	1073807360
 559 001c 0010     		.short	4096
 560 001e 00140140 		.4byte	1073812480
 561 0022 0008     		.short	2048
 562 0024 00400140 		.word	1073823744
 563 0028 000A     		.short	2560
 564 002a 004C0140 		.4byte	1073826816
 565 002e 0002     		.short	512
 566 0030 00500140 		.word	1073827840
 567 0034 2000     		.short	32
 568 0036 0000     		.align	2
 569              		.type	BS_IOPINS0_2_VAL.4858, %object
 570              		.size	BS_IOPINS0_2_VAL.4858, 8
 571              	BS_IOPINS0_2_VAL.4858:
 572 0038 00       		.byte	0
 573 0039 7F       		.byte	127
 574 003a 7F       		.byte	127
 575 003b 00       		.byte	0
 576 003c 00       		.byte	0
ARM GAS  C:\Users\khjtony\AppData\Local\Temp\ccV9NdEC.s 			page 17


 577 003d 00       		.byte	0
 578 003e 00       		.byte	0
 579 003f 00       		.byte	0
 580              		.text
 581              	.Letext0:
 582              		.file 2 "d:\\software\\psoc\\psoc creator\\3.1\\psoc creator\\import\\gnu_cs\\arm\\4.8.4\\lib\\gcc
 583              		.file 3 ".\\Generated_Source\\PSoC5/cytypes.h"