ARM GAS  C:\Users\khjtony\AppData\Local\Temp\ccQLBKaw.s 			page 1


   1              		.syntax unified
   2              		.cpu cortex-m3
   3              		.fpu softvfp
   4              		.eabi_attribute 20, 1
   5              		.eabi_attribute 21, 1
   6              		.eabi_attribute 23, 3
   7              		.eabi_attribute 24, 1
   8              		.eabi_attribute 25, 1
   9              		.eabi_attribute 26, 1
  10              		.eabi_attribute 30, 1
  11              		.eabi_attribute 34, 1
  12              		.eabi_attribute 18, 4
  13              		.thumb
  14              		.file	"cyfitter_cfg.c"
  15              		.text
  16              	.Ltext0:
  17              		.cfi_sections	.debug_frame
  18              		.section	.text.CyClockStartupError,"ax",%progbits
  19              		.align	2
  20              		.thumb
  21              		.thumb_func
  22              		.type	CyClockStartupError, %function
  23              	CyClockStartupError:
  24              	.LFB3:
  25              		.file 1 ".\\Generated_Source\\PSoC5\\cyfitter_cfg.c"
   1:.\Generated_Source\PSoC5/cyfitter_cfg.c **** /*******************************************************************************
   2:.\Generated_Source\PSoC5/cyfitter_cfg.c **** * FILENAME: cyfitter_cfg.c
   3:.\Generated_Source\PSoC5/cyfitter_cfg.c **** * 
   4:.\Generated_Source\PSoC5/cyfitter_cfg.c **** * PSoC Creator  3.2
   5:.\Generated_Source\PSoC5/cyfitter_cfg.c **** *
   6:.\Generated_Source\PSoC5/cyfitter_cfg.c **** * DESCRIPTION:
   7:.\Generated_Source\PSoC5/cyfitter_cfg.c **** * This file contains device initialization code.
   8:.\Generated_Source\PSoC5/cyfitter_cfg.c **** * Except for the user defined sections in CyClockStartupError(), this file should not be modified.
   9:.\Generated_Source\PSoC5/cyfitter_cfg.c **** * This file is automatically generated by PSoC Creator.
  10:.\Generated_Source\PSoC5/cyfitter_cfg.c **** *
  11:.\Generated_Source\PSoC5/cyfitter_cfg.c **** ********************************************************************************
  12:.\Generated_Source\PSoC5/cyfitter_cfg.c **** * Copyright (c) 2007-2015 Cypress Semiconductor.  All rights reserved.
  13:.\Generated_Source\PSoC5/cyfitter_cfg.c **** * You may use this file only in accordance with the license, terms, conditions, 
  14:.\Generated_Source\PSoC5/cyfitter_cfg.c **** * disclaimers, and limitations in the end user license agreement accompanying 
  15:.\Generated_Source\PSoC5/cyfitter_cfg.c **** * the software package with which this file was provided.
  16:.\Generated_Source\PSoC5/cyfitter_cfg.c **** ********************************************************************************/
  17:.\Generated_Source\PSoC5/cyfitter_cfg.c **** 
  18:.\Generated_Source\PSoC5/cyfitter_cfg.c **** #include <string.h>
  19:.\Generated_Source\PSoC5/cyfitter_cfg.c **** #include "cytypes.h"
  20:.\Generated_Source\PSoC5/cyfitter_cfg.c **** #include "cydevice_trm.h"
  21:.\Generated_Source\PSoC5/cyfitter_cfg.c **** #include "cyfitter.h"
  22:.\Generated_Source\PSoC5/cyfitter_cfg.c **** #include "CyLib.h"
  23:.\Generated_Source\PSoC5/cyfitter_cfg.c **** #include "cyfitter_cfg.h"
  24:.\Generated_Source\PSoC5/cyfitter_cfg.c **** 
  25:.\Generated_Source\PSoC5/cyfitter_cfg.c **** #define CY_NEED_CYCLOCKSTARTUPERROR 1
  26:.\Generated_Source\PSoC5/cyfitter_cfg.c **** 
  27:.\Generated_Source\PSoC5/cyfitter_cfg.c **** 
  28:.\Generated_Source\PSoC5/cyfitter_cfg.c **** #if defined(__GNUC__) || defined(__ARMCC_VERSION)
  29:.\Generated_Source\PSoC5/cyfitter_cfg.c ****     #define CYPACKED 
  30:.\Generated_Source\PSoC5/cyfitter_cfg.c ****     #define CYPACKED_ATTR __attribute__ ((packed))
  31:.\Generated_Source\PSoC5/cyfitter_cfg.c ****     #define CYALIGNED __attribute__ ((aligned))
  32:.\Generated_Source\PSoC5/cyfitter_cfg.c ****     #define CY_CFG_UNUSED __attribute__ ((unused))
ARM GAS  C:\Users\khjtony\AppData\Local\Temp\ccQLBKaw.s 			page 2


  33:.\Generated_Source\PSoC5/cyfitter_cfg.c ****     #define CY_CFG_SECTION __attribute__ ((section(".psocinit")))
  34:.\Generated_Source\PSoC5/cyfitter_cfg.c ****     
  35:.\Generated_Source\PSoC5/cyfitter_cfg.c ****     #if defined(__ARMCC_VERSION)
  36:.\Generated_Source\PSoC5/cyfitter_cfg.c ****         #define CY_CFG_MEMORY_BARRIER() __memory_changed()
  37:.\Generated_Source\PSoC5/cyfitter_cfg.c ****     #else
  38:.\Generated_Source\PSoC5/cyfitter_cfg.c ****         #define CY_CFG_MEMORY_BARRIER() __sync_synchronize()
  39:.\Generated_Source\PSoC5/cyfitter_cfg.c ****     #endif
  40:.\Generated_Source\PSoC5/cyfitter_cfg.c ****     
  41:.\Generated_Source\PSoC5/cyfitter_cfg.c **** #elif defined(__ICCARM__)
  42:.\Generated_Source\PSoC5/cyfitter_cfg.c ****     #include <intrinsics.h>
  43:.\Generated_Source\PSoC5/cyfitter_cfg.c **** 
  44:.\Generated_Source\PSoC5/cyfitter_cfg.c ****     #define CYPACKED __packed
  45:.\Generated_Source\PSoC5/cyfitter_cfg.c ****     #define CYPACKED_ATTR 
  46:.\Generated_Source\PSoC5/cyfitter_cfg.c ****     #define CYALIGNED _Pragma("data_alignment=4")
  47:.\Generated_Source\PSoC5/cyfitter_cfg.c ****     #define CY_CFG_UNUSED _Pragma("diag_suppress=Pe177")
  48:.\Generated_Source\PSoC5/cyfitter_cfg.c ****     #define CY_CFG_SECTION _Pragma("location=\".psocinit\"")
  49:.\Generated_Source\PSoC5/cyfitter_cfg.c ****     
  50:.\Generated_Source\PSoC5/cyfitter_cfg.c ****     #define CY_CFG_MEMORY_BARRIER() __DMB()
  51:.\Generated_Source\PSoC5/cyfitter_cfg.c ****     
  52:.\Generated_Source\PSoC5/cyfitter_cfg.c **** #else
  53:.\Generated_Source\PSoC5/cyfitter_cfg.c ****     #error Unsupported toolchain
  54:.\Generated_Source\PSoC5/cyfitter_cfg.c **** #endif
  55:.\Generated_Source\PSoC5/cyfitter_cfg.c **** 
  56:.\Generated_Source\PSoC5/cyfitter_cfg.c **** 
  57:.\Generated_Source\PSoC5/cyfitter_cfg.c **** CY_CFG_UNUSED
  58:.\Generated_Source\PSoC5/cyfitter_cfg.c **** static void CYMEMZERO(void *s, size_t n);
  59:.\Generated_Source\PSoC5/cyfitter_cfg.c **** CY_CFG_UNUSED
  60:.\Generated_Source\PSoC5/cyfitter_cfg.c **** static void CYMEMZERO(void *s, size_t n)
  61:.\Generated_Source\PSoC5/cyfitter_cfg.c **** {
  62:.\Generated_Source\PSoC5/cyfitter_cfg.c **** 	(void)memset(s, 0, n);
  63:.\Generated_Source\PSoC5/cyfitter_cfg.c **** }
  64:.\Generated_Source\PSoC5/cyfitter_cfg.c **** CY_CFG_UNUSED
  65:.\Generated_Source\PSoC5/cyfitter_cfg.c **** static void CYCONFIGCPY(void *dest, const void *src, size_t n);
  66:.\Generated_Source\PSoC5/cyfitter_cfg.c **** CY_CFG_UNUSED
  67:.\Generated_Source\PSoC5/cyfitter_cfg.c **** static void CYCONFIGCPY(void *dest, const void *src, size_t n)
  68:.\Generated_Source\PSoC5/cyfitter_cfg.c **** {
  69:.\Generated_Source\PSoC5/cyfitter_cfg.c **** 	(void)memcpy(dest, src, n);
  70:.\Generated_Source\PSoC5/cyfitter_cfg.c **** }
  71:.\Generated_Source\PSoC5/cyfitter_cfg.c **** CY_CFG_UNUSED
  72:.\Generated_Source\PSoC5/cyfitter_cfg.c **** static void CYCONFIGCPYCODE(void *dest, const void *src, size_t n);
  73:.\Generated_Source\PSoC5/cyfitter_cfg.c **** CY_CFG_UNUSED
  74:.\Generated_Source\PSoC5/cyfitter_cfg.c **** static void CYCONFIGCPYCODE(void *dest, const void *src, size_t n)
  75:.\Generated_Source\PSoC5/cyfitter_cfg.c **** {
  76:.\Generated_Source\PSoC5/cyfitter_cfg.c **** 	(void)memcpy(dest, src, n);
  77:.\Generated_Source\PSoC5/cyfitter_cfg.c **** }
  78:.\Generated_Source\PSoC5/cyfitter_cfg.c **** 
  79:.\Generated_Source\PSoC5/cyfitter_cfg.c **** 
  80:.\Generated_Source\PSoC5/cyfitter_cfg.c **** 
  81:.\Generated_Source\PSoC5/cyfitter_cfg.c **** /* Clock startup error codes                                                   */
  82:.\Generated_Source\PSoC5/cyfitter_cfg.c **** #define CYCLOCKSTART_NO_ERROR    0u
  83:.\Generated_Source\PSoC5/cyfitter_cfg.c **** #define CYCLOCKSTART_XTAL_ERROR  1u
  84:.\Generated_Source\PSoC5/cyfitter_cfg.c **** #define CYCLOCKSTART_32KHZ_ERROR 2u
  85:.\Generated_Source\PSoC5/cyfitter_cfg.c **** #define CYCLOCKSTART_PLL_ERROR   3u
  86:.\Generated_Source\PSoC5/cyfitter_cfg.c **** 
  87:.\Generated_Source\PSoC5/cyfitter_cfg.c **** #ifdef CY_NEED_CYCLOCKSTARTUPERROR
  88:.\Generated_Source\PSoC5/cyfitter_cfg.c **** /*******************************************************************************
  89:.\Generated_Source\PSoC5/cyfitter_cfg.c **** * Function Name: CyClockStartupError
ARM GAS  C:\Users\khjtony\AppData\Local\Temp\ccQLBKaw.s 			page 3


  90:.\Generated_Source\PSoC5/cyfitter_cfg.c **** ********************************************************************************
  91:.\Generated_Source\PSoC5/cyfitter_cfg.c **** * Summary:
  92:.\Generated_Source\PSoC5/cyfitter_cfg.c **** *  If an error is encountered during clock configuration (crystal startup error,
  93:.\Generated_Source\PSoC5/cyfitter_cfg.c **** *  PLL lock error, etc.), the system will end up here.  Unless reimplemented by
  94:.\Generated_Source\PSoC5/cyfitter_cfg.c **** *  the customer, this function will stop in an infinite loop.
  95:.\Generated_Source\PSoC5/cyfitter_cfg.c **** *
  96:.\Generated_Source\PSoC5/cyfitter_cfg.c **** * Parameters:
  97:.\Generated_Source\PSoC5/cyfitter_cfg.c **** *   void
  98:.\Generated_Source\PSoC5/cyfitter_cfg.c **** *
  99:.\Generated_Source\PSoC5/cyfitter_cfg.c **** * Return:
 100:.\Generated_Source\PSoC5/cyfitter_cfg.c **** *   void
 101:.\Generated_Source\PSoC5/cyfitter_cfg.c **** *
 102:.\Generated_Source\PSoC5/cyfitter_cfg.c **** *******************************************************************************/
 103:.\Generated_Source\PSoC5/cyfitter_cfg.c **** CY_CFG_UNUSED
 104:.\Generated_Source\PSoC5/cyfitter_cfg.c **** static void CyClockStartupError(uint8 errorCode);
 105:.\Generated_Source\PSoC5/cyfitter_cfg.c **** CY_CFG_UNUSED
 106:.\Generated_Source\PSoC5/cyfitter_cfg.c **** static void CyClockStartupError(uint8 errorCode)
 107:.\Generated_Source\PSoC5/cyfitter_cfg.c **** {
  26              		.loc 1 107 0
  27              		.cfi_startproc
  28              		@ Volatile: function does not return.
  29              		@ args = 0, pretend = 0, frame = 0
  30              		@ frame_needed = 0, uses_anonymous_args = 0
  31              		@ link register save eliminated.
  32              	.LVL0:
  33              	.L2:
  34 0000 FEE7     		b	.L2
  35              		.cfi_endproc
  36              	.LFE3:
  37              		.size	CyClockStartupError, .-CyClockStartupError
  38 0002 00BF     		.section	.text.cfg_write_bytes32,"ax",%progbits
  39              		.align	2
  40              		.thumb
  41              		.thumb_func
  42              		.type	cfg_write_bytes32, %function
  43              	cfg_write_bytes32:
  44              	.LFB4:
 108:.\Generated_Source\PSoC5/cyfitter_cfg.c ****     /* To remove the compiler warning if errorCode not used.                */
 109:.\Generated_Source\PSoC5/cyfitter_cfg.c ****     errorCode = errorCode;
 110:.\Generated_Source\PSoC5/cyfitter_cfg.c **** 
 111:.\Generated_Source\PSoC5/cyfitter_cfg.c ****     /* `#START CyClockStartupError` */
 112:.\Generated_Source\PSoC5/cyfitter_cfg.c **** 
 113:.\Generated_Source\PSoC5/cyfitter_cfg.c ****     /* If we have a clock startup error (bad MHz crystal, PLL lock, etc.),  */
 114:.\Generated_Source\PSoC5/cyfitter_cfg.c ****     /* we will end up here to allow the customer to implement something to  */
 115:.\Generated_Source\PSoC5/cyfitter_cfg.c ****     /* deal with the clock condition.                                       */
 116:.\Generated_Source\PSoC5/cyfitter_cfg.c **** 
 117:.\Generated_Source\PSoC5/cyfitter_cfg.c ****     /* `#END` */
 118:.\Generated_Source\PSoC5/cyfitter_cfg.c **** 
 119:.\Generated_Source\PSoC5/cyfitter_cfg.c ****     /* If nothing else, stop here since the clocks have not started         */
 120:.\Generated_Source\PSoC5/cyfitter_cfg.c ****     /* correctly.                                                           */
 121:.\Generated_Source\PSoC5/cyfitter_cfg.c ****     while(1) {}
 122:.\Generated_Source\PSoC5/cyfitter_cfg.c **** }
 123:.\Generated_Source\PSoC5/cyfitter_cfg.c **** #endif
 124:.\Generated_Source\PSoC5/cyfitter_cfg.c **** 
 125:.\Generated_Source\PSoC5/cyfitter_cfg.c **** #define CY_CFG_BASE_ADDR_COUNT 10u
 126:.\Generated_Source\PSoC5/cyfitter_cfg.c **** CYPACKED typedef struct
 127:.\Generated_Source\PSoC5/cyfitter_cfg.c **** {
ARM GAS  C:\Users\khjtony\AppData\Local\Temp\ccQLBKaw.s 			page 4


 128:.\Generated_Source\PSoC5/cyfitter_cfg.c **** 	uint8 offset;
 129:.\Generated_Source\PSoC5/cyfitter_cfg.c **** 	uint8 value;
 130:.\Generated_Source\PSoC5/cyfitter_cfg.c **** } CYPACKED_ATTR cy_cfg_addrvalue_t;
 131:.\Generated_Source\PSoC5/cyfitter_cfg.c **** 
 132:.\Generated_Source\PSoC5/cyfitter_cfg.c **** #define cy_cfg_addr_table ((const uint32 CYFAR *)0x48000000u)
 133:.\Generated_Source\PSoC5/cyfitter_cfg.c **** #define cy_cfg_data_table ((const cy_cfg_addrvalue_t CYFAR *)0x48000028u)
 134:.\Generated_Source\PSoC5/cyfitter_cfg.c **** 
 135:.\Generated_Source\PSoC5/cyfitter_cfg.c **** /* IOPINS0_4 Address: CYREG_PRT4_DM0 Size (bytes): 8 */
 136:.\Generated_Source\PSoC5/cyfitter_cfg.c **** #define BS_IOPINS0_4_VAL ((const uint8 CYFAR *)0x4800027Cu)
 137:.\Generated_Source\PSoC5/cyfitter_cfg.c **** 
 138:.\Generated_Source\PSoC5/cyfitter_cfg.c **** 
 139:.\Generated_Source\PSoC5/cyfitter_cfg.c **** /*******************************************************************************
 140:.\Generated_Source\PSoC5/cyfitter_cfg.c **** * Function Name: cfg_write_bytes32
 141:.\Generated_Source\PSoC5/cyfitter_cfg.c **** ********************************************************************************
 142:.\Generated_Source\PSoC5/cyfitter_cfg.c **** * Summary:
 143:.\Generated_Source\PSoC5/cyfitter_cfg.c **** *  This function is used for setting up the chip configuration areas that
 144:.\Generated_Source\PSoC5/cyfitter_cfg.c **** *  contain relatively sparse data.
 145:.\Generated_Source\PSoC5/cyfitter_cfg.c **** *
 146:.\Generated_Source\PSoC5/cyfitter_cfg.c **** * Parameters:
 147:.\Generated_Source\PSoC5/cyfitter_cfg.c **** *   void
 148:.\Generated_Source\PSoC5/cyfitter_cfg.c **** *
 149:.\Generated_Source\PSoC5/cyfitter_cfg.c **** * Return:
 150:.\Generated_Source\PSoC5/cyfitter_cfg.c **** *   void
 151:.\Generated_Source\PSoC5/cyfitter_cfg.c **** *
 152:.\Generated_Source\PSoC5/cyfitter_cfg.c **** *******************************************************************************/
 153:.\Generated_Source\PSoC5/cyfitter_cfg.c **** static void cfg_write_bytes32(const uint32 addr_table[], const cy_cfg_addrvalue_t data_table[]);
 154:.\Generated_Source\PSoC5/cyfitter_cfg.c **** static void cfg_write_bytes32(const uint32 addr_table[], const cy_cfg_addrvalue_t data_table[])
 155:.\Generated_Source\PSoC5/cyfitter_cfg.c **** {
  45              		.loc 1 155 0
  46              		.cfi_startproc
  47              		@ args = 0, pretend = 0, frame = 0
  48              		@ frame_needed = 0, uses_anonymous_args = 0
  49              		@ link register save eliminated.
  50              	.LVL1:
  51              		.loc 1 155 0
  52 0000 F0B4     		push	{r4, r5, r6, r7}
  53              		.cfi_def_cfa_offset 16
  54              		.cfi_offset 4, -16
  55              		.cfi_offset 5, -12
  56              		.cfi_offset 6, -8
  57              		.cfi_offset 7, -4
  58              	.LVL2:
 156:.\Generated_Source\PSoC5/cyfitter_cfg.c **** 	/* For 32-bit little-endian architectures */
 157:.\Generated_Source\PSoC5/cyfitter_cfg.c **** 	uint32 i, j = 0u;
  59              		.loc 1 157 0
  60 0002 0023     		movs	r3, #0
 158:.\Generated_Source\PSoC5/cyfitter_cfg.c **** 	for (i = 0u; i < CY_CFG_BASE_ADDR_COUNT; i++)
  61              		.loc 1 158 0
  62 0004 1F46     		mov	r7, r3
  63 0006 11E0     		b	.L4
  64              	.LVL3:
  65              	.L7:
  66              	.LBB2:
 159:.\Generated_Source\PSoC5/cyfitter_cfg.c **** 	{
 160:.\Generated_Source\PSoC5/cyfitter_cfg.c **** 		uint32 baseAddr = addr_table[i];
  67              		.loc 1 160 0
  68 0008 50F82760 		ldr	r6, [r0, r7, lsl #2]
ARM GAS  C:\Users\khjtony\AppData\Local\Temp\ccQLBKaw.s 			page 5


  69              	.LVL4:
 161:.\Generated_Source\PSoC5/cyfitter_cfg.c **** 		uint8 count = (uint8)baseAddr;
  70              		.loc 1 161 0
  71 000c F2B2     		uxtb	r2, r6
  72              	.LVL5:
 162:.\Generated_Source\PSoC5/cyfitter_cfg.c **** 		baseAddr &= 0xFFFFFF00u;
  73              		.loc 1 162 0
  74 000e 26F0FF06 		bic	r6, r6, #255
  75              	.LVL6:
 163:.\Generated_Source\PSoC5/cyfitter_cfg.c **** 		while (count != 0u)
  76              		.loc 1 163 0
  77 0012 08E0     		b	.L5
  78              	.L6:
 164:.\Generated_Source\PSoC5/cyfitter_cfg.c **** 		{
 165:.\Generated_Source\PSoC5/cyfitter_cfg.c **** 			CY_SET_XTND_REG8((void CYFAR *)(baseAddr + data_table[j].offset), data_table[j].value);
  79              		.loc 1 165 0
  80 0014 01EB4305 		add	r5, r1, r3, lsl #1
  81 0018 11F81340 		ldrb	r4, [r1, r3, lsl #1]	@ zero_extendqisi2
  82 001c 6D78     		ldrb	r5, [r5, #1]	@ zero_extendqisi2
  83 001e A555     		strb	r5, [r4, r6]
 166:.\Generated_Source\PSoC5/cyfitter_cfg.c **** 			j++;
  84              		.loc 1 166 0
  85 0020 0133     		adds	r3, r3, #1
  86              	.LVL7:
 167:.\Generated_Source\PSoC5/cyfitter_cfg.c **** 			count--;
  87              		.loc 1 167 0
  88 0022 013A     		subs	r2, r2, #1
  89              	.LVL8:
  90 0024 D2B2     		uxtb	r2, r2
  91              	.LVL9:
  92              	.L5:
 163:.\Generated_Source\PSoC5/cyfitter_cfg.c **** 		while (count != 0u)
  93              		.loc 1 163 0 discriminator 1
  94 0026 002A     		cmp	r2, #0
  95 0028 F4D1     		bne	.L6
  96              	.LBE2:
 158:.\Generated_Source\PSoC5/cyfitter_cfg.c **** 	for (i = 0u; i < CY_CFG_BASE_ADDR_COUNT; i++)
  97              		.loc 1 158 0
  98 002a 0137     		adds	r7, r7, #1
  99              	.LVL10:
 100              	.L4:
 158:.\Generated_Source\PSoC5/cyfitter_cfg.c **** 	for (i = 0u; i < CY_CFG_BASE_ADDR_COUNT; i++)
 101              		.loc 1 158 0 is_stmt 0 discriminator 1
 102 002c 092F     		cmp	r7, #9
 103 002e EBD9     		bls	.L7
 168:.\Generated_Source\PSoC5/cyfitter_cfg.c **** 		}
 169:.\Generated_Source\PSoC5/cyfitter_cfg.c **** 	}
 170:.\Generated_Source\PSoC5/cyfitter_cfg.c **** }
 104              		.loc 1 170 0 is_stmt 1
 105 0030 F0BC     		pop	{r4, r5, r6, r7}
 106              	.LVL11:
 107 0032 7047     		bx	lr
 108              		.cfi_endproc
 109              	.LFE4:
 110              		.size	cfg_write_bytes32, .-cfg_write_bytes32
 111              		.section	.text.AnalogSetDefault,"ax",%progbits
 112              		.align	2
ARM GAS  C:\Users\khjtony\AppData\Local\Temp\ccQLBKaw.s 			page 6


 113              		.thumb
 114              		.thumb_func
 115              		.type	AnalogSetDefault, %function
 116              	AnalogSetDefault:
 117              	.LFB6:
 171:.\Generated_Source\PSoC5/cyfitter_cfg.c **** 
 172:.\Generated_Source\PSoC5/cyfitter_cfg.c **** /*******************************************************************************
 173:.\Generated_Source\PSoC5/cyfitter_cfg.c **** * Function Name: ClockSetup
 174:.\Generated_Source\PSoC5/cyfitter_cfg.c **** ********************************************************************************
 175:.\Generated_Source\PSoC5/cyfitter_cfg.c **** *
 176:.\Generated_Source\PSoC5/cyfitter_cfg.c **** * Summary:
 177:.\Generated_Source\PSoC5/cyfitter_cfg.c **** *  Performs the initialization of all of the clocks in the device based on the
 178:.\Generated_Source\PSoC5/cyfitter_cfg.c **** *  settings in the Clock tab of the DWR.  This includes enabling the requested
 179:.\Generated_Source\PSoC5/cyfitter_cfg.c **** *  clocks and setting the necessary dividers to produce the desired frequency. 
 180:.\Generated_Source\PSoC5/cyfitter_cfg.c **** *
 181:.\Generated_Source\PSoC5/cyfitter_cfg.c **** * Parameters:
 182:.\Generated_Source\PSoC5/cyfitter_cfg.c **** *  void
 183:.\Generated_Source\PSoC5/cyfitter_cfg.c **** *
 184:.\Generated_Source\PSoC5/cyfitter_cfg.c **** * Return:
 185:.\Generated_Source\PSoC5/cyfitter_cfg.c **** *  void
 186:.\Generated_Source\PSoC5/cyfitter_cfg.c **** *
 187:.\Generated_Source\PSoC5/cyfitter_cfg.c **** *******************************************************************************/
 188:.\Generated_Source\PSoC5/cyfitter_cfg.c **** static void ClockSetup(void);
 189:.\Generated_Source\PSoC5/cyfitter_cfg.c **** static void ClockSetup(void)
 190:.\Generated_Source\PSoC5/cyfitter_cfg.c **** {
 191:.\Generated_Source\PSoC5/cyfitter_cfg.c **** 	uint32 timeout;
 192:.\Generated_Source\PSoC5/cyfitter_cfg.c **** 	uint8 pllLock;
 193:.\Generated_Source\PSoC5/cyfitter_cfg.c **** 
 194:.\Generated_Source\PSoC5/cyfitter_cfg.c **** 
 195:.\Generated_Source\PSoC5/cyfitter_cfg.c **** 	/* Configure Digital Clocks based on settings from Clock DWR */
 196:.\Generated_Source\PSoC5/cyfitter_cfg.c **** 	CY_SET_XTND_REG16((void CYFAR *)(CYREG_CLKDIST_DCFG0_CFG0), 0x0001u);
 197:.\Generated_Source\PSoC5/cyfitter_cfg.c **** 	CY_SET_XTND_REG8((void CYFAR *)(CYREG_CLKDIST_DCFG0_CFG0 + 0x2u), 0x18u);
 198:.\Generated_Source\PSoC5/cyfitter_cfg.c **** 
 199:.\Generated_Source\PSoC5/cyfitter_cfg.c **** 	/* Configure ILO based on settings from Clock DWR */
 200:.\Generated_Source\PSoC5/cyfitter_cfg.c **** 	CY_SET_XTND_REG8((void CYFAR *)(CYREG_SLOWCLK_ILO_CR0), 0x02u);
 201:.\Generated_Source\PSoC5/cyfitter_cfg.c **** 	CY_SET_XTND_REG8((void CYFAR *)(CYREG_CLKDIST_CR), 0x08u);
 202:.\Generated_Source\PSoC5/cyfitter_cfg.c **** 
 203:.\Generated_Source\PSoC5/cyfitter_cfg.c **** 	/* Configure IMO based on settings from Clock DWR */
 204:.\Generated_Source\PSoC5/cyfitter_cfg.c **** 	CY_SET_XTND_REG8((void CYFAR *)(CYREG_FASTCLK_IMO_CR), 0x03u);
 205:.\Generated_Source\PSoC5/cyfitter_cfg.c **** 	CY_SET_XTND_REG8((void CYFAR *)(CYREG_IMO_TR1), (CY_GET_XTND_REG8((void CYFAR *)CYREG_FLSHID_CUST_
 206:.\Generated_Source\PSoC5/cyfitter_cfg.c **** 
 207:.\Generated_Source\PSoC5/cyfitter_cfg.c **** 	/* Configure PLL based on settings from Clock DWR */
 208:.\Generated_Source\PSoC5/cyfitter_cfg.c **** 	CY_SET_XTND_REG16((void CYFAR *)(CYREG_FASTCLK_PLL_P), 0x0008u);
 209:.\Generated_Source\PSoC5/cyfitter_cfg.c **** 	CY_SET_XTND_REG16((void CYFAR *)(CYREG_FASTCLK_PLL_CFG0), 0x1251u);
 210:.\Generated_Source\PSoC5/cyfitter_cfg.c **** 	/* Wait up to 250us for the PLL to lock */
 211:.\Generated_Source\PSoC5/cyfitter_cfg.c **** 	pllLock = 0u;
 212:.\Generated_Source\PSoC5/cyfitter_cfg.c **** 	for (timeout = 250u / 10u; (timeout > 0u) && (pllLock != 0x03u); timeout--)
 213:.\Generated_Source\PSoC5/cyfitter_cfg.c **** 	{ 
 214:.\Generated_Source\PSoC5/cyfitter_cfg.c **** 		pllLock = 0x03u & ((uint8)((uint8)pllLock << 1) | ((CY_GET_XTND_REG8((void CYFAR *)CYREG_FASTCLK_
 215:.\Generated_Source\PSoC5/cyfitter_cfg.c **** 		CyDelayCycles(10u * 48u); /* Delay 10us based on 48MHz clock */
 216:.\Generated_Source\PSoC5/cyfitter_cfg.c **** 	}
 217:.\Generated_Source\PSoC5/cyfitter_cfg.c **** 	/* If we ran out of time the PLL didn't lock so go to the error function */
 218:.\Generated_Source\PSoC5/cyfitter_cfg.c **** 	if (timeout == 0u)
 219:.\Generated_Source\PSoC5/cyfitter_cfg.c **** 	{
 220:.\Generated_Source\PSoC5/cyfitter_cfg.c **** 		CyClockStartupError(CYCLOCKSTART_PLL_ERROR);
 221:.\Generated_Source\PSoC5/cyfitter_cfg.c **** 	}
 222:.\Generated_Source\PSoC5/cyfitter_cfg.c **** 
ARM GAS  C:\Users\khjtony\AppData\Local\Temp\ccQLBKaw.s 			page 7


 223:.\Generated_Source\PSoC5/cyfitter_cfg.c **** 	/* Configure Bus/Master Clock based on settings from Clock DWR */
 224:.\Generated_Source\PSoC5/cyfitter_cfg.c **** 	CY_SET_XTND_REG16((void CYFAR *)(CYREG_CLKDIST_MSTR0), 0x0100u);
 225:.\Generated_Source\PSoC5/cyfitter_cfg.c **** 	CY_SET_XTND_REG8((void CYFAR *)(CYREG_CLKDIST_MSTR0), 0x07u);
 226:.\Generated_Source\PSoC5/cyfitter_cfg.c **** 	CY_SET_XTND_REG8((void CYFAR *)(CYREG_CLKDIST_BCFG0), 0x00u);
 227:.\Generated_Source\PSoC5/cyfitter_cfg.c **** 	CY_SET_XTND_REG8((void CYFAR *)(CYREG_CLKDIST_BCFG2), 0x48u);
 228:.\Generated_Source\PSoC5/cyfitter_cfg.c **** 	CY_SET_XTND_REG8((void CYFAR *)(CYREG_CLKDIST_MSTR0), 0x00u);
 229:.\Generated_Source\PSoC5/cyfitter_cfg.c **** 	CY_SET_XTND_REG8((void CYFAR *)(CYREG_CLKDIST_LD), 0x02u);
 230:.\Generated_Source\PSoC5/cyfitter_cfg.c **** 
 231:.\Generated_Source\PSoC5/cyfitter_cfg.c **** 	CY_SET_XTND_REG8((void CYFAR *)(CYREG_PM_ACT_CFG2), ((CY_GET_XTND_REG8((void CYFAR *)CYREG_PM_ACT_
 232:.\Generated_Source\PSoC5/cyfitter_cfg.c **** }
 233:.\Generated_Source\PSoC5/cyfitter_cfg.c **** 
 234:.\Generated_Source\PSoC5/cyfitter_cfg.c **** 
 235:.\Generated_Source\PSoC5/cyfitter_cfg.c **** /* Analog API Functions */
 236:.\Generated_Source\PSoC5/cyfitter_cfg.c **** 
 237:.\Generated_Source\PSoC5/cyfitter_cfg.c **** 
 238:.\Generated_Source\PSoC5/cyfitter_cfg.c **** /*******************************************************************************
 239:.\Generated_Source\PSoC5/cyfitter_cfg.c **** * Function Name: AnalogSetDefault
 240:.\Generated_Source\PSoC5/cyfitter_cfg.c **** ********************************************************************************
 241:.\Generated_Source\PSoC5/cyfitter_cfg.c **** *
 242:.\Generated_Source\PSoC5/cyfitter_cfg.c **** * Summary:
 243:.\Generated_Source\PSoC5/cyfitter_cfg.c **** *  Sets up the analog portions of the chip to default values based on chip
 244:.\Generated_Source\PSoC5/cyfitter_cfg.c **** *  configuration options from the project.
 245:.\Generated_Source\PSoC5/cyfitter_cfg.c **** *
 246:.\Generated_Source\PSoC5/cyfitter_cfg.c **** * Parameters:
 247:.\Generated_Source\PSoC5/cyfitter_cfg.c **** *  void
 248:.\Generated_Source\PSoC5/cyfitter_cfg.c **** *
 249:.\Generated_Source\PSoC5/cyfitter_cfg.c **** * Return:
 250:.\Generated_Source\PSoC5/cyfitter_cfg.c **** *  void
 251:.\Generated_Source\PSoC5/cyfitter_cfg.c **** *
 252:.\Generated_Source\PSoC5/cyfitter_cfg.c **** *******************************************************************************/
 253:.\Generated_Source\PSoC5/cyfitter_cfg.c **** static void AnalogSetDefault(void);
 254:.\Generated_Source\PSoC5/cyfitter_cfg.c **** static void AnalogSetDefault(void)
 255:.\Generated_Source\PSoC5/cyfitter_cfg.c **** {
 118              		.loc 1 255 0
 119              		.cfi_startproc
 120              		@ args = 0, pretend = 0, frame = 0
 121              		@ frame_needed = 0, uses_anonymous_args = 0
 122              		@ link register save eliminated.
 256:.\Generated_Source\PSoC5/cyfitter_cfg.c **** 	uint8 bg_xover_inl_trim = CY_GET_XTND_REG8((void CYFAR *)(CYREG_FLSHID_MFG_CFG_BG_XOVER_INL_TRIM +
 123              		.loc 1 256 0
 124 0000 064B     		ldr	r3, .L9
 125 0002 1B78     		ldrb	r3, [r3]	@ zero_extendqisi2
 126 0004 DBB2     		uxtb	r3, r3
 127              	.LVL12:
 257:.\Generated_Source\PSoC5/cyfitter_cfg.c **** 	CY_SET_XTND_REG8((void CYFAR *)(CYREG_BG_DFT0), (bg_xover_inl_trim & 0x07u));
 128              		.loc 1 257 0
 129 0006 03F00701 		and	r1, r3, #7
 130 000a 054A     		ldr	r2, .L9+4
 131 000c 1170     		strb	r1, [r2]
 258:.\Generated_Source\PSoC5/cyfitter_cfg.c **** 	CY_SET_XTND_REG8((void CYFAR *)(CYREG_BG_DFT1), ((bg_xover_inl_trim >> 4) & 0x0Fu));
 132              		.loc 1 258 0
 133 000e 1B09     		lsrs	r3, r3, #4
 134              	.LVL13:
 135 0010 0132     		adds	r2, r2, #1
 136 0012 1370     		strb	r3, [r2]
 259:.\Generated_Source\PSoC5/cyfitter_cfg.c **** 	CY_SET_XTND_REG8((void CYFAR *)CYREG_PUMP_CR0, 0x44u);
 137              		.loc 1 259 0
ARM GAS  C:\Users\khjtony\AppData\Local\Temp\ccQLBKaw.s 			page 8


 138 0014 4422     		movs	r2, #68
 139 0016 034B     		ldr	r3, .L9+8
 140 0018 1A70     		strb	r2, [r3]
 141 001a 7047     		bx	lr
 142              	.L10:
 143              		.align	2
 144              	.L9:
 145 001c CF010049 		.word	1224737231
 146 0020 6E580040 		.word	1073764462
 147 0024 76580040 		.word	1073764470
 148              		.cfi_endproc
 149              	.LFE6:
 150              		.size	AnalogSetDefault, .-AnalogSetDefault
 151              		.section	.text.CYMEMZERO,"ax",%progbits
 152              		.align	2
 153              		.thumb
 154              		.thumb_func
 155              		.type	CYMEMZERO, %function
 156              	CYMEMZERO:
 157              	.LFB0:
  61:.\Generated_Source\PSoC5/cyfitter_cfg.c **** {
 158              		.loc 1 61 0
 159              		.cfi_startproc
 160              		@ args = 0, pretend = 0, frame = 0
 161              		@ frame_needed = 0, uses_anonymous_args = 0
 162              	.LVL14:
 163 0000 08B5     		push	{r3, lr}
 164              		.cfi_def_cfa_offset 8
 165              		.cfi_offset 3, -8
 166              		.cfi_offset 14, -4
 167 0002 0A46     		mov	r2, r1
  62:.\Generated_Source\PSoC5/cyfitter_cfg.c **** 	(void)memset(s, 0, n);
 168              		.loc 1 62 0
 169 0004 0021     		movs	r1, #0
 170              	.LVL15:
 171 0006 FFF7FEFF 		bl	memset
 172              	.LVL16:
 173 000a 08BD     		pop	{r3, pc}
 174              		.cfi_endproc
 175              	.LFE0:
 176              		.size	CYMEMZERO, .-CYMEMZERO
 177              		.section	.text.ClockSetup,"ax",%progbits
 178              		.align	2
 179              		.thumb
 180              		.thumb_func
 181              		.type	ClockSetup, %function
 182              	ClockSetup:
 183              	.LFB5:
 190:.\Generated_Source\PSoC5/cyfitter_cfg.c **** {
 184              		.loc 1 190 0
 185              		.cfi_startproc
 186              		@ args = 0, pretend = 0, frame = 0
 187              		@ frame_needed = 0, uses_anonymous_args = 0
 188 0000 F8B5     		push	{r3, r4, r5, r6, r7, lr}
 189              		.cfi_def_cfa_offset 24
 190              		.cfi_offset 3, -24
 191              		.cfi_offset 4, -20
ARM GAS  C:\Users\khjtony\AppData\Local\Temp\ccQLBKaw.s 			page 9


 192              		.cfi_offset 5, -16
 193              		.cfi_offset 6, -12
 194              		.cfi_offset 7, -8
 195              		.cfi_offset 14, -4
 196:.\Generated_Source\PSoC5/cyfitter_cfg.c **** 	CY_SET_XTND_REG16((void CYFAR *)(CYREG_CLKDIST_DCFG0_CFG0), 0x0001u);
 196              		.loc 1 196 0
 197 0002 0122     		movs	r2, #1
 198 0004 254B     		ldr	r3, .L17
 199 0006 1A80     		strh	r2, [r3]	@ movhi
 197:.\Generated_Source\PSoC5/cyfitter_cfg.c **** 	CY_SET_XTND_REG8((void CYFAR *)(CYREG_CLKDIST_DCFG0_CFG0 + 0x2u), 0x18u);
 200              		.loc 1 197 0
 201 0008 1822     		movs	r2, #24
 202 000a 0233     		adds	r3, r3, #2
 203 000c 1A70     		strb	r2, [r3]
 200:.\Generated_Source\PSoC5/cyfitter_cfg.c **** 	CY_SET_XTND_REG8((void CYFAR *)(CYREG_SLOWCLK_ILO_CR0), 0x02u);
 204              		.loc 1 200 0
 205 000e 0222     		movs	r2, #2
 206 0010 03F27E23 		addw	r3, r3, #638
 207 0014 1A70     		strb	r2, [r3]
 201:.\Generated_Source\PSoC5/cyfitter_cfg.c **** 	CY_SET_XTND_REG8((void CYFAR *)(CYREG_CLKDIST_CR), 0x08u);
 208              		.loc 1 201 0
 209 0016 0823     		movs	r3, #8
 210 0018 4FF04022 		mov	r2, #1073758208
 211 001c 1370     		strb	r3, [r2]
 204:.\Generated_Source\PSoC5/cyfitter_cfg.c **** 	CY_SET_XTND_REG8((void CYFAR *)(CYREG_FASTCLK_IMO_CR), 0x03u);
 212              		.loc 1 204 0
 213 001e 0321     		movs	r1, #3
 214 0020 02F50072 		add	r2, r2, #512
 215 0024 1170     		strb	r1, [r2]
 205:.\Generated_Source\PSoC5/cyfitter_cfg.c **** 	CY_SET_XTND_REG8((void CYFAR *)(CYREG_IMO_TR1), (CY_GET_XTND_REG8((void CYFAR *)CYREG_FLSHID_CUST_
 216              		.loc 1 205 0
 217 0026 1E4A     		ldr	r2, .L17+4
 218 0028 1178     		ldrb	r1, [r2]	@ zero_extendqisi2
 219 002a C9B2     		uxtb	r1, r1
 220 002c 1D4A     		ldr	r2, .L17+8
 221 002e 1170     		strb	r1, [r2]
 208:.\Generated_Source\PSoC5/cyfitter_cfg.c **** 	CY_SET_XTND_REG16((void CYFAR *)(CYREG_FASTCLK_PLL_P), 0x0008u);
 222              		.loc 1 208 0
 223 0030 A2F27F42 		subw	r2, r2, #1151
 224 0034 1380     		strh	r3, [r2]	@ movhi
 209:.\Generated_Source\PSoC5/cyfitter_cfg.c **** 	CY_SET_XTND_REG16((void CYFAR *)(CYREG_FASTCLK_PLL_CFG0), 0x1251u);
 225              		.loc 1 209 0
 226 0036 41F25122 		movw	r2, #4689
 227 003a 1B4B     		ldr	r3, .L17+12
 228 003c 1A80     		strh	r2, [r3]	@ movhi
 229              	.LVL17:
 211:.\Generated_Source\PSoC5/cyfitter_cfg.c **** 	pllLock = 0u;
 230              		.loc 1 211 0
 231 003e 0025     		movs	r5, #0
 212:.\Generated_Source\PSoC5/cyfitter_cfg.c **** 	for (timeout = 250u / 10u; (timeout > 0u) && (pllLock != 0x03u); timeout--)
 232              		.loc 1 212 0
 233 0040 1924     		movs	r4, #25
 214:.\Generated_Source\PSoC5/cyfitter_cfg.c **** 		pllLock = 0x03u & ((uint8)((uint8)pllLock << 1) | ((CY_GET_XTND_REG8((void CYFAR *)CYREG_FASTCLK_
 234              		.loc 1 214 0
 235 0042 1A4F     		ldr	r7, .L17+16
 215:.\Generated_Source\PSoC5/cyfitter_cfg.c **** 		CyDelayCycles(10u * 48u); /* Delay 10us based on 48MHz clock */
 236              		.loc 1 215 0
ARM GAS  C:\Users\khjtony\AppData\Local\Temp\ccQLBKaw.s 			page 10


 237 0044 4FF4F076 		mov	r6, #480
 212:.\Generated_Source\PSoC5/cyfitter_cfg.c **** 	for (timeout = 250u / 10u; (timeout > 0u) && (pllLock != 0x03u); timeout--)
 238              		.loc 1 212 0
 239 0048 0AE0     		b	.L13
 240              	.LVL18:
 241              	.L15:
 214:.\Generated_Source\PSoC5/cyfitter_cfg.c **** 		pllLock = 0x03u & ((uint8)((uint8)pllLock << 1) | ((CY_GET_XTND_REG8((void CYFAR *)CYREG_FASTCLK_
 242              		.loc 1 214 0 discriminator 1
 243 004a 3B78     		ldrb	r3, [r7]	@ zero_extendqisi2
 244 004c 03F00103 		and	r3, r3, #1
 245 0050 43EA4505 		orr	r5, r3, r5, lsl #1
 246              	.LVL19:
 247 0054 05F00305 		and	r5, r5, #3
 248              	.LVL20:
 215:.\Generated_Source\PSoC5/cyfitter_cfg.c **** 		CyDelayCycles(10u * 48u); /* Delay 10us based on 48MHz clock */
 249              		.loc 1 215 0 discriminator 1
 250 0058 3046     		mov	r0, r6
 251 005a FFF7FEFF 		bl	CyDelayCycles
 252              	.LVL21:
 212:.\Generated_Source\PSoC5/cyfitter_cfg.c **** 	for (timeout = 250u / 10u; (timeout > 0u) && (pllLock != 0x03u); timeout--)
 253              		.loc 1 212 0 discriminator 1
 254 005e 013C     		subs	r4, r4, #1
 255              	.LVL22:
 256              	.L13:
 257 0060 0CB1     		cbz	r4, .L14
 212:.\Generated_Source\PSoC5/cyfitter_cfg.c **** 	for (timeout = 250u / 10u; (timeout > 0u) && (pllLock != 0x03u); timeout--)
 258              		.loc 1 212 0 is_stmt 0 discriminator 2
 259 0062 032D     		cmp	r5, #3
 260 0064 F1D1     		bne	.L15
 261              	.L14:
 218:.\Generated_Source\PSoC5/cyfitter_cfg.c **** 	if (timeout == 0u)
 262              		.loc 1 218 0 is_stmt 1
 263 0066 14B9     		cbnz	r4, .L16
 220:.\Generated_Source\PSoC5/cyfitter_cfg.c **** 		CyClockStartupError(CYCLOCKSTART_PLL_ERROR);
 264              		.loc 1 220 0
 265 0068 0320     		movs	r0, #3
 266 006a FFF7FEFF 		bl	CyClockStartupError
 267              	.LVL23:
 268              	.L16:
 224:.\Generated_Source\PSoC5/cyfitter_cfg.c **** 	CY_SET_XTND_REG16((void CYFAR *)(CYREG_CLKDIST_MSTR0), 0x0100u);
 269              		.loc 1 224 0
 270 006e 104B     		ldr	r3, .L17+20
 271 0070 4FF48072 		mov	r2, #256
 272 0074 1A80     		strh	r2, [r3]	@ movhi
 225:.\Generated_Source\PSoC5/cyfitter_cfg.c **** 	CY_SET_XTND_REG8((void CYFAR *)(CYREG_CLKDIST_MSTR0), 0x07u);
 273              		.loc 1 225 0
 274 0076 0722     		movs	r2, #7
 275 0078 1A70     		strb	r2, [r3]
 226:.\Generated_Source\PSoC5/cyfitter_cfg.c **** 	CY_SET_XTND_REG8((void CYFAR *)(CYREG_CLKDIST_BCFG0), 0x00u);
 276              		.loc 1 226 0
 277 007a 0022     		movs	r2, #0
 278 007c 0D49     		ldr	r1, .L17+24
 279 007e 0A70     		strb	r2, [r1]
 227:.\Generated_Source\PSoC5/cyfitter_cfg.c **** 	CY_SET_XTND_REG8((void CYFAR *)(CYREG_CLKDIST_BCFG2), 0x48u);
 280              		.loc 1 227 0
 281 0080 4820     		movs	r0, #72
 282 0082 0231     		adds	r1, r1, #2
ARM GAS  C:\Users\khjtony\AppData\Local\Temp\ccQLBKaw.s 			page 11


 283 0084 0870     		strb	r0, [r1]
 228:.\Generated_Source\PSoC5/cyfitter_cfg.c **** 	CY_SET_XTND_REG8((void CYFAR *)(CYREG_CLKDIST_MSTR0), 0x00u);
 284              		.loc 1 228 0
 285 0086 1A70     		strb	r2, [r3]
 229:.\Generated_Source\PSoC5/cyfitter_cfg.c **** 	CY_SET_XTND_REG8((void CYFAR *)(CYREG_CLKDIST_LD), 0x02u);
 286              		.loc 1 229 0
 287 0088 0222     		movs	r2, #2
 288 008a 033B     		subs	r3, r3, #3
 289 008c 1A70     		strb	r2, [r3]
 231:.\Generated_Source\PSoC5/cyfitter_cfg.c **** 	CY_SET_XTND_REG8((void CYFAR *)(CYREG_PM_ACT_CFG2), ((CY_GET_XTND_REG8((void CYFAR *)CYREG_PM_ACT_
 290              		.loc 1 231 0
 291 008e 03F2A133 		addw	r3, r3, #929
 292 0092 1A78     		ldrb	r2, [r3]	@ zero_extendqisi2
 293 0094 42F00102 		orr	r2, r2, #1
 294 0098 1A70     		strb	r2, [r3]
 295 009a F8BD     		pop	{r3, r4, r5, r6, r7, pc}
 296              	.LVL24:
 297              	.L18:
 298              		.align	2
 299              	.L17:
 300 009c 80400040 		.word	1073758336
 301 00a0 08010049 		.word	1224737032
 302 00a4 A1460040 		.word	1073759905
 303 00a8 20420040 		.word	1073758752
 304 00ac 25420040 		.word	1073758757
 305 00b0 04400040 		.word	1073758212
 306 00b4 06400040 		.word	1073758214
 307              		.cfi_endproc
 308              	.LFE5:
 309              		.size	ClockSetup, .-ClockSetup
 310              		.section	.text.CYCONFIGCPY,"ax",%progbits
 311              		.align	2
 312              		.thumb
 313              		.thumb_func
 314              		.type	CYCONFIGCPY, %function
 315              	CYCONFIGCPY:
 316              	.LFB1:
  68:.\Generated_Source\PSoC5/cyfitter_cfg.c **** {
 317              		.loc 1 68 0
 318              		.cfi_startproc
 319              		@ args = 0, pretend = 0, frame = 0
 320              		@ frame_needed = 0, uses_anonymous_args = 0
 321              	.LVL25:
 322 0000 08B5     		push	{r3, lr}
 323              		.cfi_def_cfa_offset 8
 324              		.cfi_offset 3, -8
 325              		.cfi_offset 14, -4
  69:.\Generated_Source\PSoC5/cyfitter_cfg.c **** 	(void)memcpy(dest, src, n);
 326              		.loc 1 69 0
 327 0002 FFF7FEFF 		bl	memcpy
 328              	.LVL26:
 329 0006 08BD     		pop	{r3, pc}
 330              		.cfi_endproc
 331              	.LFE1:
 332              		.size	CYCONFIGCPY, .-CYCONFIGCPY
 333              		.section	.text.SetAnalogRoutingPumps,"ax",%progbits
 334              		.align	2
ARM GAS  C:\Users\khjtony\AppData\Local\Temp\ccQLBKaw.s 			page 12


 335              		.global	SetAnalogRoutingPumps
 336              		.thumb
 337              		.thumb_func
 338              		.type	SetAnalogRoutingPumps, %function
 339              	SetAnalogRoutingPumps:
 340              	.LFB7:
 260:.\Generated_Source\PSoC5/cyfitter_cfg.c **** }
 261:.\Generated_Source\PSoC5/cyfitter_cfg.c **** 
 262:.\Generated_Source\PSoC5/cyfitter_cfg.c **** 
 263:.\Generated_Source\PSoC5/cyfitter_cfg.c **** /*******************************************************************************
 264:.\Generated_Source\PSoC5/cyfitter_cfg.c **** * Function Name: SetAnalogRoutingPumps
 265:.\Generated_Source\PSoC5/cyfitter_cfg.c **** ********************************************************************************
 266:.\Generated_Source\PSoC5/cyfitter_cfg.c **** *
 267:.\Generated_Source\PSoC5/cyfitter_cfg.c **** * Summary:
 268:.\Generated_Source\PSoC5/cyfitter_cfg.c **** * Enables or disables the analog pumps feeding analog routing switches.
 269:.\Generated_Source\PSoC5/cyfitter_cfg.c **** * Intended to be called at startup, based on the Vdda system configuration;
 270:.\Generated_Source\PSoC5/cyfitter_cfg.c **** * may be called during operation when the user informs us that the Vdda voltage
 271:.\Generated_Source\PSoC5/cyfitter_cfg.c **** * crossed the pump threshold.
 272:.\Generated_Source\PSoC5/cyfitter_cfg.c **** *
 273:.\Generated_Source\PSoC5/cyfitter_cfg.c **** * Parameters:
 274:.\Generated_Source\PSoC5/cyfitter_cfg.c **** *  enabled - 1 to enable the pumps, 0 to disable the pumps
 275:.\Generated_Source\PSoC5/cyfitter_cfg.c **** *
 276:.\Generated_Source\PSoC5/cyfitter_cfg.c **** * Return:
 277:.\Generated_Source\PSoC5/cyfitter_cfg.c **** *  void
 278:.\Generated_Source\PSoC5/cyfitter_cfg.c **** *
 279:.\Generated_Source\PSoC5/cyfitter_cfg.c **** *******************************************************************************/
 280:.\Generated_Source\PSoC5/cyfitter_cfg.c **** void SetAnalogRoutingPumps(uint8 enabled)
 281:.\Generated_Source\PSoC5/cyfitter_cfg.c **** {
 341              		.loc 1 281 0
 342              		.cfi_startproc
 343              		@ args = 0, pretend = 0, frame = 0
 344              		@ frame_needed = 0, uses_anonymous_args = 0
 345              		@ link register save eliminated.
 346              	.LVL27:
 282:.\Generated_Source\PSoC5/cyfitter_cfg.c **** 	uint8 regValue = CY_GET_XTND_REG8((void CYFAR *)CYREG_PUMP_CR0);
 347              		.loc 1 282 0
 348 0000 024B     		ldr	r3, .L21
 349 0002 1A78     		ldrb	r2, [r3]	@ zero_extendqisi2
 350 0004 D2B2     		uxtb	r2, r2
 351              	.LVL28:
 283:.\Generated_Source\PSoC5/cyfitter_cfg.c **** 	if (enabled != 0u)
 284:.\Generated_Source\PSoC5/cyfitter_cfg.c **** 	{
 285:.\Generated_Source\PSoC5/cyfitter_cfg.c **** 		regValue |= 0x00u;
 286:.\Generated_Source\PSoC5/cyfitter_cfg.c **** 	}
 287:.\Generated_Source\PSoC5/cyfitter_cfg.c **** 	else
 288:.\Generated_Source\PSoC5/cyfitter_cfg.c **** 	{
 289:.\Generated_Source\PSoC5/cyfitter_cfg.c **** 		regValue &= (uint8)~0x00u;
 290:.\Generated_Source\PSoC5/cyfitter_cfg.c **** 	}
 291:.\Generated_Source\PSoC5/cyfitter_cfg.c **** 	CY_SET_XTND_REG8((void CYFAR *)CYREG_PUMP_CR0, regValue);
 352              		.loc 1 291 0
 353 0006 1A70     		strb	r2, [r3]
 354 0008 7047     		bx	lr
 355              	.L22:
 356 000a 00BF     		.align	2
 357              	.L21:
 358 000c 76580040 		.word	1073764470
 359              		.cfi_endproc
ARM GAS  C:\Users\khjtony\AppData\Local\Temp\ccQLBKaw.s 			page 13


 360              	.LFE7:
 361              		.size	SetAnalogRoutingPumps, .-SetAnalogRoutingPumps
 362              		.section	.text.cyfitter_cfg,"ax",%progbits
 363              		.align	2
 364              		.global	cyfitter_cfg
 365              		.thumb
 366              		.thumb_func
 367              		.type	cyfitter_cfg, %function
 368              	cyfitter_cfg:
 369              	.LFB8:
 292:.\Generated_Source\PSoC5/cyfitter_cfg.c **** }
 293:.\Generated_Source\PSoC5/cyfitter_cfg.c **** 
 294:.\Generated_Source\PSoC5/cyfitter_cfg.c **** #define CY_AMUX_UNUSED CYREG_BOOST_SR
 295:.\Generated_Source\PSoC5/cyfitter_cfg.c **** 
 296:.\Generated_Source\PSoC5/cyfitter_cfg.c **** 
 297:.\Generated_Source\PSoC5/cyfitter_cfg.c **** /*******************************************************************************
 298:.\Generated_Source\PSoC5/cyfitter_cfg.c **** * Function Name: cyfitter_cfg
 299:.\Generated_Source\PSoC5/cyfitter_cfg.c **** ********************************************************************************
 300:.\Generated_Source\PSoC5/cyfitter_cfg.c **** * Summary:
 301:.\Generated_Source\PSoC5/cyfitter_cfg.c **** *  This function is called by the start-up code for the selected device. It
 302:.\Generated_Source\PSoC5/cyfitter_cfg.c **** *  performs all of the necessary device configuration based on the design
 303:.\Generated_Source\PSoC5/cyfitter_cfg.c **** *  settings.  This includes settings from the Design Wide Resources (DWR) such
 304:.\Generated_Source\PSoC5/cyfitter_cfg.c **** *  as Clocks and Pins as well as any component configuration that is necessary.
 305:.\Generated_Source\PSoC5/cyfitter_cfg.c **** *
 306:.\Generated_Source\PSoC5/cyfitter_cfg.c **** * Parameters:  
 307:.\Generated_Source\PSoC5/cyfitter_cfg.c **** *   void
 308:.\Generated_Source\PSoC5/cyfitter_cfg.c **** *
 309:.\Generated_Source\PSoC5/cyfitter_cfg.c **** * Return:
 310:.\Generated_Source\PSoC5/cyfitter_cfg.c **** *   void
 311:.\Generated_Source\PSoC5/cyfitter_cfg.c **** *
 312:.\Generated_Source\PSoC5/cyfitter_cfg.c **** *******************************************************************************/
 313:.\Generated_Source\PSoC5/cyfitter_cfg.c **** 
 314:.\Generated_Source\PSoC5/cyfitter_cfg.c **** void cyfitter_cfg(void)
 315:.\Generated_Source\PSoC5/cyfitter_cfg.c **** {
 370              		.loc 1 315 0
 371              		.cfi_startproc
 372              		@ args = 0, pretend = 0, frame = 0
 373              		@ frame_needed = 0, uses_anonymous_args = 0
 374 0000 70B5     		push	{r4, r5, r6, lr}
 375              		.cfi_def_cfa_offset 16
 376              		.cfi_offset 4, -16
 377              		.cfi_offset 5, -12
 378              		.cfi_offset 6, -8
 379              		.cfi_offset 14, -4
 316:.\Generated_Source\PSoC5/cyfitter_cfg.c **** #ifdef CYGlobalIntDisable
 317:.\Generated_Source\PSoC5/cyfitter_cfg.c **** 	/* Disable interrupts by default. Let user enable if/when they want. */
 318:.\Generated_Source\PSoC5/cyfitter_cfg.c **** 	CYGlobalIntDisable
 380              		.loc 1 318 0
 381              	@ 318 ".\Generated_Source\PSoC5\cyfitter_cfg.c" 1
 382 0002 72B6     		CPSID   i
 383              	@ 0 "" 2
 319:.\Generated_Source\PSoC5/cyfitter_cfg.c **** #endif
 320:.\Generated_Source\PSoC5/cyfitter_cfg.c **** 
 321:.\Generated_Source\PSoC5/cyfitter_cfg.c **** 	/* Enable/Disable Debug functionality based on settings from System DWR */
 322:.\Generated_Source\PSoC5/cyfitter_cfg.c **** 	CY_SET_XTND_REG8((void CYFAR *)CYREG_MLOGIC_DEBUG, (CY_GET_XTND_REG8((void CYFAR *)CYREG_MLOGIC_DE
 384              		.loc 1 322 0
 385              		.thumb
ARM GAS  C:\Users\khjtony\AppData\Local\Temp\ccQLBKaw.s 			page 14


 386 0004 234B     		ldr	r3, .L26
 387 0006 1A78     		ldrb	r2, [r3]	@ zero_extendqisi2
 388 0008 42F00402 		orr	r2, r2, #4
 389 000c 1A70     		strb	r2, [r3]
 390              	.LVL29:
 391              	.LBB3:
 323:.\Generated_Source\PSoC5/cyfitter_cfg.c **** 
 324:.\Generated_Source\PSoC5/cyfitter_cfg.c **** 	{
 325:.\Generated_Source\PSoC5/cyfitter_cfg.c **** 
 326:.\Generated_Source\PSoC5/cyfitter_cfg.c **** 		CYPACKED typedef struct {
 327:.\Generated_Source\PSoC5/cyfitter_cfg.c **** 			void CYFAR *address;
 328:.\Generated_Source\PSoC5/cyfitter_cfg.c **** 			uint16 size;
 329:.\Generated_Source\PSoC5/cyfitter_cfg.c **** 		} CYPACKED_ATTR cfg_memset_t;
 330:.\Generated_Source\PSoC5/cyfitter_cfg.c **** 
 331:.\Generated_Source\PSoC5/cyfitter_cfg.c **** 		static const cfg_memset_t CYCODE cfg_memset_list [] = {
 332:.\Generated_Source\PSoC5/cyfitter_cfg.c **** 			/* address, size */
 333:.\Generated_Source\PSoC5/cyfitter_cfg.c **** 			{(void CYFAR *)(CYREG_PRT0_DR), 64u},
 334:.\Generated_Source\PSoC5/cyfitter_cfg.c **** 			{(void CYFAR *)(CYREG_PRT5_DR), 32u},
 335:.\Generated_Source\PSoC5/cyfitter_cfg.c **** 			{(void CYFAR *)(CYREG_PRT12_DR), 16u},
 336:.\Generated_Source\PSoC5/cyfitter_cfg.c **** 			{(void CYFAR *)(CYREG_PRT15_DR), 16u},
 337:.\Generated_Source\PSoC5/cyfitter_cfg.c **** 			{(void CYFAR *)(CYDEV_UCFG_B0_P0_U0_BASE), 4096u},
 338:.\Generated_Source\PSoC5/cyfitter_cfg.c **** 			{(void CYFAR *)(CYDEV_UCFG_B1_P2_U0_BASE), 2048u},
 339:.\Generated_Source\PSoC5/cyfitter_cfg.c **** 			{(void CYFAR *)(CYDEV_UCFG_DSI0_BASE), 2560u},
 340:.\Generated_Source\PSoC5/cyfitter_cfg.c **** 			{(void CYFAR *)(CYDEV_UCFG_DSI12_BASE), 512u},
 341:.\Generated_Source\PSoC5/cyfitter_cfg.c **** 			{(void CYFAR *)(CYREG_BCTL0_MDCLK_EN), 32u},
 342:.\Generated_Source\PSoC5/cyfitter_cfg.c **** 		};
 343:.\Generated_Source\PSoC5/cyfitter_cfg.c **** 
 344:.\Generated_Source\PSoC5/cyfitter_cfg.c **** 		uint8 CYDATA i;
 345:.\Generated_Source\PSoC5/cyfitter_cfg.c **** 
 346:.\Generated_Source\PSoC5/cyfitter_cfg.c **** 		/* Zero out critical memory blocks before beginning configuration */
 347:.\Generated_Source\PSoC5/cyfitter_cfg.c **** 		for (i = 0u; i < (sizeof(cfg_memset_list)/sizeof(cfg_memset_list[0])); i++)
 392              		.loc 1 347 0
 393 000e 0024     		movs	r4, #0
 394              	.LBB4:
 348:.\Generated_Source\PSoC5/cyfitter_cfg.c **** 		{
 349:.\Generated_Source\PSoC5/cyfitter_cfg.c **** 			const cfg_memset_t CYCODE * CYDATA ms = &cfg_memset_list[i];
 395              		.loc 1 349 0
 396 0010 214D     		ldr	r5, .L26+4
 397              	.LBE4:
 347:.\Generated_Source\PSoC5/cyfitter_cfg.c **** 		for (i = 0u; i < (sizeof(cfg_memset_list)/sizeof(cfg_memset_list[0])); i++)
 398              		.loc 1 347 0
 399 0012 09E0     		b	.L24
 400              	.LVL30:
 401              	.L25:
 402              	.LBB5:
 403              		.loc 1 349 0 discriminator 2
 404 0014 04EB4403 		add	r3, r4, r4, lsl #1
 405 0018 5B00     		lsls	r3, r3, #1
 406 001a 2B44     		add	r3, r3, r5
 407              	.LVL31:
 350:.\Generated_Source\PSoC5/cyfitter_cfg.c **** 			CYMEMZERO(ms->address, (size_t)(uint32)(ms->size));
 408              		.loc 1 350 0 discriminator 2
 409 001c 1868     		ldr	r0, [r3]	@ unaligned
 410 001e 9988     		ldrh	r1, [r3, #4]
 411 0020 FFF7FEFF 		bl	CYMEMZERO
 412              	.LVL32:
 413              	.LBE5:
ARM GAS  C:\Users\khjtony\AppData\Local\Temp\ccQLBKaw.s 			page 15


 347:.\Generated_Source\PSoC5/cyfitter_cfg.c **** 		for (i = 0u; i < (sizeof(cfg_memset_list)/sizeof(cfg_memset_list[0])); i++)
 414              		.loc 1 347 0 discriminator 2
 415 0024 0134     		adds	r4, r4, #1
 416              	.LVL33:
 417 0026 E4B2     		uxtb	r4, r4
 418              	.LVL34:
 419              	.L24:
 347:.\Generated_Source\PSoC5/cyfitter_cfg.c **** 		for (i = 0u; i < (sizeof(cfg_memset_list)/sizeof(cfg_memset_list[0])); i++)
 420              		.loc 1 347 0 is_stmt 0 discriminator 1
 421 0028 082C     		cmp	r4, #8
 422 002a F3D9     		bls	.L25
 351:.\Generated_Source\PSoC5/cyfitter_cfg.c **** 		}
 352:.\Generated_Source\PSoC5/cyfitter_cfg.c **** 
 353:.\Generated_Source\PSoC5/cyfitter_cfg.c **** 		cfg_write_bytes32(cy_cfg_addr_table, cy_cfg_data_table);
 423              		.loc 1 353 0 is_stmt 1
 424 002c 4FF09040 		mov	r0, #1207959552
 425 0030 1A49     		ldr	r1, .L26+8
 426 0032 FFF7FEFF 		bl	cfg_write_bytes32
 427              	.LVL35:
 354:.\Generated_Source\PSoC5/cyfitter_cfg.c **** 
 355:.\Generated_Source\PSoC5/cyfitter_cfg.c **** 		/* Enable digital routing */
 356:.\Generated_Source\PSoC5/cyfitter_cfg.c **** 		CY_SET_XTND_REG8((void CYFAR *)CYREG_BCTL0_BANK_CTL, CY_GET_XTND_REG8((void CYFAR *)CYREG_BCTL0_B
 428              		.loc 1 356 0
 429 0036 1A4B     		ldr	r3, .L26+12
 430 0038 1A78     		ldrb	r2, [r3]	@ zero_extendqisi2
 431 003a 42F00202 		orr	r2, r2, #2
 432 003e 1A70     		strb	r2, [r3]
 357:.\Generated_Source\PSoC5/cyfitter_cfg.c **** 		CY_SET_XTND_REG8((void CYFAR *)CYREG_BCTL1_BANK_CTL, CY_GET_XTND_REG8((void CYFAR *)CYREG_BCTL1_B
 433              		.loc 1 357 0
 434 0040 1033     		adds	r3, r3, #16
 435 0042 1A78     		ldrb	r2, [r3]	@ zero_extendqisi2
 436 0044 42F00202 		orr	r2, r2, #2
 437 0048 1A70     		strb	r2, [r3]
 358:.\Generated_Source\PSoC5/cyfitter_cfg.c **** 
 359:.\Generated_Source\PSoC5/cyfitter_cfg.c **** 		/* Enable UDB array */
 360:.\Generated_Source\PSoC5/cyfitter_cfg.c **** 		CY_SET_XTND_REG8((void CYFAR *)CYREG_PM_ACT_CFG0, CY_GET_XTND_REG8((void CYFAR *)CYREG_PM_ACT_CFG
 438              		.loc 1 360 0
 439 004a 164C     		ldr	r4, .L26+16
 440              	.LVL36:
 441 004c 2378     		ldrb	r3, [r4]	@ zero_extendqisi2
 442 004e 43F04003 		orr	r3, r3, #64
 443 0052 2370     		strb	r3, [r4]
 361:.\Generated_Source\PSoC5/cyfitter_cfg.c **** 		CY_SET_XTND_REG8((void CYFAR *)CYREG_PM_AVAIL_CR2, CY_GET_XTND_REG8((void CYFAR *)CYREG_PM_AVAIL_
 444              		.loc 1 361 0
 445 0054 144B     		ldr	r3, .L26+20
 446 0056 1A78     		ldrb	r2, [r3]	@ zero_extendqisi2
 447 0058 42F01002 		orr	r2, r2, #16
 448 005c 1A70     		strb	r2, [r3]
 449              	.LBE3:
 362:.\Generated_Source\PSoC5/cyfitter_cfg.c **** 	}
 363:.\Generated_Source\PSoC5/cyfitter_cfg.c **** 
 364:.\Generated_Source\PSoC5/cyfitter_cfg.c **** 
 365:.\Generated_Source\PSoC5/cyfitter_cfg.c **** 	/* Perform second pass device configuration. These items must be configured in specific order afte
 366:.\Generated_Source\PSoC5/cyfitter_cfg.c **** 	CYCONFIGCPY((void CYFAR *)(CYREG_PRT4_DM0), (const void CYFAR *)(BS_IOPINS0_4_VAL), 8u);
 450              		.loc 1 366 0
 451 005e 1348     		ldr	r0, .L26+24
 452 0060 1349     		ldr	r1, .L26+28
ARM GAS  C:\Users\khjtony\AppData\Local\Temp\ccQLBKaw.s 			page 16


 453 0062 0822     		movs	r2, #8
 454 0064 FFF7FEFF 		bl	CYCONFIGCPY
 455              	.LVL37:
 367:.\Generated_Source\PSoC5/cyfitter_cfg.c **** 	/* Switch Boost to the precision bandgap reference from its internal reference */
 368:.\Generated_Source\PSoC5/cyfitter_cfg.c **** 	CY_SET_REG8((void CYXDATA *)CYREG_BOOST_CR2, (CY_GET_REG8((void CYXDATA *)CYREG_BOOST_CR2) | 0x08u
 456              		.loc 1 368 0
 457 0068 124B     		ldr	r3, .L26+32
 458 006a 1A78     		ldrb	r2, [r3]	@ zero_extendqisi2
 459 006c 42F00802 		orr	r2, r2, #8
 460 0070 1A70     		strb	r2, [r3]
 369:.\Generated_Source\PSoC5/cyfitter_cfg.c **** 
 370:.\Generated_Source\PSoC5/cyfitter_cfg.c **** 	/* Set Flash Cycles based on max possible frequency in case a glitch occurs during ClockSetup(). *
 371:.\Generated_Source\PSoC5/cyfitter_cfg.c **** 	CY_SET_XTND_REG8((void CYFAR *)(CYREG_CACHE_CC_CTL), (((CYDEV_INSTRUCT_CACHE_ENABLED) != 0) ? 0x01
 461              		.loc 1 371 0
 462 0072 114E     		ldr	r6, .L26+36
 463 0074 0125     		movs	r5, #1
 464 0076 3570     		strb	r5, [r6]
 372:.\Generated_Source\PSoC5/cyfitter_cfg.c **** 	/* Setup clocks based on selections from Clock DWR */
 373:.\Generated_Source\PSoC5/cyfitter_cfg.c **** 	ClockSetup();
 465              		.loc 1 373 0
 466 0078 FFF7FEFF 		bl	ClockSetup
 467              	.LVL38:
 374:.\Generated_Source\PSoC5/cyfitter_cfg.c **** 	/* Set Flash Cycles based on newly configured 24.00MHz Bus Clock. */
 375:.\Generated_Source\PSoC5/cyfitter_cfg.c **** 	CY_SET_XTND_REG8((void CYFAR *)(CYREG_CACHE_CC_CTL), (((CYDEV_INSTRUCT_CACHE_ENABLED) != 0) ? 0x81
 468              		.loc 1 375 0
 469 007c 8123     		movs	r3, #129
 470 007e 3370     		strb	r3, [r6]
 376:.\Generated_Source\PSoC5/cyfitter_cfg.c **** 	CY_SET_XTND_REG8((void CYFAR *)(CYREG_PANTHER_WAITPIPE), 0x01u);
 471              		.loc 1 376 0
 472 0080 0E4B     		ldr	r3, .L26+40
 473 0082 1D70     		strb	r5, [r3]
 377:.\Generated_Source\PSoC5/cyfitter_cfg.c **** 
 378:.\Generated_Source\PSoC5/cyfitter_cfg.c **** 	/* Perform basic analog initialization to defaults */
 379:.\Generated_Source\PSoC5/cyfitter_cfg.c **** 	AnalogSetDefault();
 474              		.loc 1 379 0
 475 0084 FFF7FEFF 		bl	AnalogSetDefault
 476              	.LVL39:
 380:.\Generated_Source\PSoC5/cyfitter_cfg.c **** 
 381:.\Generated_Source\PSoC5/cyfitter_cfg.c **** 	/* Configure alternate active mode */
 382:.\Generated_Source\PSoC5/cyfitter_cfg.c **** 	CYCONFIGCPY((void CYFAR *)CYDEV_PM_STBY_BASE, (const void CYFAR *)CYDEV_PM_ACT_BASE, 14u);
 477              		.loc 1 382 0
 478 0088 0D48     		ldr	r0, .L26+44
 479 008a 2146     		mov	r1, r4
 480 008c 0E22     		movs	r2, #14
 481 008e FFF7FEFF 		bl	CYCONFIGCPY
 482              	.LVL40:
 483 0092 70BD     		pop	{r4, r5, r6, pc}
 484              	.L27:
 485              		.align	2
 486              	.L26:
 487 0094 E8460040 		.word	1073759976
 488 0098 00000000 		.word	.LANCHOR0
 489 009c 28000048 		.word	1207959592
 490 00a0 03500140 		.word	1073827843
 491 00a4 A0430040 		.word	1073759136
 492 00a8 C2430040 		.word	1073759170
 493 00ac 42510040 		.word	1073762626
ARM GAS  C:\Users\khjtony\AppData\Local\Temp\ccQLBKaw.s 			page 17


 494 00b0 7C020048 		.word	1207960188
 495 00b4 22430040 		.word	1073759010
 496 00b8 00480040 		.word	1073760256
 497 00bc 04000840 		.word	1074266116
 498 00c0 B0430040 		.word	1073759152
 499              		.cfi_endproc
 500              	.LFE8:
 501              		.size	cyfitter_cfg, .-cyfitter_cfg
 502              		.section	.rodata
 503              		.align	2
 504              		.set	.LANCHOR0,. + 0
 505              		.type	cfg_memset_list.4883, %object
 506              		.size	cfg_memset_list.4883, 54
 507              	cfg_memset_list.4883:
 508 0000 00510040 		.word	1073762560
 509 0004 4000     		.short	64
 510 0006 50510040 		.4byte	1073762640
 511 000a 2000     		.short	32
 512 000c C0510040 		.word	1073762752
 513 0010 1000     		.short	16
 514 0012 F0510040 		.4byte	1073762800
 515 0016 1000     		.short	16
 516 0018 00000140 		.word	1073807360
 517 001c 0010     		.short	4096
 518 001e 00140140 		.4byte	1073812480
 519 0022 0008     		.short	2048
 520 0024 00400140 		.word	1073823744
 521 0028 000A     		.short	2560
 522 002a 004C0140 		.4byte	1073826816
 523 002e 0002     		.short	512
 524 0030 00500140 		.word	1073827840
 525 0034 2000     		.short	32
 526 0036 0000     		.text
 527              	.Letext0:
 528              		.file 2 "c:\\program files (x86)\\cypress\\psoc creator\\3.2\\psoc creator\\import\\gnu\\arm\\4.8.
 529              		.file 3 ".\\Generated_Source\\PSoC5\\cytypes.h"
 530              		.file 4 ".\\Generated_Source\\PSoC5\\CyLib.h"