ARM GAS  C:\Users\khjtony\AppData\Local\Temp\ccleSq1F.s 			page 1


   1              		.syntax unified
   2              		.cpu cortex-m3
   3              		.fpu softvfp
   4              		.eabi_attribute 20, 1
   5              		.eabi_attribute 21, 1
   6              		.eabi_attribute 23, 3
   7              		.eabi_attribute 24, 1
   8              		.eabi_attribute 25, 1
   9              		.eabi_attribute 26, 1
  10              		.eabi_attribute 30, 1
  11              		.eabi_attribute 34, 1
  12              		.eabi_attribute 18, 4
  13              		.thumb
  14              		.file	"LED_Strip.c"
  15              		.text
  16              	.Ltext0:
  17              		.cfi_sections	.debug_frame
  18              		.section	.text.LED_Strip_Enable,"ax",%progbits
  19              		.align	2
  20              		.global	LED_Strip_Enable
  21              		.thumb
  22              		.thumb_func
  23              		.type	LED_Strip_Enable, %function
  24              	LED_Strip_Enable:
  25              	.LFB1:
  26              		.file 1 ".\\Generated_Source\\PSoC5\\LED_Strip.c"
   1:.\Generated_Source\PSoC5/LED_Strip.c **** /*******************************************************************************
   2:.\Generated_Source\PSoC5/LED_Strip.c **** * File Name: LED_Strip.c
   3:.\Generated_Source\PSoC5/LED_Strip.c **** * Version 2.50
   4:.\Generated_Source\PSoC5/LED_Strip.c **** *
   5:.\Generated_Source\PSoC5/LED_Strip.c **** * Description:
   6:.\Generated_Source\PSoC5/LED_Strip.c **** *  This file provides all API functionality of the SPI Master component.
   7:.\Generated_Source\PSoC5/LED_Strip.c **** *
   8:.\Generated_Source\PSoC5/LED_Strip.c **** * Note:
   9:.\Generated_Source\PSoC5/LED_Strip.c **** *  None.
  10:.\Generated_Source\PSoC5/LED_Strip.c **** *
  11:.\Generated_Source\PSoC5/LED_Strip.c **** ********************************************************************************
  12:.\Generated_Source\PSoC5/LED_Strip.c **** * Copyright 2008-2015, Cypress Semiconductor Corporation.  All rights reserved.
  13:.\Generated_Source\PSoC5/LED_Strip.c **** * You may use this file only in accordance with the license, terms, conditions,
  14:.\Generated_Source\PSoC5/LED_Strip.c **** * disclaimers, and limitations in the end user license agreement accompanying
  15:.\Generated_Source\PSoC5/LED_Strip.c **** * the software package with which this file was provided.
  16:.\Generated_Source\PSoC5/LED_Strip.c **** *******************************************************************************/
  17:.\Generated_Source\PSoC5/LED_Strip.c **** 
  18:.\Generated_Source\PSoC5/LED_Strip.c **** #include "LED_Strip_PVT.h"
  19:.\Generated_Source\PSoC5/LED_Strip.c **** 
  20:.\Generated_Source\PSoC5/LED_Strip.c **** #if(LED_Strip_TX_SOFTWARE_BUF_ENABLED)
  21:.\Generated_Source\PSoC5/LED_Strip.c ****     volatile uint8 LED_Strip_txBuffer[LED_Strip_TX_BUFFER_SIZE];
  22:.\Generated_Source\PSoC5/LED_Strip.c ****     volatile uint8 LED_Strip_txBufferFull;
  23:.\Generated_Source\PSoC5/LED_Strip.c ****     volatile uint8 LED_Strip_txBufferRead;
  24:.\Generated_Source\PSoC5/LED_Strip.c ****     volatile uint8 LED_Strip_txBufferWrite;
  25:.\Generated_Source\PSoC5/LED_Strip.c **** #endif /* (LED_Strip_TX_SOFTWARE_BUF_ENABLED) */
  26:.\Generated_Source\PSoC5/LED_Strip.c **** 
  27:.\Generated_Source\PSoC5/LED_Strip.c **** #if(LED_Strip_RX_SOFTWARE_BUF_ENABLED)
  28:.\Generated_Source\PSoC5/LED_Strip.c ****     volatile uint8 LED_Strip_rxBuffer[LED_Strip_RX_BUFFER_SIZE];
  29:.\Generated_Source\PSoC5/LED_Strip.c ****     volatile uint8 LED_Strip_rxBufferFull;
  30:.\Generated_Source\PSoC5/LED_Strip.c ****     volatile uint8 LED_Strip_rxBufferRead;
  31:.\Generated_Source\PSoC5/LED_Strip.c ****     volatile uint8 LED_Strip_rxBufferWrite;
ARM GAS  C:\Users\khjtony\AppData\Local\Temp\ccleSq1F.s 			page 2


  32:.\Generated_Source\PSoC5/LED_Strip.c **** #endif /* (LED_Strip_RX_SOFTWARE_BUF_ENABLED) */
  33:.\Generated_Source\PSoC5/LED_Strip.c **** 
  34:.\Generated_Source\PSoC5/LED_Strip.c **** uint8 LED_Strip_initVar = 0u;
  35:.\Generated_Source\PSoC5/LED_Strip.c **** 
  36:.\Generated_Source\PSoC5/LED_Strip.c **** volatile uint8 LED_Strip_swStatusTx;
  37:.\Generated_Source\PSoC5/LED_Strip.c **** volatile uint8 LED_Strip_swStatusRx;
  38:.\Generated_Source\PSoC5/LED_Strip.c **** 
  39:.\Generated_Source\PSoC5/LED_Strip.c **** 
  40:.\Generated_Source\PSoC5/LED_Strip.c **** /*******************************************************************************
  41:.\Generated_Source\PSoC5/LED_Strip.c **** * Function Name: LED_Strip_Init
  42:.\Generated_Source\PSoC5/LED_Strip.c **** ********************************************************************************
  43:.\Generated_Source\PSoC5/LED_Strip.c **** *
  44:.\Generated_Source\PSoC5/LED_Strip.c **** * Summary:
  45:.\Generated_Source\PSoC5/LED_Strip.c **** *  Inits/Restores default SPIM configuration provided with customizer.
  46:.\Generated_Source\PSoC5/LED_Strip.c **** *
  47:.\Generated_Source\PSoC5/LED_Strip.c **** * Parameters:
  48:.\Generated_Source\PSoC5/LED_Strip.c **** *  None.
  49:.\Generated_Source\PSoC5/LED_Strip.c **** *
  50:.\Generated_Source\PSoC5/LED_Strip.c **** * Return:
  51:.\Generated_Source\PSoC5/LED_Strip.c **** *  None.
  52:.\Generated_Source\PSoC5/LED_Strip.c **** *
  53:.\Generated_Source\PSoC5/LED_Strip.c **** * Side Effects:
  54:.\Generated_Source\PSoC5/LED_Strip.c **** *  When this function is called it initializes all of the necessary parameters
  55:.\Generated_Source\PSoC5/LED_Strip.c **** *  for execution. i.e. setting the initial interrupt mask, configuring the
  56:.\Generated_Source\PSoC5/LED_Strip.c **** *  interrupt service routine, configuring the bit-counter parameters and
  57:.\Generated_Source\PSoC5/LED_Strip.c **** *  clearing the FIFO and Status Register.
  58:.\Generated_Source\PSoC5/LED_Strip.c **** *
  59:.\Generated_Source\PSoC5/LED_Strip.c **** * Reentrant:
  60:.\Generated_Source\PSoC5/LED_Strip.c **** *  No.
  61:.\Generated_Source\PSoC5/LED_Strip.c **** *
  62:.\Generated_Source\PSoC5/LED_Strip.c **** *******************************************************************************/
  63:.\Generated_Source\PSoC5/LED_Strip.c **** void LED_Strip_Init(void) 
  64:.\Generated_Source\PSoC5/LED_Strip.c **** {
  65:.\Generated_Source\PSoC5/LED_Strip.c ****     /* Initialize the Bit counter */
  66:.\Generated_Source\PSoC5/LED_Strip.c ****     LED_Strip_COUNTER_PERIOD_REG = LED_Strip_BITCTR_INIT;
  67:.\Generated_Source\PSoC5/LED_Strip.c **** 
  68:.\Generated_Source\PSoC5/LED_Strip.c ****     /* Init TX ISR  */
  69:.\Generated_Source\PSoC5/LED_Strip.c ****     #if(0u != LED_Strip_INTERNAL_TX_INT_ENABLED)
  70:.\Generated_Source\PSoC5/LED_Strip.c ****         CyIntDisable         (LED_Strip_TX_ISR_NUMBER);
  71:.\Generated_Source\PSoC5/LED_Strip.c ****         CyIntSetPriority     (LED_Strip_TX_ISR_NUMBER,  LED_Strip_TX_ISR_PRIORITY);
  72:.\Generated_Source\PSoC5/LED_Strip.c ****         (void) CyIntSetVector(LED_Strip_TX_ISR_NUMBER, &LED_Strip_TX_ISR);
  73:.\Generated_Source\PSoC5/LED_Strip.c ****     #endif /* (0u != LED_Strip_INTERNAL_TX_INT_ENABLED) */
  74:.\Generated_Source\PSoC5/LED_Strip.c **** 
  75:.\Generated_Source\PSoC5/LED_Strip.c ****     /* Init RX ISR  */
  76:.\Generated_Source\PSoC5/LED_Strip.c ****     #if(0u != LED_Strip_INTERNAL_RX_INT_ENABLED)
  77:.\Generated_Source\PSoC5/LED_Strip.c ****         CyIntDisable         (LED_Strip_RX_ISR_NUMBER);
  78:.\Generated_Source\PSoC5/LED_Strip.c ****         CyIntSetPriority     (LED_Strip_RX_ISR_NUMBER,  LED_Strip_RX_ISR_PRIORITY);
  79:.\Generated_Source\PSoC5/LED_Strip.c ****         (void) CyIntSetVector(LED_Strip_RX_ISR_NUMBER, &LED_Strip_RX_ISR);
  80:.\Generated_Source\PSoC5/LED_Strip.c ****     #endif /* (0u != LED_Strip_INTERNAL_RX_INT_ENABLED) */
  81:.\Generated_Source\PSoC5/LED_Strip.c **** 
  82:.\Generated_Source\PSoC5/LED_Strip.c ****     /* Clear any stray data from the RX and TX FIFO */
  83:.\Generated_Source\PSoC5/LED_Strip.c ****     LED_Strip_ClearFIFO();
  84:.\Generated_Source\PSoC5/LED_Strip.c **** 
  85:.\Generated_Source\PSoC5/LED_Strip.c ****     #if(LED_Strip_RX_SOFTWARE_BUF_ENABLED)
  86:.\Generated_Source\PSoC5/LED_Strip.c ****         LED_Strip_rxBufferFull  = 0u;
  87:.\Generated_Source\PSoC5/LED_Strip.c ****         LED_Strip_rxBufferRead  = 0u;
  88:.\Generated_Source\PSoC5/LED_Strip.c ****         LED_Strip_rxBufferWrite = 0u;
ARM GAS  C:\Users\khjtony\AppData\Local\Temp\ccleSq1F.s 			page 3


  89:.\Generated_Source\PSoC5/LED_Strip.c ****     #endif /* (LED_Strip_RX_SOFTWARE_BUF_ENABLED) */
  90:.\Generated_Source\PSoC5/LED_Strip.c **** 
  91:.\Generated_Source\PSoC5/LED_Strip.c ****     #if(LED_Strip_TX_SOFTWARE_BUF_ENABLED)
  92:.\Generated_Source\PSoC5/LED_Strip.c ****         LED_Strip_txBufferFull  = 0u;
  93:.\Generated_Source\PSoC5/LED_Strip.c ****         LED_Strip_txBufferRead  = 0u;
  94:.\Generated_Source\PSoC5/LED_Strip.c ****         LED_Strip_txBufferWrite = 0u;
  95:.\Generated_Source\PSoC5/LED_Strip.c ****     #endif /* (LED_Strip_TX_SOFTWARE_BUF_ENABLED) */
  96:.\Generated_Source\PSoC5/LED_Strip.c **** 
  97:.\Generated_Source\PSoC5/LED_Strip.c ****     (void) LED_Strip_ReadTxStatus(); /* Clear Tx status and swStatusTx */
  98:.\Generated_Source\PSoC5/LED_Strip.c ****     (void) LED_Strip_ReadRxStatus(); /* Clear Rx status and swStatusRx */
  99:.\Generated_Source\PSoC5/LED_Strip.c **** 
 100:.\Generated_Source\PSoC5/LED_Strip.c ****     /* Configure TX and RX interrupt mask */
 101:.\Generated_Source\PSoC5/LED_Strip.c ****     LED_Strip_TX_STATUS_MASK_REG = LED_Strip_TX_INIT_INTERRUPTS_MASK;
 102:.\Generated_Source\PSoC5/LED_Strip.c ****     LED_Strip_RX_STATUS_MASK_REG = LED_Strip_RX_INIT_INTERRUPTS_MASK;
 103:.\Generated_Source\PSoC5/LED_Strip.c **** }
 104:.\Generated_Source\PSoC5/LED_Strip.c **** 
 105:.\Generated_Source\PSoC5/LED_Strip.c **** 
 106:.\Generated_Source\PSoC5/LED_Strip.c **** /*******************************************************************************
 107:.\Generated_Source\PSoC5/LED_Strip.c **** * Function Name: LED_Strip_Enable
 108:.\Generated_Source\PSoC5/LED_Strip.c **** ********************************************************************************
 109:.\Generated_Source\PSoC5/LED_Strip.c **** *
 110:.\Generated_Source\PSoC5/LED_Strip.c **** * Summary:
 111:.\Generated_Source\PSoC5/LED_Strip.c **** *  Enable SPIM component.
 112:.\Generated_Source\PSoC5/LED_Strip.c **** *
 113:.\Generated_Source\PSoC5/LED_Strip.c **** * Parameters:
 114:.\Generated_Source\PSoC5/LED_Strip.c **** *  None.
 115:.\Generated_Source\PSoC5/LED_Strip.c **** *
 116:.\Generated_Source\PSoC5/LED_Strip.c **** * Return:
 117:.\Generated_Source\PSoC5/LED_Strip.c **** *  None.
 118:.\Generated_Source\PSoC5/LED_Strip.c **** *
 119:.\Generated_Source\PSoC5/LED_Strip.c **** *******************************************************************************/
 120:.\Generated_Source\PSoC5/LED_Strip.c **** void LED_Strip_Enable(void) 
 121:.\Generated_Source\PSoC5/LED_Strip.c **** {
  27              		.loc 1 121 0
  28              		.cfi_startproc
  29              		@ args = 0, pretend = 0, frame = 0
  30              		@ frame_needed = 0, uses_anonymous_args = 0
  31 0000 08B5     		push	{r3, lr}
  32              		.cfi_def_cfa_offset 8
  33              		.cfi_offset 3, -8
  34              		.cfi_offset 14, -4
 122:.\Generated_Source\PSoC5/LED_Strip.c ****     uint8 enableInterrupts;
 123:.\Generated_Source\PSoC5/LED_Strip.c **** 
 124:.\Generated_Source\PSoC5/LED_Strip.c ****     enableInterrupts = CyEnterCriticalSection();
  35              		.loc 1 124 0
  36 0002 FFF7FEFF 		bl	CyEnterCriticalSection
  37              	.LVL0:
 125:.\Generated_Source\PSoC5/LED_Strip.c ****     LED_Strip_COUNTER_CONTROL_REG |= LED_Strip_CNTR_ENABLE;
  38              		.loc 1 125 0
  39 0006 094B     		ldr	r3, .L2
  40 0008 1A78     		ldrb	r2, [r3]	@ zero_extendqisi2
  41 000a 42F02002 		orr	r2, r2, #32
  42 000e 1A70     		strb	r2, [r3]
 126:.\Generated_Source\PSoC5/LED_Strip.c ****     LED_Strip_TX_STATUS_ACTL_REG  |= LED_Strip_INT_ENABLE;
  43              		.loc 1 126 0
  44 0010 0233     		adds	r3, r3, #2
  45 0012 1A78     		ldrb	r2, [r3]	@ zero_extendqisi2
ARM GAS  C:\Users\khjtony\AppData\Local\Temp\ccleSq1F.s 			page 4


  46 0014 42F01002 		orr	r2, r2, #16
  47 0018 1A70     		strb	r2, [r3]
 127:.\Generated_Source\PSoC5/LED_Strip.c ****     LED_Strip_RX_STATUS_ACTL_REG  |= LED_Strip_INT_ENABLE;
  48              		.loc 1 127 0
  49 001a 0133     		adds	r3, r3, #1
  50 001c 1A78     		ldrb	r2, [r3]	@ zero_extendqisi2
  51 001e 42F01002 		orr	r2, r2, #16
  52 0022 1A70     		strb	r2, [r3]
 128:.\Generated_Source\PSoC5/LED_Strip.c ****     CyExitCriticalSection(enableInterrupts);
  53              		.loc 1 128 0
  54 0024 FFF7FEFF 		bl	CyExitCriticalSection
  55              	.LVL1:
  56 0028 08BD     		pop	{r3, pc}
  57              	.L3:
  58 002a 00BF     		.align	2
  59              	.L2:
  60 002c 90640040 		.word	1073767568
  61              		.cfi_endproc
  62              	.LFE1:
  63              		.size	LED_Strip_Enable, .-LED_Strip_Enable
  64              		.section	.text.LED_Strip_Stop,"ax",%progbits
  65              		.align	2
  66              		.global	LED_Strip_Stop
  67              		.thumb
  68              		.thumb_func
  69              		.type	LED_Strip_Stop, %function
  70              	LED_Strip_Stop:
  71              	.LFB3:
 129:.\Generated_Source\PSoC5/LED_Strip.c **** 
 130:.\Generated_Source\PSoC5/LED_Strip.c ****     #if(0u != LED_Strip_INTERNAL_CLOCK)
 131:.\Generated_Source\PSoC5/LED_Strip.c ****         LED_Strip_IntClock_Enable();
 132:.\Generated_Source\PSoC5/LED_Strip.c ****     #endif /* (0u != LED_Strip_INTERNAL_CLOCK) */
 133:.\Generated_Source\PSoC5/LED_Strip.c **** 
 134:.\Generated_Source\PSoC5/LED_Strip.c ****     LED_Strip_EnableTxInt();
 135:.\Generated_Source\PSoC5/LED_Strip.c ****     LED_Strip_EnableRxInt();
 136:.\Generated_Source\PSoC5/LED_Strip.c **** }
 137:.\Generated_Source\PSoC5/LED_Strip.c **** 
 138:.\Generated_Source\PSoC5/LED_Strip.c **** 
 139:.\Generated_Source\PSoC5/LED_Strip.c **** /*******************************************************************************
 140:.\Generated_Source\PSoC5/LED_Strip.c **** * Function Name: LED_Strip_Start
 141:.\Generated_Source\PSoC5/LED_Strip.c **** ********************************************************************************
 142:.\Generated_Source\PSoC5/LED_Strip.c **** *
 143:.\Generated_Source\PSoC5/LED_Strip.c **** * Summary:
 144:.\Generated_Source\PSoC5/LED_Strip.c **** *  Initialize and Enable the SPI Master component.
 145:.\Generated_Source\PSoC5/LED_Strip.c **** *
 146:.\Generated_Source\PSoC5/LED_Strip.c **** * Parameters:
 147:.\Generated_Source\PSoC5/LED_Strip.c **** *  None.
 148:.\Generated_Source\PSoC5/LED_Strip.c **** *
 149:.\Generated_Source\PSoC5/LED_Strip.c **** * Return:
 150:.\Generated_Source\PSoC5/LED_Strip.c **** *  None.
 151:.\Generated_Source\PSoC5/LED_Strip.c **** *
 152:.\Generated_Source\PSoC5/LED_Strip.c **** * Global variables:
 153:.\Generated_Source\PSoC5/LED_Strip.c **** *  LED_Strip_initVar - used to check initial configuration, modified on
 154:.\Generated_Source\PSoC5/LED_Strip.c **** *  first function call.
 155:.\Generated_Source\PSoC5/LED_Strip.c **** *
 156:.\Generated_Source\PSoC5/LED_Strip.c **** * Theory:
 157:.\Generated_Source\PSoC5/LED_Strip.c **** *  Enable the clock input to enable operation.
ARM GAS  C:\Users\khjtony\AppData\Local\Temp\ccleSq1F.s 			page 5


 158:.\Generated_Source\PSoC5/LED_Strip.c **** *
 159:.\Generated_Source\PSoC5/LED_Strip.c **** * Reentrant:
 160:.\Generated_Source\PSoC5/LED_Strip.c **** *  No.
 161:.\Generated_Source\PSoC5/LED_Strip.c **** *
 162:.\Generated_Source\PSoC5/LED_Strip.c **** *******************************************************************************/
 163:.\Generated_Source\PSoC5/LED_Strip.c **** void LED_Strip_Start(void) 
 164:.\Generated_Source\PSoC5/LED_Strip.c **** {
 165:.\Generated_Source\PSoC5/LED_Strip.c ****     if(0u == LED_Strip_initVar)
 166:.\Generated_Source\PSoC5/LED_Strip.c ****     {
 167:.\Generated_Source\PSoC5/LED_Strip.c ****         LED_Strip_Init();
 168:.\Generated_Source\PSoC5/LED_Strip.c ****         LED_Strip_initVar = 1u;
 169:.\Generated_Source\PSoC5/LED_Strip.c ****     }
 170:.\Generated_Source\PSoC5/LED_Strip.c **** 
 171:.\Generated_Source\PSoC5/LED_Strip.c ****     LED_Strip_Enable();
 172:.\Generated_Source\PSoC5/LED_Strip.c **** }
 173:.\Generated_Source\PSoC5/LED_Strip.c **** 
 174:.\Generated_Source\PSoC5/LED_Strip.c **** 
 175:.\Generated_Source\PSoC5/LED_Strip.c **** /*******************************************************************************
 176:.\Generated_Source\PSoC5/LED_Strip.c **** * Function Name: LED_Strip_Stop
 177:.\Generated_Source\PSoC5/LED_Strip.c **** ********************************************************************************
 178:.\Generated_Source\PSoC5/LED_Strip.c **** *
 179:.\Generated_Source\PSoC5/LED_Strip.c **** * Summary:
 180:.\Generated_Source\PSoC5/LED_Strip.c **** *  Disable the SPI Master component.
 181:.\Generated_Source\PSoC5/LED_Strip.c **** *
 182:.\Generated_Source\PSoC5/LED_Strip.c **** * Parameters:
 183:.\Generated_Source\PSoC5/LED_Strip.c **** *  None.
 184:.\Generated_Source\PSoC5/LED_Strip.c **** *
 185:.\Generated_Source\PSoC5/LED_Strip.c **** * Return:
 186:.\Generated_Source\PSoC5/LED_Strip.c **** *  None.
 187:.\Generated_Source\PSoC5/LED_Strip.c **** *
 188:.\Generated_Source\PSoC5/LED_Strip.c **** * Theory:
 189:.\Generated_Source\PSoC5/LED_Strip.c **** *  Disable the clock input to enable operation.
 190:.\Generated_Source\PSoC5/LED_Strip.c **** *
 191:.\Generated_Source\PSoC5/LED_Strip.c **** *******************************************************************************/
 192:.\Generated_Source\PSoC5/LED_Strip.c **** void LED_Strip_Stop(void) 
 193:.\Generated_Source\PSoC5/LED_Strip.c **** {
  72              		.loc 1 193 0
  73              		.cfi_startproc
  74              		@ args = 0, pretend = 0, frame = 0
  75              		@ frame_needed = 0, uses_anonymous_args = 0
  76 0000 08B5     		push	{r3, lr}
  77              		.cfi_def_cfa_offset 8
  78              		.cfi_offset 3, -8
  79              		.cfi_offset 14, -4
 194:.\Generated_Source\PSoC5/LED_Strip.c ****     uint8 enableInterrupts;
 195:.\Generated_Source\PSoC5/LED_Strip.c **** 
 196:.\Generated_Source\PSoC5/LED_Strip.c ****     enableInterrupts = CyEnterCriticalSection();
  80              		.loc 1 196 0
  81 0002 FFF7FEFF 		bl	CyEnterCriticalSection
  82              	.LVL2:
 197:.\Generated_Source\PSoC5/LED_Strip.c ****     LED_Strip_TX_STATUS_ACTL_REG &= ((uint8) ~LED_Strip_INT_ENABLE);
  83              		.loc 1 197 0
  84 0006 064B     		ldr	r3, .L5
  85 0008 1A78     		ldrb	r2, [r3]	@ zero_extendqisi2
  86 000a 02F0EF02 		and	r2, r2, #239
  87 000e 1A70     		strb	r2, [r3]
 198:.\Generated_Source\PSoC5/LED_Strip.c ****     LED_Strip_RX_STATUS_ACTL_REG &= ((uint8) ~LED_Strip_INT_ENABLE);
ARM GAS  C:\Users\khjtony\AppData\Local\Temp\ccleSq1F.s 			page 6


  88              		.loc 1 198 0
  89 0010 0133     		adds	r3, r3, #1
  90 0012 1A78     		ldrb	r2, [r3]	@ zero_extendqisi2
  91 0014 02F0EF02 		and	r2, r2, #239
  92 0018 1A70     		strb	r2, [r3]
 199:.\Generated_Source\PSoC5/LED_Strip.c ****     CyExitCriticalSection(enableInterrupts);
  93              		.loc 1 199 0
  94 001a FFF7FEFF 		bl	CyExitCriticalSection
  95              	.LVL3:
  96 001e 08BD     		pop	{r3, pc}
  97              	.L6:
  98              		.align	2
  99              	.L5:
 100 0020 92640040 		.word	1073767570
 101              		.cfi_endproc
 102              	.LFE3:
 103              		.size	LED_Strip_Stop, .-LED_Strip_Stop
 104              		.section	.text.LED_Strip_EnableTxInt,"ax",%progbits
 105              		.align	2
 106              		.global	LED_Strip_EnableTxInt
 107              		.thumb
 108              		.thumb_func
 109              		.type	LED_Strip_EnableTxInt, %function
 110              	LED_Strip_EnableTxInt:
 111              	.LFB4:
 200:.\Generated_Source\PSoC5/LED_Strip.c **** 
 201:.\Generated_Source\PSoC5/LED_Strip.c ****     #if(0u != LED_Strip_INTERNAL_CLOCK)
 202:.\Generated_Source\PSoC5/LED_Strip.c ****         LED_Strip_IntClock_Disable();
 203:.\Generated_Source\PSoC5/LED_Strip.c ****     #endif /* (0u != LED_Strip_INTERNAL_CLOCK) */
 204:.\Generated_Source\PSoC5/LED_Strip.c **** 
 205:.\Generated_Source\PSoC5/LED_Strip.c ****     LED_Strip_DisableTxInt();
 206:.\Generated_Source\PSoC5/LED_Strip.c ****     LED_Strip_DisableRxInt();
 207:.\Generated_Source\PSoC5/LED_Strip.c **** }
 208:.\Generated_Source\PSoC5/LED_Strip.c **** 
 209:.\Generated_Source\PSoC5/LED_Strip.c **** 
 210:.\Generated_Source\PSoC5/LED_Strip.c **** /*******************************************************************************
 211:.\Generated_Source\PSoC5/LED_Strip.c **** * Function Name: LED_Strip_EnableTxInt
 212:.\Generated_Source\PSoC5/LED_Strip.c **** ********************************************************************************
 213:.\Generated_Source\PSoC5/LED_Strip.c **** *
 214:.\Generated_Source\PSoC5/LED_Strip.c **** * Summary:
 215:.\Generated_Source\PSoC5/LED_Strip.c **** *  Enable internal Tx interrupt generation.
 216:.\Generated_Source\PSoC5/LED_Strip.c **** *
 217:.\Generated_Source\PSoC5/LED_Strip.c **** * Parameters:
 218:.\Generated_Source\PSoC5/LED_Strip.c **** *  None.
 219:.\Generated_Source\PSoC5/LED_Strip.c **** *
 220:.\Generated_Source\PSoC5/LED_Strip.c **** * Return:
 221:.\Generated_Source\PSoC5/LED_Strip.c **** *  None.
 222:.\Generated_Source\PSoC5/LED_Strip.c **** *
 223:.\Generated_Source\PSoC5/LED_Strip.c **** * Theory:
 224:.\Generated_Source\PSoC5/LED_Strip.c **** *  Enable the internal Tx interrupt output -or- the interrupt component itself.
 225:.\Generated_Source\PSoC5/LED_Strip.c **** *
 226:.\Generated_Source\PSoC5/LED_Strip.c **** *******************************************************************************/
 227:.\Generated_Source\PSoC5/LED_Strip.c **** void LED_Strip_EnableTxInt(void) 
 228:.\Generated_Source\PSoC5/LED_Strip.c **** {
 112              		.loc 1 228 0
 113              		.cfi_startproc
 114              		@ args = 0, pretend = 0, frame = 0
ARM GAS  C:\Users\khjtony\AppData\Local\Temp\ccleSq1F.s 			page 7


 115              		@ frame_needed = 0, uses_anonymous_args = 0
 116              		@ link register save eliminated.
 117 0000 7047     		bx	lr
 118              		.cfi_endproc
 119              	.LFE4:
 120              		.size	LED_Strip_EnableTxInt, .-LED_Strip_EnableTxInt
 121 0002 00BF     		.section	.text.LED_Strip_EnableRxInt,"ax",%progbits
 122              		.align	2
 123              		.global	LED_Strip_EnableRxInt
 124              		.thumb
 125              		.thumb_func
 126              		.type	LED_Strip_EnableRxInt, %function
 127              	LED_Strip_EnableRxInt:
 128              	.LFB5:
 229:.\Generated_Source\PSoC5/LED_Strip.c ****     #if(0u != LED_Strip_INTERNAL_TX_INT_ENABLED)
 230:.\Generated_Source\PSoC5/LED_Strip.c ****         CyIntEnable(LED_Strip_TX_ISR_NUMBER);
 231:.\Generated_Source\PSoC5/LED_Strip.c ****     #endif /* (0u != LED_Strip_INTERNAL_TX_INT_ENABLED) */
 232:.\Generated_Source\PSoC5/LED_Strip.c **** }
 233:.\Generated_Source\PSoC5/LED_Strip.c **** 
 234:.\Generated_Source\PSoC5/LED_Strip.c **** 
 235:.\Generated_Source\PSoC5/LED_Strip.c **** /*******************************************************************************
 236:.\Generated_Source\PSoC5/LED_Strip.c **** * Function Name: LED_Strip_EnableRxInt
 237:.\Generated_Source\PSoC5/LED_Strip.c **** ********************************************************************************
 238:.\Generated_Source\PSoC5/LED_Strip.c **** *
 239:.\Generated_Source\PSoC5/LED_Strip.c **** * Summary:
 240:.\Generated_Source\PSoC5/LED_Strip.c **** *  Enable internal Rx interrupt generation.
 241:.\Generated_Source\PSoC5/LED_Strip.c **** *
 242:.\Generated_Source\PSoC5/LED_Strip.c **** * Parameters:
 243:.\Generated_Source\PSoC5/LED_Strip.c **** *  None.
 244:.\Generated_Source\PSoC5/LED_Strip.c **** *
 245:.\Generated_Source\PSoC5/LED_Strip.c **** * Return:
 246:.\Generated_Source\PSoC5/LED_Strip.c **** *  None.
 247:.\Generated_Source\PSoC5/LED_Strip.c **** *
 248:.\Generated_Source\PSoC5/LED_Strip.c **** * Theory:
 249:.\Generated_Source\PSoC5/LED_Strip.c **** *  Enable the internal Rx interrupt output -or- the interrupt component itself.
 250:.\Generated_Source\PSoC5/LED_Strip.c **** *
 251:.\Generated_Source\PSoC5/LED_Strip.c **** *******************************************************************************/
 252:.\Generated_Source\PSoC5/LED_Strip.c **** void LED_Strip_EnableRxInt(void) 
 253:.\Generated_Source\PSoC5/LED_Strip.c **** {
 129              		.loc 1 253 0
 130              		.cfi_startproc
 131              		@ args = 0, pretend = 0, frame = 0
 132              		@ frame_needed = 0, uses_anonymous_args = 0
 133              		@ link register save eliminated.
 134 0000 7047     		bx	lr
 135              		.cfi_endproc
 136              	.LFE5:
 137              		.size	LED_Strip_EnableRxInt, .-LED_Strip_EnableRxInt
 138 0002 00BF     		.section	.text.LED_Strip_DisableTxInt,"ax",%progbits
 139              		.align	2
 140              		.global	LED_Strip_DisableTxInt
 141              		.thumb
 142              		.thumb_func
 143              		.type	LED_Strip_DisableTxInt, %function
 144              	LED_Strip_DisableTxInt:
 145              	.LFB6:
 254:.\Generated_Source\PSoC5/LED_Strip.c ****     #if(0u != LED_Strip_INTERNAL_RX_INT_ENABLED)
ARM GAS  C:\Users\khjtony\AppData\Local\Temp\ccleSq1F.s 			page 8


 255:.\Generated_Source\PSoC5/LED_Strip.c ****         CyIntEnable(LED_Strip_RX_ISR_NUMBER);
 256:.\Generated_Source\PSoC5/LED_Strip.c ****     #endif /* (0u != LED_Strip_INTERNAL_RX_INT_ENABLED) */
 257:.\Generated_Source\PSoC5/LED_Strip.c **** }
 258:.\Generated_Source\PSoC5/LED_Strip.c **** 
 259:.\Generated_Source\PSoC5/LED_Strip.c **** 
 260:.\Generated_Source\PSoC5/LED_Strip.c **** /*******************************************************************************
 261:.\Generated_Source\PSoC5/LED_Strip.c **** * Function Name: LED_Strip_DisableTxInt
 262:.\Generated_Source\PSoC5/LED_Strip.c **** ********************************************************************************
 263:.\Generated_Source\PSoC5/LED_Strip.c **** *
 264:.\Generated_Source\PSoC5/LED_Strip.c **** * Summary:
 265:.\Generated_Source\PSoC5/LED_Strip.c **** *  Disable internal Tx interrupt generation.
 266:.\Generated_Source\PSoC5/LED_Strip.c **** *
 267:.\Generated_Source\PSoC5/LED_Strip.c **** * Parameters:
 268:.\Generated_Source\PSoC5/LED_Strip.c **** *  None.
 269:.\Generated_Source\PSoC5/LED_Strip.c **** *
 270:.\Generated_Source\PSoC5/LED_Strip.c **** * Return:
 271:.\Generated_Source\PSoC5/LED_Strip.c **** *  None.
 272:.\Generated_Source\PSoC5/LED_Strip.c **** *
 273:.\Generated_Source\PSoC5/LED_Strip.c **** * Theory:
 274:.\Generated_Source\PSoC5/LED_Strip.c **** *  Disable the internal Tx interrupt output -or- the interrupt component itself.
 275:.\Generated_Source\PSoC5/LED_Strip.c **** *
 276:.\Generated_Source\PSoC5/LED_Strip.c **** *******************************************************************************/
 277:.\Generated_Source\PSoC5/LED_Strip.c **** void LED_Strip_DisableTxInt(void) 
 278:.\Generated_Source\PSoC5/LED_Strip.c **** {
 146              		.loc 1 278 0
 147              		.cfi_startproc
 148              		@ args = 0, pretend = 0, frame = 0
 149              		@ frame_needed = 0, uses_anonymous_args = 0
 150              		@ link register save eliminated.
 151 0000 7047     		bx	lr
 152              		.cfi_endproc
 153              	.LFE6:
 154              		.size	LED_Strip_DisableTxInt, .-LED_Strip_DisableTxInt
 155 0002 00BF     		.section	.text.LED_Strip_DisableRxInt,"ax",%progbits
 156              		.align	2
 157              		.global	LED_Strip_DisableRxInt
 158              		.thumb
 159              		.thumb_func
 160              		.type	LED_Strip_DisableRxInt, %function
 161              	LED_Strip_DisableRxInt:
 162              	.LFB7:
 279:.\Generated_Source\PSoC5/LED_Strip.c ****     #if(0u != LED_Strip_INTERNAL_TX_INT_ENABLED)
 280:.\Generated_Source\PSoC5/LED_Strip.c ****         CyIntDisable(LED_Strip_TX_ISR_NUMBER);
 281:.\Generated_Source\PSoC5/LED_Strip.c ****     #endif /* (0u != LED_Strip_INTERNAL_TX_INT_ENABLED) */
 282:.\Generated_Source\PSoC5/LED_Strip.c **** }
 283:.\Generated_Source\PSoC5/LED_Strip.c **** 
 284:.\Generated_Source\PSoC5/LED_Strip.c **** 
 285:.\Generated_Source\PSoC5/LED_Strip.c **** /*******************************************************************************
 286:.\Generated_Source\PSoC5/LED_Strip.c **** * Function Name: LED_Strip_DisableRxInt
 287:.\Generated_Source\PSoC5/LED_Strip.c **** ********************************************************************************
 288:.\Generated_Source\PSoC5/LED_Strip.c **** *
 289:.\Generated_Source\PSoC5/LED_Strip.c **** * Summary:
 290:.\Generated_Source\PSoC5/LED_Strip.c **** *  Disable internal Rx interrupt generation.
 291:.\Generated_Source\PSoC5/LED_Strip.c **** *
 292:.\Generated_Source\PSoC5/LED_Strip.c **** * Parameters:
 293:.\Generated_Source\PSoC5/LED_Strip.c **** *  None.
 294:.\Generated_Source\PSoC5/LED_Strip.c **** *
ARM GAS  C:\Users\khjtony\AppData\Local\Temp\ccleSq1F.s 			page 9


 295:.\Generated_Source\PSoC5/LED_Strip.c **** * Return:
 296:.\Generated_Source\PSoC5/LED_Strip.c **** *  None.
 297:.\Generated_Source\PSoC5/LED_Strip.c **** *
 298:.\Generated_Source\PSoC5/LED_Strip.c **** * Theory:
 299:.\Generated_Source\PSoC5/LED_Strip.c **** *  Disable the internal Rx interrupt output -or- the interrupt component itself.
 300:.\Generated_Source\PSoC5/LED_Strip.c **** *
 301:.\Generated_Source\PSoC5/LED_Strip.c **** *******************************************************************************/
 302:.\Generated_Source\PSoC5/LED_Strip.c **** void LED_Strip_DisableRxInt(void) 
 303:.\Generated_Source\PSoC5/LED_Strip.c **** {
 163              		.loc 1 303 0
 164              		.cfi_startproc
 165              		@ args = 0, pretend = 0, frame = 0
 166              		@ frame_needed = 0, uses_anonymous_args = 0
 167              		@ link register save eliminated.
 168 0000 7047     		bx	lr
 169              		.cfi_endproc
 170              	.LFE7:
 171              		.size	LED_Strip_DisableRxInt, .-LED_Strip_DisableRxInt
 172 0002 00BF     		.section	.text.LED_Strip_SetTxInterruptMode,"ax",%progbits
 173              		.align	2
 174              		.global	LED_Strip_SetTxInterruptMode
 175              		.thumb
 176              		.thumb_func
 177              		.type	LED_Strip_SetTxInterruptMode, %function
 178              	LED_Strip_SetTxInterruptMode:
 179              	.LFB8:
 304:.\Generated_Source\PSoC5/LED_Strip.c ****     #if(0u != LED_Strip_INTERNAL_RX_INT_ENABLED)
 305:.\Generated_Source\PSoC5/LED_Strip.c ****         CyIntDisable(LED_Strip_RX_ISR_NUMBER);
 306:.\Generated_Source\PSoC5/LED_Strip.c ****     #endif /* (0u != LED_Strip_INTERNAL_RX_INT_ENABLED) */
 307:.\Generated_Source\PSoC5/LED_Strip.c **** }
 308:.\Generated_Source\PSoC5/LED_Strip.c **** 
 309:.\Generated_Source\PSoC5/LED_Strip.c **** 
 310:.\Generated_Source\PSoC5/LED_Strip.c **** /*******************************************************************************
 311:.\Generated_Source\PSoC5/LED_Strip.c **** * Function Name: LED_Strip_SetTxInterruptMode
 312:.\Generated_Source\PSoC5/LED_Strip.c **** ********************************************************************************
 313:.\Generated_Source\PSoC5/LED_Strip.c **** *
 314:.\Generated_Source\PSoC5/LED_Strip.c **** * Summary:
 315:.\Generated_Source\PSoC5/LED_Strip.c **** *  Configure which status bits trigger an interrupt event.
 316:.\Generated_Source\PSoC5/LED_Strip.c **** *
 317:.\Generated_Source\PSoC5/LED_Strip.c **** * Parameters:
 318:.\Generated_Source\PSoC5/LED_Strip.c **** *  intSrc: An or'd combination of the desired status bit masks (defined in the
 319:.\Generated_Source\PSoC5/LED_Strip.c **** *  header file).
 320:.\Generated_Source\PSoC5/LED_Strip.c **** *
 321:.\Generated_Source\PSoC5/LED_Strip.c **** * Return:
 322:.\Generated_Source\PSoC5/LED_Strip.c **** *  None.
 323:.\Generated_Source\PSoC5/LED_Strip.c **** *
 324:.\Generated_Source\PSoC5/LED_Strip.c **** * Theory:
 325:.\Generated_Source\PSoC5/LED_Strip.c **** *  Enables the output of specific status bits to the interrupt controller.
 326:.\Generated_Source\PSoC5/LED_Strip.c **** *
 327:.\Generated_Source\PSoC5/LED_Strip.c **** *******************************************************************************/
 328:.\Generated_Source\PSoC5/LED_Strip.c **** void LED_Strip_SetTxInterruptMode(uint8 intSrc) 
 329:.\Generated_Source\PSoC5/LED_Strip.c **** {
 180              		.loc 1 329 0
 181              		.cfi_startproc
 182              		@ args = 0, pretend = 0, frame = 0
 183              		@ frame_needed = 0, uses_anonymous_args = 0
 184              		@ link register save eliminated.
ARM GAS  C:\Users\khjtony\AppData\Local\Temp\ccleSq1F.s 			page 10


 185              	.LVL4:
 330:.\Generated_Source\PSoC5/LED_Strip.c ****     LED_Strip_TX_STATUS_MASK_REG = intSrc;
 186              		.loc 1 330 0
 187 0000 014B     		ldr	r3, .L12
 188 0002 1870     		strb	r0, [r3]
 189 0004 7047     		bx	lr
 190              	.L13:
 191 0006 00BF     		.align	2
 192              	.L12:
 193 0008 82640040 		.word	1073767554
 194              		.cfi_endproc
 195              	.LFE8:
 196              		.size	LED_Strip_SetTxInterruptMode, .-LED_Strip_SetTxInterruptMode
 197              		.section	.text.LED_Strip_SetRxInterruptMode,"ax",%progbits
 198              		.align	2
 199              		.global	LED_Strip_SetRxInterruptMode
 200              		.thumb
 201              		.thumb_func
 202              		.type	LED_Strip_SetRxInterruptMode, %function
 203              	LED_Strip_SetRxInterruptMode:
 204              	.LFB9:
 331:.\Generated_Source\PSoC5/LED_Strip.c **** }
 332:.\Generated_Source\PSoC5/LED_Strip.c **** 
 333:.\Generated_Source\PSoC5/LED_Strip.c **** 
 334:.\Generated_Source\PSoC5/LED_Strip.c **** /*******************************************************************************
 335:.\Generated_Source\PSoC5/LED_Strip.c **** * Function Name: LED_Strip_SetRxInterruptMode
 336:.\Generated_Source\PSoC5/LED_Strip.c **** ********************************************************************************
 337:.\Generated_Source\PSoC5/LED_Strip.c **** *
 338:.\Generated_Source\PSoC5/LED_Strip.c **** * Summary:
 339:.\Generated_Source\PSoC5/LED_Strip.c **** *  Configure which status bits trigger an interrupt event.
 340:.\Generated_Source\PSoC5/LED_Strip.c **** *
 341:.\Generated_Source\PSoC5/LED_Strip.c **** * Parameters:
 342:.\Generated_Source\PSoC5/LED_Strip.c **** *  intSrc: An or'd combination of the desired status bit masks (defined in the
 343:.\Generated_Source\PSoC5/LED_Strip.c **** *  header file).
 344:.\Generated_Source\PSoC5/LED_Strip.c **** *
 345:.\Generated_Source\PSoC5/LED_Strip.c **** * Return:
 346:.\Generated_Source\PSoC5/LED_Strip.c **** *  None.
 347:.\Generated_Source\PSoC5/LED_Strip.c **** *
 348:.\Generated_Source\PSoC5/LED_Strip.c **** * Theory:
 349:.\Generated_Source\PSoC5/LED_Strip.c **** *  Enables the output of specific status bits to the interrupt controller.
 350:.\Generated_Source\PSoC5/LED_Strip.c **** *
 351:.\Generated_Source\PSoC5/LED_Strip.c **** *******************************************************************************/
 352:.\Generated_Source\PSoC5/LED_Strip.c **** void LED_Strip_SetRxInterruptMode(uint8 intSrc) 
 353:.\Generated_Source\PSoC5/LED_Strip.c **** {
 205              		.loc 1 353 0
 206              		.cfi_startproc
 207              		@ args = 0, pretend = 0, frame = 0
 208              		@ frame_needed = 0, uses_anonymous_args = 0
 209              		@ link register save eliminated.
 210              	.LVL5:
 354:.\Generated_Source\PSoC5/LED_Strip.c ****     LED_Strip_RX_STATUS_MASK_REG  = intSrc;
 211              		.loc 1 354 0
 212 0000 014B     		ldr	r3, .L15
 213 0002 1870     		strb	r0, [r3]
 214 0004 7047     		bx	lr
 215              	.L16:
 216 0006 00BF     		.align	2
ARM GAS  C:\Users\khjtony\AppData\Local\Temp\ccleSq1F.s 			page 11


 217              	.L15:
 218 0008 83640040 		.word	1073767555
 219              		.cfi_endproc
 220              	.LFE9:
 221              		.size	LED_Strip_SetRxInterruptMode, .-LED_Strip_SetRxInterruptMode
 222              		.section	.text.LED_Strip_ReadTxStatus,"ax",%progbits
 223              		.align	2
 224              		.global	LED_Strip_ReadTxStatus
 225              		.thumb
 226              		.thumb_func
 227              		.type	LED_Strip_ReadTxStatus, %function
 228              	LED_Strip_ReadTxStatus:
 229              	.LFB10:
 355:.\Generated_Source\PSoC5/LED_Strip.c **** }
 356:.\Generated_Source\PSoC5/LED_Strip.c **** 
 357:.\Generated_Source\PSoC5/LED_Strip.c **** 
 358:.\Generated_Source\PSoC5/LED_Strip.c **** /*******************************************************************************
 359:.\Generated_Source\PSoC5/LED_Strip.c **** * Function Name: LED_Strip_ReadTxStatus
 360:.\Generated_Source\PSoC5/LED_Strip.c **** ********************************************************************************
 361:.\Generated_Source\PSoC5/LED_Strip.c **** *
 362:.\Generated_Source\PSoC5/LED_Strip.c **** * Summary:
 363:.\Generated_Source\PSoC5/LED_Strip.c **** *  Read the Tx status register for the component.
 364:.\Generated_Source\PSoC5/LED_Strip.c **** *
 365:.\Generated_Source\PSoC5/LED_Strip.c **** * Parameters:
 366:.\Generated_Source\PSoC5/LED_Strip.c **** *  None.
 367:.\Generated_Source\PSoC5/LED_Strip.c **** *
 368:.\Generated_Source\PSoC5/LED_Strip.c **** * Return:
 369:.\Generated_Source\PSoC5/LED_Strip.c **** *  Contents of the Tx status register.
 370:.\Generated_Source\PSoC5/LED_Strip.c **** *
 371:.\Generated_Source\PSoC5/LED_Strip.c **** * Global variables:
 372:.\Generated_Source\PSoC5/LED_Strip.c **** *  LED_Strip_swStatusTx - used to store in software status register,
 373:.\Generated_Source\PSoC5/LED_Strip.c **** *  modified every function call - resets to zero.
 374:.\Generated_Source\PSoC5/LED_Strip.c **** *
 375:.\Generated_Source\PSoC5/LED_Strip.c **** * Theory:
 376:.\Generated_Source\PSoC5/LED_Strip.c **** *  Allows the user and the API to read the Tx status register for error
 377:.\Generated_Source\PSoC5/LED_Strip.c **** *  detection and flow control.
 378:.\Generated_Source\PSoC5/LED_Strip.c **** *
 379:.\Generated_Source\PSoC5/LED_Strip.c **** * Side Effects:
 380:.\Generated_Source\PSoC5/LED_Strip.c **** *  Clear Tx status register of the component.
 381:.\Generated_Source\PSoC5/LED_Strip.c **** *
 382:.\Generated_Source\PSoC5/LED_Strip.c **** * Reentrant:
 383:.\Generated_Source\PSoC5/LED_Strip.c **** *  No.
 384:.\Generated_Source\PSoC5/LED_Strip.c **** *
 385:.\Generated_Source\PSoC5/LED_Strip.c **** *******************************************************************************/
 386:.\Generated_Source\PSoC5/LED_Strip.c **** uint8 LED_Strip_ReadTxStatus(void) 
 387:.\Generated_Source\PSoC5/LED_Strip.c **** {
 230              		.loc 1 387 0
 231              		.cfi_startproc
 232              		@ args = 0, pretend = 0, frame = 0
 233              		@ frame_needed = 0, uses_anonymous_args = 0
 234              		@ link register save eliminated.
 388:.\Generated_Source\PSoC5/LED_Strip.c ****     uint8 tmpStatus;
 389:.\Generated_Source\PSoC5/LED_Strip.c **** 
 390:.\Generated_Source\PSoC5/LED_Strip.c ****     #if(LED_Strip_TX_SOFTWARE_BUF_ENABLED)
 391:.\Generated_Source\PSoC5/LED_Strip.c ****         /* Disable TX interrupt to protect global veriables */
 392:.\Generated_Source\PSoC5/LED_Strip.c ****         LED_Strip_DisableTxInt();
 393:.\Generated_Source\PSoC5/LED_Strip.c **** 
ARM GAS  C:\Users\khjtony\AppData\Local\Temp\ccleSq1F.s 			page 12


 394:.\Generated_Source\PSoC5/LED_Strip.c ****         tmpStatus = LED_Strip_GET_STATUS_TX(LED_Strip_swStatusTx);
 395:.\Generated_Source\PSoC5/LED_Strip.c ****         LED_Strip_swStatusTx = 0u;
 396:.\Generated_Source\PSoC5/LED_Strip.c **** 
 397:.\Generated_Source\PSoC5/LED_Strip.c ****         LED_Strip_EnableTxInt();
 398:.\Generated_Source\PSoC5/LED_Strip.c **** 
 399:.\Generated_Source\PSoC5/LED_Strip.c ****     #else
 400:.\Generated_Source\PSoC5/LED_Strip.c **** 
 401:.\Generated_Source\PSoC5/LED_Strip.c ****         tmpStatus = LED_Strip_TX_STATUS_REG;
 235              		.loc 1 401 0
 236 0000 014B     		ldr	r3, .L18
 237 0002 1878     		ldrb	r0, [r3]	@ zero_extendqisi2
 238              	.LVL6:
 402:.\Generated_Source\PSoC5/LED_Strip.c **** 
 403:.\Generated_Source\PSoC5/LED_Strip.c ****     #endif /* (LED_Strip_TX_SOFTWARE_BUF_ENABLED) */
 404:.\Generated_Source\PSoC5/LED_Strip.c **** 
 405:.\Generated_Source\PSoC5/LED_Strip.c ****     return(tmpStatus);
 406:.\Generated_Source\PSoC5/LED_Strip.c **** }
 239              		.loc 1 406 0
 240 0004 7047     		bx	lr
 241              	.L19:
 242 0006 00BF     		.align	2
 243              	.L18:
 244 0008 62640040 		.word	1073767522
 245              		.cfi_endproc
 246              	.LFE10:
 247              		.size	LED_Strip_ReadTxStatus, .-LED_Strip_ReadTxStatus
 248              		.section	.text.LED_Strip_ReadRxStatus,"ax",%progbits
 249              		.align	2
 250              		.global	LED_Strip_ReadRxStatus
 251              		.thumb
 252              		.thumb_func
 253              		.type	LED_Strip_ReadRxStatus, %function
 254              	LED_Strip_ReadRxStatus:
 255              	.LFB11:
 407:.\Generated_Source\PSoC5/LED_Strip.c **** 
 408:.\Generated_Source\PSoC5/LED_Strip.c **** 
 409:.\Generated_Source\PSoC5/LED_Strip.c **** /*******************************************************************************
 410:.\Generated_Source\PSoC5/LED_Strip.c **** * Function Name: LED_Strip_ReadRxStatus
 411:.\Generated_Source\PSoC5/LED_Strip.c **** ********************************************************************************
 412:.\Generated_Source\PSoC5/LED_Strip.c **** *
 413:.\Generated_Source\PSoC5/LED_Strip.c **** * Summary:
 414:.\Generated_Source\PSoC5/LED_Strip.c **** *  Read the Rx status register for the component.
 415:.\Generated_Source\PSoC5/LED_Strip.c **** *
 416:.\Generated_Source\PSoC5/LED_Strip.c **** * Parameters:
 417:.\Generated_Source\PSoC5/LED_Strip.c **** *  None.
 418:.\Generated_Source\PSoC5/LED_Strip.c **** *
 419:.\Generated_Source\PSoC5/LED_Strip.c **** * Return:
 420:.\Generated_Source\PSoC5/LED_Strip.c **** *  Contents of the Rx status register.
 421:.\Generated_Source\PSoC5/LED_Strip.c **** *
 422:.\Generated_Source\PSoC5/LED_Strip.c **** * Global variables:
 423:.\Generated_Source\PSoC5/LED_Strip.c **** *  LED_Strip_swStatusRx - used to store in software Rx status register,
 424:.\Generated_Source\PSoC5/LED_Strip.c **** *  modified every function call - resets to zero.
 425:.\Generated_Source\PSoC5/LED_Strip.c **** *
 426:.\Generated_Source\PSoC5/LED_Strip.c **** * Theory:
 427:.\Generated_Source\PSoC5/LED_Strip.c **** *  Allows the user and the API to read the Rx status register for error
 428:.\Generated_Source\PSoC5/LED_Strip.c **** *  detection and flow control.
 429:.\Generated_Source\PSoC5/LED_Strip.c **** *
ARM GAS  C:\Users\khjtony\AppData\Local\Temp\ccleSq1F.s 			page 13


 430:.\Generated_Source\PSoC5/LED_Strip.c **** * Side Effects:
 431:.\Generated_Source\PSoC5/LED_Strip.c **** *  Clear Rx status register of the component.
 432:.\Generated_Source\PSoC5/LED_Strip.c **** *
 433:.\Generated_Source\PSoC5/LED_Strip.c **** * Reentrant:
 434:.\Generated_Source\PSoC5/LED_Strip.c **** *  No.
 435:.\Generated_Source\PSoC5/LED_Strip.c **** *
 436:.\Generated_Source\PSoC5/LED_Strip.c **** *******************************************************************************/
 437:.\Generated_Source\PSoC5/LED_Strip.c **** uint8 LED_Strip_ReadRxStatus(void) 
 438:.\Generated_Source\PSoC5/LED_Strip.c **** {
 256              		.loc 1 438 0
 257              		.cfi_startproc
 258              		@ args = 0, pretend = 0, frame = 0
 259              		@ frame_needed = 0, uses_anonymous_args = 0
 260              		@ link register save eliminated.
 439:.\Generated_Source\PSoC5/LED_Strip.c ****     uint8 tmpStatus;
 440:.\Generated_Source\PSoC5/LED_Strip.c **** 
 441:.\Generated_Source\PSoC5/LED_Strip.c ****     #if(LED_Strip_RX_SOFTWARE_BUF_ENABLED)
 442:.\Generated_Source\PSoC5/LED_Strip.c ****         /* Disable RX interrupt to protect global veriables */
 443:.\Generated_Source\PSoC5/LED_Strip.c ****         LED_Strip_DisableRxInt();
 444:.\Generated_Source\PSoC5/LED_Strip.c **** 
 445:.\Generated_Source\PSoC5/LED_Strip.c ****         tmpStatus = LED_Strip_GET_STATUS_RX(LED_Strip_swStatusRx);
 446:.\Generated_Source\PSoC5/LED_Strip.c ****         LED_Strip_swStatusRx = 0u;
 447:.\Generated_Source\PSoC5/LED_Strip.c **** 
 448:.\Generated_Source\PSoC5/LED_Strip.c ****         LED_Strip_EnableRxInt();
 449:.\Generated_Source\PSoC5/LED_Strip.c **** 
 450:.\Generated_Source\PSoC5/LED_Strip.c ****     #else
 451:.\Generated_Source\PSoC5/LED_Strip.c **** 
 452:.\Generated_Source\PSoC5/LED_Strip.c ****         tmpStatus = LED_Strip_RX_STATUS_REG;
 261              		.loc 1 452 0
 262 0000 014B     		ldr	r3, .L21
 263 0002 1878     		ldrb	r0, [r3]	@ zero_extendqisi2
 264              	.LVL7:
 453:.\Generated_Source\PSoC5/LED_Strip.c **** 
 454:.\Generated_Source\PSoC5/LED_Strip.c ****     #endif /* (LED_Strip_RX_SOFTWARE_BUF_ENABLED) */
 455:.\Generated_Source\PSoC5/LED_Strip.c **** 
 456:.\Generated_Source\PSoC5/LED_Strip.c ****     return(tmpStatus);
 457:.\Generated_Source\PSoC5/LED_Strip.c **** }
 265              		.loc 1 457 0
 266 0004 7047     		bx	lr
 267              	.L22:
 268 0006 00BF     		.align	2
 269              	.L21:
 270 0008 63640040 		.word	1073767523
 271              		.cfi_endproc
 272              	.LFE11:
 273              		.size	LED_Strip_ReadRxStatus, .-LED_Strip_ReadRxStatus
 274              		.section	.text.LED_Strip_WriteTxData,"ax",%progbits
 275              		.align	2
 276              		.global	LED_Strip_WriteTxData
 277              		.thumb
 278              		.thumb_func
 279              		.type	LED_Strip_WriteTxData, %function
 280              	LED_Strip_WriteTxData:
 281              	.LFB12:
 458:.\Generated_Source\PSoC5/LED_Strip.c **** 
 459:.\Generated_Source\PSoC5/LED_Strip.c **** 
 460:.\Generated_Source\PSoC5/LED_Strip.c **** /*******************************************************************************
ARM GAS  C:\Users\khjtony\AppData\Local\Temp\ccleSq1F.s 			page 14


 461:.\Generated_Source\PSoC5/LED_Strip.c **** * Function Name: LED_Strip_WriteTxData
 462:.\Generated_Source\PSoC5/LED_Strip.c **** ********************************************************************************
 463:.\Generated_Source\PSoC5/LED_Strip.c **** *
 464:.\Generated_Source\PSoC5/LED_Strip.c **** * Summary:
 465:.\Generated_Source\PSoC5/LED_Strip.c **** *  Write a byte of data to be sent across the SPI.
 466:.\Generated_Source\PSoC5/LED_Strip.c **** *
 467:.\Generated_Source\PSoC5/LED_Strip.c **** * Parameters:
 468:.\Generated_Source\PSoC5/LED_Strip.c **** *  txDataByte: The data value to send across the SPI.
 469:.\Generated_Source\PSoC5/LED_Strip.c **** *
 470:.\Generated_Source\PSoC5/LED_Strip.c **** * Return:
 471:.\Generated_Source\PSoC5/LED_Strip.c **** *  None.
 472:.\Generated_Source\PSoC5/LED_Strip.c **** *
 473:.\Generated_Source\PSoC5/LED_Strip.c **** * Global variables:
 474:.\Generated_Source\PSoC5/LED_Strip.c **** *  LED_Strip_txBufferWrite - used for the account of the bytes which
 475:.\Generated_Source\PSoC5/LED_Strip.c **** *  have been written down in the TX software buffer, modified every function
 476:.\Generated_Source\PSoC5/LED_Strip.c **** *  call if TX Software Buffer is used.
 477:.\Generated_Source\PSoC5/LED_Strip.c **** *  LED_Strip_txBufferRead - used for the account of the bytes which
 478:.\Generated_Source\PSoC5/LED_Strip.c **** *  have been read from the TX software buffer.
 479:.\Generated_Source\PSoC5/LED_Strip.c **** *  LED_Strip_txBuffer[LED_Strip_TX_BUFFER_SIZE] - used to store
 480:.\Generated_Source\PSoC5/LED_Strip.c **** *  data to sending, modified every function call if TX Software Buffer is used.
 481:.\Generated_Source\PSoC5/LED_Strip.c **** *
 482:.\Generated_Source\PSoC5/LED_Strip.c **** * Theory:
 483:.\Generated_Source\PSoC5/LED_Strip.c **** *  Allows the user to transmit any byte of data in a single transfer.
 484:.\Generated_Source\PSoC5/LED_Strip.c **** *
 485:.\Generated_Source\PSoC5/LED_Strip.c **** * Side Effects:
 486:.\Generated_Source\PSoC5/LED_Strip.c **** *  If this function is called again before the previous byte is finished then
 487:.\Generated_Source\PSoC5/LED_Strip.c **** *  the next byte will be appended to the transfer with no time between
 488:.\Generated_Source\PSoC5/LED_Strip.c **** *  the byte transfers. Clear Tx status register of the component.
 489:.\Generated_Source\PSoC5/LED_Strip.c **** *
 490:.\Generated_Source\PSoC5/LED_Strip.c **** * Reentrant:
 491:.\Generated_Source\PSoC5/LED_Strip.c **** *  No.
 492:.\Generated_Source\PSoC5/LED_Strip.c **** *
 493:.\Generated_Source\PSoC5/LED_Strip.c **** *******************************************************************************/
 494:.\Generated_Source\PSoC5/LED_Strip.c **** void LED_Strip_WriteTxData(uint8 txData) 
 495:.\Generated_Source\PSoC5/LED_Strip.c **** {
 282              		.loc 1 495 0
 283              		.cfi_startproc
 284              		@ args = 0, pretend = 0, frame = 0
 285              		@ frame_needed = 0, uses_anonymous_args = 0
 286              		@ link register save eliminated.
 287              	.LVL8:
 496:.\Generated_Source\PSoC5/LED_Strip.c ****     #if(LED_Strip_TX_SOFTWARE_BUF_ENABLED)
 497:.\Generated_Source\PSoC5/LED_Strip.c **** 
 498:.\Generated_Source\PSoC5/LED_Strip.c ****         uint8 tempStatus;
 499:.\Generated_Source\PSoC5/LED_Strip.c ****         uint8 tmpTxBufferRead;
 500:.\Generated_Source\PSoC5/LED_Strip.c **** 
 501:.\Generated_Source\PSoC5/LED_Strip.c ****         /* Block if TX buffer is FULL: don't overwrite */
 502:.\Generated_Source\PSoC5/LED_Strip.c ****         do
 503:.\Generated_Source\PSoC5/LED_Strip.c ****         {
 504:.\Generated_Source\PSoC5/LED_Strip.c ****             tmpTxBufferRead = LED_Strip_txBufferRead;
 505:.\Generated_Source\PSoC5/LED_Strip.c ****             if(0u == tmpTxBufferRead)
 506:.\Generated_Source\PSoC5/LED_Strip.c ****             {
 507:.\Generated_Source\PSoC5/LED_Strip.c ****                 tmpTxBufferRead = (LED_Strip_TX_BUFFER_SIZE - 1u);
 508:.\Generated_Source\PSoC5/LED_Strip.c ****             }
 509:.\Generated_Source\PSoC5/LED_Strip.c ****             else
 510:.\Generated_Source\PSoC5/LED_Strip.c ****             {
 511:.\Generated_Source\PSoC5/LED_Strip.c ****                 tmpTxBufferRead--;
ARM GAS  C:\Users\khjtony\AppData\Local\Temp\ccleSq1F.s 			page 15


 512:.\Generated_Source\PSoC5/LED_Strip.c ****             }
 513:.\Generated_Source\PSoC5/LED_Strip.c **** 
 514:.\Generated_Source\PSoC5/LED_Strip.c ****         }while(tmpTxBufferRead == LED_Strip_txBufferWrite);
 515:.\Generated_Source\PSoC5/LED_Strip.c **** 
 516:.\Generated_Source\PSoC5/LED_Strip.c ****         /* Disable TX interrupt to protect global veriables */
 517:.\Generated_Source\PSoC5/LED_Strip.c ****         LED_Strip_DisableTxInt();
 518:.\Generated_Source\PSoC5/LED_Strip.c **** 
 519:.\Generated_Source\PSoC5/LED_Strip.c ****         tempStatus = LED_Strip_GET_STATUS_TX(LED_Strip_swStatusTx);
 520:.\Generated_Source\PSoC5/LED_Strip.c ****         LED_Strip_swStatusTx = tempStatus;
 521:.\Generated_Source\PSoC5/LED_Strip.c **** 
 522:.\Generated_Source\PSoC5/LED_Strip.c **** 
 523:.\Generated_Source\PSoC5/LED_Strip.c ****         if((LED_Strip_txBufferRead == LED_Strip_txBufferWrite) &&
 524:.\Generated_Source\PSoC5/LED_Strip.c ****            (0u != (LED_Strip_swStatusTx & LED_Strip_STS_TX_FIFO_NOT_FULL)))
 525:.\Generated_Source\PSoC5/LED_Strip.c ****         {
 526:.\Generated_Source\PSoC5/LED_Strip.c ****             /* Put data element into the TX FIFO */
 527:.\Generated_Source\PSoC5/LED_Strip.c ****             CY_SET_REG8(LED_Strip_TXDATA_PTR, txData);
 528:.\Generated_Source\PSoC5/LED_Strip.c ****         }
 529:.\Generated_Source\PSoC5/LED_Strip.c ****         else
 530:.\Generated_Source\PSoC5/LED_Strip.c ****         {
 531:.\Generated_Source\PSoC5/LED_Strip.c ****             /* Add to the TX software buffer */
 532:.\Generated_Source\PSoC5/LED_Strip.c ****             LED_Strip_txBufferWrite++;
 533:.\Generated_Source\PSoC5/LED_Strip.c ****             if(LED_Strip_txBufferWrite >= LED_Strip_TX_BUFFER_SIZE)
 534:.\Generated_Source\PSoC5/LED_Strip.c ****             {
 535:.\Generated_Source\PSoC5/LED_Strip.c ****                 LED_Strip_txBufferWrite = 0u;
 536:.\Generated_Source\PSoC5/LED_Strip.c ****             }
 537:.\Generated_Source\PSoC5/LED_Strip.c **** 
 538:.\Generated_Source\PSoC5/LED_Strip.c ****             if(LED_Strip_txBufferWrite == LED_Strip_txBufferRead)
 539:.\Generated_Source\PSoC5/LED_Strip.c ****             {
 540:.\Generated_Source\PSoC5/LED_Strip.c ****                 LED_Strip_txBufferRead++;
 541:.\Generated_Source\PSoC5/LED_Strip.c ****                 if(LED_Strip_txBufferRead >= LED_Strip_TX_BUFFER_SIZE)
 542:.\Generated_Source\PSoC5/LED_Strip.c ****                 {
 543:.\Generated_Source\PSoC5/LED_Strip.c ****                     LED_Strip_txBufferRead = 0u;
 544:.\Generated_Source\PSoC5/LED_Strip.c ****                 }
 545:.\Generated_Source\PSoC5/LED_Strip.c ****                 LED_Strip_txBufferFull = 1u;
 546:.\Generated_Source\PSoC5/LED_Strip.c ****             }
 547:.\Generated_Source\PSoC5/LED_Strip.c **** 
 548:.\Generated_Source\PSoC5/LED_Strip.c ****             LED_Strip_txBuffer[LED_Strip_txBufferWrite] = txData;
 549:.\Generated_Source\PSoC5/LED_Strip.c **** 
 550:.\Generated_Source\PSoC5/LED_Strip.c ****             LED_Strip_TX_STATUS_MASK_REG |= LED_Strip_STS_TX_FIFO_NOT_FULL;
 551:.\Generated_Source\PSoC5/LED_Strip.c ****         }
 552:.\Generated_Source\PSoC5/LED_Strip.c **** 
 553:.\Generated_Source\PSoC5/LED_Strip.c ****         LED_Strip_EnableTxInt();
 554:.\Generated_Source\PSoC5/LED_Strip.c **** 
 555:.\Generated_Source\PSoC5/LED_Strip.c ****     #else
 556:.\Generated_Source\PSoC5/LED_Strip.c ****         /* Wait until TX FIFO has a place */
 557:.\Generated_Source\PSoC5/LED_Strip.c ****         while(0u == (LED_Strip_TX_STATUS_REG & LED_Strip_STS_TX_FIFO_NOT_FULL))
 288              		.loc 1 557 0
 289 0000 034A     		ldr	r2, .L26
 290              	.L24:
 291              		.loc 1 557 0 is_stmt 0 discriminator 1
 292 0002 1378     		ldrb	r3, [r2]	@ zero_extendqisi2
 293 0004 13F0040F 		tst	r3, #4
 294 0008 FBD0     		beq	.L24
 558:.\Generated_Source\PSoC5/LED_Strip.c ****         {
 559:.\Generated_Source\PSoC5/LED_Strip.c ****         }
 560:.\Generated_Source\PSoC5/LED_Strip.c **** 
 561:.\Generated_Source\PSoC5/LED_Strip.c ****         /* Put data element into the TX FIFO */
ARM GAS  C:\Users\khjtony\AppData\Local\Temp\ccleSq1F.s 			page 16


 562:.\Generated_Source\PSoC5/LED_Strip.c ****         CY_SET_REG8(LED_Strip_TXDATA_PTR, txData);
 295              		.loc 1 562 0 is_stmt 1
 296 000a 024B     		ldr	r3, .L26+4
 297 000c 1870     		strb	r0, [r3]
 298 000e 7047     		bx	lr
 299              	.L27:
 300              		.align	2
 301              	.L26:
 302 0010 62640040 		.word	1073767522
 303 0014 41640040 		.word	1073767489
 304              		.cfi_endproc
 305              	.LFE12:
 306              		.size	LED_Strip_WriteTxData, .-LED_Strip_WriteTxData
 307              		.section	.text.LED_Strip_ReadRxData,"ax",%progbits
 308              		.align	2
 309              		.global	LED_Strip_ReadRxData
 310              		.thumb
 311              		.thumb_func
 312              		.type	LED_Strip_ReadRxData, %function
 313              	LED_Strip_ReadRxData:
 314              	.LFB13:
 563:.\Generated_Source\PSoC5/LED_Strip.c **** 
 564:.\Generated_Source\PSoC5/LED_Strip.c ****     #endif /* (LED_Strip_TX_SOFTWARE_BUF_ENABLED) */
 565:.\Generated_Source\PSoC5/LED_Strip.c **** }
 566:.\Generated_Source\PSoC5/LED_Strip.c **** 
 567:.\Generated_Source\PSoC5/LED_Strip.c **** 
 568:.\Generated_Source\PSoC5/LED_Strip.c **** /*******************************************************************************
 569:.\Generated_Source\PSoC5/LED_Strip.c **** * Function Name: LED_Strip_ReadRxData
 570:.\Generated_Source\PSoC5/LED_Strip.c **** ********************************************************************************
 571:.\Generated_Source\PSoC5/LED_Strip.c **** *
 572:.\Generated_Source\PSoC5/LED_Strip.c **** * Summary:
 573:.\Generated_Source\PSoC5/LED_Strip.c **** *  Read the next byte of data received across the SPI.
 574:.\Generated_Source\PSoC5/LED_Strip.c **** *
 575:.\Generated_Source\PSoC5/LED_Strip.c **** * Parameters:
 576:.\Generated_Source\PSoC5/LED_Strip.c **** *  None.
 577:.\Generated_Source\PSoC5/LED_Strip.c **** *
 578:.\Generated_Source\PSoC5/LED_Strip.c **** * Return:
 579:.\Generated_Source\PSoC5/LED_Strip.c **** *  The next byte of data read from the FIFO.
 580:.\Generated_Source\PSoC5/LED_Strip.c **** *
 581:.\Generated_Source\PSoC5/LED_Strip.c **** * Global variables:
 582:.\Generated_Source\PSoC5/LED_Strip.c **** *  LED_Strip_rxBufferWrite - used for the account of the bytes which
 583:.\Generated_Source\PSoC5/LED_Strip.c **** *  have been written down in the RX software buffer.
 584:.\Generated_Source\PSoC5/LED_Strip.c **** *  LED_Strip_rxBufferRead - used for the account of the bytes which
 585:.\Generated_Source\PSoC5/LED_Strip.c **** *  have been read from the RX software buffer, modified every function
 586:.\Generated_Source\PSoC5/LED_Strip.c **** *  call if RX Software Buffer is used.
 587:.\Generated_Source\PSoC5/LED_Strip.c **** *  LED_Strip_rxBuffer[LED_Strip_RX_BUFFER_SIZE] - used to store
 588:.\Generated_Source\PSoC5/LED_Strip.c **** *  received data.
 589:.\Generated_Source\PSoC5/LED_Strip.c **** *
 590:.\Generated_Source\PSoC5/LED_Strip.c **** * Theory:
 591:.\Generated_Source\PSoC5/LED_Strip.c **** *  Allows the user to read a byte of data received.
 592:.\Generated_Source\PSoC5/LED_Strip.c **** *
 593:.\Generated_Source\PSoC5/LED_Strip.c **** * Side Effects:
 594:.\Generated_Source\PSoC5/LED_Strip.c **** *  Will return invalid data if the FIFO is empty. The user should Call
 595:.\Generated_Source\PSoC5/LED_Strip.c **** *  GetRxBufferSize() and if it returns a non-zero value then it is safe to call
 596:.\Generated_Source\PSoC5/LED_Strip.c **** *  ReadByte() function.
 597:.\Generated_Source\PSoC5/LED_Strip.c **** *
 598:.\Generated_Source\PSoC5/LED_Strip.c **** * Reentrant:
ARM GAS  C:\Users\khjtony\AppData\Local\Temp\ccleSq1F.s 			page 17


 599:.\Generated_Source\PSoC5/LED_Strip.c **** *  No.
 600:.\Generated_Source\PSoC5/LED_Strip.c **** *
 601:.\Generated_Source\PSoC5/LED_Strip.c **** *******************************************************************************/
 602:.\Generated_Source\PSoC5/LED_Strip.c **** uint8 LED_Strip_ReadRxData(void) 
 603:.\Generated_Source\PSoC5/LED_Strip.c **** {
 315              		.loc 1 603 0
 316              		.cfi_startproc
 317              		@ args = 0, pretend = 0, frame = 0
 318              		@ frame_needed = 0, uses_anonymous_args = 0
 319              		@ link register save eliminated.
 604:.\Generated_Source\PSoC5/LED_Strip.c ****     uint8 rxData;
 605:.\Generated_Source\PSoC5/LED_Strip.c **** 
 606:.\Generated_Source\PSoC5/LED_Strip.c ****     #if(LED_Strip_RX_SOFTWARE_BUF_ENABLED)
 607:.\Generated_Source\PSoC5/LED_Strip.c **** 
 608:.\Generated_Source\PSoC5/LED_Strip.c ****         /* Disable RX interrupt to protect global veriables */
 609:.\Generated_Source\PSoC5/LED_Strip.c ****         LED_Strip_DisableRxInt();
 610:.\Generated_Source\PSoC5/LED_Strip.c **** 
 611:.\Generated_Source\PSoC5/LED_Strip.c ****         if(LED_Strip_rxBufferRead != LED_Strip_rxBufferWrite)
 612:.\Generated_Source\PSoC5/LED_Strip.c ****         {
 613:.\Generated_Source\PSoC5/LED_Strip.c ****             if(0u == LED_Strip_rxBufferFull)
 614:.\Generated_Source\PSoC5/LED_Strip.c ****             {
 615:.\Generated_Source\PSoC5/LED_Strip.c ****                 LED_Strip_rxBufferRead++;
 616:.\Generated_Source\PSoC5/LED_Strip.c ****                 if(LED_Strip_rxBufferRead >= LED_Strip_RX_BUFFER_SIZE)
 617:.\Generated_Source\PSoC5/LED_Strip.c ****                 {
 618:.\Generated_Source\PSoC5/LED_Strip.c ****                     LED_Strip_rxBufferRead = 0u;
 619:.\Generated_Source\PSoC5/LED_Strip.c ****                 }
 620:.\Generated_Source\PSoC5/LED_Strip.c ****             }
 621:.\Generated_Source\PSoC5/LED_Strip.c ****             else
 622:.\Generated_Source\PSoC5/LED_Strip.c ****             {
 623:.\Generated_Source\PSoC5/LED_Strip.c ****                 LED_Strip_rxBufferFull = 0u;
 624:.\Generated_Source\PSoC5/LED_Strip.c ****             }
 625:.\Generated_Source\PSoC5/LED_Strip.c ****         }
 626:.\Generated_Source\PSoC5/LED_Strip.c **** 
 627:.\Generated_Source\PSoC5/LED_Strip.c ****         rxData = LED_Strip_rxBuffer[LED_Strip_rxBufferRead];
 628:.\Generated_Source\PSoC5/LED_Strip.c **** 
 629:.\Generated_Source\PSoC5/LED_Strip.c ****         LED_Strip_EnableRxInt();
 630:.\Generated_Source\PSoC5/LED_Strip.c **** 
 631:.\Generated_Source\PSoC5/LED_Strip.c ****     #else
 632:.\Generated_Source\PSoC5/LED_Strip.c **** 
 633:.\Generated_Source\PSoC5/LED_Strip.c ****         rxData = CY_GET_REG8(LED_Strip_RXDATA_PTR);
 320              		.loc 1 633 0
 321 0000 014B     		ldr	r3, .L29
 322 0002 1878     		ldrb	r0, [r3]	@ zero_extendqisi2
 323              	.LVL9:
 634:.\Generated_Source\PSoC5/LED_Strip.c **** 
 635:.\Generated_Source\PSoC5/LED_Strip.c ****     #endif /* (LED_Strip_RX_SOFTWARE_BUF_ENABLED) */
 636:.\Generated_Source\PSoC5/LED_Strip.c **** 
 637:.\Generated_Source\PSoC5/LED_Strip.c ****     return(rxData);
 638:.\Generated_Source\PSoC5/LED_Strip.c **** }
 324              		.loc 1 638 0
 325 0004 7047     		bx	lr
 326              	.L30:
 327 0006 00BF     		.align	2
 328              	.L29:
 329 0008 51640040 		.word	1073767505
 330              		.cfi_endproc
 331              	.LFE13:
ARM GAS  C:\Users\khjtony\AppData\Local\Temp\ccleSq1F.s 			page 18


 332              		.size	LED_Strip_ReadRxData, .-LED_Strip_ReadRxData
 333              		.section	.text.LED_Strip_GetRxBufferSize,"ax",%progbits
 334              		.align	2
 335              		.global	LED_Strip_GetRxBufferSize
 336              		.thumb
 337              		.thumb_func
 338              		.type	LED_Strip_GetRxBufferSize, %function
 339              	LED_Strip_GetRxBufferSize:
 340              	.LFB14:
 639:.\Generated_Source\PSoC5/LED_Strip.c **** 
 640:.\Generated_Source\PSoC5/LED_Strip.c **** 
 641:.\Generated_Source\PSoC5/LED_Strip.c **** /*******************************************************************************
 642:.\Generated_Source\PSoC5/LED_Strip.c **** * Function Name: LED_Strip_GetRxBufferSize
 643:.\Generated_Source\PSoC5/LED_Strip.c **** ********************************************************************************
 644:.\Generated_Source\PSoC5/LED_Strip.c **** *
 645:.\Generated_Source\PSoC5/LED_Strip.c **** * Summary:
 646:.\Generated_Source\PSoC5/LED_Strip.c **** *  Returns the number of bytes/words of data currently held in the RX buffer.
 647:.\Generated_Source\PSoC5/LED_Strip.c **** *  If RX Software Buffer not used then function return 0 if FIFO empty or 1 if
 648:.\Generated_Source\PSoC5/LED_Strip.c **** *  FIFO not empty. In another case function return size of RX Software Buffer.
 649:.\Generated_Source\PSoC5/LED_Strip.c **** *
 650:.\Generated_Source\PSoC5/LED_Strip.c **** * Parameters:
 651:.\Generated_Source\PSoC5/LED_Strip.c **** *  None.
 652:.\Generated_Source\PSoC5/LED_Strip.c **** *
 653:.\Generated_Source\PSoC5/LED_Strip.c **** * Return:
 654:.\Generated_Source\PSoC5/LED_Strip.c **** *  Integer count of the number of bytes/words in the RX buffer.
 655:.\Generated_Source\PSoC5/LED_Strip.c **** *
 656:.\Generated_Source\PSoC5/LED_Strip.c **** * Global variables:
 657:.\Generated_Source\PSoC5/LED_Strip.c **** *  LED_Strip_rxBufferWrite - used for the account of the bytes which
 658:.\Generated_Source\PSoC5/LED_Strip.c **** *  have been written down in the RX software buffer.
 659:.\Generated_Source\PSoC5/LED_Strip.c **** *  LED_Strip_rxBufferRead - used for the account of the bytes which
 660:.\Generated_Source\PSoC5/LED_Strip.c **** *  have been read from the RX software buffer.
 661:.\Generated_Source\PSoC5/LED_Strip.c **** *
 662:.\Generated_Source\PSoC5/LED_Strip.c **** * Side Effects:
 663:.\Generated_Source\PSoC5/LED_Strip.c **** *  Clear status register of the component.
 664:.\Generated_Source\PSoC5/LED_Strip.c **** *
 665:.\Generated_Source\PSoC5/LED_Strip.c **** *******************************************************************************/
 666:.\Generated_Source\PSoC5/LED_Strip.c **** uint8 LED_Strip_GetRxBufferSize(void) 
 667:.\Generated_Source\PSoC5/LED_Strip.c **** {
 341              		.loc 1 667 0
 342              		.cfi_startproc
 343              		@ args = 0, pretend = 0, frame = 0
 344              		@ frame_needed = 0, uses_anonymous_args = 0
 345              		@ link register save eliminated.
 668:.\Generated_Source\PSoC5/LED_Strip.c ****     uint8 size;
 669:.\Generated_Source\PSoC5/LED_Strip.c **** 
 670:.\Generated_Source\PSoC5/LED_Strip.c ****     #if(LED_Strip_RX_SOFTWARE_BUF_ENABLED)
 671:.\Generated_Source\PSoC5/LED_Strip.c **** 
 672:.\Generated_Source\PSoC5/LED_Strip.c ****         /* Disable RX interrupt to protect global veriables */
 673:.\Generated_Source\PSoC5/LED_Strip.c ****         LED_Strip_DisableRxInt();
 674:.\Generated_Source\PSoC5/LED_Strip.c **** 
 675:.\Generated_Source\PSoC5/LED_Strip.c ****         if(LED_Strip_rxBufferRead == LED_Strip_rxBufferWrite)
 676:.\Generated_Source\PSoC5/LED_Strip.c ****         {
 677:.\Generated_Source\PSoC5/LED_Strip.c ****             size = 0u;
 678:.\Generated_Source\PSoC5/LED_Strip.c ****         }
 679:.\Generated_Source\PSoC5/LED_Strip.c ****         else if(LED_Strip_rxBufferRead < LED_Strip_rxBufferWrite)
 680:.\Generated_Source\PSoC5/LED_Strip.c ****         {
 681:.\Generated_Source\PSoC5/LED_Strip.c ****             size = (LED_Strip_rxBufferWrite - LED_Strip_rxBufferRead);
ARM GAS  C:\Users\khjtony\AppData\Local\Temp\ccleSq1F.s 			page 19


 682:.\Generated_Source\PSoC5/LED_Strip.c ****         }
 683:.\Generated_Source\PSoC5/LED_Strip.c ****         else
 684:.\Generated_Source\PSoC5/LED_Strip.c ****         {
 685:.\Generated_Source\PSoC5/LED_Strip.c ****             size = (LED_Strip_RX_BUFFER_SIZE - LED_Strip_rxBufferRead) + LED_Strip_rxBufferWrite;
 686:.\Generated_Source\PSoC5/LED_Strip.c ****         }
 687:.\Generated_Source\PSoC5/LED_Strip.c **** 
 688:.\Generated_Source\PSoC5/LED_Strip.c ****         LED_Strip_EnableRxInt();
 689:.\Generated_Source\PSoC5/LED_Strip.c **** 
 690:.\Generated_Source\PSoC5/LED_Strip.c ****     #else
 691:.\Generated_Source\PSoC5/LED_Strip.c **** 
 692:.\Generated_Source\PSoC5/LED_Strip.c ****         /* We can only know if there is data in the RX FIFO */
 693:.\Generated_Source\PSoC5/LED_Strip.c ****         size = (0u != (LED_Strip_RX_STATUS_REG & LED_Strip_STS_RX_FIFO_NOT_EMPTY)) ? 1u : 0u;
 346              		.loc 1 693 0
 347 0000 044B     		ldr	r3, .L34
 348 0002 1B78     		ldrb	r3, [r3]	@ zero_extendqisi2
 349 0004 13F0200F 		tst	r3, #32
 350 0008 01D0     		beq	.L33
 351 000a 0120     		movs	r0, #1
 352 000c 7047     		bx	lr
 353              	.L33:
 354 000e 0020     		movs	r0, #0
 355              	.LVL10:
 694:.\Generated_Source\PSoC5/LED_Strip.c **** 
 695:.\Generated_Source\PSoC5/LED_Strip.c ****     #endif /* (LED_Strip_TX_SOFTWARE_BUF_ENABLED) */
 696:.\Generated_Source\PSoC5/LED_Strip.c **** 
 697:.\Generated_Source\PSoC5/LED_Strip.c ****     return(size);
 698:.\Generated_Source\PSoC5/LED_Strip.c **** }
 356              		.loc 1 698 0
 357 0010 7047     		bx	lr
 358              	.L35:
 359 0012 00BF     		.align	2
 360              	.L34:
 361 0014 63640040 		.word	1073767523
 362              		.cfi_endproc
 363              	.LFE14:
 364              		.size	LED_Strip_GetRxBufferSize, .-LED_Strip_GetRxBufferSize
 365              		.section	.text.LED_Strip_GetTxBufferSize,"ax",%progbits
 366              		.align	2
 367              		.global	LED_Strip_GetTxBufferSize
 368              		.thumb
 369              		.thumb_func
 370              		.type	LED_Strip_GetTxBufferSize, %function
 371              	LED_Strip_GetTxBufferSize:
 372              	.LFB15:
 699:.\Generated_Source\PSoC5/LED_Strip.c **** 
 700:.\Generated_Source\PSoC5/LED_Strip.c **** 
 701:.\Generated_Source\PSoC5/LED_Strip.c **** /*******************************************************************************
 702:.\Generated_Source\PSoC5/LED_Strip.c **** * Function Name: LED_Strip_GetTxBufferSize
 703:.\Generated_Source\PSoC5/LED_Strip.c **** ********************************************************************************
 704:.\Generated_Source\PSoC5/LED_Strip.c **** *
 705:.\Generated_Source\PSoC5/LED_Strip.c **** * Summary:
 706:.\Generated_Source\PSoC5/LED_Strip.c **** *  Returns the number of bytes/words of data currently held in the TX buffer.
 707:.\Generated_Source\PSoC5/LED_Strip.c **** *  If TX Software Buffer not used then function return 0 - if FIFO empty, 1 - if
 708:.\Generated_Source\PSoC5/LED_Strip.c **** *  FIFO not full, 4 - if FIFO full. In another case function return size of TX
 709:.\Generated_Source\PSoC5/LED_Strip.c **** *  Software Buffer.
 710:.\Generated_Source\PSoC5/LED_Strip.c **** *
 711:.\Generated_Source\PSoC5/LED_Strip.c **** * Parameters:
ARM GAS  C:\Users\khjtony\AppData\Local\Temp\ccleSq1F.s 			page 20


 712:.\Generated_Source\PSoC5/LED_Strip.c **** *  None.
 713:.\Generated_Source\PSoC5/LED_Strip.c **** *
 714:.\Generated_Source\PSoC5/LED_Strip.c **** * Return:
 715:.\Generated_Source\PSoC5/LED_Strip.c **** *  Integer count of the number of bytes/words in the TX buffer.
 716:.\Generated_Source\PSoC5/LED_Strip.c **** *
 717:.\Generated_Source\PSoC5/LED_Strip.c **** * Global variables:
 718:.\Generated_Source\PSoC5/LED_Strip.c **** *  LED_Strip_txBufferWrite - used for the account of the bytes which
 719:.\Generated_Source\PSoC5/LED_Strip.c **** *  have been written down in the TX software buffer.
 720:.\Generated_Source\PSoC5/LED_Strip.c **** *  LED_Strip_txBufferRead - used for the account of the bytes which
 721:.\Generated_Source\PSoC5/LED_Strip.c **** *  have been read from the TX software buffer.
 722:.\Generated_Source\PSoC5/LED_Strip.c **** *
 723:.\Generated_Source\PSoC5/LED_Strip.c **** * Side Effects:
 724:.\Generated_Source\PSoC5/LED_Strip.c **** *  Clear status register of the component.
 725:.\Generated_Source\PSoC5/LED_Strip.c **** *
 726:.\Generated_Source\PSoC5/LED_Strip.c **** *******************************************************************************/
 727:.\Generated_Source\PSoC5/LED_Strip.c **** uint8  LED_Strip_GetTxBufferSize(void) 
 728:.\Generated_Source\PSoC5/LED_Strip.c **** {
 373              		.loc 1 728 0
 374              		.cfi_startproc
 375              		@ args = 0, pretend = 0, frame = 0
 376              		@ frame_needed = 0, uses_anonymous_args = 0
 377              		@ link register save eliminated.
 729:.\Generated_Source\PSoC5/LED_Strip.c ****     uint8 size;
 730:.\Generated_Source\PSoC5/LED_Strip.c **** 
 731:.\Generated_Source\PSoC5/LED_Strip.c ****     #if(LED_Strip_TX_SOFTWARE_BUF_ENABLED)
 732:.\Generated_Source\PSoC5/LED_Strip.c ****         /* Disable TX interrupt to protect global veriables */
 733:.\Generated_Source\PSoC5/LED_Strip.c ****         LED_Strip_DisableTxInt();
 734:.\Generated_Source\PSoC5/LED_Strip.c **** 
 735:.\Generated_Source\PSoC5/LED_Strip.c ****         if(LED_Strip_txBufferRead == LED_Strip_txBufferWrite)
 736:.\Generated_Source\PSoC5/LED_Strip.c ****         {
 737:.\Generated_Source\PSoC5/LED_Strip.c ****             size = 0u;
 738:.\Generated_Source\PSoC5/LED_Strip.c ****         }
 739:.\Generated_Source\PSoC5/LED_Strip.c ****         else if(LED_Strip_txBufferRead < LED_Strip_txBufferWrite)
 740:.\Generated_Source\PSoC5/LED_Strip.c ****         {
 741:.\Generated_Source\PSoC5/LED_Strip.c ****             size = (LED_Strip_txBufferWrite - LED_Strip_txBufferRead);
 742:.\Generated_Source\PSoC5/LED_Strip.c ****         }
 743:.\Generated_Source\PSoC5/LED_Strip.c ****         else
 744:.\Generated_Source\PSoC5/LED_Strip.c ****         {
 745:.\Generated_Source\PSoC5/LED_Strip.c ****             size = (LED_Strip_TX_BUFFER_SIZE - LED_Strip_txBufferRead) + LED_Strip_txBufferWrite;
 746:.\Generated_Source\PSoC5/LED_Strip.c ****         }
 747:.\Generated_Source\PSoC5/LED_Strip.c **** 
 748:.\Generated_Source\PSoC5/LED_Strip.c ****         LED_Strip_EnableTxInt();
 749:.\Generated_Source\PSoC5/LED_Strip.c **** 
 750:.\Generated_Source\PSoC5/LED_Strip.c ****     #else
 751:.\Generated_Source\PSoC5/LED_Strip.c **** 
 752:.\Generated_Source\PSoC5/LED_Strip.c ****         size = LED_Strip_TX_STATUS_REG;
 378              		.loc 1 752 0
 379 0000 074B     		ldr	r3, .L40
 380 0002 1B78     		ldrb	r3, [r3]	@ zero_extendqisi2
 381 0004 DBB2     		uxtb	r3, r3
 382              	.LVL11:
 753:.\Generated_Source\PSoC5/LED_Strip.c **** 
 754:.\Generated_Source\PSoC5/LED_Strip.c ****         if(0u != (size & LED_Strip_STS_TX_FIFO_EMPTY))
 383              		.loc 1 754 0
 384 0006 13F0020F 		tst	r3, #2
 385 000a 04D1     		bne	.L38
 755:.\Generated_Source\PSoC5/LED_Strip.c ****         {
ARM GAS  C:\Users\khjtony\AppData\Local\Temp\ccleSq1F.s 			page 21


 756:.\Generated_Source\PSoC5/LED_Strip.c ****             size = 0u;
 757:.\Generated_Source\PSoC5/LED_Strip.c ****         }
 758:.\Generated_Source\PSoC5/LED_Strip.c ****         else if(0u != (size & LED_Strip_STS_TX_FIFO_NOT_FULL))
 386              		.loc 1 758 0
 387 000c 13F0040F 		tst	r3, #4
 388 0010 03D0     		beq	.L39
 759:.\Generated_Source\PSoC5/LED_Strip.c ****         {
 760:.\Generated_Source\PSoC5/LED_Strip.c ****             size = 1u;
 389              		.loc 1 760 0
 390 0012 0120     		movs	r0, #1
 391 0014 7047     		bx	lr
 392              	.L38:
 756:.\Generated_Source\PSoC5/LED_Strip.c ****             size = 0u;
 393              		.loc 1 756 0
 394 0016 0020     		movs	r0, #0
 395 0018 7047     		bx	lr
 396              	.L39:
 761:.\Generated_Source\PSoC5/LED_Strip.c ****         }
 762:.\Generated_Source\PSoC5/LED_Strip.c ****         else
 763:.\Generated_Source\PSoC5/LED_Strip.c ****         {
 764:.\Generated_Source\PSoC5/LED_Strip.c ****             size = LED_Strip_FIFO_SIZE;
 397              		.loc 1 764 0
 398 001a 0420     		movs	r0, #4
 399              	.LVL12:
 765:.\Generated_Source\PSoC5/LED_Strip.c ****         }
 766:.\Generated_Source\PSoC5/LED_Strip.c **** 
 767:.\Generated_Source\PSoC5/LED_Strip.c ****     #endif /* (LED_Strip_TX_SOFTWARE_BUF_ENABLED) */
 768:.\Generated_Source\PSoC5/LED_Strip.c **** 
 769:.\Generated_Source\PSoC5/LED_Strip.c ****     return(size);
 770:.\Generated_Source\PSoC5/LED_Strip.c **** }
 400              		.loc 1 770 0
 401 001c 7047     		bx	lr
 402              	.L41:
 403 001e 00BF     		.align	2
 404              	.L40:
 405 0020 62640040 		.word	1073767522
 406              		.cfi_endproc
 407              	.LFE15:
 408              		.size	LED_Strip_GetTxBufferSize, .-LED_Strip_GetTxBufferSize
 409              		.section	.text.LED_Strip_ClearRxBuffer,"ax",%progbits
 410              		.align	2
 411              		.global	LED_Strip_ClearRxBuffer
 412              		.thumb
 413              		.thumb_func
 414              		.type	LED_Strip_ClearRxBuffer, %function
 415              	LED_Strip_ClearRxBuffer:
 416              	.LFB16:
 771:.\Generated_Source\PSoC5/LED_Strip.c **** 
 772:.\Generated_Source\PSoC5/LED_Strip.c **** 
 773:.\Generated_Source\PSoC5/LED_Strip.c **** /*******************************************************************************
 774:.\Generated_Source\PSoC5/LED_Strip.c **** * Function Name: LED_Strip_ClearRxBuffer
 775:.\Generated_Source\PSoC5/LED_Strip.c **** ********************************************************************************
 776:.\Generated_Source\PSoC5/LED_Strip.c **** *
 777:.\Generated_Source\PSoC5/LED_Strip.c **** * Summary:
 778:.\Generated_Source\PSoC5/LED_Strip.c **** *  Clear the RX RAM buffer by setting the read and write pointers both to zero.
 779:.\Generated_Source\PSoC5/LED_Strip.c **** *
 780:.\Generated_Source\PSoC5/LED_Strip.c **** * Parameters:
ARM GAS  C:\Users\khjtony\AppData\Local\Temp\ccleSq1F.s 			page 22


 781:.\Generated_Source\PSoC5/LED_Strip.c **** *  None.
 782:.\Generated_Source\PSoC5/LED_Strip.c **** *
 783:.\Generated_Source\PSoC5/LED_Strip.c **** * Return:
 784:.\Generated_Source\PSoC5/LED_Strip.c **** *  None.
 785:.\Generated_Source\PSoC5/LED_Strip.c **** *
 786:.\Generated_Source\PSoC5/LED_Strip.c **** * Global variables:
 787:.\Generated_Source\PSoC5/LED_Strip.c **** *  LED_Strip_rxBufferWrite - used for the account of the bytes which
 788:.\Generated_Source\PSoC5/LED_Strip.c **** *  have been written down in the RX software buffer, modified every function
 789:.\Generated_Source\PSoC5/LED_Strip.c **** *  call - resets to zero.
 790:.\Generated_Source\PSoC5/LED_Strip.c **** *  LED_Strip_rxBufferRead - used for the account of the bytes which
 791:.\Generated_Source\PSoC5/LED_Strip.c **** *  have been read from the RX software buffer, modified every function call -
 792:.\Generated_Source\PSoC5/LED_Strip.c **** *  resets to zero.
 793:.\Generated_Source\PSoC5/LED_Strip.c **** *
 794:.\Generated_Source\PSoC5/LED_Strip.c **** * Theory:
 795:.\Generated_Source\PSoC5/LED_Strip.c **** *  Setting the pointers to zero makes the system believe there is no data to
 796:.\Generated_Source\PSoC5/LED_Strip.c **** *  read and writing will resume at address 0 overwriting any data that may have
 797:.\Generated_Source\PSoC5/LED_Strip.c **** *  remained in the RAM.
 798:.\Generated_Source\PSoC5/LED_Strip.c **** *
 799:.\Generated_Source\PSoC5/LED_Strip.c **** * Side Effects:
 800:.\Generated_Source\PSoC5/LED_Strip.c **** *  Any received data not read from the RAM buffer will be lost when overwritten.
 801:.\Generated_Source\PSoC5/LED_Strip.c **** *
 802:.\Generated_Source\PSoC5/LED_Strip.c **** * Reentrant:
 803:.\Generated_Source\PSoC5/LED_Strip.c **** *  No.
 804:.\Generated_Source\PSoC5/LED_Strip.c **** *
 805:.\Generated_Source\PSoC5/LED_Strip.c **** *******************************************************************************/
 806:.\Generated_Source\PSoC5/LED_Strip.c **** void LED_Strip_ClearRxBuffer(void) 
 807:.\Generated_Source\PSoC5/LED_Strip.c **** {
 417              		.loc 1 807 0
 418              		.cfi_startproc
 419              		@ args = 0, pretend = 0, frame = 0
 420              		@ frame_needed = 0, uses_anonymous_args = 0
 421              		@ link register save eliminated.
 808:.\Generated_Source\PSoC5/LED_Strip.c ****     /* Clear Hardware RX FIFO */
 809:.\Generated_Source\PSoC5/LED_Strip.c ****     while(0u !=(LED_Strip_RX_STATUS_REG & LED_Strip_STS_RX_FIFO_NOT_EMPTY))
 422              		.loc 1 809 0
 423 0000 044A     		ldr	r2, .L45
 810:.\Generated_Source\PSoC5/LED_Strip.c ****     {
 811:.\Generated_Source\PSoC5/LED_Strip.c ****         (void) CY_GET_REG8(LED_Strip_RXDATA_PTR);
 424              		.loc 1 811 0
 425 0002 0549     		ldr	r1, .L45+4
 809:.\Generated_Source\PSoC5/LED_Strip.c ****     while(0u !=(LED_Strip_RX_STATUS_REG & LED_Strip_STS_RX_FIFO_NOT_EMPTY))
 426              		.loc 1 809 0
 427 0004 00E0     		b	.L43
 428              	.L44:
 429              		.loc 1 811 0
 430 0006 0B78     		ldrb	r3, [r1]	@ zero_extendqisi2
 431              	.L43:
 809:.\Generated_Source\PSoC5/LED_Strip.c ****     while(0u !=(LED_Strip_RX_STATUS_REG & LED_Strip_STS_RX_FIFO_NOT_EMPTY))
 432              		.loc 1 809 0 discriminator 1
 433 0008 1378     		ldrb	r3, [r2]	@ zero_extendqisi2
 434 000a 13F0200F 		tst	r3, #32
 435 000e FAD1     		bne	.L44
 812:.\Generated_Source\PSoC5/LED_Strip.c ****     }
 813:.\Generated_Source\PSoC5/LED_Strip.c **** 
 814:.\Generated_Source\PSoC5/LED_Strip.c ****     #if(LED_Strip_RX_SOFTWARE_BUF_ENABLED)
 815:.\Generated_Source\PSoC5/LED_Strip.c ****         /* Disable RX interrupt to protect global veriables */
 816:.\Generated_Source\PSoC5/LED_Strip.c ****         LED_Strip_DisableRxInt();
ARM GAS  C:\Users\khjtony\AppData\Local\Temp\ccleSq1F.s 			page 23


 817:.\Generated_Source\PSoC5/LED_Strip.c **** 
 818:.\Generated_Source\PSoC5/LED_Strip.c ****         LED_Strip_rxBufferFull  = 0u;
 819:.\Generated_Source\PSoC5/LED_Strip.c ****         LED_Strip_rxBufferRead  = 0u;
 820:.\Generated_Source\PSoC5/LED_Strip.c ****         LED_Strip_rxBufferWrite = 0u;
 821:.\Generated_Source\PSoC5/LED_Strip.c **** 
 822:.\Generated_Source\PSoC5/LED_Strip.c ****         LED_Strip_EnableRxInt();
 823:.\Generated_Source\PSoC5/LED_Strip.c ****     #endif /* (LED_Strip_RX_SOFTWARE_BUF_ENABLED) */
 824:.\Generated_Source\PSoC5/LED_Strip.c **** }
 436              		.loc 1 824 0
 437 0010 7047     		bx	lr
 438              	.L46:
 439 0012 00BF     		.align	2
 440              	.L45:
 441 0014 63640040 		.word	1073767523
 442 0018 51640040 		.word	1073767505
 443              		.cfi_endproc
 444              	.LFE16:
 445              		.size	LED_Strip_ClearRxBuffer, .-LED_Strip_ClearRxBuffer
 446              		.section	.text.LED_Strip_ClearTxBuffer,"ax",%progbits
 447              		.align	2
 448              		.global	LED_Strip_ClearTxBuffer
 449              		.thumb
 450              		.thumb_func
 451              		.type	LED_Strip_ClearTxBuffer, %function
 452              	LED_Strip_ClearTxBuffer:
 453              	.LFB17:
 825:.\Generated_Source\PSoC5/LED_Strip.c **** 
 826:.\Generated_Source\PSoC5/LED_Strip.c **** 
 827:.\Generated_Source\PSoC5/LED_Strip.c **** /*******************************************************************************
 828:.\Generated_Source\PSoC5/LED_Strip.c **** * Function Name: LED_Strip_ClearTxBuffer
 829:.\Generated_Source\PSoC5/LED_Strip.c **** ********************************************************************************
 830:.\Generated_Source\PSoC5/LED_Strip.c **** *
 831:.\Generated_Source\PSoC5/LED_Strip.c **** * Summary:
 832:.\Generated_Source\PSoC5/LED_Strip.c **** *  Clear the TX RAM buffer by setting the read and write pointers both to zero.
 833:.\Generated_Source\PSoC5/LED_Strip.c **** *
 834:.\Generated_Source\PSoC5/LED_Strip.c **** * Parameters:
 835:.\Generated_Source\PSoC5/LED_Strip.c **** *  None.
 836:.\Generated_Source\PSoC5/LED_Strip.c **** *
 837:.\Generated_Source\PSoC5/LED_Strip.c **** * Return:
 838:.\Generated_Source\PSoC5/LED_Strip.c **** *  None.
 839:.\Generated_Source\PSoC5/LED_Strip.c **** *
 840:.\Generated_Source\PSoC5/LED_Strip.c **** * Global variables:
 841:.\Generated_Source\PSoC5/LED_Strip.c **** *  LED_Strip_txBufferWrite - used for the account of the bytes which
 842:.\Generated_Source\PSoC5/LED_Strip.c **** *  have been written down in the TX software buffer, modified every function
 843:.\Generated_Source\PSoC5/LED_Strip.c **** *  call - resets to zero.
 844:.\Generated_Source\PSoC5/LED_Strip.c **** *  LED_Strip_txBufferRead - used for the account of the bytes which
 845:.\Generated_Source\PSoC5/LED_Strip.c **** *  have been read from the TX software buffer, modified every function call -
 846:.\Generated_Source\PSoC5/LED_Strip.c **** *  resets to zero.
 847:.\Generated_Source\PSoC5/LED_Strip.c **** *
 848:.\Generated_Source\PSoC5/LED_Strip.c **** * Theory:
 849:.\Generated_Source\PSoC5/LED_Strip.c **** *  Setting the pointers to zero makes the system believe there is no data to
 850:.\Generated_Source\PSoC5/LED_Strip.c **** *  read and writing will resume at address 0 overwriting any data that may have
 851:.\Generated_Source\PSoC5/LED_Strip.c **** *  remained in the RAM.
 852:.\Generated_Source\PSoC5/LED_Strip.c **** *
 853:.\Generated_Source\PSoC5/LED_Strip.c **** * Side Effects:
 854:.\Generated_Source\PSoC5/LED_Strip.c **** *  Any data not yet transmitted from the RAM buffer will be lost when
 855:.\Generated_Source\PSoC5/LED_Strip.c **** *  overwritten.
ARM GAS  C:\Users\khjtony\AppData\Local\Temp\ccleSq1F.s 			page 24


 856:.\Generated_Source\PSoC5/LED_Strip.c **** *
 857:.\Generated_Source\PSoC5/LED_Strip.c **** * Reentrant:
 858:.\Generated_Source\PSoC5/LED_Strip.c **** *  No.
 859:.\Generated_Source\PSoC5/LED_Strip.c **** *
 860:.\Generated_Source\PSoC5/LED_Strip.c **** *******************************************************************************/
 861:.\Generated_Source\PSoC5/LED_Strip.c **** void LED_Strip_ClearTxBuffer(void) 
 862:.\Generated_Source\PSoC5/LED_Strip.c **** {
 454              		.loc 1 862 0
 455              		.cfi_startproc
 456              		@ args = 0, pretend = 0, frame = 0
 457              		@ frame_needed = 0, uses_anonymous_args = 0
 458 0000 08B5     		push	{r3, lr}
 459              		.cfi_def_cfa_offset 8
 460              		.cfi_offset 3, -8
 461              		.cfi_offset 14, -4
 863:.\Generated_Source\PSoC5/LED_Strip.c ****     uint8 enableInterrupts;
 864:.\Generated_Source\PSoC5/LED_Strip.c **** 
 865:.\Generated_Source\PSoC5/LED_Strip.c ****     enableInterrupts = CyEnterCriticalSection();
 462              		.loc 1 865 0
 463 0002 FFF7FEFF 		bl	CyEnterCriticalSection
 464              	.LVL13:
 866:.\Generated_Source\PSoC5/LED_Strip.c ****     /* Clear TX FIFO */
 867:.\Generated_Source\PSoC5/LED_Strip.c ****     LED_Strip_AUX_CONTROL_DP0_REG |= ((uint8)  LED_Strip_TX_FIFO_CLR);
 465              		.loc 1 867 0
 466 0006 064B     		ldr	r3, .L48
 467 0008 1A78     		ldrb	r2, [r3]	@ zero_extendqisi2
 468 000a 42F00102 		orr	r2, r2, #1
 469 000e 1A70     		strb	r2, [r3]
 868:.\Generated_Source\PSoC5/LED_Strip.c ****     LED_Strip_AUX_CONTROL_DP0_REG &= ((uint8) ~LED_Strip_TX_FIFO_CLR);
 470              		.loc 1 868 0
 471 0010 1A78     		ldrb	r2, [r3]	@ zero_extendqisi2
 472 0012 02F0FE02 		and	r2, r2, #254
 473 0016 1A70     		strb	r2, [r3]
 869:.\Generated_Source\PSoC5/LED_Strip.c **** 
 870:.\Generated_Source\PSoC5/LED_Strip.c ****     #if(LED_Strip_USE_SECOND_DATAPATH)
 871:.\Generated_Source\PSoC5/LED_Strip.c ****         /* Clear TX FIFO for 2nd Datapath */
 872:.\Generated_Source\PSoC5/LED_Strip.c ****         LED_Strip_AUX_CONTROL_DP1_REG |= ((uint8)  LED_Strip_TX_FIFO_CLR);
 873:.\Generated_Source\PSoC5/LED_Strip.c ****         LED_Strip_AUX_CONTROL_DP1_REG &= ((uint8) ~LED_Strip_TX_FIFO_CLR);
 874:.\Generated_Source\PSoC5/LED_Strip.c ****     #endif /* (LED_Strip_USE_SECOND_DATAPATH) */
 875:.\Generated_Source\PSoC5/LED_Strip.c ****     CyExitCriticalSection(enableInterrupts);
 474              		.loc 1 875 0
 475 0018 FFF7FEFF 		bl	CyExitCriticalSection
 476              	.LVL14:
 477 001c 08BD     		pop	{r3, pc}
 478              	.L49:
 479 001e 00BF     		.align	2
 480              	.L48:
 481 0020 91640040 		.word	1073767569
 482              		.cfi_endproc
 483              	.LFE17:
 484              		.size	LED_Strip_ClearTxBuffer, .-LED_Strip_ClearTxBuffer
 485              		.section	.text.LED_Strip_PutArray,"ax",%progbits
 486              		.align	2
 487              		.global	LED_Strip_PutArray
 488              		.thumb
 489              		.thumb_func
 490              		.type	LED_Strip_PutArray, %function
ARM GAS  C:\Users\khjtony\AppData\Local\Temp\ccleSq1F.s 			page 25


 491              	LED_Strip_PutArray:
 492              	.LFB18:
 876:.\Generated_Source\PSoC5/LED_Strip.c **** 
 877:.\Generated_Source\PSoC5/LED_Strip.c ****     #if(LED_Strip_TX_SOFTWARE_BUF_ENABLED)
 878:.\Generated_Source\PSoC5/LED_Strip.c ****         /* Disable TX interrupt to protect global veriables */
 879:.\Generated_Source\PSoC5/LED_Strip.c ****         LED_Strip_DisableTxInt();
 880:.\Generated_Source\PSoC5/LED_Strip.c **** 
 881:.\Generated_Source\PSoC5/LED_Strip.c ****         LED_Strip_txBufferFull  = 0u;
 882:.\Generated_Source\PSoC5/LED_Strip.c ****         LED_Strip_txBufferRead  = 0u;
 883:.\Generated_Source\PSoC5/LED_Strip.c ****         LED_Strip_txBufferWrite = 0u;
 884:.\Generated_Source\PSoC5/LED_Strip.c **** 
 885:.\Generated_Source\PSoC5/LED_Strip.c ****         /* Buffer is EMPTY: disable TX FIFO NOT FULL interrupt */
 886:.\Generated_Source\PSoC5/LED_Strip.c ****         LED_Strip_TX_STATUS_MASK_REG &= ((uint8) ~LED_Strip_STS_TX_FIFO_NOT_FULL);
 887:.\Generated_Source\PSoC5/LED_Strip.c **** 
 888:.\Generated_Source\PSoC5/LED_Strip.c ****         LED_Strip_EnableTxInt();
 889:.\Generated_Source\PSoC5/LED_Strip.c ****     #endif /* (LED_Strip_TX_SOFTWARE_BUF_ENABLED) */
 890:.\Generated_Source\PSoC5/LED_Strip.c **** }
 891:.\Generated_Source\PSoC5/LED_Strip.c **** 
 892:.\Generated_Source\PSoC5/LED_Strip.c **** 
 893:.\Generated_Source\PSoC5/LED_Strip.c **** #if(0u != LED_Strip_BIDIRECTIONAL_MODE)
 894:.\Generated_Source\PSoC5/LED_Strip.c ****     /*******************************************************************************
 895:.\Generated_Source\PSoC5/LED_Strip.c ****     * Function Name: LED_Strip_TxEnable
 896:.\Generated_Source\PSoC5/LED_Strip.c ****     ********************************************************************************
 897:.\Generated_Source\PSoC5/LED_Strip.c ****     *
 898:.\Generated_Source\PSoC5/LED_Strip.c ****     * Summary:
 899:.\Generated_Source\PSoC5/LED_Strip.c ****     *  If the SPI master is configured to use a single bi-directional pin then this
 900:.\Generated_Source\PSoC5/LED_Strip.c ****     *  will set the bi-directional pin to transmit.
 901:.\Generated_Source\PSoC5/LED_Strip.c ****     *
 902:.\Generated_Source\PSoC5/LED_Strip.c ****     * Parameters:
 903:.\Generated_Source\PSoC5/LED_Strip.c ****     *  None.
 904:.\Generated_Source\PSoC5/LED_Strip.c ****     *
 905:.\Generated_Source\PSoC5/LED_Strip.c ****     * Return:
 906:.\Generated_Source\PSoC5/LED_Strip.c ****     *  None.
 907:.\Generated_Source\PSoC5/LED_Strip.c ****     *
 908:.\Generated_Source\PSoC5/LED_Strip.c ****     *******************************************************************************/
 909:.\Generated_Source\PSoC5/LED_Strip.c ****     void LED_Strip_TxEnable(void) 
 910:.\Generated_Source\PSoC5/LED_Strip.c ****     {
 911:.\Generated_Source\PSoC5/LED_Strip.c ****         LED_Strip_CONTROL_REG |= LED_Strip_CTRL_TX_SIGNAL_EN;
 912:.\Generated_Source\PSoC5/LED_Strip.c ****     }
 913:.\Generated_Source\PSoC5/LED_Strip.c **** 
 914:.\Generated_Source\PSoC5/LED_Strip.c **** 
 915:.\Generated_Source\PSoC5/LED_Strip.c ****     /*******************************************************************************
 916:.\Generated_Source\PSoC5/LED_Strip.c ****     * Function Name: LED_Strip_TxDisable
 917:.\Generated_Source\PSoC5/LED_Strip.c ****     ********************************************************************************
 918:.\Generated_Source\PSoC5/LED_Strip.c ****     *
 919:.\Generated_Source\PSoC5/LED_Strip.c ****     * Summary:
 920:.\Generated_Source\PSoC5/LED_Strip.c ****     *  If the SPI master is configured to use a single bi-directional pin then this
 921:.\Generated_Source\PSoC5/LED_Strip.c ****     *  will set the bi-directional pin to receive.
 922:.\Generated_Source\PSoC5/LED_Strip.c ****     *
 923:.\Generated_Source\PSoC5/LED_Strip.c ****     * Parameters:
 924:.\Generated_Source\PSoC5/LED_Strip.c ****     *  None.
 925:.\Generated_Source\PSoC5/LED_Strip.c ****     *
 926:.\Generated_Source\PSoC5/LED_Strip.c ****     * Return:
 927:.\Generated_Source\PSoC5/LED_Strip.c ****     *  None.
 928:.\Generated_Source\PSoC5/LED_Strip.c ****     *
 929:.\Generated_Source\PSoC5/LED_Strip.c ****     *******************************************************************************/
 930:.\Generated_Source\PSoC5/LED_Strip.c ****     void LED_Strip_TxDisable(void) 
ARM GAS  C:\Users\khjtony\AppData\Local\Temp\ccleSq1F.s 			page 26


 931:.\Generated_Source\PSoC5/LED_Strip.c ****     {
 932:.\Generated_Source\PSoC5/LED_Strip.c ****         LED_Strip_CONTROL_REG &= ((uint8) ~LED_Strip_CTRL_TX_SIGNAL_EN);
 933:.\Generated_Source\PSoC5/LED_Strip.c ****     }
 934:.\Generated_Source\PSoC5/LED_Strip.c **** 
 935:.\Generated_Source\PSoC5/LED_Strip.c **** #endif /* (0u != LED_Strip_BIDIRECTIONAL_MODE) */
 936:.\Generated_Source\PSoC5/LED_Strip.c **** 
 937:.\Generated_Source\PSoC5/LED_Strip.c **** 
 938:.\Generated_Source\PSoC5/LED_Strip.c **** /*******************************************************************************
 939:.\Generated_Source\PSoC5/LED_Strip.c **** * Function Name: LED_Strip_PutArray
 940:.\Generated_Source\PSoC5/LED_Strip.c **** ********************************************************************************
 941:.\Generated_Source\PSoC5/LED_Strip.c **** *
 942:.\Generated_Source\PSoC5/LED_Strip.c **** * Summary:
 943:.\Generated_Source\PSoC5/LED_Strip.c **** *  Write available data from ROM/RAM to the TX buffer while space is available
 944:.\Generated_Source\PSoC5/LED_Strip.c **** *  in the TX buffer. Keep trying until all data is passed to the TX buffer.
 945:.\Generated_Source\PSoC5/LED_Strip.c **** *
 946:.\Generated_Source\PSoC5/LED_Strip.c **** * Parameters:
 947:.\Generated_Source\PSoC5/LED_Strip.c **** *  *buffer: Pointer to the location in RAM containing the data to send
 948:.\Generated_Source\PSoC5/LED_Strip.c **** *  byteCount: The number of bytes to move to the transmit buffer.
 949:.\Generated_Source\PSoC5/LED_Strip.c **** *
 950:.\Generated_Source\PSoC5/LED_Strip.c **** * Return:
 951:.\Generated_Source\PSoC5/LED_Strip.c **** *  None.
 952:.\Generated_Source\PSoC5/LED_Strip.c **** *
 953:.\Generated_Source\PSoC5/LED_Strip.c **** * Side Effects:
 954:.\Generated_Source\PSoC5/LED_Strip.c **** *  Will stay in this routine until all data has been sent.  May get locked in
 955:.\Generated_Source\PSoC5/LED_Strip.c **** *  this loop if data is not being initiated by the master if there is not
 956:.\Generated_Source\PSoC5/LED_Strip.c **** *  enough room in the TX FIFO.
 957:.\Generated_Source\PSoC5/LED_Strip.c **** *
 958:.\Generated_Source\PSoC5/LED_Strip.c **** * Reentrant:
 959:.\Generated_Source\PSoC5/LED_Strip.c **** *  No.
 960:.\Generated_Source\PSoC5/LED_Strip.c **** *
 961:.\Generated_Source\PSoC5/LED_Strip.c **** *******************************************************************************/
 962:.\Generated_Source\PSoC5/LED_Strip.c **** void LED_Strip_PutArray(const uint8 buffer[], uint8 byteCount)
 963:.\Generated_Source\PSoC5/LED_Strip.c ****                                                                           
 964:.\Generated_Source\PSoC5/LED_Strip.c **** {
 493              		.loc 1 964 0
 494              		.cfi_startproc
 495              		@ args = 0, pretend = 0, frame = 0
 496              		@ frame_needed = 0, uses_anonymous_args = 0
 497              	.LVL15:
 498 0000 70B5     		push	{r4, r5, r6, lr}
 499              		.cfi_def_cfa_offset 16
 500              		.cfi_offset 4, -16
 501              		.cfi_offset 5, -12
 502              		.cfi_offset 6, -8
 503              		.cfi_offset 14, -4
 504 0002 0646     		mov	r6, r0
 505 0004 0C46     		mov	r4, r1
 506              	.LVL16:
 965:.\Generated_Source\PSoC5/LED_Strip.c ****     uint8 bufIndex;
 966:.\Generated_Source\PSoC5/LED_Strip.c **** 
 967:.\Generated_Source\PSoC5/LED_Strip.c ****     bufIndex = 0u;
 507              		.loc 1 967 0
 508 0006 0025     		movs	r5, #0
 968:.\Generated_Source\PSoC5/LED_Strip.c **** 
 969:.\Generated_Source\PSoC5/LED_Strip.c ****     while(byteCount > 0u)
 509              		.loc 1 969 0
 510 0008 06E0     		b	.L51
ARM GAS  C:\Users\khjtony\AppData\Local\Temp\ccleSq1F.s 			page 27


 511              	.LVL17:
 512              	.L52:
 970:.\Generated_Source\PSoC5/LED_Strip.c ****     {
 971:.\Generated_Source\PSoC5/LED_Strip.c ****         LED_Strip_WriteTxData(buffer[bufIndex]);
 513              		.loc 1 971 0
 514 000a 705D     		ldrb	r0, [r6, r5]	@ zero_extendqisi2
 515 000c FFF7FEFF 		bl	LED_Strip_WriteTxData
 516              	.LVL18:
 972:.\Generated_Source\PSoC5/LED_Strip.c ****         bufIndex++;
 517              		.loc 1 972 0
 518 0010 0135     		adds	r5, r5, #1
 519              	.LVL19:
 520 0012 EDB2     		uxtb	r5, r5
 521              	.LVL20:
 973:.\Generated_Source\PSoC5/LED_Strip.c ****         byteCount--;
 522              		.loc 1 973 0
 523 0014 013C     		subs	r4, r4, #1
 524              	.LVL21:
 525 0016 E4B2     		uxtb	r4, r4
 526              	.LVL22:
 527              	.L51:
 969:.\Generated_Source\PSoC5/LED_Strip.c ****     while(byteCount > 0u)
 528              		.loc 1 969 0 discriminator 1
 529 0018 002C     		cmp	r4, #0
 530 001a F6D1     		bne	.L52
 974:.\Generated_Source\PSoC5/LED_Strip.c ****     }
 975:.\Generated_Source\PSoC5/LED_Strip.c **** }
 531              		.loc 1 975 0
 532 001c 70BD     		pop	{r4, r5, r6, pc}
 533              		.cfi_endproc
 534              	.LFE18:
 535              		.size	LED_Strip_PutArray, .-LED_Strip_PutArray
 536 001e 00BF     		.section	.text.LED_Strip_ClearFIFO,"ax",%progbits
 537              		.align	2
 538              		.global	LED_Strip_ClearFIFO
 539              		.thumb
 540              		.thumb_func
 541              		.type	LED_Strip_ClearFIFO, %function
 542              	LED_Strip_ClearFIFO:
 543              	.LFB19:
 976:.\Generated_Source\PSoC5/LED_Strip.c **** 
 977:.\Generated_Source\PSoC5/LED_Strip.c **** 
 978:.\Generated_Source\PSoC5/LED_Strip.c **** /*******************************************************************************
 979:.\Generated_Source\PSoC5/LED_Strip.c **** * Function Name: LED_Strip_ClearFIFO
 980:.\Generated_Source\PSoC5/LED_Strip.c **** ********************************************************************************
 981:.\Generated_Source\PSoC5/LED_Strip.c **** *
 982:.\Generated_Source\PSoC5/LED_Strip.c **** * Summary:
 983:.\Generated_Source\PSoC5/LED_Strip.c **** *  Clear the RX and TX FIFO's of all data for a fresh start.
 984:.\Generated_Source\PSoC5/LED_Strip.c **** *
 985:.\Generated_Source\PSoC5/LED_Strip.c **** * Parameters:
 986:.\Generated_Source\PSoC5/LED_Strip.c **** *  None.
 987:.\Generated_Source\PSoC5/LED_Strip.c **** *
 988:.\Generated_Source\PSoC5/LED_Strip.c **** * Return:
 989:.\Generated_Source\PSoC5/LED_Strip.c **** *  None.
 990:.\Generated_Source\PSoC5/LED_Strip.c **** *
 991:.\Generated_Source\PSoC5/LED_Strip.c **** * Side Effects:
 992:.\Generated_Source\PSoC5/LED_Strip.c **** *  Clear status register of the component.
ARM GAS  C:\Users\khjtony\AppData\Local\Temp\ccleSq1F.s 			page 28


 993:.\Generated_Source\PSoC5/LED_Strip.c **** *
 994:.\Generated_Source\PSoC5/LED_Strip.c **** *******************************************************************************/
 995:.\Generated_Source\PSoC5/LED_Strip.c **** void LED_Strip_ClearFIFO(void) 
 996:.\Generated_Source\PSoC5/LED_Strip.c **** {
 544              		.loc 1 996 0
 545              		.cfi_startproc
 546              		@ args = 0, pretend = 0, frame = 0
 547              		@ frame_needed = 0, uses_anonymous_args = 0
 548 0000 08B5     		push	{r3, lr}
 549              		.cfi_def_cfa_offset 8
 550              		.cfi_offset 3, -8
 551              		.cfi_offset 14, -4
 997:.\Generated_Source\PSoC5/LED_Strip.c ****     uint8 enableInterrupts;
 998:.\Generated_Source\PSoC5/LED_Strip.c **** 
 999:.\Generated_Source\PSoC5/LED_Strip.c ****     /* Clear Hardware RX FIFO */
1000:.\Generated_Source\PSoC5/LED_Strip.c ****     while(0u !=(LED_Strip_RX_STATUS_REG & LED_Strip_STS_RX_FIFO_NOT_EMPTY))
 552              		.loc 1 1000 0
 553 0002 0B4A     		ldr	r2, .L56
1001:.\Generated_Source\PSoC5/LED_Strip.c ****     {
1002:.\Generated_Source\PSoC5/LED_Strip.c ****         (void) CY_GET_REG8(LED_Strip_RXDATA_PTR);
 554              		.loc 1 1002 0
 555 0004 0B49     		ldr	r1, .L56+4
1000:.\Generated_Source\PSoC5/LED_Strip.c ****     while(0u !=(LED_Strip_RX_STATUS_REG & LED_Strip_STS_RX_FIFO_NOT_EMPTY))
 556              		.loc 1 1000 0
 557 0006 00E0     		b	.L54
 558              	.L55:
 559              		.loc 1 1002 0
 560 0008 0B78     		ldrb	r3, [r1]	@ zero_extendqisi2
 561              	.L54:
1000:.\Generated_Source\PSoC5/LED_Strip.c ****     while(0u !=(LED_Strip_RX_STATUS_REG & LED_Strip_STS_RX_FIFO_NOT_EMPTY))
 562              		.loc 1 1000 0 discriminator 1
 563 000a 1378     		ldrb	r3, [r2]	@ zero_extendqisi2
 564 000c 13F0200F 		tst	r3, #32
 565 0010 FAD1     		bne	.L55
1003:.\Generated_Source\PSoC5/LED_Strip.c ****     }
1004:.\Generated_Source\PSoC5/LED_Strip.c **** 
1005:.\Generated_Source\PSoC5/LED_Strip.c ****     enableInterrupts = CyEnterCriticalSection();
 566              		.loc 1 1005 0
 567 0012 FFF7FEFF 		bl	CyEnterCriticalSection
 568              	.LVL23:
1006:.\Generated_Source\PSoC5/LED_Strip.c ****     /* Clear TX FIFO */
1007:.\Generated_Source\PSoC5/LED_Strip.c ****     LED_Strip_AUX_CONTROL_DP0_REG |= ((uint8)  LED_Strip_TX_FIFO_CLR);
 569              		.loc 1 1007 0
 570 0016 084B     		ldr	r3, .L56+8
 571 0018 1A78     		ldrb	r2, [r3]	@ zero_extendqisi2
 572 001a 42F00102 		orr	r2, r2, #1
 573 001e 1A70     		strb	r2, [r3]
1008:.\Generated_Source\PSoC5/LED_Strip.c ****     LED_Strip_AUX_CONTROL_DP0_REG &= ((uint8) ~LED_Strip_TX_FIFO_CLR);
 574              		.loc 1 1008 0
 575 0020 1A78     		ldrb	r2, [r3]	@ zero_extendqisi2
 576 0022 02F0FE02 		and	r2, r2, #254
 577 0026 1A70     		strb	r2, [r3]
1009:.\Generated_Source\PSoC5/LED_Strip.c **** 
1010:.\Generated_Source\PSoC5/LED_Strip.c ****     #if(LED_Strip_USE_SECOND_DATAPATH)
1011:.\Generated_Source\PSoC5/LED_Strip.c ****         /* Clear TX FIFO for 2nd Datapath */
1012:.\Generated_Source\PSoC5/LED_Strip.c ****         LED_Strip_AUX_CONTROL_DP1_REG |= ((uint8)  LED_Strip_TX_FIFO_CLR);
1013:.\Generated_Source\PSoC5/LED_Strip.c ****         LED_Strip_AUX_CONTROL_DP1_REG &= ((uint8) ~LED_Strip_TX_FIFO_CLR);
ARM GAS  C:\Users\khjtony\AppData\Local\Temp\ccleSq1F.s 			page 29


1014:.\Generated_Source\PSoC5/LED_Strip.c ****     #endif /* (LED_Strip_USE_SECOND_DATAPATH) */
1015:.\Generated_Source\PSoC5/LED_Strip.c ****     CyExitCriticalSection(enableInterrupts);
 578              		.loc 1 1015 0
 579 0028 FFF7FEFF 		bl	CyExitCriticalSection
 580              	.LVL24:
 581 002c 08BD     		pop	{r3, pc}
 582              	.L57:
 583 002e 00BF     		.align	2
 584              	.L56:
 585 0030 63640040 		.word	1073767523
 586 0034 51640040 		.word	1073767505
 587 0038 91640040 		.word	1073767569
 588              		.cfi_endproc
 589              	.LFE19:
 590              		.size	LED_Strip_ClearFIFO, .-LED_Strip_ClearFIFO
 591              		.section	.text.LED_Strip_Init,"ax",%progbits
 592              		.align	2
 593              		.global	LED_Strip_Init
 594              		.thumb
 595              		.thumb_func
 596              		.type	LED_Strip_Init, %function
 597              	LED_Strip_Init:
 598              	.LFB0:
  64:.\Generated_Source\PSoC5/LED_Strip.c **** {
 599              		.loc 1 64 0
 600              		.cfi_startproc
 601              		@ args = 0, pretend = 0, frame = 0
 602              		@ frame_needed = 0, uses_anonymous_args = 0
 603 0000 08B5     		push	{r3, lr}
 604              		.cfi_def_cfa_offset 8
 605              		.cfi_offset 3, -8
 606              		.cfi_offset 14, -4
  66:.\Generated_Source\PSoC5/LED_Strip.c ****     LED_Strip_COUNTER_PERIOD_REG = LED_Strip_BITCTR_INIT;
 607              		.loc 1 66 0
 608 0002 0F22     		movs	r2, #15
 609 0004 064B     		ldr	r3, .L59
 610 0006 1A70     		strb	r2, [r3]
  83:.\Generated_Source\PSoC5/LED_Strip.c ****     LED_Strip_ClearFIFO();
 611              		.loc 1 83 0
 612 0008 FFF7FEFF 		bl	LED_Strip_ClearFIFO
 613              	.LVL25:
  97:.\Generated_Source\PSoC5/LED_Strip.c ****     (void) LED_Strip_ReadTxStatus(); /* Clear Tx status and swStatusTx */
 614              		.loc 1 97 0
 615 000c FFF7FEFF 		bl	LED_Strip_ReadTxStatus
 616              	.LVL26:
  98:.\Generated_Source\PSoC5/LED_Strip.c ****     (void) LED_Strip_ReadRxStatus(); /* Clear Rx status and swStatusRx */
 617              		.loc 1 98 0
 618 0010 FFF7FEFF 		bl	LED_Strip_ReadRxStatus
 619              	.LVL27:
 101:.\Generated_Source\PSoC5/LED_Strip.c ****     LED_Strip_TX_STATUS_MASK_REG = LED_Strip_TX_INIT_INTERRUPTS_MASK;
 620              		.loc 1 101 0
 621 0014 0023     		movs	r3, #0
 622 0016 034A     		ldr	r2, .L59+4
 623 0018 1370     		strb	r3, [r2]
 102:.\Generated_Source\PSoC5/LED_Strip.c ****     LED_Strip_RX_STATUS_MASK_REG = LED_Strip_RX_INIT_INTERRUPTS_MASK;
 624              		.loc 1 102 0
 625 001a 0132     		adds	r2, r2, #1
ARM GAS  C:\Users\khjtony\AppData\Local\Temp\ccleSq1F.s 			page 30


 626 001c 1370     		strb	r3, [r2]
 627 001e 08BD     		pop	{r3, pc}
 628              	.L60:
 629              		.align	2
 630              	.L59:
 631 0020 80640040 		.word	1073767552
 632 0024 82640040 		.word	1073767554
 633              		.cfi_endproc
 634              	.LFE0:
 635              		.size	LED_Strip_Init, .-LED_Strip_Init
 636              		.section	.text.LED_Strip_Start,"ax",%progbits
 637              		.align	2
 638              		.global	LED_Strip_Start
 639              		.thumb
 640              		.thumb_func
 641              		.type	LED_Strip_Start, %function
 642              	LED_Strip_Start:
 643              	.LFB2:
 164:.\Generated_Source\PSoC5/LED_Strip.c **** {
 644              		.loc 1 164 0
 645              		.cfi_startproc
 646              		@ args = 0, pretend = 0, frame = 0
 647              		@ frame_needed = 0, uses_anonymous_args = 0
 648 0000 08B5     		push	{r3, lr}
 649              		.cfi_def_cfa_offset 8
 650              		.cfi_offset 3, -8
 651              		.cfi_offset 14, -4
 165:.\Generated_Source\PSoC5/LED_Strip.c ****     if(0u == LED_Strip_initVar)
 652              		.loc 1 165 0
 653 0002 054B     		ldr	r3, .L63
 654 0004 1B78     		ldrb	r3, [r3]	@ zero_extendqisi2
 655 0006 23B9     		cbnz	r3, .L62
 167:.\Generated_Source\PSoC5/LED_Strip.c ****         LED_Strip_Init();
 656              		.loc 1 167 0
 657 0008 FFF7FEFF 		bl	LED_Strip_Init
 658              	.LVL28:
 168:.\Generated_Source\PSoC5/LED_Strip.c ****         LED_Strip_initVar = 1u;
 659              		.loc 1 168 0
 660 000c 0122     		movs	r2, #1
 661 000e 024B     		ldr	r3, .L63
 662 0010 1A70     		strb	r2, [r3]
 663              	.L62:
 171:.\Generated_Source\PSoC5/LED_Strip.c ****     LED_Strip_Enable();
 664              		.loc 1 171 0
 665 0012 FFF7FEFF 		bl	LED_Strip_Enable
 666              	.LVL29:
 667 0016 08BD     		pop	{r3, pc}
 668              	.L64:
 669              		.align	2
 670              	.L63:
 671 0018 00000000 		.word	.LANCHOR0
 672              		.cfi_endproc
 673              	.LFE2:
 674              		.size	LED_Strip_Start, .-LED_Strip_Start
 675              		.section	.text.LED_Strip_EnableInt,"ax",%progbits
 676              		.align	2
 677              		.global	LED_Strip_EnableInt
ARM GAS  C:\Users\khjtony\AppData\Local\Temp\ccleSq1F.s 			page 31


 678              		.thumb
 679              		.thumb_func
 680              		.type	LED_Strip_EnableInt, %function
 681              	LED_Strip_EnableInt:
 682              	.LFB20:
1016:.\Generated_Source\PSoC5/LED_Strip.c **** }
1017:.\Generated_Source\PSoC5/LED_Strip.c **** 
1018:.\Generated_Source\PSoC5/LED_Strip.c **** 
1019:.\Generated_Source\PSoC5/LED_Strip.c **** /* Following functions are for version Compatibility, they are obsolete.
1020:.\Generated_Source\PSoC5/LED_Strip.c **** *  Please do not use it in new projects.
1021:.\Generated_Source\PSoC5/LED_Strip.c **** */
1022:.\Generated_Source\PSoC5/LED_Strip.c **** 
1023:.\Generated_Source\PSoC5/LED_Strip.c **** 
1024:.\Generated_Source\PSoC5/LED_Strip.c **** /*******************************************************************************
1025:.\Generated_Source\PSoC5/LED_Strip.c **** * Function Name: LED_Strip_EnableInt
1026:.\Generated_Source\PSoC5/LED_Strip.c **** ********************************************************************************
1027:.\Generated_Source\PSoC5/LED_Strip.c **** *
1028:.\Generated_Source\PSoC5/LED_Strip.c **** * Summary:
1029:.\Generated_Source\PSoC5/LED_Strip.c **** *  Enable internal interrupt generation.
1030:.\Generated_Source\PSoC5/LED_Strip.c **** *
1031:.\Generated_Source\PSoC5/LED_Strip.c **** * Parameters:
1032:.\Generated_Source\PSoC5/LED_Strip.c **** *  None.
1033:.\Generated_Source\PSoC5/LED_Strip.c **** *
1034:.\Generated_Source\PSoC5/LED_Strip.c **** * Return:
1035:.\Generated_Source\PSoC5/LED_Strip.c **** *  None.
1036:.\Generated_Source\PSoC5/LED_Strip.c **** *
1037:.\Generated_Source\PSoC5/LED_Strip.c **** * Theory:
1038:.\Generated_Source\PSoC5/LED_Strip.c **** *  Enable the internal interrupt output -or- the interrupt component itself.
1039:.\Generated_Source\PSoC5/LED_Strip.c **** *
1040:.\Generated_Source\PSoC5/LED_Strip.c **** *******************************************************************************/
1041:.\Generated_Source\PSoC5/LED_Strip.c **** void LED_Strip_EnableInt(void) 
1042:.\Generated_Source\PSoC5/LED_Strip.c **** {
 683              		.loc 1 1042 0
 684              		.cfi_startproc
 685              		@ args = 0, pretend = 0, frame = 0
 686              		@ frame_needed = 0, uses_anonymous_args = 0
 687              		@ link register save eliminated.
 688 0000 7047     		bx	lr
 689              		.cfi_endproc
 690              	.LFE20:
 691              		.size	LED_Strip_EnableInt, .-LED_Strip_EnableInt
 692 0002 00BF     		.section	.text.LED_Strip_DisableInt,"ax",%progbits
 693              		.align	2
 694              		.global	LED_Strip_DisableInt
 695              		.thumb
 696              		.thumb_func
 697              		.type	LED_Strip_DisableInt, %function
 698              	LED_Strip_DisableInt:
 699              	.LFB21:
1043:.\Generated_Source\PSoC5/LED_Strip.c ****     LED_Strip_EnableRxInt();
1044:.\Generated_Source\PSoC5/LED_Strip.c ****     LED_Strip_EnableTxInt();
1045:.\Generated_Source\PSoC5/LED_Strip.c **** }
1046:.\Generated_Source\PSoC5/LED_Strip.c **** 
1047:.\Generated_Source\PSoC5/LED_Strip.c **** 
1048:.\Generated_Source\PSoC5/LED_Strip.c **** /*******************************************************************************
1049:.\Generated_Source\PSoC5/LED_Strip.c **** * Function Name: LED_Strip_DisableInt
1050:.\Generated_Source\PSoC5/LED_Strip.c **** ********************************************************************************
ARM GAS  C:\Users\khjtony\AppData\Local\Temp\ccleSq1F.s 			page 32


1051:.\Generated_Source\PSoC5/LED_Strip.c **** *
1052:.\Generated_Source\PSoC5/LED_Strip.c **** * Summary:
1053:.\Generated_Source\PSoC5/LED_Strip.c **** *  Disable internal interrupt generation.
1054:.\Generated_Source\PSoC5/LED_Strip.c **** *
1055:.\Generated_Source\PSoC5/LED_Strip.c **** * Parameters:
1056:.\Generated_Source\PSoC5/LED_Strip.c **** *  None.
1057:.\Generated_Source\PSoC5/LED_Strip.c **** *
1058:.\Generated_Source\PSoC5/LED_Strip.c **** * Return:
1059:.\Generated_Source\PSoC5/LED_Strip.c **** *  None.
1060:.\Generated_Source\PSoC5/LED_Strip.c **** *
1061:.\Generated_Source\PSoC5/LED_Strip.c **** * Theory:
1062:.\Generated_Source\PSoC5/LED_Strip.c **** *  Disable the internal interrupt output -or- the interrupt component itself.
1063:.\Generated_Source\PSoC5/LED_Strip.c **** *
1064:.\Generated_Source\PSoC5/LED_Strip.c **** *******************************************************************************/
1065:.\Generated_Source\PSoC5/LED_Strip.c **** void LED_Strip_DisableInt(void) 
1066:.\Generated_Source\PSoC5/LED_Strip.c **** {
 700              		.loc 1 1066 0
 701              		.cfi_startproc
 702              		@ args = 0, pretend = 0, frame = 0
 703              		@ frame_needed = 0, uses_anonymous_args = 0
 704              		@ link register save eliminated.
 705 0000 7047     		bx	lr
 706              		.cfi_endproc
 707              	.LFE21:
 708              		.size	LED_Strip_DisableInt, .-LED_Strip_DisableInt
 709 0002 00BF     		.section	.text.LED_Strip_SetInterruptMode,"ax",%progbits
 710              		.align	2
 711              		.global	LED_Strip_SetInterruptMode
 712              		.thumb
 713              		.thumb_func
 714              		.type	LED_Strip_SetInterruptMode, %function
 715              	LED_Strip_SetInterruptMode:
 716              	.LFB22:
1067:.\Generated_Source\PSoC5/LED_Strip.c ****     LED_Strip_DisableTxInt();
1068:.\Generated_Source\PSoC5/LED_Strip.c ****     LED_Strip_DisableRxInt();
1069:.\Generated_Source\PSoC5/LED_Strip.c **** }
1070:.\Generated_Source\PSoC5/LED_Strip.c **** 
1071:.\Generated_Source\PSoC5/LED_Strip.c **** 
1072:.\Generated_Source\PSoC5/LED_Strip.c **** /*******************************************************************************
1073:.\Generated_Source\PSoC5/LED_Strip.c **** * Function Name: LED_Strip_SetInterruptMode
1074:.\Generated_Source\PSoC5/LED_Strip.c **** ********************************************************************************
1075:.\Generated_Source\PSoC5/LED_Strip.c **** *
1076:.\Generated_Source\PSoC5/LED_Strip.c **** * Summary:
1077:.\Generated_Source\PSoC5/LED_Strip.c **** *  Configure which status bits trigger an interrupt event.
1078:.\Generated_Source\PSoC5/LED_Strip.c **** *
1079:.\Generated_Source\PSoC5/LED_Strip.c **** * Parameters:
1080:.\Generated_Source\PSoC5/LED_Strip.c **** *  intSrc: An or'd combination of the desired status bit masks (defined in the
1081:.\Generated_Source\PSoC5/LED_Strip.c **** *  header file).
1082:.\Generated_Source\PSoC5/LED_Strip.c **** *
1083:.\Generated_Source\PSoC5/LED_Strip.c **** * Return:
1084:.\Generated_Source\PSoC5/LED_Strip.c **** *  None.
1085:.\Generated_Source\PSoC5/LED_Strip.c **** *
1086:.\Generated_Source\PSoC5/LED_Strip.c **** * Theory:
1087:.\Generated_Source\PSoC5/LED_Strip.c **** *  Enables the output of specific status bits to the interrupt controller.
1088:.\Generated_Source\PSoC5/LED_Strip.c **** *
1089:.\Generated_Source\PSoC5/LED_Strip.c **** *******************************************************************************/
1090:.\Generated_Source\PSoC5/LED_Strip.c **** void LED_Strip_SetInterruptMode(uint8 intSrc) 
ARM GAS  C:\Users\khjtony\AppData\Local\Temp\ccleSq1F.s 			page 33


1091:.\Generated_Source\PSoC5/LED_Strip.c **** {
 717              		.loc 1 1091 0
 718              		.cfi_startproc
 719              		@ args = 0, pretend = 0, frame = 0
 720              		@ frame_needed = 0, uses_anonymous_args = 0
 721              		@ link register save eliminated.
 722              	.LVL30:
1092:.\Generated_Source\PSoC5/LED_Strip.c ****     LED_Strip_TX_STATUS_MASK_REG  = (intSrc & ((uint8) ~LED_Strip_STS_SPI_IDLE));
 723              		.loc 1 1092 0
 724 0000 00F0EF02 		and	r2, r0, #239
 725 0004 024B     		ldr	r3, .L68
 726 0006 1A70     		strb	r2, [r3]
1093:.\Generated_Source\PSoC5/LED_Strip.c ****     LED_Strip_RX_STATUS_MASK_REG  =  intSrc;
 727              		.loc 1 1093 0
 728 0008 0133     		adds	r3, r3, #1
 729 000a 1870     		strb	r0, [r3]
 730 000c 7047     		bx	lr
 731              	.L69:
 732 000e 00BF     		.align	2
 733              	.L68:
 734 0010 82640040 		.word	1073767554
 735              		.cfi_endproc
 736              	.LFE22:
 737              		.size	LED_Strip_SetInterruptMode, .-LED_Strip_SetInterruptMode
 738              		.section	.text.LED_Strip_ReadStatus,"ax",%progbits
 739              		.align	2
 740              		.global	LED_Strip_ReadStatus
 741              		.thumb
 742              		.thumb_func
 743              		.type	LED_Strip_ReadStatus, %function
 744              	LED_Strip_ReadStatus:
 745              	.LFB23:
1094:.\Generated_Source\PSoC5/LED_Strip.c **** }
1095:.\Generated_Source\PSoC5/LED_Strip.c **** 
1096:.\Generated_Source\PSoC5/LED_Strip.c **** 
1097:.\Generated_Source\PSoC5/LED_Strip.c **** /*******************************************************************************
1098:.\Generated_Source\PSoC5/LED_Strip.c **** * Function Name: LED_Strip_ReadStatus
1099:.\Generated_Source\PSoC5/LED_Strip.c **** ********************************************************************************
1100:.\Generated_Source\PSoC5/LED_Strip.c **** *
1101:.\Generated_Source\PSoC5/LED_Strip.c **** * Summary:
1102:.\Generated_Source\PSoC5/LED_Strip.c **** *  Read the status register for the component.
1103:.\Generated_Source\PSoC5/LED_Strip.c **** *
1104:.\Generated_Source\PSoC5/LED_Strip.c **** * Parameters:
1105:.\Generated_Source\PSoC5/LED_Strip.c **** *  None.
1106:.\Generated_Source\PSoC5/LED_Strip.c **** *
1107:.\Generated_Source\PSoC5/LED_Strip.c **** * Return:
1108:.\Generated_Source\PSoC5/LED_Strip.c **** *  Contents of the status register.
1109:.\Generated_Source\PSoC5/LED_Strip.c **** *
1110:.\Generated_Source\PSoC5/LED_Strip.c **** * Global variables:
1111:.\Generated_Source\PSoC5/LED_Strip.c **** *  LED_Strip_swStatus - used to store in software status register,
1112:.\Generated_Source\PSoC5/LED_Strip.c **** *  modified every function call - resets to zero.
1113:.\Generated_Source\PSoC5/LED_Strip.c **** *
1114:.\Generated_Source\PSoC5/LED_Strip.c **** * Theory:
1115:.\Generated_Source\PSoC5/LED_Strip.c **** *  Allows the user and the API to read the status register for error detection
1116:.\Generated_Source\PSoC5/LED_Strip.c **** *  and flow control.
1117:.\Generated_Source\PSoC5/LED_Strip.c **** *
1118:.\Generated_Source\PSoC5/LED_Strip.c **** * Side Effects:
ARM GAS  C:\Users\khjtony\AppData\Local\Temp\ccleSq1F.s 			page 34


1119:.\Generated_Source\PSoC5/LED_Strip.c **** *  Clear status register of the component.
1120:.\Generated_Source\PSoC5/LED_Strip.c **** *
1121:.\Generated_Source\PSoC5/LED_Strip.c **** * Reentrant:
1122:.\Generated_Source\PSoC5/LED_Strip.c **** *  No.
1123:.\Generated_Source\PSoC5/LED_Strip.c **** *
1124:.\Generated_Source\PSoC5/LED_Strip.c **** *******************************************************************************/
1125:.\Generated_Source\PSoC5/LED_Strip.c **** uint8 LED_Strip_ReadStatus(void) 
1126:.\Generated_Source\PSoC5/LED_Strip.c **** {
 746              		.loc 1 1126 0
 747              		.cfi_startproc
 748              		@ args = 0, pretend = 0, frame = 0
 749              		@ frame_needed = 0, uses_anonymous_args = 0
 750              		@ link register save eliminated.
1127:.\Generated_Source\PSoC5/LED_Strip.c ****     uint8 tmpStatus;
1128:.\Generated_Source\PSoC5/LED_Strip.c **** 
1129:.\Generated_Source\PSoC5/LED_Strip.c ****     #if(LED_Strip_TX_SOFTWARE_BUF_ENABLED || LED_Strip_RX_SOFTWARE_BUF_ENABLED)
1130:.\Generated_Source\PSoC5/LED_Strip.c **** 
1131:.\Generated_Source\PSoC5/LED_Strip.c ****         LED_Strip_DisableInt();
1132:.\Generated_Source\PSoC5/LED_Strip.c **** 
1133:.\Generated_Source\PSoC5/LED_Strip.c ****         tmpStatus  = LED_Strip_GET_STATUS_RX(LED_Strip_swStatusRx);
1134:.\Generated_Source\PSoC5/LED_Strip.c ****         tmpStatus |= LED_Strip_GET_STATUS_TX(LED_Strip_swStatusTx);
1135:.\Generated_Source\PSoC5/LED_Strip.c ****         tmpStatus &= ((uint8) ~LED_Strip_STS_SPI_IDLE);
1136:.\Generated_Source\PSoC5/LED_Strip.c **** 
1137:.\Generated_Source\PSoC5/LED_Strip.c ****         LED_Strip_swStatusTx = 0u;
1138:.\Generated_Source\PSoC5/LED_Strip.c ****         LED_Strip_swStatusRx = 0u;
1139:.\Generated_Source\PSoC5/LED_Strip.c **** 
1140:.\Generated_Source\PSoC5/LED_Strip.c ****         LED_Strip_EnableInt();
1141:.\Generated_Source\PSoC5/LED_Strip.c **** 
1142:.\Generated_Source\PSoC5/LED_Strip.c ****     #else
1143:.\Generated_Source\PSoC5/LED_Strip.c **** 
1144:.\Generated_Source\PSoC5/LED_Strip.c ****         tmpStatus  = LED_Strip_RX_STATUS_REG;
 751              		.loc 1 1144 0
 752 0000 034B     		ldr	r3, .L71
 753 0002 1B78     		ldrb	r3, [r3]	@ zero_extendqisi2
 754              	.LVL31:
1145:.\Generated_Source\PSoC5/LED_Strip.c ****         tmpStatus |= LED_Strip_TX_STATUS_REG;
 755              		.loc 1 1145 0
 756 0004 034A     		ldr	r2, .L71+4
 757 0006 1078     		ldrb	r0, [r2]	@ zero_extendqisi2
 758 0008 1843     		orrs	r0, r0, r3
 759              	.LVL32:
1146:.\Generated_Source\PSoC5/LED_Strip.c ****         tmpStatus &= ((uint8) ~LED_Strip_STS_SPI_IDLE);
1147:.\Generated_Source\PSoC5/LED_Strip.c **** 
1148:.\Generated_Source\PSoC5/LED_Strip.c ****     #endif /* (LED_Strip_TX_SOFTWARE_BUF_ENABLED || LED_Strip_RX_SOFTWARE_BUF_ENABLED) */
1149:.\Generated_Source\PSoC5/LED_Strip.c **** 
1150:.\Generated_Source\PSoC5/LED_Strip.c ****     return(tmpStatus);
1151:.\Generated_Source\PSoC5/LED_Strip.c **** }
 760              		.loc 1 1151 0
 761 000a 00F0EF00 		and	r0, r0, #239
 762              	.LVL33:
 763 000e 7047     		bx	lr
 764              	.L72:
 765              		.align	2
 766              	.L71:
 767 0010 63640040 		.word	1073767523
 768 0014 62640040 		.word	1073767522
 769              		.cfi_endproc
ARM GAS  C:\Users\khjtony\AppData\Local\Temp\ccleSq1F.s 			page 35


 770              	.LFE23:
 771              		.size	LED_Strip_ReadStatus, .-LED_Strip_ReadStatus
 772              		.comm	LED_Strip_swStatusRx,1,1
 773              		.comm	LED_Strip_swStatusTx,1,1
 774              		.global	LED_Strip_initVar
 775              		.bss
 776              		.set	.LANCHOR0,. + 0
 777              		.type	LED_Strip_initVar, %object
 778              		.size	LED_Strip_initVar, 1
 779              	LED_Strip_initVar:
 780 0000 00       		.space	1
 781              		.text
 782              	.Letext0:
 783              		.file 2 ".\\Generated_Source\\PSoC5\\cytypes.h"
 784              		.file 3 ".\\Generated_Source\\PSoC5\\CyLib.h"